ARM GAS  C:\Users\ADMINI~1\AppData\Local\Temp\ccwoXhw8.s 			page 1


   1              		.cpu cortex-m4
   2              		.arch armv7e-m
   3              		.fpu fpv4-sp-d16
   4              		.eabi_attribute 27, 1
   5              		.eabi_attribute 28, 1
   6              		.eabi_attribute 20, 1
   7              		.eabi_attribute 21, 1
   8              		.eabi_attribute 23, 3
   9              		.eabi_attribute 24, 1
  10              		.eabi_attribute 25, 1
  11              		.eabi_attribute 26, 1
  12              		.eabi_attribute 30, 1
  13              		.eabi_attribute 34, 1
  14              		.eabi_attribute 18, 4
  15              		.file	"usbd_cdc_if.c"
  16              		.text
  17              	.Ltext0:
  18              		.cfi_sections	.debug_frame
  19              		.section	.text.CDC_DeInit_FS,"ax",%progbits
  20              		.align	1
  21              		.syntax unified
  22              		.thumb
  23              		.thumb_func
  25              	CDC_DeInit_FS:
  26              	.LFB135:
  27              		.file 1 "Src/usbd_cdc_if.c"
   1:Src/usbd_cdc_if.c **** /* USER CODE BEGIN Header */
   2:Src/usbd_cdc_if.c **** /**
   3:Src/usbd_cdc_if.c ****   ******************************************************************************
   4:Src/usbd_cdc_if.c ****   * @file           : usbd_cdc_if.c
   5:Src/usbd_cdc_if.c ****   * @version        : v1.0_Cube
   6:Src/usbd_cdc_if.c ****   * @brief          : Usb device for Virtual Com Port.
   7:Src/usbd_cdc_if.c ****   ******************************************************************************
   8:Src/usbd_cdc_if.c ****   * @attention
   9:Src/usbd_cdc_if.c ****   *
  10:Src/usbd_cdc_if.c ****   * Copyright (c) 2022 STMicroelectronics.
  11:Src/usbd_cdc_if.c ****   * All rights reserved.
  12:Src/usbd_cdc_if.c ****   *
  13:Src/usbd_cdc_if.c ****   * This software is licensed under terms that can be found in the LICENSE file
  14:Src/usbd_cdc_if.c ****   * in the root directory of this software component.
  15:Src/usbd_cdc_if.c ****   * If no LICENSE file comes with this software, it is provided AS-IS.
  16:Src/usbd_cdc_if.c ****   *
  17:Src/usbd_cdc_if.c ****   ******************************************************************************
  18:Src/usbd_cdc_if.c ****   */
  19:Src/usbd_cdc_if.c **** /* USER CODE END Header */
  20:Src/usbd_cdc_if.c **** 
  21:Src/usbd_cdc_if.c **** /* Includes ------------------------------------------------------------------*/
  22:Src/usbd_cdc_if.c **** #include "usbd_cdc_if.h"
  23:Src/usbd_cdc_if.c **** 
  24:Src/usbd_cdc_if.c **** /* USER CODE BEGIN INCLUDE */
  25:Src/usbd_cdc_if.c **** #include <stdio.h>
  26:Src/usbd_cdc_if.c **** /* USER CODE END INCLUDE */
  27:Src/usbd_cdc_if.c **** 
  28:Src/usbd_cdc_if.c **** /* Private typedef -----------------------------------------------------------*/
  29:Src/usbd_cdc_if.c **** /* Private define ------------------------------------------------------------*/
  30:Src/usbd_cdc_if.c **** /* Private macro -------------------------------------------------------------*/
  31:Src/usbd_cdc_if.c **** 
ARM GAS  C:\Users\ADMINI~1\AppData\Local\Temp\ccwoXhw8.s 			page 2


  32:Src/usbd_cdc_if.c **** /* USER CODE BEGIN PV */
  33:Src/usbd_cdc_if.c **** /* Private variables ---------------------------------------------------------*/
  34:Src/usbd_cdc_if.c **** 
  35:Src/usbd_cdc_if.c **** /* USER CODE END PV */
  36:Src/usbd_cdc_if.c **** 
  37:Src/usbd_cdc_if.c **** /** @addtogroup STM32_USB_OTG_DEVICE_LIBRARY
  38:Src/usbd_cdc_if.c ****   * @brief Usb device library.
  39:Src/usbd_cdc_if.c ****   * @{
  40:Src/usbd_cdc_if.c ****   */
  41:Src/usbd_cdc_if.c **** 
  42:Src/usbd_cdc_if.c **** /** @addtogroup USBD_CDC_IF
  43:Src/usbd_cdc_if.c ****   * @{
  44:Src/usbd_cdc_if.c ****   */
  45:Src/usbd_cdc_if.c **** 
  46:Src/usbd_cdc_if.c **** /** @defgroup USBD_CDC_IF_Private_TypesDefinitions USBD_CDC_IF_Private_TypesDefinitions
  47:Src/usbd_cdc_if.c ****   * @brief Private types.
  48:Src/usbd_cdc_if.c ****   * @{
  49:Src/usbd_cdc_if.c ****   */
  50:Src/usbd_cdc_if.c **** 
  51:Src/usbd_cdc_if.c **** /* USER CODE BEGIN PRIVATE_TYPES */
  52:Src/usbd_cdc_if.c **** 
  53:Src/usbd_cdc_if.c **** /* USER CODE END PRIVATE_TYPES */
  54:Src/usbd_cdc_if.c **** 
  55:Src/usbd_cdc_if.c **** /**
  56:Src/usbd_cdc_if.c ****   * @}
  57:Src/usbd_cdc_if.c ****   */
  58:Src/usbd_cdc_if.c **** 
  59:Src/usbd_cdc_if.c **** /** @defgroup USBD_CDC_IF_Private_Defines USBD_CDC_IF_Private_Defines
  60:Src/usbd_cdc_if.c ****   * @brief Private defines.
  61:Src/usbd_cdc_if.c ****   * @{
  62:Src/usbd_cdc_if.c ****   */
  63:Src/usbd_cdc_if.c **** 
  64:Src/usbd_cdc_if.c **** /* USER CODE BEGIN PRIVATE_DEFINES */
  65:Src/usbd_cdc_if.c **** /* USER CODE END PRIVATE_DEFINES */
  66:Src/usbd_cdc_if.c **** 
  67:Src/usbd_cdc_if.c **** /**
  68:Src/usbd_cdc_if.c ****   * @}
  69:Src/usbd_cdc_if.c ****   */
  70:Src/usbd_cdc_if.c **** 
  71:Src/usbd_cdc_if.c **** /** @defgroup USBD_CDC_IF_Private_Macros USBD_CDC_IF_Private_Macros
  72:Src/usbd_cdc_if.c ****   * @brief Private macros.
  73:Src/usbd_cdc_if.c ****   * @{
  74:Src/usbd_cdc_if.c ****   */
  75:Src/usbd_cdc_if.c **** 
  76:Src/usbd_cdc_if.c **** /* USER CODE BEGIN PRIVATE_MACRO */
  77:Src/usbd_cdc_if.c **** 
  78:Src/usbd_cdc_if.c **** /* USER CODE END PRIVATE_MACRO */
  79:Src/usbd_cdc_if.c **** 
  80:Src/usbd_cdc_if.c **** /**
  81:Src/usbd_cdc_if.c ****   * @}
  82:Src/usbd_cdc_if.c ****   */
  83:Src/usbd_cdc_if.c **** 
  84:Src/usbd_cdc_if.c **** /** @defgroup USBD_CDC_IF_Private_Variables USBD_CDC_IF_Private_Variables
  85:Src/usbd_cdc_if.c ****   * @brief Private variables.
  86:Src/usbd_cdc_if.c ****   * @{
  87:Src/usbd_cdc_if.c ****   */
  88:Src/usbd_cdc_if.c **** /* Create buffer for reception and transmission           */
ARM GAS  C:\Users\ADMINI~1\AppData\Local\Temp\ccwoXhw8.s 			page 3


  89:Src/usbd_cdc_if.c **** /* It's up to user to redefine and/or remove those define */
  90:Src/usbd_cdc_if.c **** /** Received data over USB are stored in this buffer      */
  91:Src/usbd_cdc_if.c **** uint8_t CDCRxBufferFS[APP_RX_DATA_SIZE];
  92:Src/usbd_cdc_if.c **** uint8_t ODRIVERxBufferFS[APP_RX_DATA_SIZE];
  93:Src/usbd_cdc_if.c **** 
  94:Src/usbd_cdc_if.c **** /** Data to send over USB CDC are stored in this buffer   */
  95:Src/usbd_cdc_if.c **** uint8_t CDCTxBufferFS[APP_TX_DATA_SIZE];
  96:Src/usbd_cdc_if.c **** uint8_t ODRIVETxBufferFS[APP_TX_DATA_SIZE];
  97:Src/usbd_cdc_if.c **** 
  98:Src/usbd_cdc_if.c **** /* USER CODE BEGIN PRIVATE_VARIABLES */
  99:Src/usbd_cdc_if.c **** 
 100:Src/usbd_cdc_if.c **** /* USER CODE END PRIVATE_VARIABLES */
 101:Src/usbd_cdc_if.c **** 
 102:Src/usbd_cdc_if.c **** /**
 103:Src/usbd_cdc_if.c ****   * @}
 104:Src/usbd_cdc_if.c ****   */
 105:Src/usbd_cdc_if.c **** 
 106:Src/usbd_cdc_if.c **** /** @defgroup USBD_CDC_IF_Exported_Variables USBD_CDC_IF_Exported_Variables
 107:Src/usbd_cdc_if.c ****   * @brief Public variables.
 108:Src/usbd_cdc_if.c ****   * @{
 109:Src/usbd_cdc_if.c ****   */
 110:Src/usbd_cdc_if.c **** 
 111:Src/usbd_cdc_if.c **** extern USBD_HandleTypeDef hUsbDeviceFS;
 112:Src/usbd_cdc_if.c **** 
 113:Src/usbd_cdc_if.c **** /* USER CODE BEGIN EXPORTED_VARIABLES */
 114:Src/usbd_cdc_if.c **** 
 115:Src/usbd_cdc_if.c **** /* USER CODE END EXPORTED_VARIABLES */
 116:Src/usbd_cdc_if.c **** 
 117:Src/usbd_cdc_if.c **** /**
 118:Src/usbd_cdc_if.c ****   * @}
 119:Src/usbd_cdc_if.c ****   */
 120:Src/usbd_cdc_if.c **** 
 121:Src/usbd_cdc_if.c **** /** @defgroup USBD_CDC_IF_Private_FunctionPrototypes USBD_CDC_IF_Private_FunctionPrototypes
 122:Src/usbd_cdc_if.c ****   * @brief Private functions declaration.
 123:Src/usbd_cdc_if.c ****   * @{
 124:Src/usbd_cdc_if.c ****   */
 125:Src/usbd_cdc_if.c **** 
 126:Src/usbd_cdc_if.c **** static int8_t CDC_Init_FS(void);
 127:Src/usbd_cdc_if.c **** static int8_t CDC_DeInit_FS(void);
 128:Src/usbd_cdc_if.c **** static int8_t CDC_Control_FS(uint8_t cmd, uint8_t* pbuf, uint16_t length);
 129:Src/usbd_cdc_if.c **** // static int8_t CDC_Receive_FS(uint8_t* pbuf, uint32_t *Len);
 130:Src/usbd_cdc_if.c **** static int8_t CDC_TransmitCplt_FS(uint8_t *pbuf, uint32_t *Len, uint8_t epnum);
 131:Src/usbd_cdc_if.c **** static int8_t CDC_Receive_FS(uint8_t* pbuf, uint32_t *Len, uint8_t endpoint_pair);
 132:Src/usbd_cdc_if.c **** /* USER CODE BEGIN PRIVATE_FUNCTIONS_DECLARATION */
 133:Src/usbd_cdc_if.c **** 
 134:Src/usbd_cdc_if.c **** /* USER CODE END PRIVATE_FUNCTIONS_DECLARATION */
 135:Src/usbd_cdc_if.c **** 
 136:Src/usbd_cdc_if.c **** /**
 137:Src/usbd_cdc_if.c ****   * @}
 138:Src/usbd_cdc_if.c ****   */
 139:Src/usbd_cdc_if.c **** 
 140:Src/usbd_cdc_if.c **** USBD_CDC_ItfTypeDef USBD_Interface_fops_FS =
 141:Src/usbd_cdc_if.c **** {
 142:Src/usbd_cdc_if.c ****   CDC_Init_FS,
 143:Src/usbd_cdc_if.c ****   CDC_DeInit_FS,
 144:Src/usbd_cdc_if.c ****   CDC_Control_FS,
 145:Src/usbd_cdc_if.c ****   CDC_Receive_FS,
ARM GAS  C:\Users\ADMINI~1\AppData\Local\Temp\ccwoXhw8.s 			page 4


 146:Src/usbd_cdc_if.c ****   CDC_TransmitCplt_FS
 147:Src/usbd_cdc_if.c **** };
 148:Src/usbd_cdc_if.c **** 
 149:Src/usbd_cdc_if.c **** /* Private functions ---------------------------------------------------------*/
 150:Src/usbd_cdc_if.c **** /**
 151:Src/usbd_cdc_if.c ****   * @brief  Initializes the CDC media low layer over the FS USB IP
 152:Src/usbd_cdc_if.c ****   * @retval USBD_OK if all operations are OK else USBD_FAIL
 153:Src/usbd_cdc_if.c ****   */
 154:Src/usbd_cdc_if.c **** static int8_t CDC_Init_FS(void)
 155:Src/usbd_cdc_if.c **** {
 156:Src/usbd_cdc_if.c ****   /* USER CODE BEGIN 3 */
 157:Src/usbd_cdc_if.c ****   /* Set Application Buffers */
 158:Src/usbd_cdc_if.c ****   // USBD_CDC_SetTxBuffer(&hUsbDeviceFS, UserTxBufferFS, 0);
 159:Src/usbd_cdc_if.c ****   // USBD_CDC_SetRxBuffer(&hUsbDeviceFS, UserRxBufferFS);
 160:Src/usbd_cdc_if.c ****   USBD_CDC_SetTxBuffer(&hUsbDeviceFS, CDCTxBufferFS, 0, CDC_IN_EP);
 161:Src/usbd_cdc_if.c ****   USBD_CDC_SetRxBuffer(&hUsbDeviceFS, CDCRxBufferFS, CDC_OUT_EP);
 162:Src/usbd_cdc_if.c ****   USBD_CDC_SetTxBuffer(&hUsbDeviceFS, ODRIVETxBufferFS, 0, ODRIVE_IN_EP);
 163:Src/usbd_cdc_if.c ****   USBD_CDC_SetRxBuffer(&hUsbDeviceFS, ODRIVERxBufferFS, ODRIVE_OUT_EP);
 164:Src/usbd_cdc_if.c ****   return (USBD_OK);
 165:Src/usbd_cdc_if.c ****   /* USER CODE END 3 */
 166:Src/usbd_cdc_if.c **** }
 167:Src/usbd_cdc_if.c **** 
 168:Src/usbd_cdc_if.c **** /**
 169:Src/usbd_cdc_if.c ****   * @brief  DeInitializes the CDC media low layer
 170:Src/usbd_cdc_if.c ****   * @retval USBD_OK if all operations are OK else USBD_FAIL
 171:Src/usbd_cdc_if.c ****   */
 172:Src/usbd_cdc_if.c **** static int8_t CDC_DeInit_FS(void)
 173:Src/usbd_cdc_if.c **** {
  28              		.loc 1 173 1 view -0
  29              		.cfi_startproc
  30              		@ args = 0, pretend = 0, frame = 0
  31              		@ frame_needed = 0, uses_anonymous_args = 0
  32              		@ link register save eliminated.
 174:Src/usbd_cdc_if.c ****   /* USER CODE BEGIN 4 */
 175:Src/usbd_cdc_if.c ****   return (USBD_OK);
  33              		.loc 1 175 3 view .LVU1
 176:Src/usbd_cdc_if.c ****   /* USER CODE END 4 */
 177:Src/usbd_cdc_if.c **** }
  34              		.loc 1 177 1 is_stmt 0 view .LVU2
  35 0000 0020     		movs	r0, #0
  36 0002 7047     		bx	lr
  37              		.cfi_endproc
  38              	.LFE135:
  40              		.section	.text.CDC_Control_FS,"ax",%progbits
  41              		.align	1
  42              		.syntax unified
  43              		.thumb
  44              		.thumb_func
  46              	CDC_Control_FS:
  47              	.LVL0:
  48              	.LFB136:
 178:Src/usbd_cdc_if.c **** 
 179:Src/usbd_cdc_if.c **** /**
 180:Src/usbd_cdc_if.c ****   * @brief  Manage the CDC class requests
 181:Src/usbd_cdc_if.c ****   * @param  cmd: Command code
 182:Src/usbd_cdc_if.c ****   * @param  pbuf: Buffer containing command data (request parameters)
 183:Src/usbd_cdc_if.c ****   * @param  length: Number of data to be sent (in bytes)
ARM GAS  C:\Users\ADMINI~1\AppData\Local\Temp\ccwoXhw8.s 			page 5


 184:Src/usbd_cdc_if.c ****   * @retval Result of the operation: USBD_OK if all operations are OK else USBD_FAIL
 185:Src/usbd_cdc_if.c ****   */
 186:Src/usbd_cdc_if.c **** static int8_t CDC_Control_FS(uint8_t cmd, uint8_t* pbuf, uint16_t length)
 187:Src/usbd_cdc_if.c **** {
  49              		.loc 1 187 1 is_stmt 1 view -0
  50              		.cfi_startproc
  51              		@ args = 0, pretend = 0, frame = 0
  52              		@ frame_needed = 0, uses_anonymous_args = 0
  53              		@ link register save eliminated.
 188:Src/usbd_cdc_if.c ****   /* USER CODE BEGIN 5 */
 189:Src/usbd_cdc_if.c ****   switch(cmd)
  54              		.loc 1 189 3 view .LVU4
  55 0000 2128     		cmp	r0, #33
  56 0002 01D0     		beq	.L4
  57              	.LVL1:
  58              	.L3:
 190:Src/usbd_cdc_if.c ****   {
 191:Src/usbd_cdc_if.c ****     case CDC_SEND_ENCAPSULATED_COMMAND:
 192:Src/usbd_cdc_if.c **** 
 193:Src/usbd_cdc_if.c ****     break;
 194:Src/usbd_cdc_if.c **** 
 195:Src/usbd_cdc_if.c ****     case CDC_GET_ENCAPSULATED_RESPONSE:
 196:Src/usbd_cdc_if.c **** 
 197:Src/usbd_cdc_if.c ****     break;
 198:Src/usbd_cdc_if.c **** 
 199:Src/usbd_cdc_if.c ****     case CDC_SET_COMM_FEATURE:
 200:Src/usbd_cdc_if.c **** 
 201:Src/usbd_cdc_if.c ****     break;
 202:Src/usbd_cdc_if.c **** 
 203:Src/usbd_cdc_if.c ****     case CDC_GET_COMM_FEATURE:
 204:Src/usbd_cdc_if.c **** 
 205:Src/usbd_cdc_if.c ****     break;
 206:Src/usbd_cdc_if.c **** 
 207:Src/usbd_cdc_if.c ****     case CDC_CLEAR_COMM_FEATURE:
 208:Src/usbd_cdc_if.c **** 
 209:Src/usbd_cdc_if.c ****     break;
 210:Src/usbd_cdc_if.c **** 
 211:Src/usbd_cdc_if.c ****   /*******************************************************************************/
 212:Src/usbd_cdc_if.c ****   /* Line Coding Structure                                                       */
 213:Src/usbd_cdc_if.c ****   /*-----------------------------------------------------------------------------*/
 214:Src/usbd_cdc_if.c ****   /* Offset | Field       | Size | Value  | Description                          */
 215:Src/usbd_cdc_if.c ****   /* 0      | dwDTERate   |   4  | Number |Data terminal rate, in bits per second*/
 216:Src/usbd_cdc_if.c ****   /* 4      | bCharFormat |   1  | Number | Stop bits                            */
 217:Src/usbd_cdc_if.c ****   /*                                        0 - 1 Stop bit                       */
 218:Src/usbd_cdc_if.c ****   /*                                        1 - 1.5 Stop bits                    */
 219:Src/usbd_cdc_if.c ****   /*                                        2 - 2 Stop bits                      */
 220:Src/usbd_cdc_if.c ****   /* 5      | bParityType |  1   | Number | Parity                               */
 221:Src/usbd_cdc_if.c ****   /*                                        0 - None                             */
 222:Src/usbd_cdc_if.c ****   /*                                        1 - Odd                              */
 223:Src/usbd_cdc_if.c ****   /*                                        2 - Even                             */
 224:Src/usbd_cdc_if.c ****   /*                                        3 - Mark                             */
 225:Src/usbd_cdc_if.c ****   /*                                        4 - Space                            */
 226:Src/usbd_cdc_if.c ****   /* 6      | bDataBits  |   1   | Number Data bits (5, 6, 7, 8 or 16).          */
 227:Src/usbd_cdc_if.c ****   /*******************************************************************************/
 228:Src/usbd_cdc_if.c ****     case CDC_SET_LINE_CODING:
 229:Src/usbd_cdc_if.c **** 
 230:Src/usbd_cdc_if.c ****     break;
ARM GAS  C:\Users\ADMINI~1\AppData\Local\Temp\ccwoXhw8.s 			page 6


 231:Src/usbd_cdc_if.c **** 
 232:Src/usbd_cdc_if.c ****     case CDC_GET_LINE_CODING:
 233:Src/usbd_cdc_if.c ****     pbuf[0] = (uint8_t)(115200);
 234:Src/usbd_cdc_if.c ****     pbuf[1] = (uint8_t)(115200 >> 8);
 235:Src/usbd_cdc_if.c ****     pbuf[2] = (uint8_t)(115200 >> 16);
 236:Src/usbd_cdc_if.c ****     pbuf[3] = (uint8_t)(115200 >> 24);
 237:Src/usbd_cdc_if.c ****     pbuf[4] = 0;  // stop bits (1)
 238:Src/usbd_cdc_if.c ****     pbuf[5] = 0;  // parity (none)
 239:Src/usbd_cdc_if.c ****     pbuf[6] = 8;  // number of bits (8)
 240:Src/usbd_cdc_if.c ****     break;
 241:Src/usbd_cdc_if.c **** 
 242:Src/usbd_cdc_if.c ****     case CDC_SET_CONTROL_LINE_STATE:
 243:Src/usbd_cdc_if.c **** 
 244:Src/usbd_cdc_if.c ****     break;
 245:Src/usbd_cdc_if.c **** 
 246:Src/usbd_cdc_if.c ****     case CDC_SEND_BREAK:
 247:Src/usbd_cdc_if.c **** 
 248:Src/usbd_cdc_if.c ****     break;
 249:Src/usbd_cdc_if.c **** 
 250:Src/usbd_cdc_if.c ****   default:
 251:Src/usbd_cdc_if.c ****     break;
 252:Src/usbd_cdc_if.c ****   }
 253:Src/usbd_cdc_if.c **** 
 254:Src/usbd_cdc_if.c ****   return (USBD_OK);
  59              		.loc 1 254 3 view .LVU5
 255:Src/usbd_cdc_if.c ****   /* USER CODE END 5 */
 256:Src/usbd_cdc_if.c **** }
  60              		.loc 1 256 1 is_stmt 0 view .LVU6
  61 0004 0020     		movs	r0, #0
  62              	.LVL2:
  63              		.loc 1 256 1 view .LVU7
  64 0006 7047     		bx	lr
  65              	.LVL3:
  66              	.L4:
 233:Src/usbd_cdc_if.c ****     pbuf[1] = (uint8_t)(115200 >> 8);
  67              		.loc 1 233 5 is_stmt 1 view .LVU8
 233:Src/usbd_cdc_if.c ****     pbuf[1] = (uint8_t)(115200 >> 8);
  68              		.loc 1 233 13 is_stmt 0 view .LVU9
  69 0008 0023     		movs	r3, #0
  70 000a 0B70     		strb	r3, [r1]
 234:Src/usbd_cdc_if.c ****     pbuf[2] = (uint8_t)(115200 >> 16);
  71              		.loc 1 234 5 is_stmt 1 view .LVU10
 234:Src/usbd_cdc_if.c ****     pbuf[2] = (uint8_t)(115200 >> 16);
  72              		.loc 1 234 13 is_stmt 0 view .LVU11
  73 000c C222     		movs	r2, #194
  74              	.LVL4:
 234:Src/usbd_cdc_if.c ****     pbuf[2] = (uint8_t)(115200 >> 16);
  75              		.loc 1 234 13 view .LVU12
  76 000e 4A70     		strb	r2, [r1, #1]
 235:Src/usbd_cdc_if.c ****     pbuf[3] = (uint8_t)(115200 >> 24);
  77              		.loc 1 235 5 is_stmt 1 view .LVU13
 235:Src/usbd_cdc_if.c ****     pbuf[3] = (uint8_t)(115200 >> 24);
  78              		.loc 1 235 13 is_stmt 0 view .LVU14
  79 0010 0122     		movs	r2, #1
  80 0012 8A70     		strb	r2, [r1, #2]
 236:Src/usbd_cdc_if.c ****     pbuf[4] = 0;  // stop bits (1)
  81              		.loc 1 236 5 is_stmt 1 view .LVU15
ARM GAS  C:\Users\ADMINI~1\AppData\Local\Temp\ccwoXhw8.s 			page 7


 236:Src/usbd_cdc_if.c ****     pbuf[4] = 0;  // stop bits (1)
  82              		.loc 1 236 13 is_stmt 0 view .LVU16
  83 0014 CB70     		strb	r3, [r1, #3]
 237:Src/usbd_cdc_if.c ****     pbuf[5] = 0;  // parity (none)
  84              		.loc 1 237 5 is_stmt 1 view .LVU17
 237:Src/usbd_cdc_if.c ****     pbuf[5] = 0;  // parity (none)
  85              		.loc 1 237 13 is_stmt 0 view .LVU18
  86 0016 0B71     		strb	r3, [r1, #4]
 238:Src/usbd_cdc_if.c ****     pbuf[6] = 8;  // number of bits (8)
  87              		.loc 1 238 5 is_stmt 1 view .LVU19
 238:Src/usbd_cdc_if.c ****     pbuf[6] = 8;  // number of bits (8)
  88              		.loc 1 238 13 is_stmt 0 view .LVU20
  89 0018 4B71     		strb	r3, [r1, #5]
 239:Src/usbd_cdc_if.c ****     break;
  90              		.loc 1 239 5 is_stmt 1 view .LVU21
 239:Src/usbd_cdc_if.c ****     break;
  91              		.loc 1 239 13 is_stmt 0 view .LVU22
  92 001a 0823     		movs	r3, #8
  93 001c 8B71     		strb	r3, [r1, #6]
 240:Src/usbd_cdc_if.c **** 
  94              		.loc 1 240 5 is_stmt 1 view .LVU23
  95 001e F1E7     		b	.L3
  96              		.cfi_endproc
  97              	.LFE136:
  99              		.section	.rodata.CDC_TransmitCplt_FS.str1.4,"aMS",%progbits,1
 100              		.align	2
 101              	.LC0:
 102 0000 4C656E3D 		.ascii	"Len=%ld\015\012\000"
 102      256C640D 
 102      0A00
 103 000a 0000     		.align	2
 104              	.LC1:
 105 000c 65706E75 		.ascii	"epnum=%d\015\012\000"
 105      6D3D2564 
 105      0D0A00
 106              		.section	.text.CDC_TransmitCplt_FS,"ax",%progbits
 107              		.align	1
 108              		.syntax unified
 109              		.thumb
 110              		.thumb_func
 112              	CDC_TransmitCplt_FS:
 113              	.LVL5:
 114              	.LFB139:
 257:Src/usbd_cdc_if.c **** 
 258:Src/usbd_cdc_if.c **** /**
 259:Src/usbd_cdc_if.c ****   * @brief  Data received over USB OUT endpoint are sent over CDC interface
 260:Src/usbd_cdc_if.c ****   *         through this function.
 261:Src/usbd_cdc_if.c ****   *
 262:Src/usbd_cdc_if.c ****   *         @note
 263:Src/usbd_cdc_if.c ****   *         This function will issue a NAK packet on any OUT packet received on
 264:Src/usbd_cdc_if.c ****   *         USB endpoint until exiting this function. If you exit this function
 265:Src/usbd_cdc_if.c ****   *         before transfer is complete on CDC interface (ie. using DMA controller)
 266:Src/usbd_cdc_if.c ****   *         it will result in receiving more data while previous ones are still
 267:Src/usbd_cdc_if.c ****   *         not sent.
 268:Src/usbd_cdc_if.c ****   *
 269:Src/usbd_cdc_if.c ****   * @param  Buf: Buffer of data to be received
 270:Src/usbd_cdc_if.c ****   * @param  Len: Number of data received (in bytes)
ARM GAS  C:\Users\ADMINI~1\AppData\Local\Temp\ccwoXhw8.s 			page 8


 271:Src/usbd_cdc_if.c ****   * @retval Result of the operation: USBD_OK if all operations are OK else USBD_FAIL
 272:Src/usbd_cdc_if.c ****   */
 273:Src/usbd_cdc_if.c ****  extern int recvFlag;
 274:Src/usbd_cdc_if.c **** static int8_t CDC_Receive_FS(uint8_t* Buf, uint32_t *Len, uint8_t endpoint_pair)
 275:Src/usbd_cdc_if.c **** {
 276:Src/usbd_cdc_if.c ****   /* USER CODE BEGIN 6 */
 277:Src/usbd_cdc_if.c ****   int i;
 278:Src/usbd_cdc_if.c ****   for(i=0 ; i<*Len; i++)
 279:Src/usbd_cdc_if.c ****     printf("%.2x ",Buf[i]);
 280:Src/usbd_cdc_if.c ****   printf("\r\n");
 281:Src/usbd_cdc_if.c ****   if(Buf[0]==0x12)
 282:Src/usbd_cdc_if.c ****     recvFlag = 1;
 283:Src/usbd_cdc_if.c ****   USBD_CDC_SetRxBuffer(&hUsbDeviceFS, &Buf[0],endpoint_pair);
 284:Src/usbd_cdc_if.c ****   USBD_CDC_ReceivePacket(&hUsbDeviceFS,endpoint_pair);
 285:Src/usbd_cdc_if.c ****   return (USBD_OK);
 286:Src/usbd_cdc_if.c ****   /* USER CODE END 6 */
 287:Src/usbd_cdc_if.c **** }
 288:Src/usbd_cdc_if.c **** 
 289:Src/usbd_cdc_if.c **** /**
 290:Src/usbd_cdc_if.c ****   * @brief  CDC_Transmit_FS
 291:Src/usbd_cdc_if.c ****   *         Data to send over USB IN endpoint are sent over CDC interface
 292:Src/usbd_cdc_if.c ****   *         through this function.
 293:Src/usbd_cdc_if.c ****   *         @note
 294:Src/usbd_cdc_if.c ****   *
 295:Src/usbd_cdc_if.c ****   *
 296:Src/usbd_cdc_if.c ****   * @param  Buf: Buffer of data to be sent
 297:Src/usbd_cdc_if.c ****   * @param  Len: Number of data to be sent (in bytes)
 298:Src/usbd_cdc_if.c ****   * @retval USBD_OK if all operations are OK else USBD_FAIL or USBD_BUSY
 299:Src/usbd_cdc_if.c ****   */
 300:Src/usbd_cdc_if.c **** uint8_t CDC_Transmit_FS(uint8_t* Buf, uint16_t Len, uint8_t endpoint_pair)
 301:Src/usbd_cdc_if.c **** {
 302:Src/usbd_cdc_if.c ****   uint8_t result = USBD_OK;
 303:Src/usbd_cdc_if.c ****   /* USER CODE BEGIN 7 */
 304:Src/usbd_cdc_if.c ****   USBD_CDC_HandleTypeDef *hcdc = (USBD_CDC_HandleTypeDef*)hUsbDeviceFS.pClassData;
 305:Src/usbd_cdc_if.c **** 
 306:Src/usbd_cdc_if.c ****   // Select EP
 307:Src/usbd_cdc_if.c ****   USBD_CDC_EP_HandleTypeDef* hEP_Tx;
 308:Src/usbd_cdc_if.c ****   uint8_t* TxBuff;
 309:Src/usbd_cdc_if.c ****   if (endpoint_pair == CDC_IN_EP) {
 310:Src/usbd_cdc_if.c ****     hEP_Tx = &hcdc->CDC_Tx;
 311:Src/usbd_cdc_if.c ****     TxBuff = CDCTxBufferFS;
 312:Src/usbd_cdc_if.c ****   } else if (endpoint_pair == ODRIVE_IN_EP) {
 313:Src/usbd_cdc_if.c ****     hEP_Tx = &hcdc->ODRIVE_Tx;
 314:Src/usbd_cdc_if.c ****     TxBuff = ODRIVETxBufferFS;
 315:Src/usbd_cdc_if.c ****   } else {
 316:Src/usbd_cdc_if.c ****     // printf("%s:%d\r\n",__FUNCTION__,__LINE__);
 317:Src/usbd_cdc_if.c ****     return USBD_FAIL;
 318:Src/usbd_cdc_if.c ****   }
 319:Src/usbd_cdc_if.c ****   
 320:Src/usbd_cdc_if.c ****   if (hEP_Tx->State != 0){
 321:Src/usbd_cdc_if.c ****     // printf("%s:%d\r\n",__FUNCTION__,__LINE__);
 322:Src/usbd_cdc_if.c ****     return USBD_BUSY;
 323:Src/usbd_cdc_if.c ****   }
 324:Src/usbd_cdc_if.c ****   // memcpy Buf into UserTxBufferFS
 325:Src/usbd_cdc_if.c ****   memcpy(TxBuff, Buf, Len);
 326:Src/usbd_cdc_if.c ****   // USBD_CDC_SetTxBuffer(&hUsbDeviceFS, Buf, Len);
 327:Src/usbd_cdc_if.c ****   USBD_CDC_SetTxBuffer(&hUsbDeviceFS, TxBuff, Len, endpoint_pair);
ARM GAS  C:\Users\ADMINI~1\AppData\Local\Temp\ccwoXhw8.s 			page 9


 328:Src/usbd_cdc_if.c ****   result = USBD_CDC_TransmitPacket(&hUsbDeviceFS,endpoint_pair);
 329:Src/usbd_cdc_if.c ****   /* USER CODE END 7 */
 330:Src/usbd_cdc_if.c ****   return result;
 331:Src/usbd_cdc_if.c **** }
 332:Src/usbd_cdc_if.c **** 
 333:Src/usbd_cdc_if.c **** /**
 334:Src/usbd_cdc_if.c ****   * @brief  CDC_TransmitCplt_FS
 335:Src/usbd_cdc_if.c ****   *         Data transmitted callback
 336:Src/usbd_cdc_if.c ****   *
 337:Src/usbd_cdc_if.c ****   *         @note
 338:Src/usbd_cdc_if.c ****   *         This function is IN transfer complete callback used to inform user that
 339:Src/usbd_cdc_if.c ****   *         the submitted Data is successfully sent over USB.
 340:Src/usbd_cdc_if.c ****   *
 341:Src/usbd_cdc_if.c ****   * @param  Buf: Buffer of data to be received
 342:Src/usbd_cdc_if.c ****   * @param  Len: Number of data received (in bytes)
 343:Src/usbd_cdc_if.c ****   * @retval Result of the operation: USBD_OK if all operations are OK else USBD_FAIL
 344:Src/usbd_cdc_if.c ****   */
 345:Src/usbd_cdc_if.c **** static int8_t CDC_TransmitCplt_FS(uint8_t *Buf, uint32_t *Len, uint8_t epnum)
 346:Src/usbd_cdc_if.c **** {
 115              		.loc 1 346 1 view -0
 116              		.cfi_startproc
 117              		@ args = 0, pretend = 0, frame = 0
 118              		@ frame_needed = 0, uses_anonymous_args = 0
 119              		.loc 1 346 1 is_stmt 0 view .LVU25
 120 0000 10B5     		push	{r4, lr}
 121              	.LCFI0:
 122              		.cfi_def_cfa_offset 8
 123              		.cfi_offset 4, -8
 124              		.cfi_offset 14, -4
 125 0002 1446     		mov	r4, r2
 347:Src/usbd_cdc_if.c ****   uint8_t result = USBD_OK;
 126              		.loc 1 347 3 is_stmt 1 view .LVU26
 127              	.LVL6:
 348:Src/usbd_cdc_if.c ****   /* USER CODE BEGIN 13 */
 349:Src/usbd_cdc_if.c ****   UNUSED(Buf);
 128              		.loc 1 349 3 view .LVU27
 350:Src/usbd_cdc_if.c ****   UNUSED(Len);
 129              		.loc 1 350 3 view .LVU28
 351:Src/usbd_cdc_if.c ****   printf("Len=%ld\r\n",*Len);
 130              		.loc 1 351 3 view .LVU29
 131 0004 0968     		ldr	r1, [r1]
 132              	.LVL7:
 133              		.loc 1 351 3 is_stmt 0 view .LVU30
 134 0006 0448     		ldr	r0, .L7
 135              	.LVL8:
 136              		.loc 1 351 3 view .LVU31
 137 0008 FFF7FEFF 		bl	printf
 138              	.LVL9:
 352:Src/usbd_cdc_if.c ****   UNUSED(epnum);
 139              		.loc 1 352 3 is_stmt 1 view .LVU32
 353:Src/usbd_cdc_if.c ****   printf("epnum=%d\r\n",epnum);
 140              		.loc 1 353 3 view .LVU33
 141 000c 2146     		mov	r1, r4
 142 000e 0348     		ldr	r0, .L7+4
 143 0010 FFF7FEFF 		bl	printf
 144              	.LVL10:
 354:Src/usbd_cdc_if.c ****   /* USER CODE END 13 */
ARM GAS  C:\Users\ADMINI~1\AppData\Local\Temp\ccwoXhw8.s 			page 10


 355:Src/usbd_cdc_if.c ****   return result;
 145              		.loc 1 355 3 view .LVU34
 356:Src/usbd_cdc_if.c **** }
 146              		.loc 1 356 1 is_stmt 0 view .LVU35
 147 0014 0020     		movs	r0, #0
 148 0016 10BD     		pop	{r4, pc}
 149              	.L8:
 150              		.align	2
 151              	.L7:
 152 0018 00000000 		.word	.LC0
 153 001c 0C000000 		.word	.LC1
 154              		.cfi_endproc
 155              	.LFE139:
 157              		.section	.rodata.CDC_Receive_FS.str1.4,"aMS",%progbits,1
 158              		.align	2
 159              	.LC2:
 160 0000 252E3278 		.ascii	"%.2x \000"
 160      2000
 161 0006 0000     		.align	2
 162              	.LC3:
 163 0008 0D00     		.ascii	"\015\000"
 164              		.section	.text.CDC_Receive_FS,"ax",%progbits
 165              		.align	1
 166              		.syntax unified
 167              		.thumb
 168              		.thumb_func
 170              	CDC_Receive_FS:
 171              	.LVL11:
 172              	.LFB137:
 275:Src/usbd_cdc_if.c ****   /* USER CODE BEGIN 6 */
 173              		.loc 1 275 1 is_stmt 1 view -0
 174              		.cfi_startproc
 175              		@ args = 0, pretend = 0, frame = 0
 176              		@ frame_needed = 0, uses_anonymous_args = 0
 275:Src/usbd_cdc_if.c ****   /* USER CODE BEGIN 6 */
 177              		.loc 1 275 1 is_stmt 0 view .LVU37
 178 0000 F8B5     		push	{r3, r4, r5, r6, r7, lr}
 179              	.LCFI1:
 180              		.cfi_def_cfa_offset 24
 181              		.cfi_offset 3, -24
 182              		.cfi_offset 4, -20
 183              		.cfi_offset 5, -16
 184              		.cfi_offset 6, -12
 185              		.cfi_offset 7, -8
 186              		.cfi_offset 14, -4
 187 0002 0546     		mov	r5, r0
 188 0004 0E46     		mov	r6, r1
 189 0006 1746     		mov	r7, r2
 277:Src/usbd_cdc_if.c ****   for(i=0 ; i<*Len; i++)
 190              		.loc 1 277 3 is_stmt 1 view .LVU38
 278:Src/usbd_cdc_if.c ****     printf("%.2x ",Buf[i]);
 191              		.loc 1 278 3 view .LVU39
 192              	.LVL12:
 278:Src/usbd_cdc_if.c ****     printf("%.2x ",Buf[i]);
 193              		.loc 1 278 8 is_stmt 0 view .LVU40
 194 0008 0024     		movs	r4, #0
 278:Src/usbd_cdc_if.c ****     printf("%.2x ",Buf[i]);
ARM GAS  C:\Users\ADMINI~1\AppData\Local\Temp\ccwoXhw8.s 			page 11


 195              		.loc 1 278 3 view .LVU41
 196 000a 04E0     		b	.L10
 197              	.LVL13:
 198              	.L11:
 279:Src/usbd_cdc_if.c ****   printf("\r\n");
 199              		.loc 1 279 5 is_stmt 1 discriminator 3 view .LVU42
 200 000c 295D     		ldrb	r1, [r5, r4]	@ zero_extendqisi2
 201 000e 0E48     		ldr	r0, .L15
 202 0010 FFF7FEFF 		bl	printf
 203              	.LVL14:
 278:Src/usbd_cdc_if.c ****     printf("%.2x ",Buf[i]);
 204              		.loc 1 278 21 discriminator 3 view .LVU43
 278:Src/usbd_cdc_if.c ****     printf("%.2x ",Buf[i]);
 205              		.loc 1 278 22 is_stmt 0 discriminator 3 view .LVU44
 206 0014 0134     		adds	r4, r4, #1
 207              	.LVL15:
 208              	.L10:
 278:Src/usbd_cdc_if.c ****     printf("%.2x ",Buf[i]);
 209              		.loc 1 278 13 is_stmt 1 discriminator 1 view .LVU45
 278:Src/usbd_cdc_if.c ****     printf("%.2x ",Buf[i]);
 210              		.loc 1 278 15 is_stmt 0 discriminator 1 view .LVU46
 211 0016 3368     		ldr	r3, [r6]
 278:Src/usbd_cdc_if.c ****     printf("%.2x ",Buf[i]);
 212              		.loc 1 278 3 discriminator 1 view .LVU47
 213 0018 A342     		cmp	r3, r4
 214 001a F7D8     		bhi	.L11
 280:Src/usbd_cdc_if.c ****   if(Buf[0]==0x12)
 215              		.loc 1 280 3 is_stmt 1 view .LVU48
 216 001c 0B48     		ldr	r0, .L15+4
 217 001e FFF7FEFF 		bl	puts
 218              	.LVL16:
 281:Src/usbd_cdc_if.c ****     recvFlag = 1;
 219              		.loc 1 281 3 view .LVU49
 281:Src/usbd_cdc_if.c ****     recvFlag = 1;
 220              		.loc 1 281 9 is_stmt 0 view .LVU50
 221 0022 2B78     		ldrb	r3, [r5]	@ zero_extendqisi2
 281:Src/usbd_cdc_if.c ****     recvFlag = 1;
 222              		.loc 1 281 5 view .LVU51
 223 0024 122B     		cmp	r3, #18
 224 0026 0BD0     		beq	.L14
 225              	.L12:
 283:Src/usbd_cdc_if.c ****   USBD_CDC_ReceivePacket(&hUsbDeviceFS,endpoint_pair);
 226              		.loc 1 283 3 is_stmt 1 view .LVU52
 227 0028 094C     		ldr	r4, .L15+8
 228              	.LVL17:
 283:Src/usbd_cdc_if.c ****   USBD_CDC_ReceivePacket(&hUsbDeviceFS,endpoint_pair);
 229              		.loc 1 283 3 is_stmt 0 view .LVU53
 230 002a 3A46     		mov	r2, r7
 231 002c 2946     		mov	r1, r5
 232 002e 2046     		mov	r0, r4
 233 0030 FFF7FEFF 		bl	USBD_CDC_SetRxBuffer
 234              	.LVL18:
 284:Src/usbd_cdc_if.c ****   return (USBD_OK);
 235              		.loc 1 284 3 is_stmt 1 view .LVU54
 236 0034 3946     		mov	r1, r7
 237 0036 2046     		mov	r0, r4
 238 0038 FFF7FEFF 		bl	USBD_CDC_ReceivePacket
ARM GAS  C:\Users\ADMINI~1\AppData\Local\Temp\ccwoXhw8.s 			page 12


 239              	.LVL19:
 285:Src/usbd_cdc_if.c ****   /* USER CODE END 6 */
 240              		.loc 1 285 3 view .LVU55
 287:Src/usbd_cdc_if.c **** 
 241              		.loc 1 287 1 is_stmt 0 view .LVU56
 242 003c 0020     		movs	r0, #0
 243 003e F8BD     		pop	{r3, r4, r5, r6, r7, pc}
 244              	.LVL20:
 245              	.L14:
 282:Src/usbd_cdc_if.c ****   USBD_CDC_SetRxBuffer(&hUsbDeviceFS, &Buf[0],endpoint_pair);
 246              		.loc 1 282 5 is_stmt 1 view .LVU57
 282:Src/usbd_cdc_if.c ****   USBD_CDC_SetRxBuffer(&hUsbDeviceFS, &Buf[0],endpoint_pair);
 247              		.loc 1 282 14 is_stmt 0 view .LVU58
 248 0040 044B     		ldr	r3, .L15+12
 249 0042 0122     		movs	r2, #1
 250 0044 1A60     		str	r2, [r3]
 251 0046 EFE7     		b	.L12
 252              	.L16:
 253              		.align	2
 254              	.L15:
 255 0048 00000000 		.word	.LC2
 256 004c 08000000 		.word	.LC3
 257 0050 00000000 		.word	hUsbDeviceFS
 258 0054 00000000 		.word	recvFlag
 259              		.cfi_endproc
 260              	.LFE137:
 262              		.section	.text.CDC_Init_FS,"ax",%progbits
 263              		.align	1
 264              		.syntax unified
 265              		.thumb
 266              		.thumb_func
 268              	CDC_Init_FS:
 269              	.LFB134:
 155:Src/usbd_cdc_if.c ****   /* USER CODE BEGIN 3 */
 270              		.loc 1 155 1 is_stmt 1 view -0
 271              		.cfi_startproc
 272              		@ args = 0, pretend = 0, frame = 0
 273              		@ frame_needed = 0, uses_anonymous_args = 0
 274 0000 10B5     		push	{r4, lr}
 275              	.LCFI2:
 276              		.cfi_def_cfa_offset 8
 277              		.cfi_offset 4, -8
 278              		.cfi_offset 14, -4
 160:Src/usbd_cdc_if.c ****   USBD_CDC_SetRxBuffer(&hUsbDeviceFS, CDCRxBufferFS, CDC_OUT_EP);
 279              		.loc 1 160 3 view .LVU60
 280 0002 0C4C     		ldr	r4, .L19
 281 0004 8123     		movs	r3, #129
 282 0006 0022     		movs	r2, #0
 283 0008 0B49     		ldr	r1, .L19+4
 284 000a 2046     		mov	r0, r4
 285 000c FFF7FEFF 		bl	USBD_CDC_SetTxBuffer
 286              	.LVL21:
 161:Src/usbd_cdc_if.c ****   USBD_CDC_SetTxBuffer(&hUsbDeviceFS, ODRIVETxBufferFS, 0, ODRIVE_IN_EP);
 287              		.loc 1 161 3 view .LVU61
 288 0010 0122     		movs	r2, #1
 289 0012 0A49     		ldr	r1, .L19+8
 290 0014 2046     		mov	r0, r4
ARM GAS  C:\Users\ADMINI~1\AppData\Local\Temp\ccwoXhw8.s 			page 13


 291 0016 FFF7FEFF 		bl	USBD_CDC_SetRxBuffer
 292              	.LVL22:
 162:Src/usbd_cdc_if.c ****   USBD_CDC_SetRxBuffer(&hUsbDeviceFS, ODRIVERxBufferFS, ODRIVE_OUT_EP);
 293              		.loc 1 162 3 view .LVU62
 294 001a 8323     		movs	r3, #131
 295 001c 0022     		movs	r2, #0
 296 001e 0849     		ldr	r1, .L19+12
 297 0020 2046     		mov	r0, r4
 298 0022 FFF7FEFF 		bl	USBD_CDC_SetTxBuffer
 299              	.LVL23:
 163:Src/usbd_cdc_if.c ****   return (USBD_OK);
 300              		.loc 1 163 3 view .LVU63
 301 0026 0322     		movs	r2, #3
 302 0028 0649     		ldr	r1, .L19+16
 303 002a 2046     		mov	r0, r4
 304 002c FFF7FEFF 		bl	USBD_CDC_SetRxBuffer
 305              	.LVL24:
 164:Src/usbd_cdc_if.c ****   /* USER CODE END 3 */
 306              		.loc 1 164 3 view .LVU64
 166:Src/usbd_cdc_if.c **** 
 307              		.loc 1 166 1 is_stmt 0 view .LVU65
 308 0030 0020     		movs	r0, #0
 309 0032 10BD     		pop	{r4, pc}
 310              	.L20:
 311              		.align	2
 312              	.L19:
 313 0034 00000000 		.word	hUsbDeviceFS
 314 0038 00000000 		.word	.LANCHOR0
 315 003c 00000000 		.word	.LANCHOR1
 316 0040 00000000 		.word	.LANCHOR2
 317 0044 00000000 		.word	.LANCHOR3
 318              		.cfi_endproc
 319              	.LFE134:
 321              		.section	.text.CDC_Transmit_FS,"ax",%progbits
 322              		.align	1
 323              		.global	CDC_Transmit_FS
 324              		.syntax unified
 325              		.thumb
 326              		.thumb_func
 328              	CDC_Transmit_FS:
 329              	.LVL25:
 330              	.LFB138:
 301:Src/usbd_cdc_if.c ****   uint8_t result = USBD_OK;
 331              		.loc 1 301 1 is_stmt 1 view -0
 332              		.cfi_startproc
 333              		@ args = 0, pretend = 0, frame = 0
 334              		@ frame_needed = 0, uses_anonymous_args = 0
 301:Src/usbd_cdc_if.c ****   uint8_t result = USBD_OK;
 335              		.loc 1 301 1 is_stmt 0 view .LVU67
 336 0000 F8B5     		push	{r3, r4, r5, r6, r7, lr}
 337              	.LCFI3:
 338              		.cfi_def_cfa_offset 24
 339              		.cfi_offset 3, -24
 340              		.cfi_offset 4, -20
 341              		.cfi_offset 5, -16
 342              		.cfi_offset 6, -12
 343              		.cfi_offset 7, -8
ARM GAS  C:\Users\ADMINI~1\AppData\Local\Temp\ccwoXhw8.s 			page 14


 344              		.cfi_offset 14, -4
 345 0002 0D46     		mov	r5, r1
 346 0004 1446     		mov	r4, r2
 302:Src/usbd_cdc_if.c ****   /* USER CODE BEGIN 7 */
 347              		.loc 1 302 3 is_stmt 1 view .LVU68
 348              	.LVL26:
 304:Src/usbd_cdc_if.c **** 
 349              		.loc 1 304 3 view .LVU69
 304:Src/usbd_cdc_if.c **** 
 350              		.loc 1 304 27 is_stmt 0 view .LVU70
 351 0006 114B     		ldr	r3, .L30
 352 0008 D3F8BC32 		ldr	r3, [r3, #700]
 353              	.LVL27:
 307:Src/usbd_cdc_if.c ****   uint8_t* TxBuff;
 354              		.loc 1 307 3 is_stmt 1 view .LVU71
 308:Src/usbd_cdc_if.c ****   if (endpoint_pair == CDC_IN_EP) {
 355              		.loc 1 308 3 view .LVU72
 309:Src/usbd_cdc_if.c ****     hEP_Tx = &hcdc->CDC_Tx;
 356              		.loc 1 309 3 view .LVU73
 309:Src/usbd_cdc_if.c ****     hEP_Tx = &hcdc->CDC_Tx;
 357              		.loc 1 309 6 is_stmt 0 view .LVU74
 358 000c 812A     		cmp	r2, #129
 359 000e 07D0     		beq	.L28
 312:Src/usbd_cdc_if.c ****     hEP_Tx = &hcdc->ODRIVE_Tx;
 360              		.loc 1 312 10 is_stmt 1 view .LVU75
 312:Src/usbd_cdc_if.c ****     hEP_Tx = &hcdc->ODRIVE_Tx;
 361              		.loc 1 312 13 is_stmt 0 view .LVU76
 362 0010 832A     		cmp	r2, #131
 363 0012 19D1     		bne	.L25
 313:Src/usbd_cdc_if.c ****     TxBuff = ODRIVETxBufferFS;
 364              		.loc 1 313 5 is_stmt 1 view .LVU77
 313:Src/usbd_cdc_if.c ****     TxBuff = ODRIVETxBufferFS;
 365              		.loc 1 313 12 is_stmt 0 view .LVU78
 366 0014 5C33     		adds	r3, r3, #92
 367              	.LVL28:
 314:Src/usbd_cdc_if.c ****   } else {
 368              		.loc 1 314 5 is_stmt 1 view .LVU79
 314:Src/usbd_cdc_if.c ****   } else {
 369              		.loc 1 314 12 is_stmt 0 view .LVU80
 370 0016 0E4E     		ldr	r6, .L30+4
 371              	.LVL29:
 372              	.L23:
 320:Src/usbd_cdc_if.c ****     // printf("%s:%d\r\n",__FUNCTION__,__LINE__);
 373              		.loc 1 320 3 is_stmt 1 view .LVU81
 320:Src/usbd_cdc_if.c ****     // printf("%s:%d\r\n",__FUNCTION__,__LINE__);
 374              		.loc 1 320 13 is_stmt 0 view .LVU82
 375 0018 1B7A     		ldrb	r3, [r3, #8]	@ zero_extendqisi2
 376              	.LVL30:
 320:Src/usbd_cdc_if.c ****     // printf("%s:%d\r\n",__FUNCTION__,__LINE__);
 377              		.loc 1 320 6 view .LVU83
 378 001a 23B1     		cbz	r3, .L29
 322:Src/usbd_cdc_if.c ****   }
 379              		.loc 1 322 12 view .LVU84
 380 001c 0120     		movs	r0, #1
 381              	.LVL31:
 382              	.L24:
 331:Src/usbd_cdc_if.c **** 
ARM GAS  C:\Users\ADMINI~1\AppData\Local\Temp\ccwoXhw8.s 			page 15


 383              		.loc 1 331 1 view .LVU85
 384 001e F8BD     		pop	{r3, r4, r5, r6, r7, pc}
 385              	.LVL32:
 386              	.L28:
 310:Src/usbd_cdc_if.c ****     TxBuff = CDCTxBufferFS;
 387              		.loc 1 310 5 is_stmt 1 view .LVU86
 310:Src/usbd_cdc_if.c ****     TxBuff = CDCTxBufferFS;
 388              		.loc 1 310 12 is_stmt 0 view .LVU87
 389 0020 4433     		adds	r3, r3, #68
 390              	.LVL33:
 311:Src/usbd_cdc_if.c ****   } else if (endpoint_pair == ODRIVE_IN_EP) {
 391              		.loc 1 311 5 is_stmt 1 view .LVU88
 311:Src/usbd_cdc_if.c ****   } else if (endpoint_pair == ODRIVE_IN_EP) {
 392              		.loc 1 311 12 is_stmt 0 view .LVU89
 393 0022 0C4E     		ldr	r6, .L30+8
 394 0024 F8E7     		b	.L23
 395              	.LVL34:
 396              	.L29:
 325:Src/usbd_cdc_if.c ****   // USBD_CDC_SetTxBuffer(&hUsbDeviceFS, Buf, Len);
 397              		.loc 1 325 3 is_stmt 1 view .LVU90
 398 0026 2A46     		mov	r2, r5
 399              	.LVL35:
 325:Src/usbd_cdc_if.c ****   // USBD_CDC_SetTxBuffer(&hUsbDeviceFS, Buf, Len);
 400              		.loc 1 325 3 is_stmt 0 view .LVU91
 401 0028 0146     		mov	r1, r0
 402              	.LVL36:
 325:Src/usbd_cdc_if.c ****   // USBD_CDC_SetTxBuffer(&hUsbDeviceFS, Buf, Len);
 403              		.loc 1 325 3 view .LVU92
 404 002a 3046     		mov	r0, r6
 405              	.LVL37:
 325:Src/usbd_cdc_if.c ****   // USBD_CDC_SetTxBuffer(&hUsbDeviceFS, Buf, Len);
 406              		.loc 1 325 3 view .LVU93
 407 002c FFF7FEFF 		bl	memcpy
 408              	.LVL38:
 327:Src/usbd_cdc_if.c ****   result = USBD_CDC_TransmitPacket(&hUsbDeviceFS,endpoint_pair);
 409              		.loc 1 327 3 is_stmt 1 view .LVU94
 410 0030 064F     		ldr	r7, .L30
 411 0032 2346     		mov	r3, r4
 412 0034 2A46     		mov	r2, r5
 413 0036 3146     		mov	r1, r6
 414 0038 3846     		mov	r0, r7
 415 003a FFF7FEFF 		bl	USBD_CDC_SetTxBuffer
 416              	.LVL39:
 328:Src/usbd_cdc_if.c ****   /* USER CODE END 7 */
 417              		.loc 1 328 3 view .LVU95
 328:Src/usbd_cdc_if.c ****   /* USER CODE END 7 */
 418              		.loc 1 328 12 is_stmt 0 view .LVU96
 419 003e 2146     		mov	r1, r4
 420 0040 3846     		mov	r0, r7
 421 0042 FFF7FEFF 		bl	USBD_CDC_TransmitPacket
 422              	.LVL40:
 330:Src/usbd_cdc_if.c **** }
 423              		.loc 1 330 3 is_stmt 1 view .LVU97
 330:Src/usbd_cdc_if.c **** }
 424              		.loc 1 330 10 is_stmt 0 view .LVU98
 425 0046 EAE7     		b	.L24
 426              	.LVL41:
ARM GAS  C:\Users\ADMINI~1\AppData\Local\Temp\ccwoXhw8.s 			page 16


 427              	.L25:
 317:Src/usbd_cdc_if.c ****   }
 428              		.loc 1 317 12 view .LVU99
 429 0048 0320     		movs	r0, #3
 430              	.LVL42:
 317:Src/usbd_cdc_if.c ****   }
 431              		.loc 1 317 12 view .LVU100
 432 004a E8E7     		b	.L24
 433              	.L31:
 434              		.align	2
 435              	.L30:
 436 004c 00000000 		.word	hUsbDeviceFS
 437 0050 00000000 		.word	.LANCHOR2
 438 0054 00000000 		.word	.LANCHOR0
 439              		.cfi_endproc
 440              	.LFE138:
 442              		.global	USBD_Interface_fops_FS
 443              		.global	ODRIVETxBufferFS
 444              		.global	CDCTxBufferFS
 445              		.global	ODRIVERxBufferFS
 446              		.global	CDCRxBufferFS
 447              		.section	.bss.CDCRxBufferFS,"aw",%nobits
 448              		.align	2
 449              		.set	.LANCHOR1,. + 0
 452              	CDCRxBufferFS:
 453 0000 00000000 		.space	2048
 453      00000000 
 453      00000000 
 453      00000000 
 453      00000000 
 454              		.section	.bss.CDCTxBufferFS,"aw",%nobits
 455              		.align	2
 456              		.set	.LANCHOR0,. + 0
 459              	CDCTxBufferFS:
 460 0000 00000000 		.space	2048
 460      00000000 
 460      00000000 
 460      00000000 
 460      00000000 
 461              		.section	.bss.ODRIVERxBufferFS,"aw",%nobits
 462              		.align	2
 463              		.set	.LANCHOR3,. + 0
 466              	ODRIVERxBufferFS:
 467 0000 00000000 		.space	2048
 467      00000000 
 467      00000000 
 467      00000000 
 467      00000000 
 468              		.section	.bss.ODRIVETxBufferFS,"aw",%nobits
 469              		.align	2
 470              		.set	.LANCHOR2,. + 0
 473              	ODRIVETxBufferFS:
 474 0000 00000000 		.space	2048
 474      00000000 
 474      00000000 
 474      00000000 
 474      00000000 
ARM GAS  C:\Users\ADMINI~1\AppData\Local\Temp\ccwoXhw8.s 			page 17


 475              		.section	.data.USBD_Interface_fops_FS,"aw"
 476              		.align	2
 479              	USBD_Interface_fops_FS:
 480 0000 00000000 		.word	CDC_Init_FS
 481 0004 00000000 		.word	CDC_DeInit_FS
 482 0008 00000000 		.word	CDC_Control_FS
 483 000c 00000000 		.word	CDC_Receive_FS
 484 0010 00000000 		.word	CDC_TransmitCplt_FS
 485              		.text
 486              	.Letext0:
 487              		.file 2 "c:\\program files (x86)\\gnu arm embedded toolchain\\10 2021.10\\arm-none-eabi\\include\\
 488              		.file 3 "c:\\program files (x86)\\gnu arm embedded toolchain\\10 2021.10\\arm-none-eabi\\include\\
 489              		.file 4 "Middlewares/ST/STM32_USB_Device_Library/Core/Inc/usbd_def.h"
 490              		.file 5 "Middlewares/ST/STM32_USB_Device_Library/Class/CDC/Inc/usbd_cdc.h"
 491              		.file 6 "Inc/usbd_cdc_if.h"
 492              		.file 7 "c:\\program files (x86)\\gnu arm embedded toolchain\\10 2021.10\\arm-none-eabi\\include\\
 493              		.file 8 "<built-in>"
ARM GAS  C:\Users\ADMINI~1\AppData\Local\Temp\ccwoXhw8.s 			page 18


DEFINED SYMBOLS
                            *ABS*:00000000 usbd_cdc_if.c
C:\Users\ADMINI~1\AppData\Local\Temp\ccwoXhw8.s:20     .text.CDC_DeInit_FS:00000000 $t
C:\Users\ADMINI~1\AppData\Local\Temp\ccwoXhw8.s:25     .text.CDC_DeInit_FS:00000000 CDC_DeInit_FS
C:\Users\ADMINI~1\AppData\Local\Temp\ccwoXhw8.s:41     .text.CDC_Control_FS:00000000 $t
C:\Users\ADMINI~1\AppData\Local\Temp\ccwoXhw8.s:46     .text.CDC_Control_FS:00000000 CDC_Control_FS
C:\Users\ADMINI~1\AppData\Local\Temp\ccwoXhw8.s:100    .rodata.CDC_TransmitCplt_FS.str1.4:00000000 $d
C:\Users\ADMINI~1\AppData\Local\Temp\ccwoXhw8.s:107    .text.CDC_TransmitCplt_FS:00000000 $t
C:\Users\ADMINI~1\AppData\Local\Temp\ccwoXhw8.s:112    .text.CDC_TransmitCplt_FS:00000000 CDC_TransmitCplt_FS
C:\Users\ADMINI~1\AppData\Local\Temp\ccwoXhw8.s:152    .text.CDC_TransmitCplt_FS:00000018 $d
C:\Users\ADMINI~1\AppData\Local\Temp\ccwoXhw8.s:158    .rodata.CDC_Receive_FS.str1.4:00000000 $d
C:\Users\ADMINI~1\AppData\Local\Temp\ccwoXhw8.s:165    .text.CDC_Receive_FS:00000000 $t
C:\Users\ADMINI~1\AppData\Local\Temp\ccwoXhw8.s:170    .text.CDC_Receive_FS:00000000 CDC_Receive_FS
C:\Users\ADMINI~1\AppData\Local\Temp\ccwoXhw8.s:255    .text.CDC_Receive_FS:00000048 $d
C:\Users\ADMINI~1\AppData\Local\Temp\ccwoXhw8.s:263    .text.CDC_Init_FS:00000000 $t
C:\Users\ADMINI~1\AppData\Local\Temp\ccwoXhw8.s:268    .text.CDC_Init_FS:00000000 CDC_Init_FS
C:\Users\ADMINI~1\AppData\Local\Temp\ccwoXhw8.s:313    .text.CDC_Init_FS:00000034 $d
C:\Users\ADMINI~1\AppData\Local\Temp\ccwoXhw8.s:322    .text.CDC_Transmit_FS:00000000 $t
C:\Users\ADMINI~1\AppData\Local\Temp\ccwoXhw8.s:328    .text.CDC_Transmit_FS:00000000 CDC_Transmit_FS
C:\Users\ADMINI~1\AppData\Local\Temp\ccwoXhw8.s:436    .text.CDC_Transmit_FS:0000004c $d
C:\Users\ADMINI~1\AppData\Local\Temp\ccwoXhw8.s:479    .data.USBD_Interface_fops_FS:00000000 USBD_Interface_fops_FS
C:\Users\ADMINI~1\AppData\Local\Temp\ccwoXhw8.s:473    .bss.ODRIVETxBufferFS:00000000 ODRIVETxBufferFS
C:\Users\ADMINI~1\AppData\Local\Temp\ccwoXhw8.s:459    .bss.CDCTxBufferFS:00000000 CDCTxBufferFS
C:\Users\ADMINI~1\AppData\Local\Temp\ccwoXhw8.s:466    .bss.ODRIVERxBufferFS:00000000 ODRIVERxBufferFS
C:\Users\ADMINI~1\AppData\Local\Temp\ccwoXhw8.s:452    .bss.CDCRxBufferFS:00000000 CDCRxBufferFS
C:\Users\ADMINI~1\AppData\Local\Temp\ccwoXhw8.s:448    .bss.CDCRxBufferFS:00000000 $d
C:\Users\ADMINI~1\AppData\Local\Temp\ccwoXhw8.s:455    .bss.CDCTxBufferFS:00000000 $d
C:\Users\ADMINI~1\AppData\Local\Temp\ccwoXhw8.s:462    .bss.ODRIVERxBufferFS:00000000 $d
C:\Users\ADMINI~1\AppData\Local\Temp\ccwoXhw8.s:469    .bss.ODRIVETxBufferFS:00000000 $d
C:\Users\ADMINI~1\AppData\Local\Temp\ccwoXhw8.s:476    .data.USBD_Interface_fops_FS:00000000 $d

UNDEFINED SYMBOLS
printf
puts
USBD_CDC_SetRxBuffer
USBD_CDC_ReceivePacket
hUsbDeviceFS
recvFlag
USBD_CDC_SetTxBuffer
memcpy
USBD_CDC_TransmitPacket
