ARM GAS  C:\Users\ADMINI~1\AppData\Local\Temp\cccmLDA3.s 			page 1


   1              		.cpu cortex-m4
   2              		.arch armv7e-m
   3              		.fpu fpv4-sp-d16
   4              		.eabi_attribute 27, 1
   5              		.eabi_attribute 28, 1
   6              		.eabi_attribute 20, 1
   7              		.eabi_attribute 21, 1
   8              		.eabi_attribute 23, 3
   9              		.eabi_attribute 24, 1
  10              		.eabi_attribute 25, 1
  11              		.eabi_attribute 26, 1
  12              		.eabi_attribute 30, 1
  13              		.eabi_attribute 34, 1
  14              		.eabi_attribute 18, 4
  15              		.file	"usbd_cdc.c"
  16              		.text
  17              	.Ltext0:
  18              		.cfi_sections	.debug_frame
  19              		.section	.text.USBD_CDC_EP0_RxReady,"ax",%progbits
  20              		.align	1
  21              		.syntax unified
  22              		.thumb
  23              		.thumb_func
  25              	USBD_CDC_EP0_RxReady:
  26              	.LVL0:
  27              	.LFB139:
  28              		.file 1 "Middlewares/ST/STM32_USB_Device_Library/Class/CDC/Src/usbd_cdc.c"
   1:Middlewares/ST/STM32_USB_Device_Library/Class/CDC/Src/usbd_cdc.c **** /**
   2:Middlewares/ST/STM32_USB_Device_Library/Class/CDC/Src/usbd_cdc.c ****   ******************************************************************************
   3:Middlewares/ST/STM32_USB_Device_Library/Class/CDC/Src/usbd_cdc.c ****   * @file    usbd_cdc.c
   4:Middlewares/ST/STM32_USB_Device_Library/Class/CDC/Src/usbd_cdc.c ****   * @author  MCD Application Team
   5:Middlewares/ST/STM32_USB_Device_Library/Class/CDC/Src/usbd_cdc.c ****   * @brief   This file provides the high layer firmware functions to manage the
   6:Middlewares/ST/STM32_USB_Device_Library/Class/CDC/Src/usbd_cdc.c ****   *          following functionalities of the USB CDC Class:
   7:Middlewares/ST/STM32_USB_Device_Library/Class/CDC/Src/usbd_cdc.c ****   *           - Initialization and Configuration of high and low layer
   8:Middlewares/ST/STM32_USB_Device_Library/Class/CDC/Src/usbd_cdc.c ****   *           - Enumeration as CDC Device (and enumeration for each implemented memory interface)
   9:Middlewares/ST/STM32_USB_Device_Library/Class/CDC/Src/usbd_cdc.c ****   *           - OUT/IN data transfer
  10:Middlewares/ST/STM32_USB_Device_Library/Class/CDC/Src/usbd_cdc.c ****   *           - Command IN transfer (class requests management)
  11:Middlewares/ST/STM32_USB_Device_Library/Class/CDC/Src/usbd_cdc.c ****   *           - Error management
  12:Middlewares/ST/STM32_USB_Device_Library/Class/CDC/Src/usbd_cdc.c ****   *
  13:Middlewares/ST/STM32_USB_Device_Library/Class/CDC/Src/usbd_cdc.c ****   ******************************************************************************
  14:Middlewares/ST/STM32_USB_Device_Library/Class/CDC/Src/usbd_cdc.c ****   * @attention
  15:Middlewares/ST/STM32_USB_Device_Library/Class/CDC/Src/usbd_cdc.c ****   *
  16:Middlewares/ST/STM32_USB_Device_Library/Class/CDC/Src/usbd_cdc.c ****   * Copyright (c) 2015 STMicroelectronics.
  17:Middlewares/ST/STM32_USB_Device_Library/Class/CDC/Src/usbd_cdc.c ****   * All rights reserved.
  18:Middlewares/ST/STM32_USB_Device_Library/Class/CDC/Src/usbd_cdc.c ****   *
  19:Middlewares/ST/STM32_USB_Device_Library/Class/CDC/Src/usbd_cdc.c ****   * This software is licensed under terms that can be found in the LICENSE file
  20:Middlewares/ST/STM32_USB_Device_Library/Class/CDC/Src/usbd_cdc.c ****   * in the root directory of this software component.
  21:Middlewares/ST/STM32_USB_Device_Library/Class/CDC/Src/usbd_cdc.c ****   * If no LICENSE file comes with this software, it is provided AS-IS.
  22:Middlewares/ST/STM32_USB_Device_Library/Class/CDC/Src/usbd_cdc.c ****   *
  23:Middlewares/ST/STM32_USB_Device_Library/Class/CDC/Src/usbd_cdc.c ****   ******************************************************************************
  24:Middlewares/ST/STM32_USB_Device_Library/Class/CDC/Src/usbd_cdc.c ****   *  @verbatim
  25:Middlewares/ST/STM32_USB_Device_Library/Class/CDC/Src/usbd_cdc.c ****   *
  26:Middlewares/ST/STM32_USB_Device_Library/Class/CDC/Src/usbd_cdc.c ****   *          ===================================================================
  27:Middlewares/ST/STM32_USB_Device_Library/Class/CDC/Src/usbd_cdc.c ****   *                                CDC Class Driver Description
  28:Middlewares/ST/STM32_USB_Device_Library/Class/CDC/Src/usbd_cdc.c ****   *          ===================================================================
  29:Middlewares/ST/STM32_USB_Device_Library/Class/CDC/Src/usbd_cdc.c ****   *           This driver manages the "Universal Serial Bus Class Definitions for Communications De
  30:Middlewares/ST/STM32_USB_Device_Library/Class/CDC/Src/usbd_cdc.c ****   *           Revision 1.2 November 16, 2007" and the sub-protocol specification of "Universal Seri
ARM GAS  C:\Users\ADMINI~1\AppData\Local\Temp\cccmLDA3.s 			page 2


  31:Middlewares/ST/STM32_USB_Device_Library/Class/CDC/Src/usbd_cdc.c ****   *           Communications Class Subclass Specification for PSTN Devices Revision 1.2 February 9,
  32:Middlewares/ST/STM32_USB_Device_Library/Class/CDC/Src/usbd_cdc.c ****   *           This driver implements the following aspects of the specification:
  33:Middlewares/ST/STM32_USB_Device_Library/Class/CDC/Src/usbd_cdc.c ****   *             - Device descriptor management
  34:Middlewares/ST/STM32_USB_Device_Library/Class/CDC/Src/usbd_cdc.c ****   *             - Configuration descriptor management
  35:Middlewares/ST/STM32_USB_Device_Library/Class/CDC/Src/usbd_cdc.c ****   *             - Enumeration as CDC device with 2 data endpoints (IN and OUT) and 1 command endpoi
  36:Middlewares/ST/STM32_USB_Device_Library/Class/CDC/Src/usbd_cdc.c ****   *             - Requests management (as described in section 6.2 in specification)
  37:Middlewares/ST/STM32_USB_Device_Library/Class/CDC/Src/usbd_cdc.c ****   *             - Abstract Control Model compliant
  38:Middlewares/ST/STM32_USB_Device_Library/Class/CDC/Src/usbd_cdc.c ****   *             - Union Functional collection (using 1 IN endpoint for control)
  39:Middlewares/ST/STM32_USB_Device_Library/Class/CDC/Src/usbd_cdc.c ****   *             - Data interface class
  40:Middlewares/ST/STM32_USB_Device_Library/Class/CDC/Src/usbd_cdc.c ****   *
  41:Middlewares/ST/STM32_USB_Device_Library/Class/CDC/Src/usbd_cdc.c ****   *           These aspects may be enriched or modified for a specific user application.
  42:Middlewares/ST/STM32_USB_Device_Library/Class/CDC/Src/usbd_cdc.c ****   *
  43:Middlewares/ST/STM32_USB_Device_Library/Class/CDC/Src/usbd_cdc.c ****   *            This driver doesn't implement the following aspects of the specification
  44:Middlewares/ST/STM32_USB_Device_Library/Class/CDC/Src/usbd_cdc.c ****   *            (but it is possible to manage these features with some modifications on this driver)
  45:Middlewares/ST/STM32_USB_Device_Library/Class/CDC/Src/usbd_cdc.c ****   *             - Any class-specific aspect relative to communication classes should be managed by 
  46:Middlewares/ST/STM32_USB_Device_Library/Class/CDC/Src/usbd_cdc.c ****   *             - All communication classes other than PSTN are not managed
  47:Middlewares/ST/STM32_USB_Device_Library/Class/CDC/Src/usbd_cdc.c ****   *
  48:Middlewares/ST/STM32_USB_Device_Library/Class/CDC/Src/usbd_cdc.c ****   *  @endverbatim
  49:Middlewares/ST/STM32_USB_Device_Library/Class/CDC/Src/usbd_cdc.c ****   *
  50:Middlewares/ST/STM32_USB_Device_Library/Class/CDC/Src/usbd_cdc.c ****   ******************************************************************************
  51:Middlewares/ST/STM32_USB_Device_Library/Class/CDC/Src/usbd_cdc.c ****   */
  52:Middlewares/ST/STM32_USB_Device_Library/Class/CDC/Src/usbd_cdc.c **** 
  53:Middlewares/ST/STM32_USB_Device_Library/Class/CDC/Src/usbd_cdc.c **** /* BSPDependencies
  54:Middlewares/ST/STM32_USB_Device_Library/Class/CDC/Src/usbd_cdc.c **** - "stm32xxxxx_{eval}{discovery}{nucleo_144}.c"
  55:Middlewares/ST/STM32_USB_Device_Library/Class/CDC/Src/usbd_cdc.c **** - "stm32xxxxx_{eval}{discovery}_io.c"
  56:Middlewares/ST/STM32_USB_Device_Library/Class/CDC/Src/usbd_cdc.c **** EndBSPDependencies */
  57:Middlewares/ST/STM32_USB_Device_Library/Class/CDC/Src/usbd_cdc.c **** 
  58:Middlewares/ST/STM32_USB_Device_Library/Class/CDC/Src/usbd_cdc.c **** /* Includes ------------------------------------------------------------------*/
  59:Middlewares/ST/STM32_USB_Device_Library/Class/CDC/Src/usbd_cdc.c **** #include "usbd_cdc.h"
  60:Middlewares/ST/STM32_USB_Device_Library/Class/CDC/Src/usbd_cdc.c **** #include "usbd_ctlreq.h"
  61:Middlewares/ST/STM32_USB_Device_Library/Class/CDC/Src/usbd_cdc.c **** #include "usbd_desc.h"
  62:Middlewares/ST/STM32_USB_Device_Library/Class/CDC/Src/usbd_cdc.c **** 
  63:Middlewares/ST/STM32_USB_Device_Library/Class/CDC/Src/usbd_cdc.c **** /** @addtogroup STM32_USB_DEVICE_LIBRARY
  64:Middlewares/ST/STM32_USB_Device_Library/Class/CDC/Src/usbd_cdc.c ****   * @{
  65:Middlewares/ST/STM32_USB_Device_Library/Class/CDC/Src/usbd_cdc.c ****   */
  66:Middlewares/ST/STM32_USB_Device_Library/Class/CDC/Src/usbd_cdc.c **** 
  67:Middlewares/ST/STM32_USB_Device_Library/Class/CDC/Src/usbd_cdc.c **** 
  68:Middlewares/ST/STM32_USB_Device_Library/Class/CDC/Src/usbd_cdc.c **** /** @defgroup USBD_CDC
  69:Middlewares/ST/STM32_USB_Device_Library/Class/CDC/Src/usbd_cdc.c ****   * @brief usbd core module
  70:Middlewares/ST/STM32_USB_Device_Library/Class/CDC/Src/usbd_cdc.c ****   * @{
  71:Middlewares/ST/STM32_USB_Device_Library/Class/CDC/Src/usbd_cdc.c ****   */
  72:Middlewares/ST/STM32_USB_Device_Library/Class/CDC/Src/usbd_cdc.c **** 
  73:Middlewares/ST/STM32_USB_Device_Library/Class/CDC/Src/usbd_cdc.c **** /** @defgroup USBD_CDC_Private_TypesDefinitions
  74:Middlewares/ST/STM32_USB_Device_Library/Class/CDC/Src/usbd_cdc.c ****   * @{
  75:Middlewares/ST/STM32_USB_Device_Library/Class/CDC/Src/usbd_cdc.c ****   */
  76:Middlewares/ST/STM32_USB_Device_Library/Class/CDC/Src/usbd_cdc.c **** /**
  77:Middlewares/ST/STM32_USB_Device_Library/Class/CDC/Src/usbd_cdc.c ****   * @}
  78:Middlewares/ST/STM32_USB_Device_Library/Class/CDC/Src/usbd_cdc.c ****   */
  79:Middlewares/ST/STM32_USB_Device_Library/Class/CDC/Src/usbd_cdc.c **** 
  80:Middlewares/ST/STM32_USB_Device_Library/Class/CDC/Src/usbd_cdc.c **** 
  81:Middlewares/ST/STM32_USB_Device_Library/Class/CDC/Src/usbd_cdc.c **** /** @defgroup USBD_CDC_Private_Defines
  82:Middlewares/ST/STM32_USB_Device_Library/Class/CDC/Src/usbd_cdc.c ****   * @{
  83:Middlewares/ST/STM32_USB_Device_Library/Class/CDC/Src/usbd_cdc.c ****   */
  84:Middlewares/ST/STM32_USB_Device_Library/Class/CDC/Src/usbd_cdc.c **** /**
  85:Middlewares/ST/STM32_USB_Device_Library/Class/CDC/Src/usbd_cdc.c ****   * @}
  86:Middlewares/ST/STM32_USB_Device_Library/Class/CDC/Src/usbd_cdc.c ****   */
  87:Middlewares/ST/STM32_USB_Device_Library/Class/CDC/Src/usbd_cdc.c **** 
ARM GAS  C:\Users\ADMINI~1\AppData\Local\Temp\cccmLDA3.s 			page 3


  88:Middlewares/ST/STM32_USB_Device_Library/Class/CDC/Src/usbd_cdc.c **** 
  89:Middlewares/ST/STM32_USB_Device_Library/Class/CDC/Src/usbd_cdc.c **** /** @defgroup USBD_CDC_Private_Macros
  90:Middlewares/ST/STM32_USB_Device_Library/Class/CDC/Src/usbd_cdc.c ****   * @{
  91:Middlewares/ST/STM32_USB_Device_Library/Class/CDC/Src/usbd_cdc.c ****   */
  92:Middlewares/ST/STM32_USB_Device_Library/Class/CDC/Src/usbd_cdc.c **** 
  93:Middlewares/ST/STM32_USB_Device_Library/Class/CDC/Src/usbd_cdc.c **** /**
  94:Middlewares/ST/STM32_USB_Device_Library/Class/CDC/Src/usbd_cdc.c ****   * @}
  95:Middlewares/ST/STM32_USB_Device_Library/Class/CDC/Src/usbd_cdc.c ****   */
  96:Middlewares/ST/STM32_USB_Device_Library/Class/CDC/Src/usbd_cdc.c **** 
  97:Middlewares/ST/STM32_USB_Device_Library/Class/CDC/Src/usbd_cdc.c **** 
  98:Middlewares/ST/STM32_USB_Device_Library/Class/CDC/Src/usbd_cdc.c **** /** @defgroup USBD_CDC_Private_FunctionPrototypes
  99:Middlewares/ST/STM32_USB_Device_Library/Class/CDC/Src/usbd_cdc.c ****   * @{
 100:Middlewares/ST/STM32_USB_Device_Library/Class/CDC/Src/usbd_cdc.c ****   */
 101:Middlewares/ST/STM32_USB_Device_Library/Class/CDC/Src/usbd_cdc.c **** 
 102:Middlewares/ST/STM32_USB_Device_Library/Class/CDC/Src/usbd_cdc.c **** static uint8_t USBD_CDC_Init(USBD_HandleTypeDef *pdev, uint8_t cfgidx);
 103:Middlewares/ST/STM32_USB_Device_Library/Class/CDC/Src/usbd_cdc.c **** static uint8_t USBD_CDC_DeInit(USBD_HandleTypeDef *pdev, uint8_t cfgidx);
 104:Middlewares/ST/STM32_USB_Device_Library/Class/CDC/Src/usbd_cdc.c **** static uint8_t USBD_CDC_Setup(USBD_HandleTypeDef *pdev, USBD_SetupReqTypedef *req);
 105:Middlewares/ST/STM32_USB_Device_Library/Class/CDC/Src/usbd_cdc.c **** static uint8_t USBD_CDC_DataIn(USBD_HandleTypeDef *pdev, uint8_t epnum);
 106:Middlewares/ST/STM32_USB_Device_Library/Class/CDC/Src/usbd_cdc.c **** static uint8_t USBD_CDC_DataOut(USBD_HandleTypeDef *pdev, uint8_t epnum);
 107:Middlewares/ST/STM32_USB_Device_Library/Class/CDC/Src/usbd_cdc.c **** static uint8_t USBD_CDC_EP0_RxReady(USBD_HandleTypeDef *pdev);
 108:Middlewares/ST/STM32_USB_Device_Library/Class/CDC/Src/usbd_cdc.c **** #ifndef USE_USBD_COMPOSITE
 109:Middlewares/ST/STM32_USB_Device_Library/Class/CDC/Src/usbd_cdc.c **** static uint8_t *USBD_CDC_GetFSCfgDesc(uint16_t *length);
 110:Middlewares/ST/STM32_USB_Device_Library/Class/CDC/Src/usbd_cdc.c **** static uint8_t *USBD_CDC_GetHSCfgDesc(uint16_t *length);
 111:Middlewares/ST/STM32_USB_Device_Library/Class/CDC/Src/usbd_cdc.c **** static uint8_t *USBD_CDC_GetOtherSpeedCfgDesc(uint16_t *length);
 112:Middlewares/ST/STM32_USB_Device_Library/Class/CDC/Src/usbd_cdc.c **** static uint8_t *USBD_CDC_GetOtherSpeedCfgDesc(uint16_t *length);
 113:Middlewares/ST/STM32_USB_Device_Library/Class/CDC/Src/usbd_cdc.c **** uint8_t *USBD_CDC_GetDeviceQualifierDescriptor(uint16_t *length);
 114:Middlewares/ST/STM32_USB_Device_Library/Class/CDC/Src/usbd_cdc.c **** #endif /* USE_USBD_COMPOSITE
 115:Middlewares/ST/STM32_USB_Device_Library/Class/CDC/Src/usbd_cdc.c **** 
 116:Middlewares/ST/STM32_USB_Device_Library/Class/CDC/Src/usbd_cdc.c **** 
 117:Middlewares/ST/STM32_USB_Device_Library/Class/CDC/Src/usbd_cdc.c **** /* static uint8_t  USBD_CDC_Init (USBD_HandleTypeDef *pdev, uint8_t cfgidx);
 118:Middlewares/ST/STM32_USB_Device_Library/Class/CDC/Src/usbd_cdc.c **** static uint8_t  USBD_CDC_DeInit (USBD_HandleTypeDef *pdev,uint8_t cfgidx);
 119:Middlewares/ST/STM32_USB_Device_Library/Class/CDC/Src/usbd_cdc.c **** static uint8_t  USBD_CDC_Setup (USBD_HandleTypeDef *pdev, USBD_SetupReqTypedef *req);
 120:Middlewares/ST/STM32_USB_Device_Library/Class/CDC/Src/usbd_cdc.c **** static uint8_t  USBD_CDC_DataIn (USBD_HandleTypeDef *pdev,uint8_t epnum);
 121:Middlewares/ST/STM32_USB_Device_Library/Class/CDC/Src/usbd_cdc.c **** static uint8_t  USBD_CDC_DataOut (USBD_HandleTypeDef *pdev,uint8_t epnum);
 122:Middlewares/ST/STM32_USB_Device_Library/Class/CDC/Src/usbd_cdc.c **** static uint8_t  USBD_CDC_EP0_RxReady (USBD_HandleTypeDef *pdev);
 123:Middlewares/ST/STM32_USB_Device_Library/Class/CDC/Src/usbd_cdc.c **** static uint8_t  *USBD_CDC_GetFSCfgDesc (uint16_t *length);
 124:Middlewares/ST/STM32_USB_Device_Library/Class/CDC/Src/usbd_cdc.c **** static uint8_t  *USBD_CDC_GetHSCfgDesc (uint16_t *length);
 125:Middlewares/ST/STM32_USB_Device_Library/Class/CDC/Src/usbd_cdc.c **** static uint8_t  *USBD_CDC_GetOtherSpeedCfgDesc (uint16_t *length);
 126:Middlewares/ST/STM32_USB_Device_Library/Class/CDC/Src/usbd_cdc.c **** static uint8_t  *USBD_CDC_GetOtherSpeedCfgDesc (uint16_t *length);
 127:Middlewares/ST/STM32_USB_Device_Library/Class/CDC/Src/usbd_cdc.c **** uint8_t  *USBD_CDC_GetDeviceQualifierDescriptor (uint16_t *length); */
 128:Middlewares/ST/STM32_USB_Device_Library/Class/CDC/Src/usbd_cdc.c **** static uint8_t  USBD_WinUSBComm_SetupVendor(USBD_HandleTypeDef *pdev, USBD_SetupReqTypedef *req);
 129:Middlewares/ST/STM32_USB_Device_Library/Class/CDC/Src/usbd_cdc.c **** 
 130:Middlewares/ST/STM32_USB_Device_Library/Class/CDC/Src/usbd_cdc.c **** #ifndef USE_USBD_COMPOSITE
 131:Middlewares/ST/STM32_USB_Device_Library/Class/CDC/Src/usbd_cdc.c **** /* USB Standard Device Descriptor */
 132:Middlewares/ST/STM32_USB_Device_Library/Class/CDC/Src/usbd_cdc.c **** __ALIGN_BEGIN static uint8_t USBD_CDC_DeviceQualifierDesc[USB_LEN_DEV_QUALIFIER_DESC] __ALIGN_END =
 133:Middlewares/ST/STM32_USB_Device_Library/Class/CDC/Src/usbd_cdc.c **** {
 134:Middlewares/ST/STM32_USB_Device_Library/Class/CDC/Src/usbd_cdc.c ****   USB_LEN_DEV_QUALIFIER_DESC,
 135:Middlewares/ST/STM32_USB_Device_Library/Class/CDC/Src/usbd_cdc.c ****   USB_DESC_TYPE_DEVICE_QUALIFIER,
 136:Middlewares/ST/STM32_USB_Device_Library/Class/CDC/Src/usbd_cdc.c ****   0x00,
 137:Middlewares/ST/STM32_USB_Device_Library/Class/CDC/Src/usbd_cdc.c ****   0x02,
 138:Middlewares/ST/STM32_USB_Device_Library/Class/CDC/Src/usbd_cdc.c ****   0x00,
 139:Middlewares/ST/STM32_USB_Device_Library/Class/CDC/Src/usbd_cdc.c ****   0x00,
 140:Middlewares/ST/STM32_USB_Device_Library/Class/CDC/Src/usbd_cdc.c ****   0x00,
 141:Middlewares/ST/STM32_USB_Device_Library/Class/CDC/Src/usbd_cdc.c ****   0x40,
 142:Middlewares/ST/STM32_USB_Device_Library/Class/CDC/Src/usbd_cdc.c ****   0x01,
 143:Middlewares/ST/STM32_USB_Device_Library/Class/CDC/Src/usbd_cdc.c ****   0x00,
 144:Middlewares/ST/STM32_USB_Device_Library/Class/CDC/Src/usbd_cdc.c **** };
ARM GAS  C:\Users\ADMINI~1\AppData\Local\Temp\cccmLDA3.s 			page 4


 145:Middlewares/ST/STM32_USB_Device_Library/Class/CDC/Src/usbd_cdc.c **** #endif /* USE_USBD_COMPOSITE  */
 146:Middlewares/ST/STM32_USB_Device_Library/Class/CDC/Src/usbd_cdc.c **** /**
 147:Middlewares/ST/STM32_USB_Device_Library/Class/CDC/Src/usbd_cdc.c ****   * @}
 148:Middlewares/ST/STM32_USB_Device_Library/Class/CDC/Src/usbd_cdc.c ****   */
 149:Middlewares/ST/STM32_USB_Device_Library/Class/CDC/Src/usbd_cdc.c **** 
 150:Middlewares/ST/STM32_USB_Device_Library/Class/CDC/Src/usbd_cdc.c **** /** @defgroup USBD_CDC_Private_Variables
 151:Middlewares/ST/STM32_USB_Device_Library/Class/CDC/Src/usbd_cdc.c ****   * @{
 152:Middlewares/ST/STM32_USB_Device_Library/Class/CDC/Src/usbd_cdc.c ****   */
 153:Middlewares/ST/STM32_USB_Device_Library/Class/CDC/Src/usbd_cdc.c **** 
 154:Middlewares/ST/STM32_USB_Device_Library/Class/CDC/Src/usbd_cdc.c **** 
 155:Middlewares/ST/STM32_USB_Device_Library/Class/CDC/Src/usbd_cdc.c **** /* CDC interface class callbacks structure */
 156:Middlewares/ST/STM32_USB_Device_Library/Class/CDC/Src/usbd_cdc.c **** USBD_ClassTypeDef  USBD_CDC =
 157:Middlewares/ST/STM32_USB_Device_Library/Class/CDC/Src/usbd_cdc.c **** {
 158:Middlewares/ST/STM32_USB_Device_Library/Class/CDC/Src/usbd_cdc.c ****   USBD_CDC_Init,
 159:Middlewares/ST/STM32_USB_Device_Library/Class/CDC/Src/usbd_cdc.c ****   USBD_CDC_DeInit,
 160:Middlewares/ST/STM32_USB_Device_Library/Class/CDC/Src/usbd_cdc.c ****   USBD_CDC_Setup,
 161:Middlewares/ST/STM32_USB_Device_Library/Class/CDC/Src/usbd_cdc.c ****   NULL,                 /* EP0_TxSent */
 162:Middlewares/ST/STM32_USB_Device_Library/Class/CDC/Src/usbd_cdc.c ****   USBD_CDC_EP0_RxReady,
 163:Middlewares/ST/STM32_USB_Device_Library/Class/CDC/Src/usbd_cdc.c ****   USBD_CDC_DataIn,
 164:Middlewares/ST/STM32_USB_Device_Library/Class/CDC/Src/usbd_cdc.c ****   USBD_CDC_DataOut,
 165:Middlewares/ST/STM32_USB_Device_Library/Class/CDC/Src/usbd_cdc.c ****   NULL,
 166:Middlewares/ST/STM32_USB_Device_Library/Class/CDC/Src/usbd_cdc.c ****   NULL,
 167:Middlewares/ST/STM32_USB_Device_Library/Class/CDC/Src/usbd_cdc.c ****   NULL,
 168:Middlewares/ST/STM32_USB_Device_Library/Class/CDC/Src/usbd_cdc.c **** #ifdef USE_USBD_COMPOSITE
 169:Middlewares/ST/STM32_USB_Device_Library/Class/CDC/Src/usbd_cdc.c ****   NULL,
 170:Middlewares/ST/STM32_USB_Device_Library/Class/CDC/Src/usbd_cdc.c ****   NULL,
 171:Middlewares/ST/STM32_USB_Device_Library/Class/CDC/Src/usbd_cdc.c ****   NULL,
 172:Middlewares/ST/STM32_USB_Device_Library/Class/CDC/Src/usbd_cdc.c ****   NULL,
 173:Middlewares/ST/STM32_USB_Device_Library/Class/CDC/Src/usbd_cdc.c **** #else
 174:Middlewares/ST/STM32_USB_Device_Library/Class/CDC/Src/usbd_cdc.c ****   USBD_CDC_GetHSCfgDesc,
 175:Middlewares/ST/STM32_USB_Device_Library/Class/CDC/Src/usbd_cdc.c ****   USBD_CDC_GetFSCfgDesc,
 176:Middlewares/ST/STM32_USB_Device_Library/Class/CDC/Src/usbd_cdc.c ****   USBD_CDC_GetOtherSpeedCfgDesc,
 177:Middlewares/ST/STM32_USB_Device_Library/Class/CDC/Src/usbd_cdc.c ****   USBD_CDC_GetDeviceQualifierDescriptor,
 178:Middlewares/ST/STM32_USB_Device_Library/Class/CDC/Src/usbd_cdc.c **** #endif /* USE_USBD_COMPOSITE  */
 179:Middlewares/ST/STM32_USB_Device_Library/Class/CDC/Src/usbd_cdc.c ****   USBD_UsrStrDescriptor
 180:Middlewares/ST/STM32_USB_Device_Library/Class/CDC/Src/usbd_cdc.c **** };
 181:Middlewares/ST/STM32_USB_Device_Library/Class/CDC/Src/usbd_cdc.c **** 
 182:Middlewares/ST/STM32_USB_Device_Library/Class/CDC/Src/usbd_cdc.c **** #ifndef USE_USBD_COMPOSITE
 183:Middlewares/ST/STM32_USB_Device_Library/Class/CDC/Src/usbd_cdc.c **** /* USB CDC device Configuration Descriptor */
 184:Middlewares/ST/STM32_USB_Device_Library/Class/CDC/Src/usbd_cdc.c **** __ALIGN_BEGIN static uint8_t USBD_CDC_CfgDesc[USB_CDC_CONFIG_DESC_SIZ] __ALIGN_END =
 185:Middlewares/ST/STM32_USB_Device_Library/Class/CDC/Src/usbd_cdc.c **** {
 186:Middlewares/ST/STM32_USB_Device_Library/Class/CDC/Src/usbd_cdc.c ****   /* Configuration Descriptor */
 187:Middlewares/ST/STM32_USB_Device_Library/Class/CDC/Src/usbd_cdc.c ****   0x09,                                       /* bLength: Configuration Descriptor size */
 188:Middlewares/ST/STM32_USB_Device_Library/Class/CDC/Src/usbd_cdc.c ****   USB_DESC_TYPE_CONFIGURATION,                /* bDescriptorType: Configuration */
 189:Middlewares/ST/STM32_USB_Device_Library/Class/CDC/Src/usbd_cdc.c ****   USB_CDC_CONFIG_DESC_SIZ,                    /* wTotalLength */
 190:Middlewares/ST/STM32_USB_Device_Library/Class/CDC/Src/usbd_cdc.c ****   0x00,
 191:Middlewares/ST/STM32_USB_Device_Library/Class/CDC/Src/usbd_cdc.c ****   0x03,                                       /* bNumInterfaces: 2 interfaces */
 192:Middlewares/ST/STM32_USB_Device_Library/Class/CDC/Src/usbd_cdc.c ****   0x01,                                       /* bConfigurationValue: Configuration value */
 193:Middlewares/ST/STM32_USB_Device_Library/Class/CDC/Src/usbd_cdc.c ****   0x00,                                       /* iConfiguration: Index of string descriptor
 194:Middlewares/ST/STM32_USB_Device_Library/Class/CDC/Src/usbd_cdc.c ****                                                  describing the configuration */
 195:Middlewares/ST/STM32_USB_Device_Library/Class/CDC/Src/usbd_cdc.c **** #if (USBD_SELF_POWERED == 1U)
 196:Middlewares/ST/STM32_USB_Device_Library/Class/CDC/Src/usbd_cdc.c ****   0xC0,                                       /* bmAttributes: Bus Powered according to user config
 197:Middlewares/ST/STM32_USB_Device_Library/Class/CDC/Src/usbd_cdc.c **** #else
 198:Middlewares/ST/STM32_USB_Device_Library/Class/CDC/Src/usbd_cdc.c ****   0x80,                                       /* bmAttributes: Bus Powered according to user config
 199:Middlewares/ST/STM32_USB_Device_Library/Class/CDC/Src/usbd_cdc.c **** #endif /* USBD_SELF_POWERED */
 200:Middlewares/ST/STM32_USB_Device_Library/Class/CDC/Src/usbd_cdc.c ****   USBD_MAX_POWER,                             /* MaxPower (mA) */
 201:Middlewares/ST/STM32_USB_Device_Library/Class/CDC/Src/usbd_cdc.c **** 
ARM GAS  C:\Users\ADMINI~1\AppData\Local\Temp\cccmLDA3.s 			page 5


 202:Middlewares/ST/STM32_USB_Device_Library/Class/CDC/Src/usbd_cdc.c ****     ///////////////////////////////////////////////////////////////////////////////
 203:Middlewares/ST/STM32_USB_Device_Library/Class/CDC/Src/usbd_cdc.c **** 
 204:Middlewares/ST/STM32_USB_Device_Library/Class/CDC/Src/usbd_cdc.c ****   /* Interface Association Descriptor: CDC device (virtual com port) */
 205:Middlewares/ST/STM32_USB_Device_Library/Class/CDC/Src/usbd_cdc.c ****   0x08,   /* bLength: IAD size */
 206:Middlewares/ST/STM32_USB_Device_Library/Class/CDC/Src/usbd_cdc.c ****   0x0B,   /* bDescriptorType: Interface Association Descriptor */
 207:Middlewares/ST/STM32_USB_Device_Library/Class/CDC/Src/usbd_cdc.c ****   0x00,   /* bFirstInterface */
 208:Middlewares/ST/STM32_USB_Device_Library/Class/CDC/Src/usbd_cdc.c ****   0x02,   /* bInterfaceCount */
 209:Middlewares/ST/STM32_USB_Device_Library/Class/CDC/Src/usbd_cdc.c ****   0x02,   /* bFunctionClass: Communication Interface Class */
 210:Middlewares/ST/STM32_USB_Device_Library/Class/CDC/Src/usbd_cdc.c ****   0x02,   /* bFunctionSubClass: Abstract Control Model */
 211:Middlewares/ST/STM32_USB_Device_Library/Class/CDC/Src/usbd_cdc.c ****   0x01,   /* bFunctionProtocol: Common AT commands */
 212:Middlewares/ST/STM32_USB_Device_Library/Class/CDC/Src/usbd_cdc.c ****   0x00,   /* iFunction */
 213:Middlewares/ST/STM32_USB_Device_Library/Class/CDC/Src/usbd_cdc.c **** 
 214:Middlewares/ST/STM32_USB_Device_Library/Class/CDC/Src/usbd_cdc.c ****   /*---------------------------------------------------------------------------*/
 215:Middlewares/ST/STM32_USB_Device_Library/Class/CDC/Src/usbd_cdc.c **** 
 216:Middlewares/ST/STM32_USB_Device_Library/Class/CDC/Src/usbd_cdc.c ****   /* Interface Descriptor */
 217:Middlewares/ST/STM32_USB_Device_Library/Class/CDC/Src/usbd_cdc.c ****   0x09,                                       /* bLength: Interface Descriptor size */
 218:Middlewares/ST/STM32_USB_Device_Library/Class/CDC/Src/usbd_cdc.c ****   USB_DESC_TYPE_INTERFACE,                    /* bDescriptorType: Interface */
 219:Middlewares/ST/STM32_USB_Device_Library/Class/CDC/Src/usbd_cdc.c ****   /* Interface descriptor type */
 220:Middlewares/ST/STM32_USB_Device_Library/Class/CDC/Src/usbd_cdc.c ****   0x00,                                       /* bInterfaceNumber: Number of Interface */
 221:Middlewares/ST/STM32_USB_Device_Library/Class/CDC/Src/usbd_cdc.c ****   0x00,                                       /* bAlternateSetting: Alternate setting */
 222:Middlewares/ST/STM32_USB_Device_Library/Class/CDC/Src/usbd_cdc.c ****   0x01,                                       /* bNumEndpoints: One endpoint used */
 223:Middlewares/ST/STM32_USB_Device_Library/Class/CDC/Src/usbd_cdc.c ****   0x02,                                       /* bInterfaceClass: Communication Interface Class */
 224:Middlewares/ST/STM32_USB_Device_Library/Class/CDC/Src/usbd_cdc.c ****   0x02,                                       /* bInterfaceSubClass: Abstract Control Model */
 225:Middlewares/ST/STM32_USB_Device_Library/Class/CDC/Src/usbd_cdc.c ****   0x01,                                       /* bInterfaceProtocol: Common AT commands */
 226:Middlewares/ST/STM32_USB_Device_Library/Class/CDC/Src/usbd_cdc.c ****   0x00,                                       /* iInterface */
 227:Middlewares/ST/STM32_USB_Device_Library/Class/CDC/Src/usbd_cdc.c **** 
 228:Middlewares/ST/STM32_USB_Device_Library/Class/CDC/Src/usbd_cdc.c ****   /* Header Functional Descriptor */
 229:Middlewares/ST/STM32_USB_Device_Library/Class/CDC/Src/usbd_cdc.c ****   0x05,                                       /* bLength: Endpoint Descriptor size */
 230:Middlewares/ST/STM32_USB_Device_Library/Class/CDC/Src/usbd_cdc.c ****   0x24,                                       /* bDescriptorType: CS_INTERFACE */
 231:Middlewares/ST/STM32_USB_Device_Library/Class/CDC/Src/usbd_cdc.c ****   0x00,                                       /* bDescriptorSubtype: Header Func Desc */
 232:Middlewares/ST/STM32_USB_Device_Library/Class/CDC/Src/usbd_cdc.c ****   0x10,                                       /* bcdCDC: spec release number */
 233:Middlewares/ST/STM32_USB_Device_Library/Class/CDC/Src/usbd_cdc.c ****   0x01,
 234:Middlewares/ST/STM32_USB_Device_Library/Class/CDC/Src/usbd_cdc.c **** 
 235:Middlewares/ST/STM32_USB_Device_Library/Class/CDC/Src/usbd_cdc.c ****   /* Call Management Functional Descriptor */
 236:Middlewares/ST/STM32_USB_Device_Library/Class/CDC/Src/usbd_cdc.c ****   0x05,                                       /* bFunctionLength */
 237:Middlewares/ST/STM32_USB_Device_Library/Class/CDC/Src/usbd_cdc.c ****   0x24,                                       /* bDescriptorType: CS_INTERFACE */
 238:Middlewares/ST/STM32_USB_Device_Library/Class/CDC/Src/usbd_cdc.c ****   0x01,                                       /* bDescriptorSubtype: Call Management Func Desc */
 239:Middlewares/ST/STM32_USB_Device_Library/Class/CDC/Src/usbd_cdc.c ****   0x00,                                       /* bmCapabilities: D0+D1 */
 240:Middlewares/ST/STM32_USB_Device_Library/Class/CDC/Src/usbd_cdc.c ****   0x01,                                       /* bDataInterface */
 241:Middlewares/ST/STM32_USB_Device_Library/Class/CDC/Src/usbd_cdc.c **** 
 242:Middlewares/ST/STM32_USB_Device_Library/Class/CDC/Src/usbd_cdc.c ****   /* ACM Functional Descriptor */
 243:Middlewares/ST/STM32_USB_Device_Library/Class/CDC/Src/usbd_cdc.c ****   0x04,                                       /* bFunctionLength */
 244:Middlewares/ST/STM32_USB_Device_Library/Class/CDC/Src/usbd_cdc.c ****   0x24,                                       /* bDescriptorType: CS_INTERFACE */
 245:Middlewares/ST/STM32_USB_Device_Library/Class/CDC/Src/usbd_cdc.c ****   0x02,                                       /* bDescriptorSubtype: Abstract Control Management de
 246:Middlewares/ST/STM32_USB_Device_Library/Class/CDC/Src/usbd_cdc.c ****   0x02,                                       /* bmCapabilities */
 247:Middlewares/ST/STM32_USB_Device_Library/Class/CDC/Src/usbd_cdc.c **** 
 248:Middlewares/ST/STM32_USB_Device_Library/Class/CDC/Src/usbd_cdc.c ****   /* Union Functional Descriptor */
 249:Middlewares/ST/STM32_USB_Device_Library/Class/CDC/Src/usbd_cdc.c ****   0x05,                                       /* bFunctionLength */
 250:Middlewares/ST/STM32_USB_Device_Library/Class/CDC/Src/usbd_cdc.c ****   0x24,                                       /* bDescriptorType: CS_INTERFACE */
 251:Middlewares/ST/STM32_USB_Device_Library/Class/CDC/Src/usbd_cdc.c ****   0x06,                                       /* bDescriptorSubtype: Union func desc */
 252:Middlewares/ST/STM32_USB_Device_Library/Class/CDC/Src/usbd_cdc.c ****   0x00,                                       /* bMasterInterface: Communication class interface */
 253:Middlewares/ST/STM32_USB_Device_Library/Class/CDC/Src/usbd_cdc.c ****   0x01,                                       /* bSlaveInterface0: Data Class Interface */
 254:Middlewares/ST/STM32_USB_Device_Library/Class/CDC/Src/usbd_cdc.c **** 
 255:Middlewares/ST/STM32_USB_Device_Library/Class/CDC/Src/usbd_cdc.c ****   /* Endpoint 2 Descriptor */
 256:Middlewares/ST/STM32_USB_Device_Library/Class/CDC/Src/usbd_cdc.c ****   0x07,                                       /* bLength: Endpoint Descriptor size */
 257:Middlewares/ST/STM32_USB_Device_Library/Class/CDC/Src/usbd_cdc.c ****   USB_DESC_TYPE_ENDPOINT,                     /* bDescriptorType: Endpoint */
 258:Middlewares/ST/STM32_USB_Device_Library/Class/CDC/Src/usbd_cdc.c ****   CDC_CMD_EP,                                 /* bEndpointAddress */
ARM GAS  C:\Users\ADMINI~1\AppData\Local\Temp\cccmLDA3.s 			page 6


 259:Middlewares/ST/STM32_USB_Device_Library/Class/CDC/Src/usbd_cdc.c ****   0x03,                                       /* bmAttributes: Interrupt */
 260:Middlewares/ST/STM32_USB_Device_Library/Class/CDC/Src/usbd_cdc.c ****   LOBYTE(CDC_CMD_PACKET_SIZE),                /* wMaxPacketSize */
 261:Middlewares/ST/STM32_USB_Device_Library/Class/CDC/Src/usbd_cdc.c ****   HIBYTE(CDC_CMD_PACKET_SIZE),
 262:Middlewares/ST/STM32_USB_Device_Library/Class/CDC/Src/usbd_cdc.c ****   CDC_FS_BINTERVAL,                           /* bInterval */
 263:Middlewares/ST/STM32_USB_Device_Library/Class/CDC/Src/usbd_cdc.c ****   /*---------------------------------------------------------------------------*/
 264:Middlewares/ST/STM32_USB_Device_Library/Class/CDC/Src/usbd_cdc.c **** 
 265:Middlewares/ST/STM32_USB_Device_Library/Class/CDC/Src/usbd_cdc.c ****   /* Data class interface descriptor */
 266:Middlewares/ST/STM32_USB_Device_Library/Class/CDC/Src/usbd_cdc.c ****   0x09,                                       /* bLength: Endpoint Descriptor size */
 267:Middlewares/ST/STM32_USB_Device_Library/Class/CDC/Src/usbd_cdc.c ****   USB_DESC_TYPE_INTERFACE,                    /* bDescriptorType: */
 268:Middlewares/ST/STM32_USB_Device_Library/Class/CDC/Src/usbd_cdc.c ****   0x01,                                       /* bInterfaceNumber: Number of Interface */
 269:Middlewares/ST/STM32_USB_Device_Library/Class/CDC/Src/usbd_cdc.c ****   0x00,                                       /* bAlternateSetting: Alternate setting */
 270:Middlewares/ST/STM32_USB_Device_Library/Class/CDC/Src/usbd_cdc.c ****   0x02,                                       /* bNumEndpoints: Two endpoints used */
 271:Middlewares/ST/STM32_USB_Device_Library/Class/CDC/Src/usbd_cdc.c ****   0x0A,                                       /* bInterfaceClass: CDC */
 272:Middlewares/ST/STM32_USB_Device_Library/Class/CDC/Src/usbd_cdc.c ****   0x00,                                       /* bInterfaceSubClass */
 273:Middlewares/ST/STM32_USB_Device_Library/Class/CDC/Src/usbd_cdc.c ****   0x00,                                       /* bInterfaceProtocol */
 274:Middlewares/ST/STM32_USB_Device_Library/Class/CDC/Src/usbd_cdc.c ****   0x00,                                       /* iInterface */
 275:Middlewares/ST/STM32_USB_Device_Library/Class/CDC/Src/usbd_cdc.c **** 
 276:Middlewares/ST/STM32_USB_Device_Library/Class/CDC/Src/usbd_cdc.c ****   /* Endpoint OUT Descriptor */
 277:Middlewares/ST/STM32_USB_Device_Library/Class/CDC/Src/usbd_cdc.c ****   0x07,                                       /* bLength: Endpoint Descriptor size */
 278:Middlewares/ST/STM32_USB_Device_Library/Class/CDC/Src/usbd_cdc.c ****   USB_DESC_TYPE_ENDPOINT,                     /* bDescriptorType: Endpoint */
 279:Middlewares/ST/STM32_USB_Device_Library/Class/CDC/Src/usbd_cdc.c ****   CDC_OUT_EP,                                 /* bEndpointAddress */
 280:Middlewares/ST/STM32_USB_Device_Library/Class/CDC/Src/usbd_cdc.c ****   0x02,                                       /* bmAttributes: Bulk */
 281:Middlewares/ST/STM32_USB_Device_Library/Class/CDC/Src/usbd_cdc.c ****   LOBYTE(CDC_DATA_FS_MAX_PACKET_SIZE),        /* wMaxPacketSize */
 282:Middlewares/ST/STM32_USB_Device_Library/Class/CDC/Src/usbd_cdc.c ****   HIBYTE(CDC_DATA_FS_MAX_PACKET_SIZE),
 283:Middlewares/ST/STM32_USB_Device_Library/Class/CDC/Src/usbd_cdc.c ****   0x00,                                       /* bInterval */
 284:Middlewares/ST/STM32_USB_Device_Library/Class/CDC/Src/usbd_cdc.c **** 
 285:Middlewares/ST/STM32_USB_Device_Library/Class/CDC/Src/usbd_cdc.c ****   /* Endpoint IN Descriptor */
 286:Middlewares/ST/STM32_USB_Device_Library/Class/CDC/Src/usbd_cdc.c ****   0x07,                                       /* bLength: Endpoint Descriptor size */
 287:Middlewares/ST/STM32_USB_Device_Library/Class/CDC/Src/usbd_cdc.c ****   USB_DESC_TYPE_ENDPOINT,                     /* bDescriptorType: Endpoint */
 288:Middlewares/ST/STM32_USB_Device_Library/Class/CDC/Src/usbd_cdc.c ****   CDC_IN_EP,                                  /* bEndpointAddress */
 289:Middlewares/ST/STM32_USB_Device_Library/Class/CDC/Src/usbd_cdc.c ****   0x02,                                       /* bmAttributes: Bulk */
 290:Middlewares/ST/STM32_USB_Device_Library/Class/CDC/Src/usbd_cdc.c ****   LOBYTE(CDC_DATA_FS_MAX_PACKET_SIZE),        /* wMaxPacketSize */
 291:Middlewares/ST/STM32_USB_Device_Library/Class/CDC/Src/usbd_cdc.c ****   HIBYTE(CDC_DATA_FS_MAX_PACKET_SIZE),
 292:Middlewares/ST/STM32_USB_Device_Library/Class/CDC/Src/usbd_cdc.c ****   0x00,                                        /* bInterval */
 293:Middlewares/ST/STM32_USB_Device_Library/Class/CDC/Src/usbd_cdc.c **** 
 294:Middlewares/ST/STM32_USB_Device_Library/Class/CDC/Src/usbd_cdc.c ****   /* Interface Association Descriptor: custom device */
 295:Middlewares/ST/STM32_USB_Device_Library/Class/CDC/Src/usbd_cdc.c ****   0x08,   /* bLength: IAD size */
 296:Middlewares/ST/STM32_USB_Device_Library/Class/CDC/Src/usbd_cdc.c ****   0x0B,   /* bDescriptorType: Interface Association Descriptor */
 297:Middlewares/ST/STM32_USB_Device_Library/Class/CDC/Src/usbd_cdc.c ****   0x02,   /* bFirstInterface */
 298:Middlewares/ST/STM32_USB_Device_Library/Class/CDC/Src/usbd_cdc.c ****   0x01,   /* bInterfaceCount */
 299:Middlewares/ST/STM32_USB_Device_Library/Class/CDC/Src/usbd_cdc.c ****   0x00,   /* bFunctionClass: */
 300:Middlewares/ST/STM32_USB_Device_Library/Class/CDC/Src/usbd_cdc.c ****   0x00,   /* bFunctionSubClass: */
 301:Middlewares/ST/STM32_USB_Device_Library/Class/CDC/Src/usbd_cdc.c ****   0x00,   /* bFunctionProtocol: */
 302:Middlewares/ST/STM32_USB_Device_Library/Class/CDC/Src/usbd_cdc.c ****   0x06,   /* iFunction */
 303:Middlewares/ST/STM32_USB_Device_Library/Class/CDC/Src/usbd_cdc.c **** 
 304:Middlewares/ST/STM32_USB_Device_Library/Class/CDC/Src/usbd_cdc.c ****   /*---------------------------------------------------------------------------*/
 305:Middlewares/ST/STM32_USB_Device_Library/Class/CDC/Src/usbd_cdc.c ****   
 306:Middlewares/ST/STM32_USB_Device_Library/Class/CDC/Src/usbd_cdc.c ****   /*Data class interface descriptor*/
 307:Middlewares/ST/STM32_USB_Device_Library/Class/CDC/Src/usbd_cdc.c ****   0x09,   /* bLength: Endpoint Descriptor size */
 308:Middlewares/ST/STM32_USB_Device_Library/Class/CDC/Src/usbd_cdc.c ****   USB_DESC_TYPE_INTERFACE,  /* bDescriptorType: */
 309:Middlewares/ST/STM32_USB_Device_Library/Class/CDC/Src/usbd_cdc.c ****   0x02,   /* bInterfaceNumber: Number of Interface */
 310:Middlewares/ST/STM32_USB_Device_Library/Class/CDC/Src/usbd_cdc.c ****   0x00,   /* bAlternateSetting: Alternate setting */
 311:Middlewares/ST/STM32_USB_Device_Library/Class/CDC/Src/usbd_cdc.c ****   0x02,   /* bNumEndpoints: Two endpoints used */
 312:Middlewares/ST/STM32_USB_Device_Library/Class/CDC/Src/usbd_cdc.c ****   0x00,   /* bInterfaceClass: vendor specific */
 313:Middlewares/ST/STM32_USB_Device_Library/Class/CDC/Src/usbd_cdc.c ****   0x01,   /* bInterfaceSubClass: ODrive Communication */
 314:Middlewares/ST/STM32_USB_Device_Library/Class/CDC/Src/usbd_cdc.c ****   0x00,   /* bInterfaceProtocol: */
 315:Middlewares/ST/STM32_USB_Device_Library/Class/CDC/Src/usbd_cdc.c ****   0x00,   /* iInterface: */
ARM GAS  C:\Users\ADMINI~1\AppData\Local\Temp\cccmLDA3.s 			page 7


 316:Middlewares/ST/STM32_USB_Device_Library/Class/CDC/Src/usbd_cdc.c ****   
 317:Middlewares/ST/STM32_USB_Device_Library/Class/CDC/Src/usbd_cdc.c ****   /*Endpoint OUT Descriptor*/
 318:Middlewares/ST/STM32_USB_Device_Library/Class/CDC/Src/usbd_cdc.c ****   0x07,   /* bLength: Endpoint Descriptor size */
 319:Middlewares/ST/STM32_USB_Device_Library/Class/CDC/Src/usbd_cdc.c ****   USB_DESC_TYPE_ENDPOINT,      /* bDescriptorType: Endpoint */
 320:Middlewares/ST/STM32_USB_Device_Library/Class/CDC/Src/usbd_cdc.c ****   ODRIVE_OUT_EP,                        /* bEndpointAddress */
 321:Middlewares/ST/STM32_USB_Device_Library/Class/CDC/Src/usbd_cdc.c ****   0x02,                              /* bmAttributes: Bulk */
 322:Middlewares/ST/STM32_USB_Device_Library/Class/CDC/Src/usbd_cdc.c ****   LOBYTE(CDC_DATA_HS_MAX_PACKET_SIZE),  /* wMaxPacketSize: */
 323:Middlewares/ST/STM32_USB_Device_Library/Class/CDC/Src/usbd_cdc.c ****   HIBYTE(CDC_DATA_HS_MAX_PACKET_SIZE),
 324:Middlewares/ST/STM32_USB_Device_Library/Class/CDC/Src/usbd_cdc.c ****   0x00,                              /* bInterval: ignore for Bulk transfer */
 325:Middlewares/ST/STM32_USB_Device_Library/Class/CDC/Src/usbd_cdc.c ****   
 326:Middlewares/ST/STM32_USB_Device_Library/Class/CDC/Src/usbd_cdc.c ****   /*Endpoint IN Descriptor*/
 327:Middlewares/ST/STM32_USB_Device_Library/Class/CDC/Src/usbd_cdc.c ****   0x07,   /* bLength: Endpoint Descriptor size */
 328:Middlewares/ST/STM32_USB_Device_Library/Class/CDC/Src/usbd_cdc.c ****   USB_DESC_TYPE_ENDPOINT,      /* bDescriptorType: Endpoint */
 329:Middlewares/ST/STM32_USB_Device_Library/Class/CDC/Src/usbd_cdc.c ****   ODRIVE_IN_EP,                         /* bEndpointAddress */
 330:Middlewares/ST/STM32_USB_Device_Library/Class/CDC/Src/usbd_cdc.c ****   0x02,                              /* bmAttributes: Bulk */
 331:Middlewares/ST/STM32_USB_Device_Library/Class/CDC/Src/usbd_cdc.c ****   LOBYTE(CDC_DATA_HS_MAX_PACKET_SIZE),  /* wMaxPacketSize: */
 332:Middlewares/ST/STM32_USB_Device_Library/Class/CDC/Src/usbd_cdc.c ****   HIBYTE(CDC_DATA_HS_MAX_PACKET_SIZE),
 333:Middlewares/ST/STM32_USB_Device_Library/Class/CDC/Src/usbd_cdc.c ****   0x00,                              /* bInterval: ignore for Bulk transfer */
 334:Middlewares/ST/STM32_USB_Device_Library/Class/CDC/Src/usbd_cdc.c **** };
 335:Middlewares/ST/STM32_USB_Device_Library/Class/CDC/Src/usbd_cdc.c **** #endif /* USE_USBD_COMPOSITE  */
 336:Middlewares/ST/STM32_USB_Device_Library/Class/CDC/Src/usbd_cdc.c **** 
 337:Middlewares/ST/STM32_USB_Device_Library/Class/CDC/Src/usbd_cdc.c **** static uint8_t CDCInEpAdd = CDC_IN_EP;
 338:Middlewares/ST/STM32_USB_Device_Library/Class/CDC/Src/usbd_cdc.c **** static uint8_t CDCOutEpAdd = CDC_OUT_EP;
 339:Middlewares/ST/STM32_USB_Device_Library/Class/CDC/Src/usbd_cdc.c **** static uint8_t CDCCmdEpAdd = CDC_CMD_EP;
 340:Middlewares/ST/STM32_USB_Device_Library/Class/CDC/Src/usbd_cdc.c **** 
 341:Middlewares/ST/STM32_USB_Device_Library/Class/CDC/Src/usbd_cdc.c **** /**
 342:Middlewares/ST/STM32_USB_Device_Library/Class/CDC/Src/usbd_cdc.c ****   * @}
 343:Middlewares/ST/STM32_USB_Device_Library/Class/CDC/Src/usbd_cdc.c ****   */
 344:Middlewares/ST/STM32_USB_Device_Library/Class/CDC/Src/usbd_cdc.c **** 
 345:Middlewares/ST/STM32_USB_Device_Library/Class/CDC/Src/usbd_cdc.c **** /** @defgroup USBD_CDC_Private_Functions
 346:Middlewares/ST/STM32_USB_Device_Library/Class/CDC/Src/usbd_cdc.c ****   * @{
 347:Middlewares/ST/STM32_USB_Device_Library/Class/CDC/Src/usbd_cdc.c ****   */
 348:Middlewares/ST/STM32_USB_Device_Library/Class/CDC/Src/usbd_cdc.c **** 
 349:Middlewares/ST/STM32_USB_Device_Library/Class/CDC/Src/usbd_cdc.c **** /**
 350:Middlewares/ST/STM32_USB_Device_Library/Class/CDC/Src/usbd_cdc.c ****   * @brief  USBD_CDC_Init
 351:Middlewares/ST/STM32_USB_Device_Library/Class/CDC/Src/usbd_cdc.c ****   *         Initialize the CDC interface
 352:Middlewares/ST/STM32_USB_Device_Library/Class/CDC/Src/usbd_cdc.c ****   * @param  pdev: device instance
 353:Middlewares/ST/STM32_USB_Device_Library/Class/CDC/Src/usbd_cdc.c ****   * @param  cfgidx: Configuration index
 354:Middlewares/ST/STM32_USB_Device_Library/Class/CDC/Src/usbd_cdc.c ****   * @retval status
 355:Middlewares/ST/STM32_USB_Device_Library/Class/CDC/Src/usbd_cdc.c ****   */
 356:Middlewares/ST/STM32_USB_Device_Library/Class/CDC/Src/usbd_cdc.c **** static uint8_t USBD_CDC_Init(USBD_HandleTypeDef *pdev, uint8_t cfgidx)
 357:Middlewares/ST/STM32_USB_Device_Library/Class/CDC/Src/usbd_cdc.c **** {
 358:Middlewares/ST/STM32_USB_Device_Library/Class/CDC/Src/usbd_cdc.c ****   UNUSED(cfgidx);
 359:Middlewares/ST/STM32_USB_Device_Library/Class/CDC/Src/usbd_cdc.c ****   USBD_CDC_HandleTypeDef *hcdc;
 360:Middlewares/ST/STM32_USB_Device_Library/Class/CDC/Src/usbd_cdc.c **** 
 361:Middlewares/ST/STM32_USB_Device_Library/Class/CDC/Src/usbd_cdc.c ****   hcdc = (USBD_CDC_HandleTypeDef *)USBD_malloc(sizeof(USBD_CDC_HandleTypeDef));
 362:Middlewares/ST/STM32_USB_Device_Library/Class/CDC/Src/usbd_cdc.c **** 
 363:Middlewares/ST/STM32_USB_Device_Library/Class/CDC/Src/usbd_cdc.c ****   if (hcdc == NULL)
 364:Middlewares/ST/STM32_USB_Device_Library/Class/CDC/Src/usbd_cdc.c ****   {
 365:Middlewares/ST/STM32_USB_Device_Library/Class/CDC/Src/usbd_cdc.c ****     pdev->pClassDataCmsit[pdev->classId] = NULL;
 366:Middlewares/ST/STM32_USB_Device_Library/Class/CDC/Src/usbd_cdc.c ****     return (uint8_t)USBD_EMEM;
 367:Middlewares/ST/STM32_USB_Device_Library/Class/CDC/Src/usbd_cdc.c ****   }
 368:Middlewares/ST/STM32_USB_Device_Library/Class/CDC/Src/usbd_cdc.c **** 
 369:Middlewares/ST/STM32_USB_Device_Library/Class/CDC/Src/usbd_cdc.c ****   (void)USBD_memset(hcdc, 0, sizeof(USBD_CDC_HandleTypeDef));
 370:Middlewares/ST/STM32_USB_Device_Library/Class/CDC/Src/usbd_cdc.c **** 
 371:Middlewares/ST/STM32_USB_Device_Library/Class/CDC/Src/usbd_cdc.c ****   pdev->pClassDataCmsit[pdev->classId] = (void *)hcdc;
 372:Middlewares/ST/STM32_USB_Device_Library/Class/CDC/Src/usbd_cdc.c ****   pdev->pClassData = pdev->pClassDataCmsit[pdev->classId];
ARM GAS  C:\Users\ADMINI~1\AppData\Local\Temp\cccmLDA3.s 			page 8


 373:Middlewares/ST/STM32_USB_Device_Library/Class/CDC/Src/usbd_cdc.c **** 
 374:Middlewares/ST/STM32_USB_Device_Library/Class/CDC/Src/usbd_cdc.c **** #ifdef USE_USBD_COMPOSITE
 375:Middlewares/ST/STM32_USB_Device_Library/Class/CDC/Src/usbd_cdc.c ****   /* Get the Endpoints addresses allocated for this class instance */
 376:Middlewares/ST/STM32_USB_Device_Library/Class/CDC/Src/usbd_cdc.c ****   CDCInEpAdd  = USBD_CoreGetEPAdd(pdev, USBD_EP_IN, USBD_EP_TYPE_BULK);
 377:Middlewares/ST/STM32_USB_Device_Library/Class/CDC/Src/usbd_cdc.c ****   CDCOutEpAdd = USBD_CoreGetEPAdd(pdev, USBD_EP_OUT, USBD_EP_TYPE_BULK);
 378:Middlewares/ST/STM32_USB_Device_Library/Class/CDC/Src/usbd_cdc.c ****   CDCCmdEpAdd = USBD_CoreGetEPAdd(pdev, USBD_EP_IN, USBD_EP_TYPE_INTR);
 379:Middlewares/ST/STM32_USB_Device_Library/Class/CDC/Src/usbd_cdc.c **** #endif /* USE_USBD_COMPOSITE */
 380:Middlewares/ST/STM32_USB_Device_Library/Class/CDC/Src/usbd_cdc.c **** 
 381:Middlewares/ST/STM32_USB_Device_Library/Class/CDC/Src/usbd_cdc.c ****   if (pdev->dev_speed == USBD_SPEED_HIGH)
 382:Middlewares/ST/STM32_USB_Device_Library/Class/CDC/Src/usbd_cdc.c ****   {
 383:Middlewares/ST/STM32_USB_Device_Library/Class/CDC/Src/usbd_cdc.c ****     /* Open EP IN */
 384:Middlewares/ST/STM32_USB_Device_Library/Class/CDC/Src/usbd_cdc.c ****     (void)USBD_LL_OpenEP(pdev, CDCInEpAdd, USBD_EP_TYPE_BULK,
 385:Middlewares/ST/STM32_USB_Device_Library/Class/CDC/Src/usbd_cdc.c ****                          CDC_DATA_HS_IN_PACKET_SIZE);
 386:Middlewares/ST/STM32_USB_Device_Library/Class/CDC/Src/usbd_cdc.c **** 
 387:Middlewares/ST/STM32_USB_Device_Library/Class/CDC/Src/usbd_cdc.c ****     pdev->ep_in[CDCInEpAdd & 0xFU].is_used = 1U;
 388:Middlewares/ST/STM32_USB_Device_Library/Class/CDC/Src/usbd_cdc.c **** 
 389:Middlewares/ST/STM32_USB_Device_Library/Class/CDC/Src/usbd_cdc.c ****     /* Open EP OUT */
 390:Middlewares/ST/STM32_USB_Device_Library/Class/CDC/Src/usbd_cdc.c ****     (void)USBD_LL_OpenEP(pdev, CDCOutEpAdd, USBD_EP_TYPE_BULK,
 391:Middlewares/ST/STM32_USB_Device_Library/Class/CDC/Src/usbd_cdc.c ****                          CDC_DATA_HS_OUT_PACKET_SIZE);
 392:Middlewares/ST/STM32_USB_Device_Library/Class/CDC/Src/usbd_cdc.c **** 
 393:Middlewares/ST/STM32_USB_Device_Library/Class/CDC/Src/usbd_cdc.c ****     pdev->ep_out[CDCOutEpAdd & 0xFU].is_used = 1U;
 394:Middlewares/ST/STM32_USB_Device_Library/Class/CDC/Src/usbd_cdc.c **** 
 395:Middlewares/ST/STM32_USB_Device_Library/Class/CDC/Src/usbd_cdc.c ****     /* Set bInterval for CDC CMD Endpoint */
 396:Middlewares/ST/STM32_USB_Device_Library/Class/CDC/Src/usbd_cdc.c ****     pdev->ep_in[CDCCmdEpAdd & 0xFU].bInterval = CDC_HS_BINTERVAL;
 397:Middlewares/ST/STM32_USB_Device_Library/Class/CDC/Src/usbd_cdc.c ****   }
 398:Middlewares/ST/STM32_USB_Device_Library/Class/CDC/Src/usbd_cdc.c ****   else
 399:Middlewares/ST/STM32_USB_Device_Library/Class/CDC/Src/usbd_cdc.c ****   {
 400:Middlewares/ST/STM32_USB_Device_Library/Class/CDC/Src/usbd_cdc.c ****     /* Open EP IN */
 401:Middlewares/ST/STM32_USB_Device_Library/Class/CDC/Src/usbd_cdc.c ****     (void)USBD_LL_OpenEP(pdev, CDCInEpAdd, USBD_EP_TYPE_BULK,
 402:Middlewares/ST/STM32_USB_Device_Library/Class/CDC/Src/usbd_cdc.c ****                          CDC_DATA_FS_IN_PACKET_SIZE);
 403:Middlewares/ST/STM32_USB_Device_Library/Class/CDC/Src/usbd_cdc.c **** 
 404:Middlewares/ST/STM32_USB_Device_Library/Class/CDC/Src/usbd_cdc.c ****     pdev->ep_in[CDCInEpAdd & 0xFU].is_used = 1U;
 405:Middlewares/ST/STM32_USB_Device_Library/Class/CDC/Src/usbd_cdc.c **** 
 406:Middlewares/ST/STM32_USB_Device_Library/Class/CDC/Src/usbd_cdc.c ****     /* Open EP OUT */
 407:Middlewares/ST/STM32_USB_Device_Library/Class/CDC/Src/usbd_cdc.c ****     (void)USBD_LL_OpenEP(pdev, CDCOutEpAdd, USBD_EP_TYPE_BULK,
 408:Middlewares/ST/STM32_USB_Device_Library/Class/CDC/Src/usbd_cdc.c ****                          CDC_DATA_FS_OUT_PACKET_SIZE);
 409:Middlewares/ST/STM32_USB_Device_Library/Class/CDC/Src/usbd_cdc.c **** 
 410:Middlewares/ST/STM32_USB_Device_Library/Class/CDC/Src/usbd_cdc.c ****     pdev->ep_out[CDCOutEpAdd & 0xFU].is_used = 1U;
 411:Middlewares/ST/STM32_USB_Device_Library/Class/CDC/Src/usbd_cdc.c **** 
 412:Middlewares/ST/STM32_USB_Device_Library/Class/CDC/Src/usbd_cdc.c ****     /* Set bInterval for CMD Endpoint */
 413:Middlewares/ST/STM32_USB_Device_Library/Class/CDC/Src/usbd_cdc.c ****     pdev->ep_in[CDCCmdEpAdd & 0xFU].bInterval = CDC_FS_BINTERVAL;
 414:Middlewares/ST/STM32_USB_Device_Library/Class/CDC/Src/usbd_cdc.c ****   }
 415:Middlewares/ST/STM32_USB_Device_Library/Class/CDC/Src/usbd_cdc.c ****   /* Open ODrive IN endpoint */
 416:Middlewares/ST/STM32_USB_Device_Library/Class/CDC/Src/usbd_cdc.c ****   USBD_LL_OpenEP(pdev,
 417:Middlewares/ST/STM32_USB_Device_Library/Class/CDC/Src/usbd_cdc.c ****                  ODRIVE_IN_EP,
 418:Middlewares/ST/STM32_USB_Device_Library/Class/CDC/Src/usbd_cdc.c ****                  USBD_EP_TYPE_BULK,
 419:Middlewares/ST/STM32_USB_Device_Library/Class/CDC/Src/usbd_cdc.c ****                  pdev->dev_speed == USBD_SPEED_HIGH ? CDC_DATA_HS_IN_PACKET_SIZE : CDC_DATA_FS_IN_P
 420:Middlewares/ST/STM32_USB_Device_Library/Class/CDC/Src/usbd_cdc.c ****   
 421:Middlewares/ST/STM32_USB_Device_Library/Class/CDC/Src/usbd_cdc.c ****   /* Open ODrive OUT endpoint */
 422:Middlewares/ST/STM32_USB_Device_Library/Class/CDC/Src/usbd_cdc.c ****   USBD_LL_OpenEP(pdev,
 423:Middlewares/ST/STM32_USB_Device_Library/Class/CDC/Src/usbd_cdc.c ****                  ODRIVE_OUT_EP,
 424:Middlewares/ST/STM32_USB_Device_Library/Class/CDC/Src/usbd_cdc.c ****                  USBD_EP_TYPE_BULK,
 425:Middlewares/ST/STM32_USB_Device_Library/Class/CDC/Src/usbd_cdc.c ****                  pdev->dev_speed == USBD_SPEED_HIGH ? CDC_DATA_HS_OUT_PACKET_SIZE : CDC_DATA_FS_OUT
 426:Middlewares/ST/STM32_USB_Device_Library/Class/CDC/Src/usbd_cdc.c ****   /* Open Command IN EP */
 427:Middlewares/ST/STM32_USB_Device_Library/Class/CDC/Src/usbd_cdc.c ****   (void)USBD_LL_OpenEP(pdev, CDCCmdEpAdd, USBD_EP_TYPE_INTR, CDC_CMD_PACKET_SIZE);
 428:Middlewares/ST/STM32_USB_Device_Library/Class/CDC/Src/usbd_cdc.c **** 
 429:Middlewares/ST/STM32_USB_Device_Library/Class/CDC/Src/usbd_cdc.c **** 
ARM GAS  C:\Users\ADMINI~1\AppData\Local\Temp\cccmLDA3.s 			page 9


 430:Middlewares/ST/STM32_USB_Device_Library/Class/CDC/Src/usbd_cdc.c ****   pdev->ep_in[CDCCmdEpAdd & 0xFU].is_used = 1U;
 431:Middlewares/ST/STM32_USB_Device_Library/Class/CDC/Src/usbd_cdc.c **** 
 432:Middlewares/ST/STM32_USB_Device_Library/Class/CDC/Src/usbd_cdc.c ****   hcdc->CDC_Rx.Buffer = NULL;
 433:Middlewares/ST/STM32_USB_Device_Library/Class/CDC/Src/usbd_cdc.c ****   hcdc->ODRIVE_Rx.Buffer = NULL;
 434:Middlewares/ST/STM32_USB_Device_Library/Class/CDC/Src/usbd_cdc.c **** 
 435:Middlewares/ST/STM32_USB_Device_Library/Class/CDC/Src/usbd_cdc.c ****   /* Init  physical Interface components */
 436:Middlewares/ST/STM32_USB_Device_Library/Class/CDC/Src/usbd_cdc.c ****   ((USBD_CDC_ItfTypeDef *)pdev->pUserData[pdev->classId])->Init();
 437:Middlewares/ST/STM32_USB_Device_Library/Class/CDC/Src/usbd_cdc.c **** 
 438:Middlewares/ST/STM32_USB_Device_Library/Class/CDC/Src/usbd_cdc.c ****   /* Init Xfer states */
 439:Middlewares/ST/STM32_USB_Device_Library/Class/CDC/Src/usbd_cdc.c ****   hcdc->CDC_Tx.State =0;
 440:Middlewares/ST/STM32_USB_Device_Library/Class/CDC/Src/usbd_cdc.c ****   hcdc->CDC_Rx.State =0;
 441:Middlewares/ST/STM32_USB_Device_Library/Class/CDC/Src/usbd_cdc.c ****   hcdc->ODRIVE_Tx.State =0;
 442:Middlewares/ST/STM32_USB_Device_Library/Class/CDC/Src/usbd_cdc.c ****   hcdc->ODRIVE_Rx.State =0;
 443:Middlewares/ST/STM32_USB_Device_Library/Class/CDC/Src/usbd_cdc.c **** 
 444:Middlewares/ST/STM32_USB_Device_Library/Class/CDC/Src/usbd_cdc.c ****   /* if (hcdc->RxBuffer == NULL)
 445:Middlewares/ST/STM32_USB_Device_Library/Class/CDC/Src/usbd_cdc.c ****   {
 446:Middlewares/ST/STM32_USB_Device_Library/Class/CDC/Src/usbd_cdc.c ****     return (uint8_t)USBD_EMEM;
 447:Middlewares/ST/STM32_USB_Device_Library/Class/CDC/Src/usbd_cdc.c ****   } */
 448:Middlewares/ST/STM32_USB_Device_Library/Class/CDC/Src/usbd_cdc.c **** #if 0
 449:Middlewares/ST/STM32_USB_Device_Library/Class/CDC/Src/usbd_cdc.c ****   if (pdev->dev_speed == USBD_SPEED_HIGH)
 450:Middlewares/ST/STM32_USB_Device_Library/Class/CDC/Src/usbd_cdc.c ****   {
 451:Middlewares/ST/STM32_USB_Device_Library/Class/CDC/Src/usbd_cdc.c ****     /* Prepare Out endpoint to receive next packet */
 452:Middlewares/ST/STM32_USB_Device_Library/Class/CDC/Src/usbd_cdc.c ****     (void)USBD_LL_PrepareReceive(pdev, CDCOutEpAdd, hcdc->RxBuffer,
 453:Middlewares/ST/STM32_USB_Device_Library/Class/CDC/Src/usbd_cdc.c ****                                  CDC_DATA_HS_OUT_PACKET_SIZE);
 454:Middlewares/ST/STM32_USB_Device_Library/Class/CDC/Src/usbd_cdc.c ****   }
 455:Middlewares/ST/STM32_USB_Device_Library/Class/CDC/Src/usbd_cdc.c ****   else
 456:Middlewares/ST/STM32_USB_Device_Library/Class/CDC/Src/usbd_cdc.c ****   {
 457:Middlewares/ST/STM32_USB_Device_Library/Class/CDC/Src/usbd_cdc.c ****     /* Prepare Out endpoint to receive next packet */
 458:Middlewares/ST/STM32_USB_Device_Library/Class/CDC/Src/usbd_cdc.c ****     (void)USBD_LL_PrepareReceive(pdev, CDCOutEpAdd, hcdc->RxBuffer,
 459:Middlewares/ST/STM32_USB_Device_Library/Class/CDC/Src/usbd_cdc.c ****                                  CDC_DATA_FS_OUT_PACKET_SIZE);
 460:Middlewares/ST/STM32_USB_Device_Library/Class/CDC/Src/usbd_cdc.c ****   }
 461:Middlewares/ST/STM32_USB_Device_Library/Class/CDC/Src/usbd_cdc.c **** #else
 462:Middlewares/ST/STM32_USB_Device_Library/Class/CDC/Src/usbd_cdc.c ****   if(pdev->dev_speed == USBD_SPEED_HIGH  ) 
 463:Middlewares/ST/STM32_USB_Device_Library/Class/CDC/Src/usbd_cdc.c ****   {      
 464:Middlewares/ST/STM32_USB_Device_Library/Class/CDC/Src/usbd_cdc.c ****     /* Prepare Out endpoint to receive next packet */
 465:Middlewares/ST/STM32_USB_Device_Library/Class/CDC/Src/usbd_cdc.c ****     USBD_LL_PrepareReceive(pdev,
 466:Middlewares/ST/STM32_USB_Device_Library/Class/CDC/Src/usbd_cdc.c ****                             CDC_OUT_EP,
 467:Middlewares/ST/STM32_USB_Device_Library/Class/CDC/Src/usbd_cdc.c ****                             hcdc->CDC_Rx.Buffer,
 468:Middlewares/ST/STM32_USB_Device_Library/Class/CDC/Src/usbd_cdc.c ****                             CDC_DATA_HS_OUT_PACKET_SIZE);
 469:Middlewares/ST/STM32_USB_Device_Library/Class/CDC/Src/usbd_cdc.c ****   }
 470:Middlewares/ST/STM32_USB_Device_Library/Class/CDC/Src/usbd_cdc.c ****   else
 471:Middlewares/ST/STM32_USB_Device_Library/Class/CDC/Src/usbd_cdc.c ****   {
 472:Middlewares/ST/STM32_USB_Device_Library/Class/CDC/Src/usbd_cdc.c ****     /* Prepare Out endpoint to receive next packet */
 473:Middlewares/ST/STM32_USB_Device_Library/Class/CDC/Src/usbd_cdc.c ****     USBD_LL_PrepareReceive(pdev,
 474:Middlewares/ST/STM32_USB_Device_Library/Class/CDC/Src/usbd_cdc.c ****                             CDC_OUT_EP,
 475:Middlewares/ST/STM32_USB_Device_Library/Class/CDC/Src/usbd_cdc.c ****                             hcdc->CDC_Rx.Buffer,
 476:Middlewares/ST/STM32_USB_Device_Library/Class/CDC/Src/usbd_cdc.c ****                             CDC_DATA_FS_OUT_PACKET_SIZE);
 477:Middlewares/ST/STM32_USB_Device_Library/Class/CDC/Src/usbd_cdc.c ****   }
 478:Middlewares/ST/STM32_USB_Device_Library/Class/CDC/Src/usbd_cdc.c ****   
 479:Middlewares/ST/STM32_USB_Device_Library/Class/CDC/Src/usbd_cdc.c ****   /* Prepare ODrive Out endpoint to receive next packet */
 480:Middlewares/ST/STM32_USB_Device_Library/Class/CDC/Src/usbd_cdc.c ****   USBD_LL_PrepareReceive(pdev,
 481:Middlewares/ST/STM32_USB_Device_Library/Class/CDC/Src/usbd_cdc.c ****                           ODRIVE_OUT_EP,
 482:Middlewares/ST/STM32_USB_Device_Library/Class/CDC/Src/usbd_cdc.c ****                           hcdc->ODRIVE_Rx.Buffer,
 483:Middlewares/ST/STM32_USB_Device_Library/Class/CDC/Src/usbd_cdc.c ****                           CDC_DATA_FS_OUT_PACKET_SIZE);
 484:Middlewares/ST/STM32_USB_Device_Library/Class/CDC/Src/usbd_cdc.c **** #endif
 485:Middlewares/ST/STM32_USB_Device_Library/Class/CDC/Src/usbd_cdc.c ****   return (uint8_t)USBD_OK;
 486:Middlewares/ST/STM32_USB_Device_Library/Class/CDC/Src/usbd_cdc.c **** }
ARM GAS  C:\Users\ADMINI~1\AppData\Local\Temp\cccmLDA3.s 			page 10


 487:Middlewares/ST/STM32_USB_Device_Library/Class/CDC/Src/usbd_cdc.c **** 
 488:Middlewares/ST/STM32_USB_Device_Library/Class/CDC/Src/usbd_cdc.c **** /**
 489:Middlewares/ST/STM32_USB_Device_Library/Class/CDC/Src/usbd_cdc.c ****   * @brief  USBD_CDC_Init
 490:Middlewares/ST/STM32_USB_Device_Library/Class/CDC/Src/usbd_cdc.c ****   *         DeInitialize the CDC layer
 491:Middlewares/ST/STM32_USB_Device_Library/Class/CDC/Src/usbd_cdc.c ****   * @param  pdev: device instance
 492:Middlewares/ST/STM32_USB_Device_Library/Class/CDC/Src/usbd_cdc.c ****   * @param  cfgidx: Configuration index
 493:Middlewares/ST/STM32_USB_Device_Library/Class/CDC/Src/usbd_cdc.c ****   * @retval status
 494:Middlewares/ST/STM32_USB_Device_Library/Class/CDC/Src/usbd_cdc.c ****   */
 495:Middlewares/ST/STM32_USB_Device_Library/Class/CDC/Src/usbd_cdc.c **** static uint8_t USBD_CDC_DeInit(USBD_HandleTypeDef *pdev, uint8_t cfgidx)
 496:Middlewares/ST/STM32_USB_Device_Library/Class/CDC/Src/usbd_cdc.c **** {
 497:Middlewares/ST/STM32_USB_Device_Library/Class/CDC/Src/usbd_cdc.c ****   UNUSED(cfgidx);
 498:Middlewares/ST/STM32_USB_Device_Library/Class/CDC/Src/usbd_cdc.c **** 
 499:Middlewares/ST/STM32_USB_Device_Library/Class/CDC/Src/usbd_cdc.c **** 
 500:Middlewares/ST/STM32_USB_Device_Library/Class/CDC/Src/usbd_cdc.c **** #ifdef USE_USBD_COMPOSITE
 501:Middlewares/ST/STM32_USB_Device_Library/Class/CDC/Src/usbd_cdc.c ****   /* Get the Endpoints addresses allocated for this CDC class instance */
 502:Middlewares/ST/STM32_USB_Device_Library/Class/CDC/Src/usbd_cdc.c ****   CDCInEpAdd  = USBD_CoreGetEPAdd(pdev, USBD_EP_IN, USBD_EP_TYPE_BULK);
 503:Middlewares/ST/STM32_USB_Device_Library/Class/CDC/Src/usbd_cdc.c ****   CDCOutEpAdd = USBD_CoreGetEPAdd(pdev, USBD_EP_OUT, USBD_EP_TYPE_BULK);
 504:Middlewares/ST/STM32_USB_Device_Library/Class/CDC/Src/usbd_cdc.c ****   CDCCmdEpAdd = USBD_CoreGetEPAdd(pdev, USBD_EP_IN, USBD_EP_TYPE_INTR);
 505:Middlewares/ST/STM32_USB_Device_Library/Class/CDC/Src/usbd_cdc.c **** #endif /* USE_USBD_COMPOSITE */
 506:Middlewares/ST/STM32_USB_Device_Library/Class/CDC/Src/usbd_cdc.c **** 
 507:Middlewares/ST/STM32_USB_Device_Library/Class/CDC/Src/usbd_cdc.c ****   /* Close EP IN */
 508:Middlewares/ST/STM32_USB_Device_Library/Class/CDC/Src/usbd_cdc.c ****   (void)USBD_LL_CloseEP(pdev, CDCInEpAdd);
 509:Middlewares/ST/STM32_USB_Device_Library/Class/CDC/Src/usbd_cdc.c ****   pdev->ep_in[CDCInEpAdd & 0xFU].is_used = 0U;
 510:Middlewares/ST/STM32_USB_Device_Library/Class/CDC/Src/usbd_cdc.c **** 
 511:Middlewares/ST/STM32_USB_Device_Library/Class/CDC/Src/usbd_cdc.c ****   /* Close EP OUT */
 512:Middlewares/ST/STM32_USB_Device_Library/Class/CDC/Src/usbd_cdc.c ****   (void)USBD_LL_CloseEP(pdev, CDCOutEpAdd);
 513:Middlewares/ST/STM32_USB_Device_Library/Class/CDC/Src/usbd_cdc.c ****   pdev->ep_out[CDCOutEpAdd & 0xFU].is_used = 0U;
 514:Middlewares/ST/STM32_USB_Device_Library/Class/CDC/Src/usbd_cdc.c **** 
 515:Middlewares/ST/STM32_USB_Device_Library/Class/CDC/Src/usbd_cdc.c ****   /* Close Command IN EP */
 516:Middlewares/ST/STM32_USB_Device_Library/Class/CDC/Src/usbd_cdc.c ****   (void)USBD_LL_CloseEP(pdev, CDCCmdEpAdd);
 517:Middlewares/ST/STM32_USB_Device_Library/Class/CDC/Src/usbd_cdc.c **** 
 518:Middlewares/ST/STM32_USB_Device_Library/Class/CDC/Src/usbd_cdc.c **** /* Close EP IN */
 519:Middlewares/ST/STM32_USB_Device_Library/Class/CDC/Src/usbd_cdc.c ****   USBD_LL_CloseEP(pdev,ODRIVE_IN_EP);  
 520:Middlewares/ST/STM32_USB_Device_Library/Class/CDC/Src/usbd_cdc.c ****   /* Close EP OUT */
 521:Middlewares/ST/STM32_USB_Device_Library/Class/CDC/Src/usbd_cdc.c ****   USBD_LL_CloseEP(pdev,ODRIVE_OUT_EP); 
 522:Middlewares/ST/STM32_USB_Device_Library/Class/CDC/Src/usbd_cdc.c **** 
 523:Middlewares/ST/STM32_USB_Device_Library/Class/CDC/Src/usbd_cdc.c ****   pdev->ep_in[CDCCmdEpAdd & 0xFU].is_used = 0U;
 524:Middlewares/ST/STM32_USB_Device_Library/Class/CDC/Src/usbd_cdc.c ****   pdev->ep_in[CDCCmdEpAdd & 0xFU].bInterval = 0U;
 525:Middlewares/ST/STM32_USB_Device_Library/Class/CDC/Src/usbd_cdc.c **** 
 526:Middlewares/ST/STM32_USB_Device_Library/Class/CDC/Src/usbd_cdc.c ****   /* DeInit  physical Interface components */
 527:Middlewares/ST/STM32_USB_Device_Library/Class/CDC/Src/usbd_cdc.c ****   if (pdev->pClassDataCmsit[pdev->classId] != NULL)
 528:Middlewares/ST/STM32_USB_Device_Library/Class/CDC/Src/usbd_cdc.c ****   {
 529:Middlewares/ST/STM32_USB_Device_Library/Class/CDC/Src/usbd_cdc.c ****     ((USBD_CDC_ItfTypeDef *)pdev->pUserData[pdev->classId])->DeInit();
 530:Middlewares/ST/STM32_USB_Device_Library/Class/CDC/Src/usbd_cdc.c ****     (void)USBD_free(pdev->pClassDataCmsit[pdev->classId]);
 531:Middlewares/ST/STM32_USB_Device_Library/Class/CDC/Src/usbd_cdc.c ****     pdev->pClassDataCmsit[pdev->classId] = NULL;
 532:Middlewares/ST/STM32_USB_Device_Library/Class/CDC/Src/usbd_cdc.c ****     pdev->pClassData = NULL;
 533:Middlewares/ST/STM32_USB_Device_Library/Class/CDC/Src/usbd_cdc.c ****   }
 534:Middlewares/ST/STM32_USB_Device_Library/Class/CDC/Src/usbd_cdc.c **** 
 535:Middlewares/ST/STM32_USB_Device_Library/Class/CDC/Src/usbd_cdc.c ****   return (uint8_t)USBD_OK;
 536:Middlewares/ST/STM32_USB_Device_Library/Class/CDC/Src/usbd_cdc.c **** }
 537:Middlewares/ST/STM32_USB_Device_Library/Class/CDC/Src/usbd_cdc.c **** 
 538:Middlewares/ST/STM32_USB_Device_Library/Class/CDC/Src/usbd_cdc.c **** /**
 539:Middlewares/ST/STM32_USB_Device_Library/Class/CDC/Src/usbd_cdc.c ****   * @brief  USBD_CDC_Setup
 540:Middlewares/ST/STM32_USB_Device_Library/Class/CDC/Src/usbd_cdc.c ****   *         Handle the CDC specific requests
 541:Middlewares/ST/STM32_USB_Device_Library/Class/CDC/Src/usbd_cdc.c ****   * @param  pdev: instance
 542:Middlewares/ST/STM32_USB_Device_Library/Class/CDC/Src/usbd_cdc.c ****   * @param  req: usb requests
 543:Middlewares/ST/STM32_USB_Device_Library/Class/CDC/Src/usbd_cdc.c ****   * @retval status
ARM GAS  C:\Users\ADMINI~1\AppData\Local\Temp\cccmLDA3.s 			page 11


 544:Middlewares/ST/STM32_USB_Device_Library/Class/CDC/Src/usbd_cdc.c ****   */
 545:Middlewares/ST/STM32_USB_Device_Library/Class/CDC/Src/usbd_cdc.c **** static uint8_t USBD_CDC_Setup(USBD_HandleTypeDef *pdev,
 546:Middlewares/ST/STM32_USB_Device_Library/Class/CDC/Src/usbd_cdc.c ****                               USBD_SetupReqTypedef *req)
 547:Middlewares/ST/STM32_USB_Device_Library/Class/CDC/Src/usbd_cdc.c **** {
 548:Middlewares/ST/STM32_USB_Device_Library/Class/CDC/Src/usbd_cdc.c ****   USBD_CDC_HandleTypeDef *hcdc = (USBD_CDC_HandleTypeDef *)pdev->pClassDataCmsit[pdev->classId];
 549:Middlewares/ST/STM32_USB_Device_Library/Class/CDC/Src/usbd_cdc.c ****   uint16_t len;
 550:Middlewares/ST/STM32_USB_Device_Library/Class/CDC/Src/usbd_cdc.c ****   uint8_t ifalt = 0U;
 551:Middlewares/ST/STM32_USB_Device_Library/Class/CDC/Src/usbd_cdc.c ****   uint16_t status_info = 0U;
 552:Middlewares/ST/STM32_USB_Device_Library/Class/CDC/Src/usbd_cdc.c ****   USBD_StatusTypeDef ret = USBD_OK;
 553:Middlewares/ST/STM32_USB_Device_Library/Class/CDC/Src/usbd_cdc.c **** 
 554:Middlewares/ST/STM32_USB_Device_Library/Class/CDC/Src/usbd_cdc.c ****   if (hcdc == NULL)
 555:Middlewares/ST/STM32_USB_Device_Library/Class/CDC/Src/usbd_cdc.c ****   {
 556:Middlewares/ST/STM32_USB_Device_Library/Class/CDC/Src/usbd_cdc.c ****     return (uint8_t)USBD_FAIL;
 557:Middlewares/ST/STM32_USB_Device_Library/Class/CDC/Src/usbd_cdc.c ****   }
 558:Middlewares/ST/STM32_USB_Device_Library/Class/CDC/Src/usbd_cdc.c **** 
 559:Middlewares/ST/STM32_USB_Device_Library/Class/CDC/Src/usbd_cdc.c ****   switch (req->bmRequest & USB_REQ_TYPE_MASK)
 560:Middlewares/ST/STM32_USB_Device_Library/Class/CDC/Src/usbd_cdc.c ****   {
 561:Middlewares/ST/STM32_USB_Device_Library/Class/CDC/Src/usbd_cdc.c ****     case USB_REQ_TYPE_CLASS:
 562:Middlewares/ST/STM32_USB_Device_Library/Class/CDC/Src/usbd_cdc.c ****       if (req->wLength != 0U)
 563:Middlewares/ST/STM32_USB_Device_Library/Class/CDC/Src/usbd_cdc.c ****       {
 564:Middlewares/ST/STM32_USB_Device_Library/Class/CDC/Src/usbd_cdc.c ****         if ((req->bmRequest & 0x80U) != 0U)
 565:Middlewares/ST/STM32_USB_Device_Library/Class/CDC/Src/usbd_cdc.c ****         {
 566:Middlewares/ST/STM32_USB_Device_Library/Class/CDC/Src/usbd_cdc.c ****           ((USBD_CDC_ItfTypeDef *)pdev->pUserData[pdev->classId])->Control(req->bRequest,
 567:Middlewares/ST/STM32_USB_Device_Library/Class/CDC/Src/usbd_cdc.c ****                                                                            (uint8_t *)hcdc->data,
 568:Middlewares/ST/STM32_USB_Device_Library/Class/CDC/Src/usbd_cdc.c ****                                                                            req->wLength);
 569:Middlewares/ST/STM32_USB_Device_Library/Class/CDC/Src/usbd_cdc.c **** 
 570:Middlewares/ST/STM32_USB_Device_Library/Class/CDC/Src/usbd_cdc.c ****           len = MIN(CDC_REQ_MAX_DATA_SIZE, req->wLength);
 571:Middlewares/ST/STM32_USB_Device_Library/Class/CDC/Src/usbd_cdc.c ****           (void)USBD_CtlSendData(pdev, (uint8_t *)hcdc->data, len);
 572:Middlewares/ST/STM32_USB_Device_Library/Class/CDC/Src/usbd_cdc.c ****         }
 573:Middlewares/ST/STM32_USB_Device_Library/Class/CDC/Src/usbd_cdc.c ****         else
 574:Middlewares/ST/STM32_USB_Device_Library/Class/CDC/Src/usbd_cdc.c ****         {
 575:Middlewares/ST/STM32_USB_Device_Library/Class/CDC/Src/usbd_cdc.c ****           hcdc->CmdOpCode = req->bRequest;
 576:Middlewares/ST/STM32_USB_Device_Library/Class/CDC/Src/usbd_cdc.c ****           hcdc->CmdLength = (uint8_t)MIN(req->wLength, USB_MAX_EP0_SIZE);
 577:Middlewares/ST/STM32_USB_Device_Library/Class/CDC/Src/usbd_cdc.c **** 
 578:Middlewares/ST/STM32_USB_Device_Library/Class/CDC/Src/usbd_cdc.c ****           (void)USBD_CtlPrepareRx(pdev, (uint8_t *)hcdc->data, hcdc->CmdLength);
 579:Middlewares/ST/STM32_USB_Device_Library/Class/CDC/Src/usbd_cdc.c ****         }
 580:Middlewares/ST/STM32_USB_Device_Library/Class/CDC/Src/usbd_cdc.c ****       }
 581:Middlewares/ST/STM32_USB_Device_Library/Class/CDC/Src/usbd_cdc.c ****       else
 582:Middlewares/ST/STM32_USB_Device_Library/Class/CDC/Src/usbd_cdc.c ****       {
 583:Middlewares/ST/STM32_USB_Device_Library/Class/CDC/Src/usbd_cdc.c ****         ((USBD_CDC_ItfTypeDef *)pdev->pUserData[pdev->classId])->Control(req->bRequest,
 584:Middlewares/ST/STM32_USB_Device_Library/Class/CDC/Src/usbd_cdc.c ****                                                                          (uint8_t *)req, 0U);
 585:Middlewares/ST/STM32_USB_Device_Library/Class/CDC/Src/usbd_cdc.c ****       }
 586:Middlewares/ST/STM32_USB_Device_Library/Class/CDC/Src/usbd_cdc.c ****       break;
 587:Middlewares/ST/STM32_USB_Device_Library/Class/CDC/Src/usbd_cdc.c **** 
 588:Middlewares/ST/STM32_USB_Device_Library/Class/CDC/Src/usbd_cdc.c ****     case USB_REQ_TYPE_STANDARD:
 589:Middlewares/ST/STM32_USB_Device_Library/Class/CDC/Src/usbd_cdc.c ****       switch (req->bRequest)
 590:Middlewares/ST/STM32_USB_Device_Library/Class/CDC/Src/usbd_cdc.c ****       {
 591:Middlewares/ST/STM32_USB_Device_Library/Class/CDC/Src/usbd_cdc.c ****         case USB_REQ_GET_STATUS:
 592:Middlewares/ST/STM32_USB_Device_Library/Class/CDC/Src/usbd_cdc.c ****           if (pdev->dev_state == USBD_STATE_CONFIGURED)
 593:Middlewares/ST/STM32_USB_Device_Library/Class/CDC/Src/usbd_cdc.c ****           {
 594:Middlewares/ST/STM32_USB_Device_Library/Class/CDC/Src/usbd_cdc.c ****             (void)USBD_CtlSendData(pdev, (uint8_t *)&status_info, 2U);
 595:Middlewares/ST/STM32_USB_Device_Library/Class/CDC/Src/usbd_cdc.c ****           }
 596:Middlewares/ST/STM32_USB_Device_Library/Class/CDC/Src/usbd_cdc.c ****           else
 597:Middlewares/ST/STM32_USB_Device_Library/Class/CDC/Src/usbd_cdc.c ****           {
 598:Middlewares/ST/STM32_USB_Device_Library/Class/CDC/Src/usbd_cdc.c ****             USBD_CtlError(pdev, req);
 599:Middlewares/ST/STM32_USB_Device_Library/Class/CDC/Src/usbd_cdc.c ****             ret = USBD_FAIL;
 600:Middlewares/ST/STM32_USB_Device_Library/Class/CDC/Src/usbd_cdc.c ****           }
ARM GAS  C:\Users\ADMINI~1\AppData\Local\Temp\cccmLDA3.s 			page 12


 601:Middlewares/ST/STM32_USB_Device_Library/Class/CDC/Src/usbd_cdc.c ****           break;
 602:Middlewares/ST/STM32_USB_Device_Library/Class/CDC/Src/usbd_cdc.c **** 
 603:Middlewares/ST/STM32_USB_Device_Library/Class/CDC/Src/usbd_cdc.c ****         case USB_REQ_GET_INTERFACE:
 604:Middlewares/ST/STM32_USB_Device_Library/Class/CDC/Src/usbd_cdc.c ****           if (pdev->dev_state == USBD_STATE_CONFIGURED)
 605:Middlewares/ST/STM32_USB_Device_Library/Class/CDC/Src/usbd_cdc.c ****           {
 606:Middlewares/ST/STM32_USB_Device_Library/Class/CDC/Src/usbd_cdc.c ****             (void)USBD_CtlSendData(pdev, &ifalt, 1U);
 607:Middlewares/ST/STM32_USB_Device_Library/Class/CDC/Src/usbd_cdc.c ****           }
 608:Middlewares/ST/STM32_USB_Device_Library/Class/CDC/Src/usbd_cdc.c ****           else
 609:Middlewares/ST/STM32_USB_Device_Library/Class/CDC/Src/usbd_cdc.c ****           {
 610:Middlewares/ST/STM32_USB_Device_Library/Class/CDC/Src/usbd_cdc.c ****             USBD_CtlError(pdev, req);
 611:Middlewares/ST/STM32_USB_Device_Library/Class/CDC/Src/usbd_cdc.c ****             ret = USBD_FAIL;
 612:Middlewares/ST/STM32_USB_Device_Library/Class/CDC/Src/usbd_cdc.c ****           }
 613:Middlewares/ST/STM32_USB_Device_Library/Class/CDC/Src/usbd_cdc.c ****           break;
 614:Middlewares/ST/STM32_USB_Device_Library/Class/CDC/Src/usbd_cdc.c **** 
 615:Middlewares/ST/STM32_USB_Device_Library/Class/CDC/Src/usbd_cdc.c ****         case USB_REQ_SET_INTERFACE:
 616:Middlewares/ST/STM32_USB_Device_Library/Class/CDC/Src/usbd_cdc.c ****           if (pdev->dev_state != USBD_STATE_CONFIGURED)
 617:Middlewares/ST/STM32_USB_Device_Library/Class/CDC/Src/usbd_cdc.c ****           {
 618:Middlewares/ST/STM32_USB_Device_Library/Class/CDC/Src/usbd_cdc.c ****             USBD_CtlError(pdev, req);
 619:Middlewares/ST/STM32_USB_Device_Library/Class/CDC/Src/usbd_cdc.c ****             ret = USBD_FAIL;
 620:Middlewares/ST/STM32_USB_Device_Library/Class/CDC/Src/usbd_cdc.c ****           }
 621:Middlewares/ST/STM32_USB_Device_Library/Class/CDC/Src/usbd_cdc.c ****           break;
 622:Middlewares/ST/STM32_USB_Device_Library/Class/CDC/Src/usbd_cdc.c **** 
 623:Middlewares/ST/STM32_USB_Device_Library/Class/CDC/Src/usbd_cdc.c ****         case USB_REQ_CLEAR_FEATURE:
 624:Middlewares/ST/STM32_USB_Device_Library/Class/CDC/Src/usbd_cdc.c ****           break;
 625:Middlewares/ST/STM32_USB_Device_Library/Class/CDC/Src/usbd_cdc.c **** 
 626:Middlewares/ST/STM32_USB_Device_Library/Class/CDC/Src/usbd_cdc.c ****         default:
 627:Middlewares/ST/STM32_USB_Device_Library/Class/CDC/Src/usbd_cdc.c ****           USBD_CtlError(pdev, req);
 628:Middlewares/ST/STM32_USB_Device_Library/Class/CDC/Src/usbd_cdc.c ****           ret = USBD_FAIL;
 629:Middlewares/ST/STM32_USB_Device_Library/Class/CDC/Src/usbd_cdc.c ****           break;
 630:Middlewares/ST/STM32_USB_Device_Library/Class/CDC/Src/usbd_cdc.c ****       }     
 631:Middlewares/ST/STM32_USB_Device_Library/Class/CDC/Src/usbd_cdc.c ****       break;
 632:Middlewares/ST/STM32_USB_Device_Library/Class/CDC/Src/usbd_cdc.c ****      case USB_REQ_TYPE_VENDOR:{
 633:Middlewares/ST/STM32_USB_Device_Library/Class/CDC/Src/usbd_cdc.c ****         USBD_WinUSBComm_SetupVendor(pdev, req);
 634:Middlewares/ST/STM32_USB_Device_Library/Class/CDC/Src/usbd_cdc.c ****       }break;
 635:Middlewares/ST/STM32_USB_Device_Library/Class/CDC/Src/usbd_cdc.c **** 
 636:Middlewares/ST/STM32_USB_Device_Library/Class/CDC/Src/usbd_cdc.c ****     default:
 637:Middlewares/ST/STM32_USB_Device_Library/Class/CDC/Src/usbd_cdc.c ****       USBD_CtlError(pdev, req);
 638:Middlewares/ST/STM32_USB_Device_Library/Class/CDC/Src/usbd_cdc.c ****       ret = USBD_FAIL;
 639:Middlewares/ST/STM32_USB_Device_Library/Class/CDC/Src/usbd_cdc.c ****       break;
 640:Middlewares/ST/STM32_USB_Device_Library/Class/CDC/Src/usbd_cdc.c ****   }
 641:Middlewares/ST/STM32_USB_Device_Library/Class/CDC/Src/usbd_cdc.c **** 
 642:Middlewares/ST/STM32_USB_Device_Library/Class/CDC/Src/usbd_cdc.c ****   return (uint8_t)ret;
 643:Middlewares/ST/STM32_USB_Device_Library/Class/CDC/Src/usbd_cdc.c **** }
 644:Middlewares/ST/STM32_USB_Device_Library/Class/CDC/Src/usbd_cdc.c **** 
 645:Middlewares/ST/STM32_USB_Device_Library/Class/CDC/Src/usbd_cdc.c **** /**
 646:Middlewares/ST/STM32_USB_Device_Library/Class/CDC/Src/usbd_cdc.c ****   * @brief  USBD_CDC_DataIn
 647:Middlewares/ST/STM32_USB_Device_Library/Class/CDC/Src/usbd_cdc.c ****   *         Data sent on non-control IN endpoint
 648:Middlewares/ST/STM32_USB_Device_Library/Class/CDC/Src/usbd_cdc.c ****   * @param  pdev: device instance
 649:Middlewares/ST/STM32_USB_Device_Library/Class/CDC/Src/usbd_cdc.c ****   * @param  epnum: endpoint number
 650:Middlewares/ST/STM32_USB_Device_Library/Class/CDC/Src/usbd_cdc.c ****   * @retval status
 651:Middlewares/ST/STM32_USB_Device_Library/Class/CDC/Src/usbd_cdc.c ****   */
 652:Middlewares/ST/STM32_USB_Device_Library/Class/CDC/Src/usbd_cdc.c **** static uint8_t USBD_CDC_DataIn(USBD_HandleTypeDef *pdev, uint8_t epnum)
 653:Middlewares/ST/STM32_USB_Device_Library/Class/CDC/Src/usbd_cdc.c **** {
 654:Middlewares/ST/STM32_USB_Device_Library/Class/CDC/Src/usbd_cdc.c ****   USBD_CDC_HandleTypeDef *hcdc;
 655:Middlewares/ST/STM32_USB_Device_Library/Class/CDC/Src/usbd_cdc.c ****   PCD_HandleTypeDef *hpcd = (PCD_HandleTypeDef *)pdev->pData;
 656:Middlewares/ST/STM32_USB_Device_Library/Class/CDC/Src/usbd_cdc.c **** 
 657:Middlewares/ST/STM32_USB_Device_Library/Class/CDC/Src/usbd_cdc.c ****   if (pdev->pClassDataCmsit[pdev->classId] == NULL)
ARM GAS  C:\Users\ADMINI~1\AppData\Local\Temp\cccmLDA3.s 			page 13


 658:Middlewares/ST/STM32_USB_Device_Library/Class/CDC/Src/usbd_cdc.c ****   {
 659:Middlewares/ST/STM32_USB_Device_Library/Class/CDC/Src/usbd_cdc.c ****     return (uint8_t)USBD_FAIL;
 660:Middlewares/ST/STM32_USB_Device_Library/Class/CDC/Src/usbd_cdc.c ****   }
 661:Middlewares/ST/STM32_USB_Device_Library/Class/CDC/Src/usbd_cdc.c **** 
 662:Middlewares/ST/STM32_USB_Device_Library/Class/CDC/Src/usbd_cdc.c ****   hcdc = (USBD_CDC_HandleTypeDef *)pdev->pClassDataCmsit[pdev->classId];
 663:Middlewares/ST/STM32_USB_Device_Library/Class/CDC/Src/usbd_cdc.c **** 
 664:Middlewares/ST/STM32_USB_Device_Library/Class/CDC/Src/usbd_cdc.c ****   if ((pdev->ep_in[epnum & 0xFU].total_length > 0U) &&
 665:Middlewares/ST/STM32_USB_Device_Library/Class/CDC/Src/usbd_cdc.c ****       ((pdev->ep_in[epnum & 0xFU].total_length % hpcd->IN_ep[epnum & 0xFU].maxpacket) == 0U))
 666:Middlewares/ST/STM32_USB_Device_Library/Class/CDC/Src/usbd_cdc.c ****   {
 667:Middlewares/ST/STM32_USB_Device_Library/Class/CDC/Src/usbd_cdc.c ****     /* Update the packet total length */
 668:Middlewares/ST/STM32_USB_Device_Library/Class/CDC/Src/usbd_cdc.c ****     pdev->ep_in[epnum & 0xFU].total_length = 0U;
 669:Middlewares/ST/STM32_USB_Device_Library/Class/CDC/Src/usbd_cdc.c **** 
 670:Middlewares/ST/STM32_USB_Device_Library/Class/CDC/Src/usbd_cdc.c ****     /* Send ZLP */
 671:Middlewares/ST/STM32_USB_Device_Library/Class/CDC/Src/usbd_cdc.c ****     (void)USBD_LL_Transmit(pdev, epnum, NULL, 0U);
 672:Middlewares/ST/STM32_USB_Device_Library/Class/CDC/Src/usbd_cdc.c ****   }
 673:Middlewares/ST/STM32_USB_Device_Library/Class/CDC/Src/usbd_cdc.c ****   else
 674:Middlewares/ST/STM32_USB_Device_Library/Class/CDC/Src/usbd_cdc.c ****   {
 675:Middlewares/ST/STM32_USB_Device_Library/Class/CDC/Src/usbd_cdc.c ****     
 676:Middlewares/ST/STM32_USB_Device_Library/Class/CDC/Src/usbd_cdc.c ****     if (epnum == CDC_OUT_EP)
 677:Middlewares/ST/STM32_USB_Device_Library/Class/CDC/Src/usbd_cdc.c ****     {
 678:Middlewares/ST/STM32_USB_Device_Library/Class/CDC/Src/usbd_cdc.c ****       hcdc->CDC_Tx.State = 0;
 679:Middlewares/ST/STM32_USB_Device_Library/Class/CDC/Src/usbd_cdc.c ****       if(((USBD_CDC_ItfTypeDef *)pdev->pUserData[pdev->classId])->TransmitCplt != NULL)
 680:Middlewares/ST/STM32_USB_Device_Library/Class/CDC/Src/usbd_cdc.c ****       {
 681:Middlewares/ST/STM32_USB_Device_Library/Class/CDC/Src/usbd_cdc.c ****         ((USBD_CDC_ItfTypeDef *)pdev->pUserData[pdev->classId])->TransmitCplt(hcdc->CDC_Tx.Buffer, 
 682:Middlewares/ST/STM32_USB_Device_Library/Class/CDC/Src/usbd_cdc.c ****       }
 683:Middlewares/ST/STM32_USB_Device_Library/Class/CDC/Src/usbd_cdc.c ****     }
 684:Middlewares/ST/STM32_USB_Device_Library/Class/CDC/Src/usbd_cdc.c ****     if (epnum == ODRIVE_OUT_EP)
 685:Middlewares/ST/STM32_USB_Device_Library/Class/CDC/Src/usbd_cdc.c ****       hcdc->ODRIVE_Tx.State = 0;
 686:Middlewares/ST/STM32_USB_Device_Library/Class/CDC/Src/usbd_cdc.c ****   }
 687:Middlewares/ST/STM32_USB_Device_Library/Class/CDC/Src/usbd_cdc.c **** 
 688:Middlewares/ST/STM32_USB_Device_Library/Class/CDC/Src/usbd_cdc.c ****   return (uint8_t)USBD_OK;
 689:Middlewares/ST/STM32_USB_Device_Library/Class/CDC/Src/usbd_cdc.c **** }
 690:Middlewares/ST/STM32_USB_Device_Library/Class/CDC/Src/usbd_cdc.c **** 
 691:Middlewares/ST/STM32_USB_Device_Library/Class/CDC/Src/usbd_cdc.c **** /**
 692:Middlewares/ST/STM32_USB_Device_Library/Class/CDC/Src/usbd_cdc.c ****   * @brief  USBD_CDC_DataOut
 693:Middlewares/ST/STM32_USB_Device_Library/Class/CDC/Src/usbd_cdc.c ****   *         Data received on non-control Out endpoint
 694:Middlewares/ST/STM32_USB_Device_Library/Class/CDC/Src/usbd_cdc.c ****   * @param  pdev: device instance
 695:Middlewares/ST/STM32_USB_Device_Library/Class/CDC/Src/usbd_cdc.c ****   * @param  epnum: endpoint number
 696:Middlewares/ST/STM32_USB_Device_Library/Class/CDC/Src/usbd_cdc.c ****   * @retval status
 697:Middlewares/ST/STM32_USB_Device_Library/Class/CDC/Src/usbd_cdc.c ****   */
 698:Middlewares/ST/STM32_USB_Device_Library/Class/CDC/Src/usbd_cdc.c **** static uint8_t USBD_CDC_DataOut(USBD_HandleTypeDef *pdev, uint8_t epnum)
 699:Middlewares/ST/STM32_USB_Device_Library/Class/CDC/Src/usbd_cdc.c **** {
 700:Middlewares/ST/STM32_USB_Device_Library/Class/CDC/Src/usbd_cdc.c ****   USBD_CDC_HandleTypeDef *hcdc = (USBD_CDC_HandleTypeDef *)pdev->pClassDataCmsit[pdev->classId];
 701:Middlewares/ST/STM32_USB_Device_Library/Class/CDC/Src/usbd_cdc.c **** 
 702:Middlewares/ST/STM32_USB_Device_Library/Class/CDC/Src/usbd_cdc.c ****   if (pdev->pClassDataCmsit[pdev->classId] == NULL)
 703:Middlewares/ST/STM32_USB_Device_Library/Class/CDC/Src/usbd_cdc.c ****   {
 704:Middlewares/ST/STM32_USB_Device_Library/Class/CDC/Src/usbd_cdc.c ****     return (uint8_t)USBD_FAIL;
 705:Middlewares/ST/STM32_USB_Device_Library/Class/CDC/Src/usbd_cdc.c ****   }
 706:Middlewares/ST/STM32_USB_Device_Library/Class/CDC/Src/usbd_cdc.c **** 
 707:Middlewares/ST/STM32_USB_Device_Library/Class/CDC/Src/usbd_cdc.c ****   USBD_CDC_EP_HandleTypeDef* hEP_Rx;
 708:Middlewares/ST/STM32_USB_Device_Library/Class/CDC/Src/usbd_cdc.c ****   if (epnum == CDC_OUT_EP) {
 709:Middlewares/ST/STM32_USB_Device_Library/Class/CDC/Src/usbd_cdc.c ****     hEP_Rx = &hcdc->CDC_Rx;
 710:Middlewares/ST/STM32_USB_Device_Library/Class/CDC/Src/usbd_cdc.c ****   } else if (epnum == ODRIVE_OUT_EP) {
 711:Middlewares/ST/STM32_USB_Device_Library/Class/CDC/Src/usbd_cdc.c ****     hEP_Rx = &hcdc->ODRIVE_Rx;
 712:Middlewares/ST/STM32_USB_Device_Library/Class/CDC/Src/usbd_cdc.c ****   } else {
 713:Middlewares/ST/STM32_USB_Device_Library/Class/CDC/Src/usbd_cdc.c ****     return USBD_FAIL;
 714:Middlewares/ST/STM32_USB_Device_Library/Class/CDC/Src/usbd_cdc.c ****   }
ARM GAS  C:\Users\ADMINI~1\AppData\Local\Temp\cccmLDA3.s 			page 14


 715:Middlewares/ST/STM32_USB_Device_Library/Class/CDC/Src/usbd_cdc.c **** 
 716:Middlewares/ST/STM32_USB_Device_Library/Class/CDC/Src/usbd_cdc.c **** 
 717:Middlewares/ST/STM32_USB_Device_Library/Class/CDC/Src/usbd_cdc.c ****   /* Get the received data length */
 718:Middlewares/ST/STM32_USB_Device_Library/Class/CDC/Src/usbd_cdc.c ****   hEP_Rx->Length = USBD_LL_GetRxDataSize(pdev, epnum);
 719:Middlewares/ST/STM32_USB_Device_Library/Class/CDC/Src/usbd_cdc.c **** 
 720:Middlewares/ST/STM32_USB_Device_Library/Class/CDC/Src/usbd_cdc.c ****   /* USB data will be immediately processed, this allow next USB traffic being
 721:Middlewares/ST/STM32_USB_Device_Library/Class/CDC/Src/usbd_cdc.c ****   NAKed till the end of the application Xfer */
 722:Middlewares/ST/STM32_USB_Device_Library/Class/CDC/Src/usbd_cdc.c **** 
 723:Middlewares/ST/STM32_USB_Device_Library/Class/CDC/Src/usbd_cdc.c ****   ((USBD_CDC_ItfTypeDef *)pdev->pUserData[pdev->classId])->Receive(hEP_Rx->Buffer, &hEP_Rx->Length,
 724:Middlewares/ST/STM32_USB_Device_Library/Class/CDC/Src/usbd_cdc.c **** 
 725:Middlewares/ST/STM32_USB_Device_Library/Class/CDC/Src/usbd_cdc.c ****   return (uint8_t)USBD_OK;
 726:Middlewares/ST/STM32_USB_Device_Library/Class/CDC/Src/usbd_cdc.c **** }
 727:Middlewares/ST/STM32_USB_Device_Library/Class/CDC/Src/usbd_cdc.c **** 
 728:Middlewares/ST/STM32_USB_Device_Library/Class/CDC/Src/usbd_cdc.c **** /**
 729:Middlewares/ST/STM32_USB_Device_Library/Class/CDC/Src/usbd_cdc.c ****   * @brief  USBD_CDC_EP0_RxReady
 730:Middlewares/ST/STM32_USB_Device_Library/Class/CDC/Src/usbd_cdc.c ****   *         Handle EP0 Rx Ready event
 731:Middlewares/ST/STM32_USB_Device_Library/Class/CDC/Src/usbd_cdc.c ****   * @param  pdev: device instance
 732:Middlewares/ST/STM32_USB_Device_Library/Class/CDC/Src/usbd_cdc.c ****   * @retval status
 733:Middlewares/ST/STM32_USB_Device_Library/Class/CDC/Src/usbd_cdc.c ****   */
 734:Middlewares/ST/STM32_USB_Device_Library/Class/CDC/Src/usbd_cdc.c **** static uint8_t USBD_CDC_EP0_RxReady(USBD_HandleTypeDef *pdev)
 735:Middlewares/ST/STM32_USB_Device_Library/Class/CDC/Src/usbd_cdc.c **** {
  29              		.loc 1 735 1 view -0
  30              		.cfi_startproc
  31              		@ args = 0, pretend = 0, frame = 0
  32              		@ frame_needed = 0, uses_anonymous_args = 0
  33              		.loc 1 735 1 is_stmt 0 view .LVU1
  34 0000 10B5     		push	{r4, lr}
  35              	.LCFI0:
  36              		.cfi_def_cfa_offset 8
  37              		.cfi_offset 4, -8
  38              		.cfi_offset 14, -4
 736:Middlewares/ST/STM32_USB_Device_Library/Class/CDC/Src/usbd_cdc.c ****   USBD_CDC_HandleTypeDef *hcdc = (USBD_CDC_HandleTypeDef *)pdev->pClassDataCmsit[pdev->classId];
  39              		.loc 1 736 3 is_stmt 1 view .LVU2
  40              		.loc 1 736 86 is_stmt 0 view .LVU3
  41 0002 D0F8D432 		ldr	r3, [r0, #724]
  42              		.loc 1 736 27 view .LVU4
  43 0006 03F1B002 		add	r2, r3, #176
  44 000a 50F82240 		ldr	r4, [r0, r2, lsl #2]
  45              	.LVL1:
 737:Middlewares/ST/STM32_USB_Device_Library/Class/CDC/Src/usbd_cdc.c **** 
 738:Middlewares/ST/STM32_USB_Device_Library/Class/CDC/Src/usbd_cdc.c ****   if (hcdc == NULL)
  46              		.loc 1 738 3 is_stmt 1 view .LVU5
  47              		.loc 1 738 6 is_stmt 0 view .LVU6
  48 000e 8CB1     		cbz	r4, .L3
 739:Middlewares/ST/STM32_USB_Device_Library/Class/CDC/Src/usbd_cdc.c ****   {
 740:Middlewares/ST/STM32_USB_Device_Library/Class/CDC/Src/usbd_cdc.c ****     return (uint8_t)USBD_FAIL;
 741:Middlewares/ST/STM32_USB_Device_Library/Class/CDC/Src/usbd_cdc.c ****   }
 742:Middlewares/ST/STM32_USB_Device_Library/Class/CDC/Src/usbd_cdc.c **** 
 743:Middlewares/ST/STM32_USB_Device_Library/Class/CDC/Src/usbd_cdc.c ****   if ((pdev->pUserData[pdev->classId] != NULL) && (hcdc->CmdOpCode != 0xFFU))
  49              		.loc 1 743 3 is_stmt 1 view .LVU7
  50              		.loc 1 743 23 is_stmt 0 view .LVU8
  51 0010 00EB8200 		add	r0, r0, r2, lsl #2
  52              	.LVL2:
  53              		.loc 1 743 23 view .LVU9
  54 0014 4368     		ldr	r3, [r0, #4]
  55              		.loc 1 743 6 view .LVU10
  56 0016 7BB1     		cbz	r3, .L4
ARM GAS  C:\Users\ADMINI~1\AppData\Local\Temp\cccmLDA3.s 			page 15


  57              		.loc 1 743 56 discriminator 1 view .LVU11
  58 0018 94F84000 		ldrb	r0, [r4, #64]	@ zero_extendqisi2
  59              		.loc 1 743 48 discriminator 1 view .LVU12
  60 001c FF28     		cmp	r0, #255
  61 001e 0DD0     		beq	.L5
 744:Middlewares/ST/STM32_USB_Device_Library/Class/CDC/Src/usbd_cdc.c ****   {
 745:Middlewares/ST/STM32_USB_Device_Library/Class/CDC/Src/usbd_cdc.c ****     ((USBD_CDC_ItfTypeDef *)pdev->pUserData[pdev->classId])->Control(hcdc->CmdOpCode,
  62              		.loc 1 745 5 is_stmt 1 view .LVU13
  63              		.loc 1 745 60 is_stmt 0 view .LVU14
  64 0020 9B68     		ldr	r3, [r3, #8]
  65              		.loc 1 745 6 view .LVU15
  66 0022 94F84120 		ldrb	r2, [r4, #65]	@ zero_extendqisi2
  67 0026 2146     		mov	r1, r4
  68 0028 9847     		blx	r3
  69              	.LVL3:
 746:Middlewares/ST/STM32_USB_Device_Library/Class/CDC/Src/usbd_cdc.c ****                                                                      (uint8_t *)hcdc->data,
 747:Middlewares/ST/STM32_USB_Device_Library/Class/CDC/Src/usbd_cdc.c ****                                                                      (uint16_t)hcdc->CmdLength);
 748:Middlewares/ST/STM32_USB_Device_Library/Class/CDC/Src/usbd_cdc.c ****     hcdc->CmdOpCode = 0xFFU;
  70              		.loc 1 748 5 is_stmt 1 view .LVU16
  71              		.loc 1 748 21 is_stmt 0 view .LVU17
  72 002a FF23     		movs	r3, #255
  73 002c 84F84030 		strb	r3, [r4, #64]
 749:Middlewares/ST/STM32_USB_Device_Library/Class/CDC/Src/usbd_cdc.c ****   }
 750:Middlewares/ST/STM32_USB_Device_Library/Class/CDC/Src/usbd_cdc.c **** 
 751:Middlewares/ST/STM32_USB_Device_Library/Class/CDC/Src/usbd_cdc.c ****   return (uint8_t)USBD_OK;
  74              		.loc 1 751 10 view .LVU18
  75 0030 0020     		movs	r0, #0
  76              	.L2:
 752:Middlewares/ST/STM32_USB_Device_Library/Class/CDC/Src/usbd_cdc.c **** }
  77              		.loc 1 752 1 view .LVU19
  78 0032 10BD     		pop	{r4, pc}
  79              	.LVL4:
  80              	.L3:
 740:Middlewares/ST/STM32_USB_Device_Library/Class/CDC/Src/usbd_cdc.c ****   }
  81              		.loc 1 740 12 view .LVU20
  82 0034 0320     		movs	r0, #3
  83              	.LVL5:
 740:Middlewares/ST/STM32_USB_Device_Library/Class/CDC/Src/usbd_cdc.c ****   }
  84              		.loc 1 740 12 view .LVU21
  85 0036 FCE7     		b	.L2
  86              	.L4:
 751:Middlewares/ST/STM32_USB_Device_Library/Class/CDC/Src/usbd_cdc.c **** }
  87              		.loc 1 751 10 view .LVU22
  88 0038 0020     		movs	r0, #0
  89 003a FAE7     		b	.L2
  90              	.L5:
  91 003c 0020     		movs	r0, #0
  92 003e F8E7     		b	.L2
  93              		.cfi_endproc
  94              	.LFE139:
  96              		.section	.text.USBD_CDC_GetDeviceQualifierDescriptor,"ax",%progbits
  97              		.align	1
  98              		.global	USBD_CDC_GetDeviceQualifierDescriptor
  99              		.syntax unified
 100              		.thumb
 101              		.thumb_func
 103              	USBD_CDC_GetDeviceQualifierDescriptor:
ARM GAS  C:\Users\ADMINI~1\AppData\Local\Temp\cccmLDA3.s 			page 16


 104              	.LVL6:
 105              	.LFB143:
 753:Middlewares/ST/STM32_USB_Device_Library/Class/CDC/Src/usbd_cdc.c **** #ifndef USE_USBD_COMPOSITE
 754:Middlewares/ST/STM32_USB_Device_Library/Class/CDC/Src/usbd_cdc.c **** /**
 755:Middlewares/ST/STM32_USB_Device_Library/Class/CDC/Src/usbd_cdc.c ****   * @brief  USBD_CDC_GetFSCfgDesc
 756:Middlewares/ST/STM32_USB_Device_Library/Class/CDC/Src/usbd_cdc.c ****   *         Return configuration descriptor
 757:Middlewares/ST/STM32_USB_Device_Library/Class/CDC/Src/usbd_cdc.c ****   * @param  length : pointer data length
 758:Middlewares/ST/STM32_USB_Device_Library/Class/CDC/Src/usbd_cdc.c ****   * @retval pointer to descriptor buffer
 759:Middlewares/ST/STM32_USB_Device_Library/Class/CDC/Src/usbd_cdc.c ****   */
 760:Middlewares/ST/STM32_USB_Device_Library/Class/CDC/Src/usbd_cdc.c **** static uint8_t *USBD_CDC_GetFSCfgDesc(uint16_t *length)
 761:Middlewares/ST/STM32_USB_Device_Library/Class/CDC/Src/usbd_cdc.c **** {
 762:Middlewares/ST/STM32_USB_Device_Library/Class/CDC/Src/usbd_cdc.c ****   USBD_EpDescTypeDef *pEpCmdDesc = USBD_GetEpDesc(USBD_CDC_CfgDesc, CDC_CMD_EP);
 763:Middlewares/ST/STM32_USB_Device_Library/Class/CDC/Src/usbd_cdc.c ****   USBD_EpDescTypeDef *pEpOutDesc = USBD_GetEpDesc(USBD_CDC_CfgDesc, CDC_OUT_EP);
 764:Middlewares/ST/STM32_USB_Device_Library/Class/CDC/Src/usbd_cdc.c ****   USBD_EpDescTypeDef *pEpInDesc = USBD_GetEpDesc(USBD_CDC_CfgDesc, CDC_IN_EP);
 765:Middlewares/ST/STM32_USB_Device_Library/Class/CDC/Src/usbd_cdc.c **** 
 766:Middlewares/ST/STM32_USB_Device_Library/Class/CDC/Src/usbd_cdc.c ****   if (pEpCmdDesc != NULL)
 767:Middlewares/ST/STM32_USB_Device_Library/Class/CDC/Src/usbd_cdc.c ****   {
 768:Middlewares/ST/STM32_USB_Device_Library/Class/CDC/Src/usbd_cdc.c ****     pEpCmdDesc->bInterval = CDC_FS_BINTERVAL;
 769:Middlewares/ST/STM32_USB_Device_Library/Class/CDC/Src/usbd_cdc.c ****   }
 770:Middlewares/ST/STM32_USB_Device_Library/Class/CDC/Src/usbd_cdc.c **** 
 771:Middlewares/ST/STM32_USB_Device_Library/Class/CDC/Src/usbd_cdc.c ****   if (pEpOutDesc != NULL)
 772:Middlewares/ST/STM32_USB_Device_Library/Class/CDC/Src/usbd_cdc.c ****   {
 773:Middlewares/ST/STM32_USB_Device_Library/Class/CDC/Src/usbd_cdc.c ****     pEpOutDesc->wMaxPacketSize = CDC_DATA_FS_MAX_PACKET_SIZE;
 774:Middlewares/ST/STM32_USB_Device_Library/Class/CDC/Src/usbd_cdc.c ****   }
 775:Middlewares/ST/STM32_USB_Device_Library/Class/CDC/Src/usbd_cdc.c **** 
 776:Middlewares/ST/STM32_USB_Device_Library/Class/CDC/Src/usbd_cdc.c ****   if (pEpInDesc != NULL)
 777:Middlewares/ST/STM32_USB_Device_Library/Class/CDC/Src/usbd_cdc.c ****   {
 778:Middlewares/ST/STM32_USB_Device_Library/Class/CDC/Src/usbd_cdc.c ****     pEpInDesc->wMaxPacketSize = CDC_DATA_FS_MAX_PACKET_SIZE;
 779:Middlewares/ST/STM32_USB_Device_Library/Class/CDC/Src/usbd_cdc.c ****   }
 780:Middlewares/ST/STM32_USB_Device_Library/Class/CDC/Src/usbd_cdc.c **** 
 781:Middlewares/ST/STM32_USB_Device_Library/Class/CDC/Src/usbd_cdc.c ****   *length = (uint16_t)sizeof(USBD_CDC_CfgDesc);
 782:Middlewares/ST/STM32_USB_Device_Library/Class/CDC/Src/usbd_cdc.c ****   return USBD_CDC_CfgDesc;
 783:Middlewares/ST/STM32_USB_Device_Library/Class/CDC/Src/usbd_cdc.c **** }
 784:Middlewares/ST/STM32_USB_Device_Library/Class/CDC/Src/usbd_cdc.c **** 
 785:Middlewares/ST/STM32_USB_Device_Library/Class/CDC/Src/usbd_cdc.c **** /**
 786:Middlewares/ST/STM32_USB_Device_Library/Class/CDC/Src/usbd_cdc.c ****   * @brief  USBD_CDC_GetHSCfgDesc
 787:Middlewares/ST/STM32_USB_Device_Library/Class/CDC/Src/usbd_cdc.c ****   *         Return configuration descriptor
 788:Middlewares/ST/STM32_USB_Device_Library/Class/CDC/Src/usbd_cdc.c ****   * @param  length : pointer data length
 789:Middlewares/ST/STM32_USB_Device_Library/Class/CDC/Src/usbd_cdc.c ****   * @retval pointer to descriptor buffer
 790:Middlewares/ST/STM32_USB_Device_Library/Class/CDC/Src/usbd_cdc.c ****   */
 791:Middlewares/ST/STM32_USB_Device_Library/Class/CDC/Src/usbd_cdc.c **** static uint8_t *USBD_CDC_GetHSCfgDesc(uint16_t *length)
 792:Middlewares/ST/STM32_USB_Device_Library/Class/CDC/Src/usbd_cdc.c **** {
 793:Middlewares/ST/STM32_USB_Device_Library/Class/CDC/Src/usbd_cdc.c ****   USBD_EpDescTypeDef *pEpCmdDesc = USBD_GetEpDesc(USBD_CDC_CfgDesc, CDC_CMD_EP);
 794:Middlewares/ST/STM32_USB_Device_Library/Class/CDC/Src/usbd_cdc.c ****   USBD_EpDescTypeDef *pEpOutDesc = USBD_GetEpDesc(USBD_CDC_CfgDesc, CDC_OUT_EP);
 795:Middlewares/ST/STM32_USB_Device_Library/Class/CDC/Src/usbd_cdc.c ****   USBD_EpDescTypeDef *pEpInDesc = USBD_GetEpDesc(USBD_CDC_CfgDesc, CDC_IN_EP);
 796:Middlewares/ST/STM32_USB_Device_Library/Class/CDC/Src/usbd_cdc.c **** 
 797:Middlewares/ST/STM32_USB_Device_Library/Class/CDC/Src/usbd_cdc.c ****   if (pEpCmdDesc != NULL)
 798:Middlewares/ST/STM32_USB_Device_Library/Class/CDC/Src/usbd_cdc.c ****   {
 799:Middlewares/ST/STM32_USB_Device_Library/Class/CDC/Src/usbd_cdc.c ****     pEpCmdDesc->bInterval = CDC_HS_BINTERVAL;
 800:Middlewares/ST/STM32_USB_Device_Library/Class/CDC/Src/usbd_cdc.c ****   }
 801:Middlewares/ST/STM32_USB_Device_Library/Class/CDC/Src/usbd_cdc.c **** 
 802:Middlewares/ST/STM32_USB_Device_Library/Class/CDC/Src/usbd_cdc.c ****   if (pEpOutDesc != NULL)
 803:Middlewares/ST/STM32_USB_Device_Library/Class/CDC/Src/usbd_cdc.c ****   {
 804:Middlewares/ST/STM32_USB_Device_Library/Class/CDC/Src/usbd_cdc.c ****     pEpOutDesc->wMaxPacketSize = CDC_DATA_HS_MAX_PACKET_SIZE;
 805:Middlewares/ST/STM32_USB_Device_Library/Class/CDC/Src/usbd_cdc.c ****   }
 806:Middlewares/ST/STM32_USB_Device_Library/Class/CDC/Src/usbd_cdc.c **** 
 807:Middlewares/ST/STM32_USB_Device_Library/Class/CDC/Src/usbd_cdc.c ****   if (pEpInDesc != NULL)
ARM GAS  C:\Users\ADMINI~1\AppData\Local\Temp\cccmLDA3.s 			page 17


 808:Middlewares/ST/STM32_USB_Device_Library/Class/CDC/Src/usbd_cdc.c ****   {
 809:Middlewares/ST/STM32_USB_Device_Library/Class/CDC/Src/usbd_cdc.c ****     pEpInDesc->wMaxPacketSize = CDC_DATA_HS_MAX_PACKET_SIZE;
 810:Middlewares/ST/STM32_USB_Device_Library/Class/CDC/Src/usbd_cdc.c ****   }
 811:Middlewares/ST/STM32_USB_Device_Library/Class/CDC/Src/usbd_cdc.c **** 
 812:Middlewares/ST/STM32_USB_Device_Library/Class/CDC/Src/usbd_cdc.c ****   *length = (uint16_t)sizeof(USBD_CDC_CfgDesc);
 813:Middlewares/ST/STM32_USB_Device_Library/Class/CDC/Src/usbd_cdc.c ****   return USBD_CDC_CfgDesc;
 814:Middlewares/ST/STM32_USB_Device_Library/Class/CDC/Src/usbd_cdc.c **** }
 815:Middlewares/ST/STM32_USB_Device_Library/Class/CDC/Src/usbd_cdc.c **** 
 816:Middlewares/ST/STM32_USB_Device_Library/Class/CDC/Src/usbd_cdc.c **** /**
 817:Middlewares/ST/STM32_USB_Device_Library/Class/CDC/Src/usbd_cdc.c ****   * @brief  USBD_CDC_GetOtherSpeedCfgDesc
 818:Middlewares/ST/STM32_USB_Device_Library/Class/CDC/Src/usbd_cdc.c ****   *         Return configuration descriptor
 819:Middlewares/ST/STM32_USB_Device_Library/Class/CDC/Src/usbd_cdc.c ****   * @param  length : pointer data length
 820:Middlewares/ST/STM32_USB_Device_Library/Class/CDC/Src/usbd_cdc.c ****   * @retval pointer to descriptor buffer
 821:Middlewares/ST/STM32_USB_Device_Library/Class/CDC/Src/usbd_cdc.c ****   */
 822:Middlewares/ST/STM32_USB_Device_Library/Class/CDC/Src/usbd_cdc.c **** static uint8_t *USBD_CDC_GetOtherSpeedCfgDesc(uint16_t *length)
 823:Middlewares/ST/STM32_USB_Device_Library/Class/CDC/Src/usbd_cdc.c **** {
 824:Middlewares/ST/STM32_USB_Device_Library/Class/CDC/Src/usbd_cdc.c ****   USBD_EpDescTypeDef *pEpCmdDesc = USBD_GetEpDesc(USBD_CDC_CfgDesc, CDC_CMD_EP);
 825:Middlewares/ST/STM32_USB_Device_Library/Class/CDC/Src/usbd_cdc.c ****   USBD_EpDescTypeDef *pEpOutDesc = USBD_GetEpDesc(USBD_CDC_CfgDesc, CDC_OUT_EP);
 826:Middlewares/ST/STM32_USB_Device_Library/Class/CDC/Src/usbd_cdc.c ****   USBD_EpDescTypeDef *pEpInDesc = USBD_GetEpDesc(USBD_CDC_CfgDesc, CDC_IN_EP);
 827:Middlewares/ST/STM32_USB_Device_Library/Class/CDC/Src/usbd_cdc.c **** 
 828:Middlewares/ST/STM32_USB_Device_Library/Class/CDC/Src/usbd_cdc.c ****   if (pEpCmdDesc != NULL)
 829:Middlewares/ST/STM32_USB_Device_Library/Class/CDC/Src/usbd_cdc.c ****   {
 830:Middlewares/ST/STM32_USB_Device_Library/Class/CDC/Src/usbd_cdc.c ****     pEpCmdDesc->bInterval = CDC_FS_BINTERVAL;
 831:Middlewares/ST/STM32_USB_Device_Library/Class/CDC/Src/usbd_cdc.c ****   }
 832:Middlewares/ST/STM32_USB_Device_Library/Class/CDC/Src/usbd_cdc.c **** 
 833:Middlewares/ST/STM32_USB_Device_Library/Class/CDC/Src/usbd_cdc.c ****   if (pEpOutDesc != NULL)
 834:Middlewares/ST/STM32_USB_Device_Library/Class/CDC/Src/usbd_cdc.c ****   {
 835:Middlewares/ST/STM32_USB_Device_Library/Class/CDC/Src/usbd_cdc.c ****     pEpOutDesc->wMaxPacketSize = CDC_DATA_FS_MAX_PACKET_SIZE;
 836:Middlewares/ST/STM32_USB_Device_Library/Class/CDC/Src/usbd_cdc.c ****   }
 837:Middlewares/ST/STM32_USB_Device_Library/Class/CDC/Src/usbd_cdc.c **** 
 838:Middlewares/ST/STM32_USB_Device_Library/Class/CDC/Src/usbd_cdc.c ****   if (pEpInDesc != NULL)
 839:Middlewares/ST/STM32_USB_Device_Library/Class/CDC/Src/usbd_cdc.c ****   {
 840:Middlewares/ST/STM32_USB_Device_Library/Class/CDC/Src/usbd_cdc.c ****     pEpInDesc->wMaxPacketSize = CDC_DATA_FS_MAX_PACKET_SIZE;
 841:Middlewares/ST/STM32_USB_Device_Library/Class/CDC/Src/usbd_cdc.c ****   }
 842:Middlewares/ST/STM32_USB_Device_Library/Class/CDC/Src/usbd_cdc.c **** 
 843:Middlewares/ST/STM32_USB_Device_Library/Class/CDC/Src/usbd_cdc.c ****   *length = (uint16_t)sizeof(USBD_CDC_CfgDesc);
 844:Middlewares/ST/STM32_USB_Device_Library/Class/CDC/Src/usbd_cdc.c ****   return USBD_CDC_CfgDesc;
 845:Middlewares/ST/STM32_USB_Device_Library/Class/CDC/Src/usbd_cdc.c **** }
 846:Middlewares/ST/STM32_USB_Device_Library/Class/CDC/Src/usbd_cdc.c **** 
 847:Middlewares/ST/STM32_USB_Device_Library/Class/CDC/Src/usbd_cdc.c **** /**
 848:Middlewares/ST/STM32_USB_Device_Library/Class/CDC/Src/usbd_cdc.c ****   * @brief  USBD_CDC_GetDeviceQualifierDescriptor
 849:Middlewares/ST/STM32_USB_Device_Library/Class/CDC/Src/usbd_cdc.c ****   *         return Device Qualifier descriptor
 850:Middlewares/ST/STM32_USB_Device_Library/Class/CDC/Src/usbd_cdc.c ****   * @param  length : pointer data length
 851:Middlewares/ST/STM32_USB_Device_Library/Class/CDC/Src/usbd_cdc.c ****   * @retval pointer to descriptor buffer
 852:Middlewares/ST/STM32_USB_Device_Library/Class/CDC/Src/usbd_cdc.c ****   */
 853:Middlewares/ST/STM32_USB_Device_Library/Class/CDC/Src/usbd_cdc.c **** uint8_t *USBD_CDC_GetDeviceQualifierDescriptor(uint16_t *length)
 854:Middlewares/ST/STM32_USB_Device_Library/Class/CDC/Src/usbd_cdc.c **** {
 106              		.loc 1 854 1 is_stmt 1 view -0
 107              		.cfi_startproc
 108              		@ args = 0, pretend = 0, frame = 0
 109              		@ frame_needed = 0, uses_anonymous_args = 0
 110              		@ link register save eliminated.
 855:Middlewares/ST/STM32_USB_Device_Library/Class/CDC/Src/usbd_cdc.c ****   *length = (uint16_t)sizeof(USBD_CDC_DeviceQualifierDesc);
 111              		.loc 1 855 3 view .LVU24
 112              		.loc 1 855 11 is_stmt 0 view .LVU25
 113 0000 0A23     		movs	r3, #10
 114 0002 0380     		strh	r3, [r0]	@ movhi
ARM GAS  C:\Users\ADMINI~1\AppData\Local\Temp\cccmLDA3.s 			page 18


 856:Middlewares/ST/STM32_USB_Device_Library/Class/CDC/Src/usbd_cdc.c **** 
 857:Middlewares/ST/STM32_USB_Device_Library/Class/CDC/Src/usbd_cdc.c ****   return USBD_CDC_DeviceQualifierDesc;
 115              		.loc 1 857 3 is_stmt 1 view .LVU26
 858:Middlewares/ST/STM32_USB_Device_Library/Class/CDC/Src/usbd_cdc.c **** }
 116              		.loc 1 858 1 is_stmt 0 view .LVU27
 117 0004 0048     		ldr	r0, .L8
 118              	.LVL7:
 119              		.loc 1 858 1 view .LVU28
 120 0006 7047     		bx	lr
 121              	.L9:
 122              		.align	2
 123              	.L8:
 124 0008 00000000 		.word	.LANCHOR0
 125              		.cfi_endproc
 126              	.LFE143:
 128              		.section	.text.USBD_CDC_GetOtherSpeedCfgDesc,"ax",%progbits
 129              		.align	1
 130              		.syntax unified
 131              		.thumb
 132              		.thumb_func
 134              	USBD_CDC_GetOtherSpeedCfgDesc:
 135              	.LVL8:
 136              	.LFB142:
 823:Middlewares/ST/STM32_USB_Device_Library/Class/CDC/Src/usbd_cdc.c ****   USBD_EpDescTypeDef *pEpCmdDesc = USBD_GetEpDesc(USBD_CDC_CfgDesc, CDC_CMD_EP);
 137              		.loc 1 823 1 is_stmt 1 view -0
 138              		.cfi_startproc
 139              		@ args = 0, pretend = 0, frame = 0
 140              		@ frame_needed = 0, uses_anonymous_args = 0
 823:Middlewares/ST/STM32_USB_Device_Library/Class/CDC/Src/usbd_cdc.c ****   USBD_EpDescTypeDef *pEpCmdDesc = USBD_GetEpDesc(USBD_CDC_CfgDesc, CDC_CMD_EP);
 141              		.loc 1 823 1 is_stmt 0 view .LVU30
 142 0000 F8B5     		push	{r3, r4, r5, r6, r7, lr}
 143              	.LCFI1:
 144              		.cfi_def_cfa_offset 24
 145              		.cfi_offset 3, -24
 146              		.cfi_offset 4, -20
 147              		.cfi_offset 5, -16
 148              		.cfi_offset 6, -12
 149              		.cfi_offset 7, -8
 150              		.cfi_offset 14, -4
 151 0002 0646     		mov	r6, r0
 824:Middlewares/ST/STM32_USB_Device_Library/Class/CDC/Src/usbd_cdc.c ****   USBD_EpDescTypeDef *pEpOutDesc = USBD_GetEpDesc(USBD_CDC_CfgDesc, CDC_OUT_EP);
 152              		.loc 1 824 3 is_stmt 1 view .LVU31
 824:Middlewares/ST/STM32_USB_Device_Library/Class/CDC/Src/usbd_cdc.c ****   USBD_EpDescTypeDef *pEpOutDesc = USBD_GetEpDesc(USBD_CDC_CfgDesc, CDC_OUT_EP);
 153              		.loc 1 824 36 is_stmt 0 view .LVU32
 154 0004 0F4F     		ldr	r7, .L15
 155 0006 8221     		movs	r1, #130
 156 0008 3846     		mov	r0, r7
 157              	.LVL9:
 824:Middlewares/ST/STM32_USB_Device_Library/Class/CDC/Src/usbd_cdc.c ****   USBD_EpDescTypeDef *pEpOutDesc = USBD_GetEpDesc(USBD_CDC_CfgDesc, CDC_OUT_EP);
 158              		.loc 1 824 36 view .LVU33
 159 000a FFF7FEFF 		bl	USBD_GetEpDesc
 160              	.LVL10:
 161 000e 0546     		mov	r5, r0
 162              	.LVL11:
 825:Middlewares/ST/STM32_USB_Device_Library/Class/CDC/Src/usbd_cdc.c ****   USBD_EpDescTypeDef *pEpInDesc = USBD_GetEpDesc(USBD_CDC_CfgDesc, CDC_IN_EP);
 163              		.loc 1 825 3 is_stmt 1 view .LVU34
 825:Middlewares/ST/STM32_USB_Device_Library/Class/CDC/Src/usbd_cdc.c ****   USBD_EpDescTypeDef *pEpInDesc = USBD_GetEpDesc(USBD_CDC_CfgDesc, CDC_IN_EP);
ARM GAS  C:\Users\ADMINI~1\AppData\Local\Temp\cccmLDA3.s 			page 19


 164              		.loc 1 825 36 is_stmt 0 view .LVU35
 165 0010 0121     		movs	r1, #1
 166 0012 3846     		mov	r0, r7
 167              	.LVL12:
 825:Middlewares/ST/STM32_USB_Device_Library/Class/CDC/Src/usbd_cdc.c ****   USBD_EpDescTypeDef *pEpInDesc = USBD_GetEpDesc(USBD_CDC_CfgDesc, CDC_IN_EP);
 168              		.loc 1 825 36 view .LVU36
 169 0014 FFF7FEFF 		bl	USBD_GetEpDesc
 170              	.LVL13:
 171 0018 0446     		mov	r4, r0
 172              	.LVL14:
 826:Middlewares/ST/STM32_USB_Device_Library/Class/CDC/Src/usbd_cdc.c **** 
 173              		.loc 1 826 3 is_stmt 1 view .LVU37
 826:Middlewares/ST/STM32_USB_Device_Library/Class/CDC/Src/usbd_cdc.c **** 
 174              		.loc 1 826 35 is_stmt 0 view .LVU38
 175 001a 8121     		movs	r1, #129
 176 001c 3846     		mov	r0, r7
 177              	.LVL15:
 826:Middlewares/ST/STM32_USB_Device_Library/Class/CDC/Src/usbd_cdc.c **** 
 178              		.loc 1 826 35 view .LVU39
 179 001e FFF7FEFF 		bl	USBD_GetEpDesc
 180              	.LVL16:
 828:Middlewares/ST/STM32_USB_Device_Library/Class/CDC/Src/usbd_cdc.c ****   {
 181              		.loc 1 828 3 is_stmt 1 view .LVU40
 828:Middlewares/ST/STM32_USB_Device_Library/Class/CDC/Src/usbd_cdc.c ****   {
 182              		.loc 1 828 6 is_stmt 0 view .LVU41
 183 0022 0DB1     		cbz	r5, .L11
 830:Middlewares/ST/STM32_USB_Device_Library/Class/CDC/Src/usbd_cdc.c ****   }
 184              		.loc 1 830 5 is_stmt 1 view .LVU42
 830:Middlewares/ST/STM32_USB_Device_Library/Class/CDC/Src/usbd_cdc.c ****   }
 185              		.loc 1 830 27 is_stmt 0 view .LVU43
 186 0024 1022     		movs	r2, #16
 187 0026 AA71     		strb	r2, [r5, #6]
 188              	.L11:
 833:Middlewares/ST/STM32_USB_Device_Library/Class/CDC/Src/usbd_cdc.c ****   {
 189              		.loc 1 833 3 is_stmt 1 view .LVU44
 833:Middlewares/ST/STM32_USB_Device_Library/Class/CDC/Src/usbd_cdc.c ****   {
 190              		.loc 1 833 6 is_stmt 0 view .LVU45
 191 0028 1CB1     		cbz	r4, .L12
 835:Middlewares/ST/STM32_USB_Device_Library/Class/CDC/Src/usbd_cdc.c ****   }
 192              		.loc 1 835 5 is_stmt 1 view .LVU46
 835:Middlewares/ST/STM32_USB_Device_Library/Class/CDC/Src/usbd_cdc.c ****   }
 193              		.loc 1 835 32 is_stmt 0 view .LVU47
 194 002a 4022     		movs	r2, #64
 195 002c 2271     		strb	r2, [r4, #4]
 196 002e 0022     		movs	r2, #0
 197 0030 6271     		strb	r2, [r4, #5]
 198              	.L12:
 838:Middlewares/ST/STM32_USB_Device_Library/Class/CDC/Src/usbd_cdc.c ****   {
 199              		.loc 1 838 3 is_stmt 1 view .LVU48
 838:Middlewares/ST/STM32_USB_Device_Library/Class/CDC/Src/usbd_cdc.c ****   {
 200              		.loc 1 838 6 is_stmt 0 view .LVU49
 201 0032 18B1     		cbz	r0, .L13
 840:Middlewares/ST/STM32_USB_Device_Library/Class/CDC/Src/usbd_cdc.c ****   }
 202              		.loc 1 840 5 is_stmt 1 view .LVU50
 840:Middlewares/ST/STM32_USB_Device_Library/Class/CDC/Src/usbd_cdc.c ****   }
 203              		.loc 1 840 31 is_stmt 0 view .LVU51
 204 0034 4022     		movs	r2, #64
ARM GAS  C:\Users\ADMINI~1\AppData\Local\Temp\cccmLDA3.s 			page 20


 205 0036 0271     		strb	r2, [r0, #4]
 206 0038 0022     		movs	r2, #0
 207 003a 4271     		strb	r2, [r0, #5]
 208              	.L13:
 843:Middlewares/ST/STM32_USB_Device_Library/Class/CDC/Src/usbd_cdc.c ****   return USBD_CDC_CfgDesc;
 209              		.loc 1 843 3 is_stmt 1 view .LVU52
 843:Middlewares/ST/STM32_USB_Device_Library/Class/CDC/Src/usbd_cdc.c ****   return USBD_CDC_CfgDesc;
 210              		.loc 1 843 11 is_stmt 0 view .LVU53
 211 003c 6A23     		movs	r3, #106
 212 003e 3380     		strh	r3, [r6]	@ movhi
 844:Middlewares/ST/STM32_USB_Device_Library/Class/CDC/Src/usbd_cdc.c **** }
 213              		.loc 1 844 3 is_stmt 1 view .LVU54
 845:Middlewares/ST/STM32_USB_Device_Library/Class/CDC/Src/usbd_cdc.c **** 
 214              		.loc 1 845 1 is_stmt 0 view .LVU55
 215 0040 0048     		ldr	r0, .L15
 216              	.LVL17:
 845:Middlewares/ST/STM32_USB_Device_Library/Class/CDC/Src/usbd_cdc.c **** 
 217              		.loc 1 845 1 view .LVU56
 218 0042 F8BD     		pop	{r3, r4, r5, r6, r7, pc}
 219              	.LVL18:
 220              	.L16:
 845:Middlewares/ST/STM32_USB_Device_Library/Class/CDC/Src/usbd_cdc.c **** 
 221              		.loc 1 845 1 view .LVU57
 222              		.align	2
 223              	.L15:
 224 0044 00000000 		.word	.LANCHOR1
 225              		.cfi_endproc
 226              	.LFE142:
 228              		.section	.text.USBD_CDC_GetFSCfgDesc,"ax",%progbits
 229              		.align	1
 230              		.syntax unified
 231              		.thumb
 232              		.thumb_func
 234              	USBD_CDC_GetFSCfgDesc:
 235              	.LVL19:
 236              	.LFB140:
 761:Middlewares/ST/STM32_USB_Device_Library/Class/CDC/Src/usbd_cdc.c ****   USBD_EpDescTypeDef *pEpCmdDesc = USBD_GetEpDesc(USBD_CDC_CfgDesc, CDC_CMD_EP);
 237              		.loc 1 761 1 is_stmt 1 view -0
 238              		.cfi_startproc
 239              		@ args = 0, pretend = 0, frame = 0
 240              		@ frame_needed = 0, uses_anonymous_args = 0
 761:Middlewares/ST/STM32_USB_Device_Library/Class/CDC/Src/usbd_cdc.c ****   USBD_EpDescTypeDef *pEpCmdDesc = USBD_GetEpDesc(USBD_CDC_CfgDesc, CDC_CMD_EP);
 241              		.loc 1 761 1 is_stmt 0 view .LVU59
 242 0000 F8B5     		push	{r3, r4, r5, r6, r7, lr}
 243              	.LCFI2:
 244              		.cfi_def_cfa_offset 24
 245              		.cfi_offset 3, -24
 246              		.cfi_offset 4, -20
 247              		.cfi_offset 5, -16
 248              		.cfi_offset 6, -12
 249              		.cfi_offset 7, -8
 250              		.cfi_offset 14, -4
 251 0002 0646     		mov	r6, r0
 762:Middlewares/ST/STM32_USB_Device_Library/Class/CDC/Src/usbd_cdc.c ****   USBD_EpDescTypeDef *pEpOutDesc = USBD_GetEpDesc(USBD_CDC_CfgDesc, CDC_OUT_EP);
 252              		.loc 1 762 3 is_stmt 1 view .LVU60
 762:Middlewares/ST/STM32_USB_Device_Library/Class/CDC/Src/usbd_cdc.c ****   USBD_EpDescTypeDef *pEpOutDesc = USBD_GetEpDesc(USBD_CDC_CfgDesc, CDC_OUT_EP);
 253              		.loc 1 762 36 is_stmt 0 view .LVU61
ARM GAS  C:\Users\ADMINI~1\AppData\Local\Temp\cccmLDA3.s 			page 21


 254 0004 0F4F     		ldr	r7, .L22
 255 0006 8221     		movs	r1, #130
 256 0008 3846     		mov	r0, r7
 257              	.LVL20:
 762:Middlewares/ST/STM32_USB_Device_Library/Class/CDC/Src/usbd_cdc.c ****   USBD_EpDescTypeDef *pEpOutDesc = USBD_GetEpDesc(USBD_CDC_CfgDesc, CDC_OUT_EP);
 258              		.loc 1 762 36 view .LVU62
 259 000a FFF7FEFF 		bl	USBD_GetEpDesc
 260              	.LVL21:
 261 000e 0546     		mov	r5, r0
 262              	.LVL22:
 763:Middlewares/ST/STM32_USB_Device_Library/Class/CDC/Src/usbd_cdc.c ****   USBD_EpDescTypeDef *pEpInDesc = USBD_GetEpDesc(USBD_CDC_CfgDesc, CDC_IN_EP);
 263              		.loc 1 763 3 is_stmt 1 view .LVU63
 763:Middlewares/ST/STM32_USB_Device_Library/Class/CDC/Src/usbd_cdc.c ****   USBD_EpDescTypeDef *pEpInDesc = USBD_GetEpDesc(USBD_CDC_CfgDesc, CDC_IN_EP);
 264              		.loc 1 763 36 is_stmt 0 view .LVU64
 265 0010 0121     		movs	r1, #1
 266 0012 3846     		mov	r0, r7
 267              	.LVL23:
 763:Middlewares/ST/STM32_USB_Device_Library/Class/CDC/Src/usbd_cdc.c ****   USBD_EpDescTypeDef *pEpInDesc = USBD_GetEpDesc(USBD_CDC_CfgDesc, CDC_IN_EP);
 268              		.loc 1 763 36 view .LVU65
 269 0014 FFF7FEFF 		bl	USBD_GetEpDesc
 270              	.LVL24:
 271 0018 0446     		mov	r4, r0
 272              	.LVL25:
 764:Middlewares/ST/STM32_USB_Device_Library/Class/CDC/Src/usbd_cdc.c **** 
 273              		.loc 1 764 3 is_stmt 1 view .LVU66
 764:Middlewares/ST/STM32_USB_Device_Library/Class/CDC/Src/usbd_cdc.c **** 
 274              		.loc 1 764 35 is_stmt 0 view .LVU67
 275 001a 8121     		movs	r1, #129
 276 001c 3846     		mov	r0, r7
 277              	.LVL26:
 764:Middlewares/ST/STM32_USB_Device_Library/Class/CDC/Src/usbd_cdc.c **** 
 278              		.loc 1 764 35 view .LVU68
 279 001e FFF7FEFF 		bl	USBD_GetEpDesc
 280              	.LVL27:
 766:Middlewares/ST/STM32_USB_Device_Library/Class/CDC/Src/usbd_cdc.c ****   {
 281              		.loc 1 766 3 is_stmt 1 view .LVU69
 766:Middlewares/ST/STM32_USB_Device_Library/Class/CDC/Src/usbd_cdc.c ****   {
 282              		.loc 1 766 6 is_stmt 0 view .LVU70
 283 0022 0DB1     		cbz	r5, .L18
 768:Middlewares/ST/STM32_USB_Device_Library/Class/CDC/Src/usbd_cdc.c ****   }
 284              		.loc 1 768 5 is_stmt 1 view .LVU71
 768:Middlewares/ST/STM32_USB_Device_Library/Class/CDC/Src/usbd_cdc.c ****   }
 285              		.loc 1 768 27 is_stmt 0 view .LVU72
 286 0024 1022     		movs	r2, #16
 287 0026 AA71     		strb	r2, [r5, #6]
 288              	.L18:
 771:Middlewares/ST/STM32_USB_Device_Library/Class/CDC/Src/usbd_cdc.c ****   {
 289              		.loc 1 771 3 is_stmt 1 view .LVU73
 771:Middlewares/ST/STM32_USB_Device_Library/Class/CDC/Src/usbd_cdc.c ****   {
 290              		.loc 1 771 6 is_stmt 0 view .LVU74
 291 0028 1CB1     		cbz	r4, .L19
 773:Middlewares/ST/STM32_USB_Device_Library/Class/CDC/Src/usbd_cdc.c ****   }
 292              		.loc 1 773 5 is_stmt 1 view .LVU75
 773:Middlewares/ST/STM32_USB_Device_Library/Class/CDC/Src/usbd_cdc.c ****   }
 293              		.loc 1 773 32 is_stmt 0 view .LVU76
 294 002a 4022     		movs	r2, #64
 295 002c 2271     		strb	r2, [r4, #4]
ARM GAS  C:\Users\ADMINI~1\AppData\Local\Temp\cccmLDA3.s 			page 22


 296 002e 0022     		movs	r2, #0
 297 0030 6271     		strb	r2, [r4, #5]
 298              	.L19:
 776:Middlewares/ST/STM32_USB_Device_Library/Class/CDC/Src/usbd_cdc.c ****   {
 299              		.loc 1 776 3 is_stmt 1 view .LVU77
 776:Middlewares/ST/STM32_USB_Device_Library/Class/CDC/Src/usbd_cdc.c ****   {
 300              		.loc 1 776 6 is_stmt 0 view .LVU78
 301 0032 18B1     		cbz	r0, .L20
 778:Middlewares/ST/STM32_USB_Device_Library/Class/CDC/Src/usbd_cdc.c ****   }
 302              		.loc 1 778 5 is_stmt 1 view .LVU79
 778:Middlewares/ST/STM32_USB_Device_Library/Class/CDC/Src/usbd_cdc.c ****   }
 303              		.loc 1 778 31 is_stmt 0 view .LVU80
 304 0034 4022     		movs	r2, #64
 305 0036 0271     		strb	r2, [r0, #4]
 306 0038 0022     		movs	r2, #0
 307 003a 4271     		strb	r2, [r0, #5]
 308              	.L20:
 781:Middlewares/ST/STM32_USB_Device_Library/Class/CDC/Src/usbd_cdc.c ****   return USBD_CDC_CfgDesc;
 309              		.loc 1 781 3 is_stmt 1 view .LVU81
 781:Middlewares/ST/STM32_USB_Device_Library/Class/CDC/Src/usbd_cdc.c ****   return USBD_CDC_CfgDesc;
 310              		.loc 1 781 11 is_stmt 0 view .LVU82
 311 003c 6A23     		movs	r3, #106
 312 003e 3380     		strh	r3, [r6]	@ movhi
 782:Middlewares/ST/STM32_USB_Device_Library/Class/CDC/Src/usbd_cdc.c **** }
 313              		.loc 1 782 3 is_stmt 1 view .LVU83
 783:Middlewares/ST/STM32_USB_Device_Library/Class/CDC/Src/usbd_cdc.c **** 
 314              		.loc 1 783 1 is_stmt 0 view .LVU84
 315 0040 0048     		ldr	r0, .L22
 316              	.LVL28:
 783:Middlewares/ST/STM32_USB_Device_Library/Class/CDC/Src/usbd_cdc.c **** 
 317              		.loc 1 783 1 view .LVU85
 318 0042 F8BD     		pop	{r3, r4, r5, r6, r7, pc}
 319              	.LVL29:
 320              	.L23:
 783:Middlewares/ST/STM32_USB_Device_Library/Class/CDC/Src/usbd_cdc.c **** 
 321              		.loc 1 783 1 view .LVU86
 322              		.align	2
 323              	.L22:
 324 0044 00000000 		.word	.LANCHOR1
 325              		.cfi_endproc
 326              	.LFE140:
 328              		.section	.text.USBD_CDC_GetHSCfgDesc,"ax",%progbits
 329              		.align	1
 330              		.syntax unified
 331              		.thumb
 332              		.thumb_func
 334              	USBD_CDC_GetHSCfgDesc:
 335              	.LVL30:
 336              	.LFB141:
 792:Middlewares/ST/STM32_USB_Device_Library/Class/CDC/Src/usbd_cdc.c ****   USBD_EpDescTypeDef *pEpCmdDesc = USBD_GetEpDesc(USBD_CDC_CfgDesc, CDC_CMD_EP);
 337              		.loc 1 792 1 is_stmt 1 view -0
 338              		.cfi_startproc
 339              		@ args = 0, pretend = 0, frame = 0
 340              		@ frame_needed = 0, uses_anonymous_args = 0
 792:Middlewares/ST/STM32_USB_Device_Library/Class/CDC/Src/usbd_cdc.c ****   USBD_EpDescTypeDef *pEpCmdDesc = USBD_GetEpDesc(USBD_CDC_CfgDesc, CDC_CMD_EP);
 341              		.loc 1 792 1 is_stmt 0 view .LVU88
 342 0000 F8B5     		push	{r3, r4, r5, r6, r7, lr}
ARM GAS  C:\Users\ADMINI~1\AppData\Local\Temp\cccmLDA3.s 			page 23


 343              	.LCFI3:
 344              		.cfi_def_cfa_offset 24
 345              		.cfi_offset 3, -24
 346              		.cfi_offset 4, -20
 347              		.cfi_offset 5, -16
 348              		.cfi_offset 6, -12
 349              		.cfi_offset 7, -8
 350              		.cfi_offset 14, -4
 351 0002 0646     		mov	r6, r0
 793:Middlewares/ST/STM32_USB_Device_Library/Class/CDC/Src/usbd_cdc.c ****   USBD_EpDescTypeDef *pEpOutDesc = USBD_GetEpDesc(USBD_CDC_CfgDesc, CDC_OUT_EP);
 352              		.loc 1 793 3 is_stmt 1 view .LVU89
 793:Middlewares/ST/STM32_USB_Device_Library/Class/CDC/Src/usbd_cdc.c ****   USBD_EpDescTypeDef *pEpOutDesc = USBD_GetEpDesc(USBD_CDC_CfgDesc, CDC_OUT_EP);
 353              		.loc 1 793 36 is_stmt 0 view .LVU90
 354 0004 0F4F     		ldr	r7, .L29
 355 0006 8221     		movs	r1, #130
 356 0008 3846     		mov	r0, r7
 357              	.LVL31:
 793:Middlewares/ST/STM32_USB_Device_Library/Class/CDC/Src/usbd_cdc.c ****   USBD_EpDescTypeDef *pEpOutDesc = USBD_GetEpDesc(USBD_CDC_CfgDesc, CDC_OUT_EP);
 358              		.loc 1 793 36 view .LVU91
 359 000a FFF7FEFF 		bl	USBD_GetEpDesc
 360              	.LVL32:
 361 000e 0546     		mov	r5, r0
 362              	.LVL33:
 794:Middlewares/ST/STM32_USB_Device_Library/Class/CDC/Src/usbd_cdc.c ****   USBD_EpDescTypeDef *pEpInDesc = USBD_GetEpDesc(USBD_CDC_CfgDesc, CDC_IN_EP);
 363              		.loc 1 794 3 is_stmt 1 view .LVU92
 794:Middlewares/ST/STM32_USB_Device_Library/Class/CDC/Src/usbd_cdc.c ****   USBD_EpDescTypeDef *pEpInDesc = USBD_GetEpDesc(USBD_CDC_CfgDesc, CDC_IN_EP);
 364              		.loc 1 794 36 is_stmt 0 view .LVU93
 365 0010 0121     		movs	r1, #1
 366 0012 3846     		mov	r0, r7
 367              	.LVL34:
 794:Middlewares/ST/STM32_USB_Device_Library/Class/CDC/Src/usbd_cdc.c ****   USBD_EpDescTypeDef *pEpInDesc = USBD_GetEpDesc(USBD_CDC_CfgDesc, CDC_IN_EP);
 368              		.loc 1 794 36 view .LVU94
 369 0014 FFF7FEFF 		bl	USBD_GetEpDesc
 370              	.LVL35:
 371 0018 0446     		mov	r4, r0
 372              	.LVL36:
 795:Middlewares/ST/STM32_USB_Device_Library/Class/CDC/Src/usbd_cdc.c **** 
 373              		.loc 1 795 3 is_stmt 1 view .LVU95
 795:Middlewares/ST/STM32_USB_Device_Library/Class/CDC/Src/usbd_cdc.c **** 
 374              		.loc 1 795 35 is_stmt 0 view .LVU96
 375 001a 8121     		movs	r1, #129
 376 001c 3846     		mov	r0, r7
 377              	.LVL37:
 795:Middlewares/ST/STM32_USB_Device_Library/Class/CDC/Src/usbd_cdc.c **** 
 378              		.loc 1 795 35 view .LVU97
 379 001e FFF7FEFF 		bl	USBD_GetEpDesc
 380              	.LVL38:
 797:Middlewares/ST/STM32_USB_Device_Library/Class/CDC/Src/usbd_cdc.c ****   {
 381              		.loc 1 797 3 is_stmt 1 view .LVU98
 797:Middlewares/ST/STM32_USB_Device_Library/Class/CDC/Src/usbd_cdc.c ****   {
 382              		.loc 1 797 6 is_stmt 0 view .LVU99
 383 0022 0DB1     		cbz	r5, .L25
 799:Middlewares/ST/STM32_USB_Device_Library/Class/CDC/Src/usbd_cdc.c ****   }
 384              		.loc 1 799 5 is_stmt 1 view .LVU100
 799:Middlewares/ST/STM32_USB_Device_Library/Class/CDC/Src/usbd_cdc.c ****   }
 385              		.loc 1 799 27 is_stmt 0 view .LVU101
 386 0024 1022     		movs	r2, #16
ARM GAS  C:\Users\ADMINI~1\AppData\Local\Temp\cccmLDA3.s 			page 24


 387 0026 AA71     		strb	r2, [r5, #6]
 388              	.L25:
 802:Middlewares/ST/STM32_USB_Device_Library/Class/CDC/Src/usbd_cdc.c ****   {
 389              		.loc 1 802 3 is_stmt 1 view .LVU102
 802:Middlewares/ST/STM32_USB_Device_Library/Class/CDC/Src/usbd_cdc.c ****   {
 390              		.loc 1 802 6 is_stmt 0 view .LVU103
 391 0028 1CB1     		cbz	r4, .L26
 804:Middlewares/ST/STM32_USB_Device_Library/Class/CDC/Src/usbd_cdc.c ****   }
 392              		.loc 1 804 5 is_stmt 1 view .LVU104
 804:Middlewares/ST/STM32_USB_Device_Library/Class/CDC/Src/usbd_cdc.c ****   }
 393              		.loc 1 804 32 is_stmt 0 view .LVU105
 394 002a 4022     		movs	r2, #64
 395 002c 2271     		strb	r2, [r4, #4]
 396 002e 0022     		movs	r2, #0
 397 0030 6271     		strb	r2, [r4, #5]
 398              	.L26:
 807:Middlewares/ST/STM32_USB_Device_Library/Class/CDC/Src/usbd_cdc.c ****   {
 399              		.loc 1 807 3 is_stmt 1 view .LVU106
 807:Middlewares/ST/STM32_USB_Device_Library/Class/CDC/Src/usbd_cdc.c ****   {
 400              		.loc 1 807 6 is_stmt 0 view .LVU107
 401 0032 18B1     		cbz	r0, .L27
 809:Middlewares/ST/STM32_USB_Device_Library/Class/CDC/Src/usbd_cdc.c ****   }
 402              		.loc 1 809 5 is_stmt 1 view .LVU108
 809:Middlewares/ST/STM32_USB_Device_Library/Class/CDC/Src/usbd_cdc.c ****   }
 403              		.loc 1 809 31 is_stmt 0 view .LVU109
 404 0034 4022     		movs	r2, #64
 405 0036 0271     		strb	r2, [r0, #4]
 406 0038 0022     		movs	r2, #0
 407 003a 4271     		strb	r2, [r0, #5]
 408              	.L27:
 812:Middlewares/ST/STM32_USB_Device_Library/Class/CDC/Src/usbd_cdc.c ****   return USBD_CDC_CfgDesc;
 409              		.loc 1 812 3 is_stmt 1 view .LVU110
 812:Middlewares/ST/STM32_USB_Device_Library/Class/CDC/Src/usbd_cdc.c ****   return USBD_CDC_CfgDesc;
 410              		.loc 1 812 11 is_stmt 0 view .LVU111
 411 003c 6A23     		movs	r3, #106
 412 003e 3380     		strh	r3, [r6]	@ movhi
 813:Middlewares/ST/STM32_USB_Device_Library/Class/CDC/Src/usbd_cdc.c **** }
 413              		.loc 1 813 3 is_stmt 1 view .LVU112
 814:Middlewares/ST/STM32_USB_Device_Library/Class/CDC/Src/usbd_cdc.c **** 
 414              		.loc 1 814 1 is_stmt 0 view .LVU113
 415 0040 0048     		ldr	r0, .L29
 416              	.LVL39:
 814:Middlewares/ST/STM32_USB_Device_Library/Class/CDC/Src/usbd_cdc.c **** 
 417              		.loc 1 814 1 view .LVU114
 418 0042 F8BD     		pop	{r3, r4, r5, r6, r7, pc}
 419              	.LVL40:
 420              	.L30:
 814:Middlewares/ST/STM32_USB_Device_Library/Class/CDC/Src/usbd_cdc.c **** 
 421              		.loc 1 814 1 view .LVU115
 422              		.align	2
 423              	.L29:
 424 0044 00000000 		.word	.LANCHOR1
 425              		.cfi_endproc
 426              	.LFE141:
 428              		.section	.text.USBD_CDC_DataOut,"ax",%progbits
 429              		.align	1
 430              		.syntax unified
ARM GAS  C:\Users\ADMINI~1\AppData\Local\Temp\cccmLDA3.s 			page 25


 431              		.thumb
 432              		.thumb_func
 434              	USBD_CDC_DataOut:
 435              	.LVL41:
 436              	.LFB138:
 699:Middlewares/ST/STM32_USB_Device_Library/Class/CDC/Src/usbd_cdc.c ****   USBD_CDC_HandleTypeDef *hcdc = (USBD_CDC_HandleTypeDef *)pdev->pClassDataCmsit[pdev->classId];
 437              		.loc 1 699 1 is_stmt 1 view -0
 438              		.cfi_startproc
 439              		@ args = 0, pretend = 0, frame = 0
 440              		@ frame_needed = 0, uses_anonymous_args = 0
 699:Middlewares/ST/STM32_USB_Device_Library/Class/CDC/Src/usbd_cdc.c ****   USBD_CDC_HandleTypeDef *hcdc = (USBD_CDC_HandleTypeDef *)pdev->pClassDataCmsit[pdev->classId];
 441              		.loc 1 699 1 is_stmt 0 view .LVU117
 442 0000 70B5     		push	{r4, r5, r6, lr}
 443              	.LCFI4:
 444              		.cfi_def_cfa_offset 16
 445              		.cfi_offset 4, -16
 446              		.cfi_offset 5, -12
 447              		.cfi_offset 6, -8
 448              		.cfi_offset 14, -4
 700:Middlewares/ST/STM32_USB_Device_Library/Class/CDC/Src/usbd_cdc.c **** 
 449              		.loc 1 700 3 is_stmt 1 view .LVU118
 700:Middlewares/ST/STM32_USB_Device_Library/Class/CDC/Src/usbd_cdc.c **** 
 450              		.loc 1 700 86 is_stmt 0 view .LVU119
 451 0002 D0F8D432 		ldr	r3, [r0, #724]
 700:Middlewares/ST/STM32_USB_Device_Library/Class/CDC/Src/usbd_cdc.c **** 
 452              		.loc 1 700 27 view .LVU120
 453 0006 B033     		adds	r3, r3, #176
 454 0008 50F82360 		ldr	r6, [r0, r3, lsl #2]
 455              	.LVL42:
 702:Middlewares/ST/STM32_USB_Device_Library/Class/CDC/Src/usbd_cdc.c ****   {
 456              		.loc 1 702 3 is_stmt 1 view .LVU121
 702:Middlewares/ST/STM32_USB_Device_Library/Class/CDC/Src/usbd_cdc.c ****   {
 457              		.loc 1 702 6 is_stmt 0 view .LVU122
 458 000c DEB1     		cbz	r6, .L35
 459 000e 0446     		mov	r4, r0
 460 0010 0D46     		mov	r5, r1
 707:Middlewares/ST/STM32_USB_Device_Library/Class/CDC/Src/usbd_cdc.c ****   if (epnum == CDC_OUT_EP) {
 461              		.loc 1 707 3 is_stmt 1 view .LVU123
 708:Middlewares/ST/STM32_USB_Device_Library/Class/CDC/Src/usbd_cdc.c ****     hEP_Rx = &hcdc->CDC_Rx;
 462              		.loc 1 708 3 view .LVU124
 708:Middlewares/ST/STM32_USB_Device_Library/Class/CDC/Src/usbd_cdc.c ****     hEP_Rx = &hcdc->CDC_Rx;
 463              		.loc 1 708 6 is_stmt 0 view .LVU125
 464 0012 0129     		cmp	r1, #1
 465 0014 15D0     		beq	.L38
 710:Middlewares/ST/STM32_USB_Device_Library/Class/CDC/Src/usbd_cdc.c ****     hEP_Rx = &hcdc->ODRIVE_Rx;
 466              		.loc 1 710 10 is_stmt 1 view .LVU126
 710:Middlewares/ST/STM32_USB_Device_Library/Class/CDC/Src/usbd_cdc.c ****     hEP_Rx = &hcdc->ODRIVE_Rx;
 467              		.loc 1 710 13 is_stmt 0 view .LVU127
 468 0016 0329     		cmp	r1, #3
 469 0018 17D1     		bne	.L36
 711:Middlewares/ST/STM32_USB_Device_Library/Class/CDC/Src/usbd_cdc.c ****   } else {
 470              		.loc 1 711 5 is_stmt 1 view .LVU128
 711:Middlewares/ST/STM32_USB_Device_Library/Class/CDC/Src/usbd_cdc.c ****   } else {
 471              		.loc 1 711 12 is_stmt 0 view .LVU129
 472 001a 6836     		adds	r6, r6, #104
 473              	.LVL43:
 474              	.L34:
ARM GAS  C:\Users\ADMINI~1\AppData\Local\Temp\cccmLDA3.s 			page 26


 718:Middlewares/ST/STM32_USB_Device_Library/Class/CDC/Src/usbd_cdc.c **** 
 475              		.loc 1 718 3 is_stmt 1 view .LVU130
 718:Middlewares/ST/STM32_USB_Device_Library/Class/CDC/Src/usbd_cdc.c **** 
 476              		.loc 1 718 20 is_stmt 0 view .LVU131
 477 001c 2946     		mov	r1, r5
 478              	.LVL44:
 718:Middlewares/ST/STM32_USB_Device_Library/Class/CDC/Src/usbd_cdc.c **** 
 479              		.loc 1 718 20 view .LVU132
 480 001e 2046     		mov	r0, r4
 481              	.LVL45:
 718:Middlewares/ST/STM32_USB_Device_Library/Class/CDC/Src/usbd_cdc.c **** 
 482              		.loc 1 718 20 view .LVU133
 483 0020 FFF7FEFF 		bl	USBD_LL_GetRxDataSize
 484              	.LVL46:
 718:Middlewares/ST/STM32_USB_Device_Library/Class/CDC/Src/usbd_cdc.c **** 
 485              		.loc 1 718 18 view .LVU134
 486 0024 7060     		str	r0, [r6, #4]
 723:Middlewares/ST/STM32_USB_Device_Library/Class/CDC/Src/usbd_cdc.c **** 
 487              		.loc 1 723 3 is_stmt 1 view .LVU135
 723:Middlewares/ST/STM32_USB_Device_Library/Class/CDC/Src/usbd_cdc.c **** 
 488              		.loc 1 723 47 is_stmt 0 view .LVU136
 489 0026 D4F8D432 		ldr	r3, [r4, #724]
 723:Middlewares/ST/STM32_USB_Device_Library/Class/CDC/Src/usbd_cdc.c **** 
 490              		.loc 1 723 42 view .LVU137
 491 002a B033     		adds	r3, r3, #176
 492 002c 04EB8304 		add	r4, r4, r3, lsl #2
 493              	.LVL47:
 723:Middlewares/ST/STM32_USB_Device_Library/Class/CDC/Src/usbd_cdc.c **** 
 494              		.loc 1 723 42 view .LVU138
 495 0030 6368     		ldr	r3, [r4, #4]
 723:Middlewares/ST/STM32_USB_Device_Library/Class/CDC/Src/usbd_cdc.c **** 
 496              		.loc 1 723 58 view .LVU139
 497 0032 DB68     		ldr	r3, [r3, #12]
 723:Middlewares/ST/STM32_USB_Device_Library/Class/CDC/Src/usbd_cdc.c **** 
 498              		.loc 1 723 4 view .LVU140
 499 0034 3146     		mov	r1, r6
 500 0036 51F8040B 		ldr	r0, [r1], #4
 501 003a 2A46     		mov	r2, r5
 502 003c 9847     		blx	r3
 503              	.LVL48:
 725:Middlewares/ST/STM32_USB_Device_Library/Class/CDC/Src/usbd_cdc.c **** }
 504              		.loc 1 725 3 is_stmt 1 view .LVU141
 725:Middlewares/ST/STM32_USB_Device_Library/Class/CDC/Src/usbd_cdc.c **** }
 505              		.loc 1 725 10 is_stmt 0 view .LVU142
 506 003e 0020     		movs	r0, #0
 507              	.LVL49:
 508              	.L32:
 726:Middlewares/ST/STM32_USB_Device_Library/Class/CDC/Src/usbd_cdc.c **** 
 509              		.loc 1 726 1 view .LVU143
 510 0040 70BD     		pop	{r4, r5, r6, pc}
 511              	.LVL50:
 512              	.L38:
 709:Middlewares/ST/STM32_USB_Device_Library/Class/CDC/Src/usbd_cdc.c ****   } else if (epnum == ODRIVE_OUT_EP) {
 513              		.loc 1 709 5 is_stmt 1 view .LVU144
 709:Middlewares/ST/STM32_USB_Device_Library/Class/CDC/Src/usbd_cdc.c ****   } else if (epnum == ODRIVE_OUT_EP) {
 514              		.loc 1 709 12 is_stmt 0 view .LVU145
 515 0042 5036     		adds	r6, r6, #80
ARM GAS  C:\Users\ADMINI~1\AppData\Local\Temp\cccmLDA3.s 			page 27


 516              	.LVL51:
 709:Middlewares/ST/STM32_USB_Device_Library/Class/CDC/Src/usbd_cdc.c ****   } else if (epnum == ODRIVE_OUT_EP) {
 517              		.loc 1 709 12 view .LVU146
 518 0044 EAE7     		b	.L34
 519              	.LVL52:
 520              	.L35:
 704:Middlewares/ST/STM32_USB_Device_Library/Class/CDC/Src/usbd_cdc.c ****   }
 521              		.loc 1 704 12 view .LVU147
 522 0046 0320     		movs	r0, #3
 523              	.LVL53:
 704:Middlewares/ST/STM32_USB_Device_Library/Class/CDC/Src/usbd_cdc.c ****   }
 524              		.loc 1 704 12 view .LVU148
 525 0048 FAE7     		b	.L32
 526              	.LVL54:
 527              	.L36:
 713:Middlewares/ST/STM32_USB_Device_Library/Class/CDC/Src/usbd_cdc.c ****   }
 528              		.loc 1 713 12 view .LVU149
 529 004a 0320     		movs	r0, #3
 530              	.LVL55:
 713:Middlewares/ST/STM32_USB_Device_Library/Class/CDC/Src/usbd_cdc.c ****   }
 531              		.loc 1 713 12 view .LVU150
 532 004c F8E7     		b	.L32
 533              		.cfi_endproc
 534              	.LFE138:
 536              		.section	.text.USBD_CDC_DataIn,"ax",%progbits
 537              		.align	1
 538              		.syntax unified
 539              		.thumb
 540              		.thumb_func
 542              	USBD_CDC_DataIn:
 543              	.LVL56:
 544              	.LFB137:
 653:Middlewares/ST/STM32_USB_Device_Library/Class/CDC/Src/usbd_cdc.c ****   USBD_CDC_HandleTypeDef *hcdc;
 545              		.loc 1 653 1 is_stmt 1 view -0
 546              		.cfi_startproc
 547              		@ args = 0, pretend = 0, frame = 0
 548              		@ frame_needed = 0, uses_anonymous_args = 0
 653:Middlewares/ST/STM32_USB_Device_Library/Class/CDC/Src/usbd_cdc.c ****   USBD_CDC_HandleTypeDef *hcdc;
 549              		.loc 1 653 1 is_stmt 0 view .LVU152
 550 0000 38B5     		push	{r3, r4, r5, lr}
 551              	.LCFI5:
 552              		.cfi_def_cfa_offset 16
 553              		.cfi_offset 3, -16
 554              		.cfi_offset 4, -12
 555              		.cfi_offset 5, -8
 556              		.cfi_offset 14, -4
 557 0002 0C46     		mov	r4, r1
 654:Middlewares/ST/STM32_USB_Device_Library/Class/CDC/Src/usbd_cdc.c ****   PCD_HandleTypeDef *hpcd = (PCD_HandleTypeDef *)pdev->pData;
 558              		.loc 1 654 3 is_stmt 1 view .LVU153
 655:Middlewares/ST/STM32_USB_Device_Library/Class/CDC/Src/usbd_cdc.c **** 
 559              		.loc 1 655 3 view .LVU154
 655:Middlewares/ST/STM32_USB_Device_Library/Class/CDC/Src/usbd_cdc.c **** 
 560              		.loc 1 655 22 is_stmt 0 view .LVU155
 561 0004 D0F8C812 		ldr	r1, [r0, #712]
 562              	.LVL57:
 657:Middlewares/ST/STM32_USB_Device_Library/Class/CDC/Src/usbd_cdc.c ****   {
 563              		.loc 1 657 3 is_stmt 1 view .LVU156
ARM GAS  C:\Users\ADMINI~1\AppData\Local\Temp\cccmLDA3.s 			page 28


 657:Middlewares/ST/STM32_USB_Device_Library/Class/CDC/Src/usbd_cdc.c ****   {
 564              		.loc 1 657 33 is_stmt 0 view .LVU157
 565 0008 D0F8D432 		ldr	r3, [r0, #724]
 657:Middlewares/ST/STM32_USB_Device_Library/Class/CDC/Src/usbd_cdc.c ****   {
 566              		.loc 1 657 28 view .LVU158
 567 000c B033     		adds	r3, r3, #176
 568 000e 50F82350 		ldr	r5, [r0, r3, lsl #2]
 657:Middlewares/ST/STM32_USB_Device_Library/Class/CDC/Src/usbd_cdc.c ****   {
 569              		.loc 1 657 6 view .LVU159
 570 0012 002D     		cmp	r5, #0
 571 0014 3AD0     		beq	.L43
 662:Middlewares/ST/STM32_USB_Device_Library/Class/CDC/Src/usbd_cdc.c **** 
 572              		.loc 1 662 3 is_stmt 1 view .LVU160
 573              	.LVL58:
 664:Middlewares/ST/STM32_USB_Device_Library/Class/CDC/Src/usbd_cdc.c ****       ((pdev->ep_in[epnum & 0xFU].total_length % hpcd->IN_ep[epnum & 0xFU].maxpacket) == 0U))
 574              		.loc 1 664 3 view .LVU161
 664:Middlewares/ST/STM32_USB_Device_Library/Class/CDC/Src/usbd_cdc.c ****       ((pdev->ep_in[epnum & 0xFU].total_length % hpcd->IN_ep[epnum & 0xFU].maxpacket) == 0U))
 575              		.loc 1 664 26 is_stmt 0 view .LVU162
 576 0016 04F00F03 		and	r3, r4, #15
 664:Middlewares/ST/STM32_USB_Device_Library/Class/CDC/Src/usbd_cdc.c ****       ((pdev->ep_in[epnum & 0xFU].total_length % hpcd->IN_ep[epnum & 0xFU].maxpacket) == 0U))
 577              		.loc 1 664 33 view .LVU163
 578 001a 03EB8302 		add	r2, r3, r3, lsl #2
 579 001e 00EB8202 		add	r2, r0, r2, lsl #2
 580 0022 9269     		ldr	r2, [r2, #24]
 664:Middlewares/ST/STM32_USB_Device_Library/Class/CDC/Src/usbd_cdc.c ****       ((pdev->ep_in[epnum & 0xFU].total_length % hpcd->IN_ep[epnum & 0xFU].maxpacket) == 0U))
 581              		.loc 1 664 6 view .LVU164
 582 0024 4AB1     		cbz	r2, .L41
 665:Middlewares/ST/STM32_USB_Device_Library/Class/CDC/Src/usbd_cdc.c ****   {
 583              		.loc 1 665 75 discriminator 1 view .LVU165
 584 0026 03EBC30C 		add	ip, r3, r3, lsl #3
 585 002a 01EB8C01 		add	r1, r1, ip, lsl #2
 586              	.LVL59:
 665:Middlewares/ST/STM32_USB_Device_Library/Class/CDC/Src/usbd_cdc.c ****   {
 587              		.loc 1 665 75 discriminator 1 view .LVU166
 588 002e 896C     		ldr	r1, [r1, #72]
 665:Middlewares/ST/STM32_USB_Device_Library/Class/CDC/Src/usbd_cdc.c ****   {
 589              		.loc 1 665 48 discriminator 1 view .LVU167
 590 0030 B2FBF1FC 		udiv	ip, r2, r1
 591 0034 01FB1C22 		mls	r2, r1, ip, r2
 664:Middlewares/ST/STM32_USB_Device_Library/Class/CDC/Src/usbd_cdc.c ****       ((pdev->ep_in[epnum & 0xFU].total_length % hpcd->IN_ep[epnum & 0xFU].maxpacket) == 0U))
 592              		.loc 1 664 53 discriminator 1 view .LVU168
 593 0038 2AB1     		cbz	r2, .L46
 594              	.L41:
 676:Middlewares/ST/STM32_USB_Device_Library/Class/CDC/Src/usbd_cdc.c ****     {
 595              		.loc 1 676 5 is_stmt 1 view .LVU169
 676:Middlewares/ST/STM32_USB_Device_Library/Class/CDC/Src/usbd_cdc.c ****     {
 596              		.loc 1 676 8 is_stmt 0 view .LVU170
 597 003a 012C     		cmp	r4, #1
 598 003c 10D0     		beq	.L47
 599              	.LVL60:
 600              	.L42:
 684:Middlewares/ST/STM32_USB_Device_Library/Class/CDC/Src/usbd_cdc.c ****       hcdc->ODRIVE_Tx.State = 0;
 601              		.loc 1 684 5 is_stmt 1 view .LVU171
 684:Middlewares/ST/STM32_USB_Device_Library/Class/CDC/Src/usbd_cdc.c ****       hcdc->ODRIVE_Tx.State = 0;
 602              		.loc 1 684 8 is_stmt 0 view .LVU172
 603 003e 032C     		cmp	r4, #3
 604 0040 20D0     		beq	.L48
ARM GAS  C:\Users\ADMINI~1\AppData\Local\Temp\cccmLDA3.s 			page 29


 688:Middlewares/ST/STM32_USB_Device_Library/Class/CDC/Src/usbd_cdc.c **** }
 605              		.loc 1 688 10 view .LVU173
 606 0042 0020     		movs	r0, #0
 607              	.LVL61:
 608              	.L40:
 689:Middlewares/ST/STM32_USB_Device_Library/Class/CDC/Src/usbd_cdc.c **** 
 609              		.loc 1 689 1 view .LVU174
 610 0044 38BD     		pop	{r3, r4, r5, pc}
 611              	.LVL62:
 612              	.L46:
 668:Middlewares/ST/STM32_USB_Device_Library/Class/CDC/Src/usbd_cdc.c **** 
 613              		.loc 1 668 5 is_stmt 1 view .LVU175
 668:Middlewares/ST/STM32_USB_Device_Library/Class/CDC/Src/usbd_cdc.c **** 
 614              		.loc 1 668 44 is_stmt 0 view .LVU176
 615 0046 03EB8303 		add	r3, r3, r3, lsl #2
 616 004a 00EB8303 		add	r3, r0, r3, lsl #2
 617 004e 0025     		movs	r5, #0
 618              	.LVL63:
 668:Middlewares/ST/STM32_USB_Device_Library/Class/CDC/Src/usbd_cdc.c **** 
 619              		.loc 1 668 44 view .LVU177
 620 0050 9D61     		str	r5, [r3, #24]
 621              	.LVL64:
 671:Middlewares/ST/STM32_USB_Device_Library/Class/CDC/Src/usbd_cdc.c ****   }
 622              		.loc 1 671 5 is_stmt 1 view .LVU178
 671:Middlewares/ST/STM32_USB_Device_Library/Class/CDC/Src/usbd_cdc.c ****   }
 623              		.loc 1 671 11 is_stmt 0 view .LVU179
 624 0052 2B46     		mov	r3, r5
 625 0054 2A46     		mov	r2, r5
 626 0056 2146     		mov	r1, r4
 627 0058 FFF7FEFF 		bl	USBD_LL_Transmit
 628              	.LVL65:
 688:Middlewares/ST/STM32_USB_Device_Library/Class/CDC/Src/usbd_cdc.c **** }
 629              		.loc 1 688 10 view .LVU180
 630 005c 2846     		mov	r0, r5
 671:Middlewares/ST/STM32_USB_Device_Library/Class/CDC/Src/usbd_cdc.c ****   }
 631              		.loc 1 671 5 view .LVU181
 632 005e F1E7     		b	.L40
 633              	.LVL66:
 634              	.L47:
 678:Middlewares/ST/STM32_USB_Device_Library/Class/CDC/Src/usbd_cdc.c ****       if(((USBD_CDC_ItfTypeDef *)pdev->pUserData[pdev->classId])->TransmitCplt != NULL)
 635              		.loc 1 678 7 is_stmt 1 view .LVU182
 678:Middlewares/ST/STM32_USB_Device_Library/Class/CDC/Src/usbd_cdc.c ****       if(((USBD_CDC_ItfTypeDef *)pdev->pUserData[pdev->classId])->TransmitCplt != NULL)
 636              		.loc 1 678 26 is_stmt 0 view .LVU183
 637 0060 0023     		movs	r3, #0
 638 0062 85F84C30 		strb	r3, [r5, #76]
 639              	.LVL67:
 679:Middlewares/ST/STM32_USB_Device_Library/Class/CDC/Src/usbd_cdc.c ****       {
 640              		.loc 1 679 7 is_stmt 1 view .LVU184
 679:Middlewares/ST/STM32_USB_Device_Library/Class/CDC/Src/usbd_cdc.c ****       {
 641              		.loc 1 679 54 is_stmt 0 view .LVU185
 642 0066 D0F8D432 		ldr	r3, [r0, #724]
 679:Middlewares/ST/STM32_USB_Device_Library/Class/CDC/Src/usbd_cdc.c ****       {
 643              		.loc 1 679 49 view .LVU186
 644 006a B033     		adds	r3, r3, #176
 645 006c 00EB8300 		add	r0, r0, r3, lsl #2
 646              	.LVL68:
 679:Middlewares/ST/STM32_USB_Device_Library/Class/CDC/Src/usbd_cdc.c ****       {
ARM GAS  C:\Users\ADMINI~1\AppData\Local\Temp\cccmLDA3.s 			page 30


 647              		.loc 1 679 49 view .LVU187
 648 0070 4368     		ldr	r3, [r0, #4]
 679:Middlewares/ST/STM32_USB_Device_Library/Class/CDC/Src/usbd_cdc.c ****       {
 649              		.loc 1 679 65 view .LVU188
 650 0072 1B69     		ldr	r3, [r3, #16]
 679:Middlewares/ST/STM32_USB_Device_Library/Class/CDC/Src/usbd_cdc.c ****       {
 651              		.loc 1 679 9 view .LVU189
 652 0074 002B     		cmp	r3, #0
 653 0076 E2D0     		beq	.L42
 681:Middlewares/ST/STM32_USB_Device_Library/Class/CDC/Src/usbd_cdc.c ****       }
 654              		.loc 1 681 9 is_stmt 1 view .LVU190
 681:Middlewares/ST/STM32_USB_Device_Library/Class/CDC/Src/usbd_cdc.c ****       }
 655              		.loc 1 681 10 is_stmt 0 view .LVU191
 656 0078 2246     		mov	r2, r4
 657 007a 05F14801 		add	r1, r5, #72
 658 007e 686C     		ldr	r0, [r5, #68]
 659 0080 9847     		blx	r3
 660              	.LVL69:
 661 0082 DCE7     		b	.L42
 662              	.L48:
 685:Middlewares/ST/STM32_USB_Device_Library/Class/CDC/Src/usbd_cdc.c ****   }
 663              		.loc 1 685 7 is_stmt 1 view .LVU192
 685:Middlewares/ST/STM32_USB_Device_Library/Class/CDC/Src/usbd_cdc.c ****   }
 664              		.loc 1 685 29 is_stmt 0 view .LVU193
 665 0084 0020     		movs	r0, #0
 666 0086 85F86400 		strb	r0, [r5, #100]
 667 008a DBE7     		b	.L40
 668              	.LVL70:
 669              	.L43:
 659:Middlewares/ST/STM32_USB_Device_Library/Class/CDC/Src/usbd_cdc.c ****   }
 670              		.loc 1 659 12 view .LVU194
 671 008c 0320     		movs	r0, #3
 672              	.LVL71:
 659:Middlewares/ST/STM32_USB_Device_Library/Class/CDC/Src/usbd_cdc.c ****   }
 673              		.loc 1 659 12 view .LVU195
 674 008e D9E7     		b	.L40
 675              		.cfi_endproc
 676              	.LFE137:
 678              		.section	.text.USBD_WinUSBComm_GetMSExtendedCompatIDOSDescriptor,"ax",%progbits
 679              		.align	1
 680              		.syntax unified
 681              		.thumb
 682              		.thumb_func
 684              	USBD_WinUSBComm_GetMSExtendedCompatIDOSDescriptor:
 685              	.LVL72:
 686              	.LFB149:
 859:Middlewares/ST/STM32_USB_Device_Library/Class/CDC/Src/usbd_cdc.c **** #endif /* USE_USBD_COMPOSITE  */
 860:Middlewares/ST/STM32_USB_Device_Library/Class/CDC/Src/usbd_cdc.c **** /**
 861:Middlewares/ST/STM32_USB_Device_Library/Class/CDC/Src/usbd_cdc.c ****   * @brief  USBD_CDC_RegisterInterface
 862:Middlewares/ST/STM32_USB_Device_Library/Class/CDC/Src/usbd_cdc.c ****   * @param  pdev: device instance
 863:Middlewares/ST/STM32_USB_Device_Library/Class/CDC/Src/usbd_cdc.c ****   * @param  fops: CD  Interface callback
 864:Middlewares/ST/STM32_USB_Device_Library/Class/CDC/Src/usbd_cdc.c ****   * @retval status
 865:Middlewares/ST/STM32_USB_Device_Library/Class/CDC/Src/usbd_cdc.c ****   */
 866:Middlewares/ST/STM32_USB_Device_Library/Class/CDC/Src/usbd_cdc.c **** uint8_t USBD_CDC_RegisterInterface(USBD_HandleTypeDef *pdev,
 867:Middlewares/ST/STM32_USB_Device_Library/Class/CDC/Src/usbd_cdc.c ****                                    USBD_CDC_ItfTypeDef *fops)
 868:Middlewares/ST/STM32_USB_Device_Library/Class/CDC/Src/usbd_cdc.c **** {
 869:Middlewares/ST/STM32_USB_Device_Library/Class/CDC/Src/usbd_cdc.c ****   if (fops == NULL)
ARM GAS  C:\Users\ADMINI~1\AppData\Local\Temp\cccmLDA3.s 			page 31


 870:Middlewares/ST/STM32_USB_Device_Library/Class/CDC/Src/usbd_cdc.c ****   {
 871:Middlewares/ST/STM32_USB_Device_Library/Class/CDC/Src/usbd_cdc.c ****     return (uint8_t)USBD_FAIL;
 872:Middlewares/ST/STM32_USB_Device_Library/Class/CDC/Src/usbd_cdc.c ****   }
 873:Middlewares/ST/STM32_USB_Device_Library/Class/CDC/Src/usbd_cdc.c **** 
 874:Middlewares/ST/STM32_USB_Device_Library/Class/CDC/Src/usbd_cdc.c ****   pdev->pUserData[pdev->classId] = fops;
 875:Middlewares/ST/STM32_USB_Device_Library/Class/CDC/Src/usbd_cdc.c **** 
 876:Middlewares/ST/STM32_USB_Device_Library/Class/CDC/Src/usbd_cdc.c ****   return (uint8_t)USBD_OK;
 877:Middlewares/ST/STM32_USB_Device_Library/Class/CDC/Src/usbd_cdc.c **** }
 878:Middlewares/ST/STM32_USB_Device_Library/Class/CDC/Src/usbd_cdc.c **** #if 0
 879:Middlewares/ST/STM32_USB_Device_Library/Class/CDC/Src/usbd_cdc.c **** /**
 880:Middlewares/ST/STM32_USB_Device_Library/Class/CDC/Src/usbd_cdc.c ****   * @brief  USBD_CDC_SetTxBuffer
 881:Middlewares/ST/STM32_USB_Device_Library/Class/CDC/Src/usbd_cdc.c ****   * @param  pdev: device instance
 882:Middlewares/ST/STM32_USB_Device_Library/Class/CDC/Src/usbd_cdc.c ****   * @param  pbuff: Tx Buffer
 883:Middlewares/ST/STM32_USB_Device_Library/Class/CDC/Src/usbd_cdc.c ****   * @param  length: Tx Buffer length
 884:Middlewares/ST/STM32_USB_Device_Library/Class/CDC/Src/usbd_cdc.c ****   * @retval status
 885:Middlewares/ST/STM32_USB_Device_Library/Class/CDC/Src/usbd_cdc.c ****   */
 886:Middlewares/ST/STM32_USB_Device_Library/Class/CDC/Src/usbd_cdc.c **** uint8_t USBD_CDC_SetTxBuffer(USBD_HandleTypeDef *pdev,
 887:Middlewares/ST/STM32_USB_Device_Library/Class/CDC/Src/usbd_cdc.c ****                              uint8_t *pbuff, uint32_t length)
 888:Middlewares/ST/STM32_USB_Device_Library/Class/CDC/Src/usbd_cdc.c **** {
 889:Middlewares/ST/STM32_USB_Device_Library/Class/CDC/Src/usbd_cdc.c ****   USBD_CDC_HandleTypeDef *hcdc = (USBD_CDC_HandleTypeDef *)pdev->pClassDataCmsit[pdev->classId];
 890:Middlewares/ST/STM32_USB_Device_Library/Class/CDC/Src/usbd_cdc.c **** 
 891:Middlewares/ST/STM32_USB_Device_Library/Class/CDC/Src/usbd_cdc.c ****   if (hcdc == NULL)
 892:Middlewares/ST/STM32_USB_Device_Library/Class/CDC/Src/usbd_cdc.c ****   {
 893:Middlewares/ST/STM32_USB_Device_Library/Class/CDC/Src/usbd_cdc.c ****     return (uint8_t)USBD_FAIL;
 894:Middlewares/ST/STM32_USB_Device_Library/Class/CDC/Src/usbd_cdc.c ****   }
 895:Middlewares/ST/STM32_USB_Device_Library/Class/CDC/Src/usbd_cdc.c **** 
 896:Middlewares/ST/STM32_USB_Device_Library/Class/CDC/Src/usbd_cdc.c ****   hcdc->TxBuffer = pbuff;
 897:Middlewares/ST/STM32_USB_Device_Library/Class/CDC/Src/usbd_cdc.c ****   hcdc->TxLength = length;
 898:Middlewares/ST/STM32_USB_Device_Library/Class/CDC/Src/usbd_cdc.c **** 
 899:Middlewares/ST/STM32_USB_Device_Library/Class/CDC/Src/usbd_cdc.c ****   return (uint8_t)USBD_OK;
 900:Middlewares/ST/STM32_USB_Device_Library/Class/CDC/Src/usbd_cdc.c **** }
 901:Middlewares/ST/STM32_USB_Device_Library/Class/CDC/Src/usbd_cdc.c **** 
 902:Middlewares/ST/STM32_USB_Device_Library/Class/CDC/Src/usbd_cdc.c **** /**
 903:Middlewares/ST/STM32_USB_Device_Library/Class/CDC/Src/usbd_cdc.c ****   * @brief  USBD_CDC_SetRxBuffer
 904:Middlewares/ST/STM32_USB_Device_Library/Class/CDC/Src/usbd_cdc.c ****   * @param  pdev: device instance
 905:Middlewares/ST/STM32_USB_Device_Library/Class/CDC/Src/usbd_cdc.c ****   * @param  pbuff: Rx Buffer
 906:Middlewares/ST/STM32_USB_Device_Library/Class/CDC/Src/usbd_cdc.c ****   * @retval status
 907:Middlewares/ST/STM32_USB_Device_Library/Class/CDC/Src/usbd_cdc.c ****   */
 908:Middlewares/ST/STM32_USB_Device_Library/Class/CDC/Src/usbd_cdc.c **** uint8_t USBD_CDC_SetRxBuffer(USBD_HandleTypeDef *pdev, uint8_t *pbuff)
 909:Middlewares/ST/STM32_USB_Device_Library/Class/CDC/Src/usbd_cdc.c **** {
 910:Middlewares/ST/STM32_USB_Device_Library/Class/CDC/Src/usbd_cdc.c ****   USBD_CDC_HandleTypeDef *hcdc = (USBD_CDC_HandleTypeDef *)pdev->pClassDataCmsit[pdev->classId];
 911:Middlewares/ST/STM32_USB_Device_Library/Class/CDC/Src/usbd_cdc.c **** 
 912:Middlewares/ST/STM32_USB_Device_Library/Class/CDC/Src/usbd_cdc.c ****   if (hcdc == NULL)
 913:Middlewares/ST/STM32_USB_Device_Library/Class/CDC/Src/usbd_cdc.c ****   {
 914:Middlewares/ST/STM32_USB_Device_Library/Class/CDC/Src/usbd_cdc.c ****     return (uint8_t)USBD_FAIL;
 915:Middlewares/ST/STM32_USB_Device_Library/Class/CDC/Src/usbd_cdc.c ****   }
 916:Middlewares/ST/STM32_USB_Device_Library/Class/CDC/Src/usbd_cdc.c **** 
 917:Middlewares/ST/STM32_USB_Device_Library/Class/CDC/Src/usbd_cdc.c ****   hcdc->RxBuffer = pbuff;
 918:Middlewares/ST/STM32_USB_Device_Library/Class/CDC/Src/usbd_cdc.c **** 
 919:Middlewares/ST/STM32_USB_Device_Library/Class/CDC/Src/usbd_cdc.c ****   return (uint8_t)USBD_OK;
 920:Middlewares/ST/STM32_USB_Device_Library/Class/CDC/Src/usbd_cdc.c **** }
 921:Middlewares/ST/STM32_USB_Device_Library/Class/CDC/Src/usbd_cdc.c **** #else
 922:Middlewares/ST/STM32_USB_Device_Library/Class/CDC/Src/usbd_cdc.c **** uint8_t  USBD_CDC_SetTxBuffer  (USBD_HandleTypeDef   *pdev,
 923:Middlewares/ST/STM32_USB_Device_Library/Class/CDC/Src/usbd_cdc.c ****                                 uint8_t  *pbuff,
 924:Middlewares/ST/STM32_USB_Device_Library/Class/CDC/Src/usbd_cdc.c ****                                 uint16_t length,
 925:Middlewares/ST/STM32_USB_Device_Library/Class/CDC/Src/usbd_cdc.c ****                                 uint8_t endpoint_pair)
 926:Middlewares/ST/STM32_USB_Device_Library/Class/CDC/Src/usbd_cdc.c **** {
ARM GAS  C:\Users\ADMINI~1\AppData\Local\Temp\cccmLDA3.s 			page 32


 927:Middlewares/ST/STM32_USB_Device_Library/Class/CDC/Src/usbd_cdc.c ****   USBD_CDC_HandleTypeDef   *hcdc = (USBD_CDC_HandleTypeDef*) pdev->pClassData;
 928:Middlewares/ST/STM32_USB_Device_Library/Class/CDC/Src/usbd_cdc.c ****   
 929:Middlewares/ST/STM32_USB_Device_Library/Class/CDC/Src/usbd_cdc.c ****   USBD_CDC_EP_HandleTypeDef* hEP_Tx;
 930:Middlewares/ST/STM32_USB_Device_Library/Class/CDC/Src/usbd_cdc.c ****   if (endpoint_pair == CDC_OUT_EP) {
 931:Middlewares/ST/STM32_USB_Device_Library/Class/CDC/Src/usbd_cdc.c ****     hEP_Tx = &hcdc->CDC_Tx;
 932:Middlewares/ST/STM32_USB_Device_Library/Class/CDC/Src/usbd_cdc.c ****   } else if (endpoint_pair == ODRIVE_OUT_EP) {
 933:Middlewares/ST/STM32_USB_Device_Library/Class/CDC/Src/usbd_cdc.c ****     hEP_Tx = &hcdc->ODRIVE_Tx;
 934:Middlewares/ST/STM32_USB_Device_Library/Class/CDC/Src/usbd_cdc.c ****   } else {
 935:Middlewares/ST/STM32_USB_Device_Library/Class/CDC/Src/usbd_cdc.c ****     return USBD_FAIL;
 936:Middlewares/ST/STM32_USB_Device_Library/Class/CDC/Src/usbd_cdc.c ****   }
 937:Middlewares/ST/STM32_USB_Device_Library/Class/CDC/Src/usbd_cdc.c **** 
 938:Middlewares/ST/STM32_USB_Device_Library/Class/CDC/Src/usbd_cdc.c ****   hEP_Tx->Buffer = pbuff;
 939:Middlewares/ST/STM32_USB_Device_Library/Class/CDC/Src/usbd_cdc.c ****   hEP_Tx->Length = length;
 940:Middlewares/ST/STM32_USB_Device_Library/Class/CDC/Src/usbd_cdc.c ****   
 941:Middlewares/ST/STM32_USB_Device_Library/Class/CDC/Src/usbd_cdc.c ****   return USBD_OK;  
 942:Middlewares/ST/STM32_USB_Device_Library/Class/CDC/Src/usbd_cdc.c **** }
 943:Middlewares/ST/STM32_USB_Device_Library/Class/CDC/Src/usbd_cdc.c **** 
 944:Middlewares/ST/STM32_USB_Device_Library/Class/CDC/Src/usbd_cdc.c **** 
 945:Middlewares/ST/STM32_USB_Device_Library/Class/CDC/Src/usbd_cdc.c **** /**
 946:Middlewares/ST/STM32_USB_Device_Library/Class/CDC/Src/usbd_cdc.c ****   * @brief  USBD_CDC_SetRxBuffer
 947:Middlewares/ST/STM32_USB_Device_Library/Class/CDC/Src/usbd_cdc.c ****   * @param  pdev: device instance
 948:Middlewares/ST/STM32_USB_Device_Library/Class/CDC/Src/usbd_cdc.c ****   * @param  pbuff: Rx Buffer
 949:Middlewares/ST/STM32_USB_Device_Library/Class/CDC/Src/usbd_cdc.c ****   * @retval status
 950:Middlewares/ST/STM32_USB_Device_Library/Class/CDC/Src/usbd_cdc.c ****   */
 951:Middlewares/ST/STM32_USB_Device_Library/Class/CDC/Src/usbd_cdc.c **** uint8_t  USBD_CDC_SetRxBuffer  (USBD_HandleTypeDef   *pdev,
 952:Middlewares/ST/STM32_USB_Device_Library/Class/CDC/Src/usbd_cdc.c ****                                    uint8_t  *pbuff, uint8_t endpoint_pair)
 953:Middlewares/ST/STM32_USB_Device_Library/Class/CDC/Src/usbd_cdc.c **** {
 954:Middlewares/ST/STM32_USB_Device_Library/Class/CDC/Src/usbd_cdc.c ****   USBD_CDC_HandleTypeDef   *hcdc = (USBD_CDC_HandleTypeDef*) pdev->pClassData;
 955:Middlewares/ST/STM32_USB_Device_Library/Class/CDC/Src/usbd_cdc.c **** 
 956:Middlewares/ST/STM32_USB_Device_Library/Class/CDC/Src/usbd_cdc.c ****   USBD_CDC_EP_HandleTypeDef* hEP_Rx;
 957:Middlewares/ST/STM32_USB_Device_Library/Class/CDC/Src/usbd_cdc.c ****   if (endpoint_pair == CDC_OUT_EP) {
 958:Middlewares/ST/STM32_USB_Device_Library/Class/CDC/Src/usbd_cdc.c ****     hEP_Rx = &hcdc->CDC_Rx;
 959:Middlewares/ST/STM32_USB_Device_Library/Class/CDC/Src/usbd_cdc.c ****   } else if (endpoint_pair == ODRIVE_OUT_EP) {
 960:Middlewares/ST/STM32_USB_Device_Library/Class/CDC/Src/usbd_cdc.c ****     hEP_Rx = &hcdc->ODRIVE_Rx;
 961:Middlewares/ST/STM32_USB_Device_Library/Class/CDC/Src/usbd_cdc.c ****   } else {
 962:Middlewares/ST/STM32_USB_Device_Library/Class/CDC/Src/usbd_cdc.c ****     return USBD_FAIL;
 963:Middlewares/ST/STM32_USB_Device_Library/Class/CDC/Src/usbd_cdc.c ****   }
 964:Middlewares/ST/STM32_USB_Device_Library/Class/CDC/Src/usbd_cdc.c ****   
 965:Middlewares/ST/STM32_USB_Device_Library/Class/CDC/Src/usbd_cdc.c ****   hEP_Rx->Buffer = pbuff;
 966:Middlewares/ST/STM32_USB_Device_Library/Class/CDC/Src/usbd_cdc.c ****   
 967:Middlewares/ST/STM32_USB_Device_Library/Class/CDC/Src/usbd_cdc.c ****   return USBD_OK;
 968:Middlewares/ST/STM32_USB_Device_Library/Class/CDC/Src/usbd_cdc.c **** }
 969:Middlewares/ST/STM32_USB_Device_Library/Class/CDC/Src/usbd_cdc.c **** 
 970:Middlewares/ST/STM32_USB_Device_Library/Class/CDC/Src/usbd_cdc.c **** #endif
 971:Middlewares/ST/STM32_USB_Device_Library/Class/CDC/Src/usbd_cdc.c **** /**
 972:Middlewares/ST/STM32_USB_Device_Library/Class/CDC/Src/usbd_cdc.c ****   * @brief  USBD_CDC_TransmitPacket
 973:Middlewares/ST/STM32_USB_Device_Library/Class/CDC/Src/usbd_cdc.c ****   *         Transmit packet on IN endpoint
 974:Middlewares/ST/STM32_USB_Device_Library/Class/CDC/Src/usbd_cdc.c ****   * @param  pdev: device instance
 975:Middlewares/ST/STM32_USB_Device_Library/Class/CDC/Src/usbd_cdc.c ****   * @retval status
 976:Middlewares/ST/STM32_USB_Device_Library/Class/CDC/Src/usbd_cdc.c ****   */
 977:Middlewares/ST/STM32_USB_Device_Library/Class/CDC/Src/usbd_cdc.c **** uint8_t USBD_CDC_TransmitPacket(USBD_HandleTypeDef *pdev,uint8_t endpoint_pair)
 978:Middlewares/ST/STM32_USB_Device_Library/Class/CDC/Src/usbd_cdc.c **** {
 979:Middlewares/ST/STM32_USB_Device_Library/Class/CDC/Src/usbd_cdc.c ****   USBD_CDC_HandleTypeDef *hcdc = (USBD_CDC_HandleTypeDef *)pdev->pClassDataCmsit[pdev->classId];
 980:Middlewares/ST/STM32_USB_Device_Library/Class/CDC/Src/usbd_cdc.c ****   USBD_StatusTypeDef ret = USBD_BUSY;
 981:Middlewares/ST/STM32_USB_Device_Library/Class/CDC/Src/usbd_cdc.c **** 
 982:Middlewares/ST/STM32_USB_Device_Library/Class/CDC/Src/usbd_cdc.c **** #ifdef USE_USBD_COMPOSITE
 983:Middlewares/ST/STM32_USB_Device_Library/Class/CDC/Src/usbd_cdc.c ****   /* Get the Endpoints addresses allocated for this class instance */
ARM GAS  C:\Users\ADMINI~1\AppData\Local\Temp\cccmLDA3.s 			page 33


 984:Middlewares/ST/STM32_USB_Device_Library/Class/CDC/Src/usbd_cdc.c ****   CDCInEpAdd  = USBD_CoreGetEPAdd(pdev, USBD_EP_IN, USBD_EP_TYPE_BULK);
 985:Middlewares/ST/STM32_USB_Device_Library/Class/CDC/Src/usbd_cdc.c **** #endif /* USE_USBD_COMPOSITE */
 986:Middlewares/ST/STM32_USB_Device_Library/Class/CDC/Src/usbd_cdc.c ****   if (pdev->pClassDataCmsit[pdev->classId] == NULL)
 987:Middlewares/ST/STM32_USB_Device_Library/Class/CDC/Src/usbd_cdc.c ****   {
 988:Middlewares/ST/STM32_USB_Device_Library/Class/CDC/Src/usbd_cdc.c ****     return (uint8_t)USBD_FAIL;
 989:Middlewares/ST/STM32_USB_Device_Library/Class/CDC/Src/usbd_cdc.c ****   }
 990:Middlewares/ST/STM32_USB_Device_Library/Class/CDC/Src/usbd_cdc.c ****   USBD_CDC_EP_HandleTypeDef* hEP_Tx;
 991:Middlewares/ST/STM32_USB_Device_Library/Class/CDC/Src/usbd_cdc.c ****   uint8_t in_ep;
 992:Middlewares/ST/STM32_USB_Device_Library/Class/CDC/Src/usbd_cdc.c ****   if (endpoint_pair == CDC_OUT_EP) {
 993:Middlewares/ST/STM32_USB_Device_Library/Class/CDC/Src/usbd_cdc.c ****     hEP_Tx = &hcdc->CDC_Tx;
 994:Middlewares/ST/STM32_USB_Device_Library/Class/CDC/Src/usbd_cdc.c ****     in_ep = CDC_IN_EP;
 995:Middlewares/ST/STM32_USB_Device_Library/Class/CDC/Src/usbd_cdc.c ****   } else if (endpoint_pair == ODRIVE_OUT_EP) {
 996:Middlewares/ST/STM32_USB_Device_Library/Class/CDC/Src/usbd_cdc.c ****     hEP_Tx = &hcdc->ODRIVE_Tx;
 997:Middlewares/ST/STM32_USB_Device_Library/Class/CDC/Src/usbd_cdc.c ****     in_ep = ODRIVE_IN_EP;
 998:Middlewares/ST/STM32_USB_Device_Library/Class/CDC/Src/usbd_cdc.c ****   } else {
 999:Middlewares/ST/STM32_USB_Device_Library/Class/CDC/Src/usbd_cdc.c ****     return USBD_FAIL;
1000:Middlewares/ST/STM32_USB_Device_Library/Class/CDC/Src/usbd_cdc.c ****   }
1001:Middlewares/ST/STM32_USB_Device_Library/Class/CDC/Src/usbd_cdc.c ****   if (hEP_Tx->State == 0U)
1002:Middlewares/ST/STM32_USB_Device_Library/Class/CDC/Src/usbd_cdc.c ****   {
1003:Middlewares/ST/STM32_USB_Device_Library/Class/CDC/Src/usbd_cdc.c ****     /* Tx Transfer in progress */
1004:Middlewares/ST/STM32_USB_Device_Library/Class/CDC/Src/usbd_cdc.c ****     hEP_Tx->State = 1U;
1005:Middlewares/ST/STM32_USB_Device_Library/Class/CDC/Src/usbd_cdc.c **** 
1006:Middlewares/ST/STM32_USB_Device_Library/Class/CDC/Src/usbd_cdc.c ****     /* Update the packet total length */
1007:Middlewares/ST/STM32_USB_Device_Library/Class/CDC/Src/usbd_cdc.c ****     pdev->ep_in[CDCInEpAdd & 0xFU].total_length = hEP_Tx->Length;
1008:Middlewares/ST/STM32_USB_Device_Library/Class/CDC/Src/usbd_cdc.c **** 
1009:Middlewares/ST/STM32_USB_Device_Library/Class/CDC/Src/usbd_cdc.c ****     /* Transmit next packet */
1010:Middlewares/ST/STM32_USB_Device_Library/Class/CDC/Src/usbd_cdc.c ****     (void)USBD_LL_Transmit(pdev, in_ep, hEP_Tx->Buffer, hEP_Tx->Length);
1011:Middlewares/ST/STM32_USB_Device_Library/Class/CDC/Src/usbd_cdc.c **** 
1012:Middlewares/ST/STM32_USB_Device_Library/Class/CDC/Src/usbd_cdc.c ****     ret = USBD_OK;
1013:Middlewares/ST/STM32_USB_Device_Library/Class/CDC/Src/usbd_cdc.c ****   }
1014:Middlewares/ST/STM32_USB_Device_Library/Class/CDC/Src/usbd_cdc.c **** 
1015:Middlewares/ST/STM32_USB_Device_Library/Class/CDC/Src/usbd_cdc.c ****   return (uint8_t)ret;
1016:Middlewares/ST/STM32_USB_Device_Library/Class/CDC/Src/usbd_cdc.c **** }
1017:Middlewares/ST/STM32_USB_Device_Library/Class/CDC/Src/usbd_cdc.c **** 
1018:Middlewares/ST/STM32_USB_Device_Library/Class/CDC/Src/usbd_cdc.c **** /**
1019:Middlewares/ST/STM32_USB_Device_Library/Class/CDC/Src/usbd_cdc.c ****   * @brief  USBD_CDC_ReceivePacket
1020:Middlewares/ST/STM32_USB_Device_Library/Class/CDC/Src/usbd_cdc.c ****   *         prepare OUT Endpoint for reception
1021:Middlewares/ST/STM32_USB_Device_Library/Class/CDC/Src/usbd_cdc.c ****   * @param  pdev: device instance
1022:Middlewares/ST/STM32_USB_Device_Library/Class/CDC/Src/usbd_cdc.c ****   * @retval status
1023:Middlewares/ST/STM32_USB_Device_Library/Class/CDC/Src/usbd_cdc.c ****   */
1024:Middlewares/ST/STM32_USB_Device_Library/Class/CDC/Src/usbd_cdc.c **** uint8_t USBD_CDC_ReceivePacket(USBD_HandleTypeDef *pdev, uint8_t endpoint_pair)
1025:Middlewares/ST/STM32_USB_Device_Library/Class/CDC/Src/usbd_cdc.c **** {
1026:Middlewares/ST/STM32_USB_Device_Library/Class/CDC/Src/usbd_cdc.c ****   USBD_CDC_HandleTypeDef *hcdc = (USBD_CDC_HandleTypeDef *)pdev->pClassDataCmsit[pdev->classId];
1027:Middlewares/ST/STM32_USB_Device_Library/Class/CDC/Src/usbd_cdc.c **** 
1028:Middlewares/ST/STM32_USB_Device_Library/Class/CDC/Src/usbd_cdc.c **** #ifdef USE_USBD_COMPOSITE
1029:Middlewares/ST/STM32_USB_Device_Library/Class/CDC/Src/usbd_cdc.c ****   /* Get the Endpoints addresses allocated for this class instance */
1030:Middlewares/ST/STM32_USB_Device_Library/Class/CDC/Src/usbd_cdc.c ****   CDCOutEpAdd = USBD_CoreGetEPAdd(pdev, USBD_EP_OUT, USBD_EP_TYPE_BULK);
1031:Middlewares/ST/STM32_USB_Device_Library/Class/CDC/Src/usbd_cdc.c **** #endif /* USE_USBD_COMPOSITE */
1032:Middlewares/ST/STM32_USB_Device_Library/Class/CDC/Src/usbd_cdc.c **** 
1033:Middlewares/ST/STM32_USB_Device_Library/Class/CDC/Src/usbd_cdc.c ****   if (pdev->pClassDataCmsit[pdev->classId] == NULL)
1034:Middlewares/ST/STM32_USB_Device_Library/Class/CDC/Src/usbd_cdc.c ****   {
1035:Middlewares/ST/STM32_USB_Device_Library/Class/CDC/Src/usbd_cdc.c ****     return (uint8_t)USBD_FAIL;
1036:Middlewares/ST/STM32_USB_Device_Library/Class/CDC/Src/usbd_cdc.c ****   }
1037:Middlewares/ST/STM32_USB_Device_Library/Class/CDC/Src/usbd_cdc.c **** 
1038:Middlewares/ST/STM32_USB_Device_Library/Class/CDC/Src/usbd_cdc.c ****   USBD_CDC_EP_HandleTypeDef* hEP_Rx;
1039:Middlewares/ST/STM32_USB_Device_Library/Class/CDC/Src/usbd_cdc.c ****   uint8_t out_ep;
1040:Middlewares/ST/STM32_USB_Device_Library/Class/CDC/Src/usbd_cdc.c ****   if (endpoint_pair == CDC_OUT_EP) {
ARM GAS  C:\Users\ADMINI~1\AppData\Local\Temp\cccmLDA3.s 			page 34


1041:Middlewares/ST/STM32_USB_Device_Library/Class/CDC/Src/usbd_cdc.c ****     hEP_Rx = &hcdc->CDC_Rx;
1042:Middlewares/ST/STM32_USB_Device_Library/Class/CDC/Src/usbd_cdc.c ****     out_ep = CDC_OUT_EP;
1043:Middlewares/ST/STM32_USB_Device_Library/Class/CDC/Src/usbd_cdc.c ****   } else if (endpoint_pair == ODRIVE_OUT_EP) {
1044:Middlewares/ST/STM32_USB_Device_Library/Class/CDC/Src/usbd_cdc.c ****     hEP_Rx = &hcdc->ODRIVE_Rx;
1045:Middlewares/ST/STM32_USB_Device_Library/Class/CDC/Src/usbd_cdc.c ****     out_ep = ODRIVE_OUT_EP;
1046:Middlewares/ST/STM32_USB_Device_Library/Class/CDC/Src/usbd_cdc.c ****   } else {
1047:Middlewares/ST/STM32_USB_Device_Library/Class/CDC/Src/usbd_cdc.c ****     return USBD_FAIL;
1048:Middlewares/ST/STM32_USB_Device_Library/Class/CDC/Src/usbd_cdc.c ****   }
1049:Middlewares/ST/STM32_USB_Device_Library/Class/CDC/Src/usbd_cdc.c **** 
1050:Middlewares/ST/STM32_USB_Device_Library/Class/CDC/Src/usbd_cdc.c ****   if (pdev->dev_speed == USBD_SPEED_HIGH)
1051:Middlewares/ST/STM32_USB_Device_Library/Class/CDC/Src/usbd_cdc.c ****   {
1052:Middlewares/ST/STM32_USB_Device_Library/Class/CDC/Src/usbd_cdc.c ****     /* Prepare Out endpoint to receive next packet */
1053:Middlewares/ST/STM32_USB_Device_Library/Class/CDC/Src/usbd_cdc.c ****     (void)USBD_LL_PrepareReceive(pdev, out_ep, hEP_Rx->Buffer,
1054:Middlewares/ST/STM32_USB_Device_Library/Class/CDC/Src/usbd_cdc.c ****                                  CDC_DATA_HS_OUT_PACKET_SIZE);
1055:Middlewares/ST/STM32_USB_Device_Library/Class/CDC/Src/usbd_cdc.c ****   }
1056:Middlewares/ST/STM32_USB_Device_Library/Class/CDC/Src/usbd_cdc.c ****   else
1057:Middlewares/ST/STM32_USB_Device_Library/Class/CDC/Src/usbd_cdc.c ****   {
1058:Middlewares/ST/STM32_USB_Device_Library/Class/CDC/Src/usbd_cdc.c ****     /* Prepare Out endpoint to receive next packet */
1059:Middlewares/ST/STM32_USB_Device_Library/Class/CDC/Src/usbd_cdc.c ****     (void)USBD_LL_PrepareReceive(pdev, out_ep, hEP_Rx->Buffer,
1060:Middlewares/ST/STM32_USB_Device_Library/Class/CDC/Src/usbd_cdc.c ****                                  CDC_DATA_FS_OUT_PACKET_SIZE);
1061:Middlewares/ST/STM32_USB_Device_Library/Class/CDC/Src/usbd_cdc.c ****   }
1062:Middlewares/ST/STM32_USB_Device_Library/Class/CDC/Src/usbd_cdc.c **** 
1063:Middlewares/ST/STM32_USB_Device_Library/Class/CDC/Src/usbd_cdc.c ****   return (uint8_t)USBD_OK;
1064:Middlewares/ST/STM32_USB_Device_Library/Class/CDC/Src/usbd_cdc.c **** }
1065:Middlewares/ST/STM32_USB_Device_Library/Class/CDC/Src/usbd_cdc.c **** /**
1066:Middlewares/ST/STM32_USB_Device_Library/Class/CDC/Src/usbd_cdc.c ****   * @}
1067:Middlewares/ST/STM32_USB_Device_Library/Class/CDC/Src/usbd_cdc.c ****   */
1068:Middlewares/ST/STM32_USB_Device_Library/Class/CDC/Src/usbd_cdc.c **** 
1069:Middlewares/ST/STM32_USB_Device_Library/Class/CDC/Src/usbd_cdc.c **** /**
1070:Middlewares/ST/STM32_USB_Device_Library/Class/CDC/Src/usbd_cdc.c ****   * @}
1071:Middlewares/ST/STM32_USB_Device_Library/Class/CDC/Src/usbd_cdc.c ****   */
1072:Middlewares/ST/STM32_USB_Device_Library/Class/CDC/Src/usbd_cdc.c **** 
1073:Middlewares/ST/STM32_USB_Device_Library/Class/CDC/Src/usbd_cdc.c **** /**
1074:Middlewares/ST/STM32_USB_Device_Library/Class/CDC/Src/usbd_cdc.c ****   * @}
1075:Middlewares/ST/STM32_USB_Device_Library/Class/CDC/Src/usbd_cdc.c ****   */
1076:Middlewares/ST/STM32_USB_Device_Library/Class/CDC/Src/usbd_cdc.c **** 
1077:Middlewares/ST/STM32_USB_Device_Library/Class/CDC/Src/usbd_cdc.c ****  /* WinUSB support ------------------------------------------------------------*/
1078:Middlewares/ST/STM32_USB_Device_Library/Class/CDC/Src/usbd_cdc.c **** /*
1079:Middlewares/ST/STM32_USB_Device_Library/Class/CDC/Src/usbd_cdc.c **** * This section tells Windows that it should automatically load the WinUSB driver
1080:Middlewares/ST/STM32_USB_Device_Library/Class/CDC/Src/usbd_cdc.c **** * for the device (more specifically, interface 2 because it's a composite device).
1081:Middlewares/ST/STM32_USB_Device_Library/Class/CDC/Src/usbd_cdc.c **** * This allows for driverless communication with the device.
1082:Middlewares/ST/STM32_USB_Device_Library/Class/CDC/Src/usbd_cdc.c **** */
1083:Middlewares/ST/STM32_USB_Device_Library/Class/CDC/Src/usbd_cdc.c **** 
1084:Middlewares/ST/STM32_USB_Device_Library/Class/CDC/Src/usbd_cdc.c **** #define NUM_INTERFACES 1
1085:Middlewares/ST/STM32_USB_Device_Library/Class/CDC/Src/usbd_cdc.c **** 
1086:Middlewares/ST/STM32_USB_Device_Library/Class/CDC/Src/usbd_cdc.c **** #if NUM_INTERFACES == 2
1087:Middlewares/ST/STM32_USB_Device_Library/Class/CDC/Src/usbd_cdc.c **** #define USB_WINUSBCOMM_COMPAT_ID_OS_DESC_SIZ       (16 + 24 + 24)
1088:Middlewares/ST/STM32_USB_Device_Library/Class/CDC/Src/usbd_cdc.c **** #else
1089:Middlewares/ST/STM32_USB_Device_Library/Class/CDC/Src/usbd_cdc.c **** #define USB_WINUSBCOMM_COMPAT_ID_OS_DESC_SIZ       (16 + 24)
1090:Middlewares/ST/STM32_USB_Device_Library/Class/CDC/Src/usbd_cdc.c **** #endif
1091:Middlewares/ST/STM32_USB_Device_Library/Class/CDC/Src/usbd_cdc.c **** 
1092:Middlewares/ST/STM32_USB_Device_Library/Class/CDC/Src/usbd_cdc.c **** 
1093:Middlewares/ST/STM32_USB_Device_Library/Class/CDC/Src/usbd_cdc.c **** // This associates winusb driver with the device
1094:Middlewares/ST/STM32_USB_Device_Library/Class/CDC/Src/usbd_cdc.c **** __ALIGN_BEGIN uint8_t USBD_WinUSBComm_Extended_Compat_ID_OS_Desc[USB_WINUSBCOMM_COMPAT_ID_OS_DESC_S
1095:Middlewares/ST/STM32_USB_Device_Library/Class/CDC/Src/usbd_cdc.c **** {
1096:Middlewares/ST/STM32_USB_Device_Library/Class/CDC/Src/usbd_cdc.c ****                                                     //    +-- Offset in descriptor
1097:Middlewares/ST/STM32_USB_Device_Library/Class/CDC/Src/usbd_cdc.c ****                                                     //    |             +-- Size
ARM GAS  C:\Users\ADMINI~1\AppData\Local\Temp\cccmLDA3.s 			page 35


1098:Middlewares/ST/STM32_USB_Device_Library/Class/CDC/Src/usbd_cdc.c ****                                                     //    v             v
1099:Middlewares/ST/STM32_USB_Device_Library/Class/CDC/Src/usbd_cdc.c ****   USB_WINUSBCOMM_COMPAT_ID_OS_DESC_SIZ, 0, 0, 0,    //    0 dwLength    4 DWORD The length, in byte
1100:Middlewares/ST/STM32_USB_Device_Library/Class/CDC/Src/usbd_cdc.c ****   0x00, 0x01,                                       //    4 bcdVersion  2 BCD The descriptors ve
1101:Middlewares/ST/STM32_USB_Device_Library/Class/CDC/Src/usbd_cdc.c ****   0x04, 0x00,                                       //    6 wIndex      2 WORD  An index that ident
1102:Middlewares/ST/STM32_USB_Device_Library/Class/CDC/Src/usbd_cdc.c ****   NUM_INTERFACES,                                   //    8 bCount      1 BYTE  The number of custo
1103:Middlewares/ST/STM32_USB_Device_Library/Class/CDC/Src/usbd_cdc.c ****   0, 0, 0, 0, 0, 0, 0,                              //    9 RESERVED    7 BYTEs Reserved
1104:Middlewares/ST/STM32_USB_Device_Library/Class/CDC/Src/usbd_cdc.c ****                                                     //    =====================
1105:Middlewares/ST/STM32_USB_Device_Library/Class/CDC/Src/usbd_cdc.c ****                                                     //                 16
1106:Middlewares/ST/STM32_USB_Device_Library/Class/CDC/Src/usbd_cdc.c **** 
1107:Middlewares/ST/STM32_USB_Device_Library/Class/CDC/Src/usbd_cdc.c ****                                                     //   +-- Offset from function section start
1108:Middlewares/ST/STM32_USB_Device_Library/Class/CDC/Src/usbd_cdc.c ****                                                     //   |                        +-- Size
1109:Middlewares/ST/STM32_USB_Device_Library/Class/CDC/Src/usbd_cdc.c ****                                                     //   v                        v
1110:Middlewares/ST/STM32_USB_Device_Library/Class/CDC/Src/usbd_cdc.c ****   2,                                                //   0  bFirstInterfaceNumber 1 BYTE  The inter
1111:Middlewares/ST/STM32_USB_Device_Library/Class/CDC/Src/usbd_cdc.c ****   0,                                                //   1  RESERVED              1 BYTE  Reserved
1112:Middlewares/ST/STM32_USB_Device_Library/Class/CDC/Src/usbd_cdc.c ****   0x57, 0x49, 0x4E, 0x55, 0x53, 0x42, 0x00, 0x00,   //   2  compatibleID          8 BYTEs The funct
1113:Middlewares/ST/STM32_USB_Device_Library/Class/CDC/Src/usbd_cdc.c ****   0, 0, 0, 0, 0, 0, 0, 0,                           //  10  subCompatibleID       8 BYTEs The funct
1114:Middlewares/ST/STM32_USB_Device_Library/Class/CDC/Src/usbd_cdc.c ****   0, 0, 0, 0, 0, 0,                                 //  18  RESERVED              6 BYTEs Reserved
1115:Middlewares/ST/STM32_USB_Device_Library/Class/CDC/Src/usbd_cdc.c ****                                                     //  =================================
1116:Middlewares/ST/STM32_USB_Device_Library/Class/CDC/Src/usbd_cdc.c ****                                                     //                           24
1117:Middlewares/ST/STM32_USB_Device_Library/Class/CDC/Src/usbd_cdc.c **** #if NUM_INTERFACES == 2
1118:Middlewares/ST/STM32_USB_Device_Library/Class/CDC/Src/usbd_cdc.c ****                                                     //   +-- Offset from function section start
1119:Middlewares/ST/STM32_USB_Device_Library/Class/CDC/Src/usbd_cdc.c ****                                                     //   |                        +-- Size
1120:Middlewares/ST/STM32_USB_Device_Library/Class/CDC/Src/usbd_cdc.c ****                                                     //   v                        v
1121:Middlewares/ST/STM32_USB_Device_Library/Class/CDC/Src/usbd_cdc.c ****   2,                                                //   0  bFirstInterfaceNumber 1 BYTE  The inter
1122:Middlewares/ST/STM32_USB_Device_Library/Class/CDC/Src/usbd_cdc.c ****   0,                                                //   1  RESERVED              1 BYTE  Reserved
1123:Middlewares/ST/STM32_USB_Device_Library/Class/CDC/Src/usbd_cdc.c ****   0x57, 0x49, 0x4E, 0x55, 0x53, 0x42, 0x00, 0x00,   //   2  compatibleID          8 BYTEs The funct
1124:Middlewares/ST/STM32_USB_Device_Library/Class/CDC/Src/usbd_cdc.c ****   0, 0, 0, 0, 0, 0, 0, 0,                           //  10  subCompatibleID       8 BYTEs The funct
1125:Middlewares/ST/STM32_USB_Device_Library/Class/CDC/Src/usbd_cdc.c ****   0, 0, 0, 0, 0, 0,                                 //  18  RESERVED              6 BYTEs Reserved
1126:Middlewares/ST/STM32_USB_Device_Library/Class/CDC/Src/usbd_cdc.c ****                                                     //  =================================
1127:Middlewares/ST/STM32_USB_Device_Library/Class/CDC/Src/usbd_cdc.c ****                                                     //                           24
1128:Middlewares/ST/STM32_USB_Device_Library/Class/CDC/Src/usbd_cdc.c **** #endif
1129:Middlewares/ST/STM32_USB_Device_Library/Class/CDC/Src/usbd_cdc.c **** };
1130:Middlewares/ST/STM32_USB_Device_Library/Class/CDC/Src/usbd_cdc.c **** // Properties are added to:
1131:Middlewares/ST/STM32_USB_Device_Library/Class/CDC/Src/usbd_cdc.c **** // HKEY_LOCAL_MACHINE\SYSTEM\CurrentControlSet\Enum\USB\VID_xxxx&PID_xxxx\sssssssss\Device Paramete
1132:Middlewares/ST/STM32_USB_Device_Library/Class/CDC/Src/usbd_cdc.c **** // Use USBDeview or similar to uninstall
1133:Middlewares/ST/STM32_USB_Device_Library/Class/CDC/Src/usbd_cdc.c **** 
1134:Middlewares/ST/STM32_USB_Device_Library/Class/CDC/Src/usbd_cdc.c **** __ALIGN_BEGIN uint8_t USBD_WinUSBComm_Extended_Properties_OS_Desc[0xB6]  __ALIGN_END =
1135:Middlewares/ST/STM32_USB_Device_Library/Class/CDC/Src/usbd_cdc.c **** {
1136:Middlewares/ST/STM32_USB_Device_Library/Class/CDC/Src/usbd_cdc.c ****   0xB6, 0x00, 0x00, 0x00,   // 0 dwLength   4 DWORD The length, in bytes, of the complete extended 
1137:Middlewares/ST/STM32_USB_Device_Library/Class/CDC/Src/usbd_cdc.c ****   0x00, 0x01,               // 4 bcdVersion 2 BCD   The descriptors version number, in binary co
1138:Middlewares/ST/STM32_USB_Device_Library/Class/CDC/Src/usbd_cdc.c ****   0x05, 0x00,               // 6 wIndex     2 WORD  The index for extended properties OS descriptor
1139:Middlewares/ST/STM32_USB_Device_Library/Class/CDC/Src/usbd_cdc.c ****   0x02, 0x00,               // 8 wCount     2 WORD  The number of custom property sections that fol
1140:Middlewares/ST/STM32_USB_Device_Library/Class/CDC/Src/usbd_cdc.c ****                             // ====================
1141:Middlewares/ST/STM32_USB_Device_Library/Class/CDC/Src/usbd_cdc.c ****                             //             10
1142:Middlewares/ST/STM32_USB_Device_Library/Class/CDC/Src/usbd_cdc.c **** ///////////////////////////////////////////////////////////////////////////////////////////////////
1143:Middlewares/ST/STM32_USB_Device_Library/Class/CDC/Src/usbd_cdc.c ****   0x84, 0x00, 0x00, 0x00,   //  0       dwSize                  4 DWORD             The size of thi
1144:Middlewares/ST/STM32_USB_Device_Library/Class/CDC/Src/usbd_cdc.c ****   0x01, 0x00, 0x00, 0x00,   //  4       dwPropertyDataType      4 DWORD             Property data f
1145:Middlewares/ST/STM32_USB_Device_Library/Class/CDC/Src/usbd_cdc.c ****   0x28, 0x00,               //  8       wPropertyNameLength     2 DWORD             Property name l
1146:Middlewares/ST/STM32_USB_Device_Library/Class/CDC/Src/usbd_cdc.c ****                             // ========================================
1147:Middlewares/ST/STM32_USB_Device_Library/Class/CDC/Src/usbd_cdc.c ****                             //                                 10
1148:Middlewares/ST/STM32_USB_Device_Library/Class/CDC/Src/usbd_cdc.c ****                             // 10       bPropertyName         PNL WCHAR[]           The property na
1149:Middlewares/ST/STM32_USB_Device_Library/Class/CDC/Src/usbd_cdc.c ****   'D',0, 'e',0, 'v',0, 'i',0, 'c',0, 'e',0, 'I',0, 'n',0,
1150:Middlewares/ST/STM32_USB_Device_Library/Class/CDC/Src/usbd_cdc.c ****   't',0, 'e',0, 'r',0, 'f',0, 'a',0, 'c',0, 'e',0, 'G',0,
1151:Middlewares/ST/STM32_USB_Device_Library/Class/CDC/Src/usbd_cdc.c ****   'U',0, 'I',0, 'D',0, 0,0,
1152:Middlewares/ST/STM32_USB_Device_Library/Class/CDC/Src/usbd_cdc.c ****                             // ========================================
1153:Middlewares/ST/STM32_USB_Device_Library/Class/CDC/Src/usbd_cdc.c ****                             //                                 40 (0x28)
1154:Middlewares/ST/STM32_USB_Device_Library/Class/CDC/Src/usbd_cdc.c **** 
ARM GAS  C:\Users\ADMINI~1\AppData\Local\Temp\cccmLDA3.s 			page 36


1155:Middlewares/ST/STM32_USB_Device_Library/Class/CDC/Src/usbd_cdc.c ****   0x4E, 0x00, 0x00, 0x00,   // 10 + PNL dwPropertyDataLength    4 DWORD             Length of the b
1156:Middlewares/ST/STM32_USB_Device_Library/Class/CDC/Src/usbd_cdc.c ****                             // ========================================
1157:Middlewares/ST/STM32_USB_Device_Library/Class/CDC/Src/usbd_cdc.c ****                             //                                  4
1158:Middlewares/ST/STM32_USB_Device_Library/Class/CDC/Src/usbd_cdc.c ****     // 14 + PNL bPropertyData         PDL Format-dependent  Property data
1159:Middlewares/ST/STM32_USB_Device_Library/Class/CDC/Src/usbd_cdc.c ****   '{',0, 'E',0, 'A',0, '0',0, 'B',0, 'D',0, '5',0, 'C',0,
1160:Middlewares/ST/STM32_USB_Device_Library/Class/CDC/Src/usbd_cdc.c ****   '3',0, '-',0, '5',0, '0',0, 'F',0, '3',0, '-',0, '4',0,
1161:Middlewares/ST/STM32_USB_Device_Library/Class/CDC/Src/usbd_cdc.c ****   '8',0, '8',0, '8',0, '-',0, '8',0, '4',0, 'B',0, '4',0,
1162:Middlewares/ST/STM32_USB_Device_Library/Class/CDC/Src/usbd_cdc.c ****   '-',0, '7',0, '4',0, 'E',0, '5',0, '0',0, 'E',0, '1',0,
1163:Middlewares/ST/STM32_USB_Device_Library/Class/CDC/Src/usbd_cdc.c ****   '6',0, '4',0, '9',0, 'D',0, 'B',0, '}',0,  0 ,0,
1164:Middlewares/ST/STM32_USB_Device_Library/Class/CDC/Src/usbd_cdc.c ****                             // ========================================
1165:Middlewares/ST/STM32_USB_Device_Library/Class/CDC/Src/usbd_cdc.c ****                             //                                 78 (0x4E)
1166:Middlewares/ST/STM32_USB_Device_Library/Class/CDC/Src/usbd_cdc.c **** ///////////////////////////////////////////////////////////////////////////////////////////////////
1167:Middlewares/ST/STM32_USB_Device_Library/Class/CDC/Src/usbd_cdc.c ****   0x3E, 0x00, 0x00, 0x00,   //  0 dwSize 0x00000030 (62 bytes)
1168:Middlewares/ST/STM32_USB_Device_Library/Class/CDC/Src/usbd_cdc.c ****   0x01, 0x00, 0x00, 0x00,   //  4 dwPropertyDataType 0x00000001 (Unicode string)
1169:Middlewares/ST/STM32_USB_Device_Library/Class/CDC/Src/usbd_cdc.c ****   0x0C, 0x00,               //  8 wPropertyNameLength 0x000C (12 bytes)
1170:Middlewares/ST/STM32_USB_Device_Library/Class/CDC/Src/usbd_cdc.c ****                             // ========================================
1171:Middlewares/ST/STM32_USB_Device_Library/Class/CDC/Src/usbd_cdc.c ****                             //                                  10
1172:Middlewares/ST/STM32_USB_Device_Library/Class/CDC/Src/usbd_cdc.c ****   'L',0, 'a',0, 'b',0, 'e',0, 'l',0, 0,0,
1173:Middlewares/ST/STM32_USB_Device_Library/Class/CDC/Src/usbd_cdc.c ****                             // 10 bPropertyName Label
1174:Middlewares/ST/STM32_USB_Device_Library/Class/CDC/Src/usbd_cdc.c ****                             // ========================================
1175:Middlewares/ST/STM32_USB_Device_Library/Class/CDC/Src/usbd_cdc.c ****                             //                                  12
1176:Middlewares/ST/STM32_USB_Device_Library/Class/CDC/Src/usbd_cdc.c ****   0x24, 0x00, 0x00, 0x00,   // 22 dwPropertyDataLength 0x00000016 (36 bytes)
1177:Middlewares/ST/STM32_USB_Device_Library/Class/CDC/Src/usbd_cdc.c ****                             // ========================================
1178:Middlewares/ST/STM32_USB_Device_Library/Class/CDC/Src/usbd_cdc.c ****                             //                                  4
1179:Middlewares/ST/STM32_USB_Device_Library/Class/CDC/Src/usbd_cdc.c ****   'O',0, 'D',0, 'r',0, 'i',0, 'v',0, 'e',0, 0,0
1180:Middlewares/ST/STM32_USB_Device_Library/Class/CDC/Src/usbd_cdc.c ****                             // 26 bPropertyData ODrive
1181:Middlewares/ST/STM32_USB_Device_Library/Class/CDC/Src/usbd_cdc.c ****                             // ========================================
1182:Middlewares/ST/STM32_USB_Device_Library/Class/CDC/Src/usbd_cdc.c ****                             //                                  14
1183:Middlewares/ST/STM32_USB_Device_Library/Class/CDC/Src/usbd_cdc.c **** 
1184:Middlewares/ST/STM32_USB_Device_Library/Class/CDC/Src/usbd_cdc.c **** };
1185:Middlewares/ST/STM32_USB_Device_Library/Class/CDC/Src/usbd_cdc.c ****  static uint8_t  USBD_WinUSBComm_GetMSExtendedCompatIDOSDescriptor (USBD_HandleTypeDef *pdev, USBD_
1186:Middlewares/ST/STM32_USB_Device_Library/Class/CDC/Src/usbd_cdc.c **** {
 687              		.loc 1 1186 1 is_stmt 1 view -0
 688              		.cfi_startproc
 689              		@ args = 0, pretend = 0, frame = 0
 690              		@ frame_needed = 0, uses_anonymous_args = 0
 691              		.loc 1 1186 1 is_stmt 0 view .LVU197
 692 0000 08B5     		push	{r3, lr}
 693              	.LCFI6:
 694              		.cfi_def_cfa_offset 8
 695              		.cfi_offset 3, -8
 696              		.cfi_offset 14, -4
1187:Middlewares/ST/STM32_USB_Device_Library/Class/CDC/Src/usbd_cdc.c ****   switch (req->wIndex)
 697              		.loc 1 1187 3 is_stmt 1 view .LVU198
 698              		.loc 1 1187 14 is_stmt 0 view .LVU199
 699 0002 8B88     		ldrh	r3, [r1, #4]
 700              		.loc 1 1187 3 view .LVU200
 701 0004 042B     		cmp	r3, #4
 702 0006 03D0     		beq	.L53
1188:Middlewares/ST/STM32_USB_Device_Library/Class/CDC/Src/usbd_cdc.c ****   {
1189:Middlewares/ST/STM32_USB_Device_Library/Class/CDC/Src/usbd_cdc.c ****   case 0x04:
1190:Middlewares/ST/STM32_USB_Device_Library/Class/CDC/Src/usbd_cdc.c ****     USBD_CtlSendData (pdev, USBD_WinUSBComm_Extended_Compat_ID_OS_Desc, req->wLength);
1191:Middlewares/ST/STM32_USB_Device_Library/Class/CDC/Src/usbd_cdc.c ****     break;
1192:Middlewares/ST/STM32_USB_Device_Library/Class/CDC/Src/usbd_cdc.c ****   default:
1193:Middlewares/ST/STM32_USB_Device_Library/Class/CDC/Src/usbd_cdc.c ****    USBD_CtlError(pdev , req);
 703              		.loc 1 1193 4 is_stmt 1 view .LVU201
 704 0008 FFF7FEFF 		bl	USBD_CtlError
ARM GAS  C:\Users\ADMINI~1\AppData\Local\Temp\cccmLDA3.s 			page 37


 705              	.LVL73:
1194:Middlewares/ST/STM32_USB_Device_Library/Class/CDC/Src/usbd_cdc.c ****    return USBD_FAIL;
 706              		.loc 1 1194 4 view .LVU202
 707              		.loc 1 1194 11 is_stmt 0 view .LVU203
 708 000c 0320     		movs	r0, #3
 709              	.L51:
1195:Middlewares/ST/STM32_USB_Device_Library/Class/CDC/Src/usbd_cdc.c ****   }
1196:Middlewares/ST/STM32_USB_Device_Library/Class/CDC/Src/usbd_cdc.c ****   return USBD_OK;
1197:Middlewares/ST/STM32_USB_Device_Library/Class/CDC/Src/usbd_cdc.c **** }
 710              		.loc 1 1197 1 view .LVU204
 711 000e 08BD     		pop	{r3, pc}
 712              	.LVL74:
 713              	.L53:
1190:Middlewares/ST/STM32_USB_Device_Library/Class/CDC/Src/usbd_cdc.c ****     break;
 714              		.loc 1 1190 5 is_stmt 1 view .LVU205
 715 0010 CA88     		ldrh	r2, [r1, #6]
 716 0012 0249     		ldr	r1, .L54
 717              	.LVL75:
1190:Middlewares/ST/STM32_USB_Device_Library/Class/CDC/Src/usbd_cdc.c ****     break;
 718              		.loc 1 1190 5 is_stmt 0 view .LVU206
 719 0014 FFF7FEFF 		bl	USBD_CtlSendData
 720              	.LVL76:
1191:Middlewares/ST/STM32_USB_Device_Library/Class/CDC/Src/usbd_cdc.c ****   default:
 721              		.loc 1 1191 5 is_stmt 1 view .LVU207
1196:Middlewares/ST/STM32_USB_Device_Library/Class/CDC/Src/usbd_cdc.c **** }
 722              		.loc 1 1196 3 view .LVU208
1196:Middlewares/ST/STM32_USB_Device_Library/Class/CDC/Src/usbd_cdc.c **** }
 723              		.loc 1 1196 10 is_stmt 0 view .LVU209
 724 0018 0020     		movs	r0, #0
 725 001a F8E7     		b	.L51
 726              	.L55:
 727              		.align	2
 728              	.L54:
 729 001c 00000000 		.word	.LANCHOR2
 730              		.cfi_endproc
 731              	.LFE149:
 733              		.section	.text.USBD_WinUSBComm_SetupVendorDevice,"ax",%progbits
 734              		.align	1
 735              		.syntax unified
 736              		.thumb
 737              		.thumb_func
 739              	USBD_WinUSBComm_SetupVendorDevice:
 740              	.LVL77:
 741              	.LFB151:
1198:Middlewares/ST/STM32_USB_Device_Library/Class/CDC/Src/usbd_cdc.c **** static uint8_t  USBD_WinUSBComm_GetMSExtendedPropertiesOSDescriptor (USBD_HandleTypeDef *pdev, USBD
1199:Middlewares/ST/STM32_USB_Device_Library/Class/CDC/Src/usbd_cdc.c **** {
1200:Middlewares/ST/STM32_USB_Device_Library/Class/CDC/Src/usbd_cdc.c ****   uint8_t byInterfaceIndex = (uint8_t)req->wValue;
1201:Middlewares/ST/STM32_USB_Device_Library/Class/CDC/Src/usbd_cdc.c ****   if ( req->wIndex != 0x05 )
1202:Middlewares/ST/STM32_USB_Device_Library/Class/CDC/Src/usbd_cdc.c ****   {
1203:Middlewares/ST/STM32_USB_Device_Library/Class/CDC/Src/usbd_cdc.c ****     USBD_CtlError(pdev , req);
1204:Middlewares/ST/STM32_USB_Device_Library/Class/CDC/Src/usbd_cdc.c ****     return USBD_FAIL;
1205:Middlewares/ST/STM32_USB_Device_Library/Class/CDC/Src/usbd_cdc.c ****   }
1206:Middlewares/ST/STM32_USB_Device_Library/Class/CDC/Src/usbd_cdc.c ****   switch ( byInterfaceIndex )
1207:Middlewares/ST/STM32_USB_Device_Library/Class/CDC/Src/usbd_cdc.c ****   {
1208:Middlewares/ST/STM32_USB_Device_Library/Class/CDC/Src/usbd_cdc.c ****   case 0:
1209:Middlewares/ST/STM32_USB_Device_Library/Class/CDC/Src/usbd_cdc.c **** #if NUM_INTERFACES == 2
1210:Middlewares/ST/STM32_USB_Device_Library/Class/CDC/Src/usbd_cdc.c ****   case 1:
ARM GAS  C:\Users\ADMINI~1\AppData\Local\Temp\cccmLDA3.s 			page 38


1211:Middlewares/ST/STM32_USB_Device_Library/Class/CDC/Src/usbd_cdc.c **** #endif
1212:Middlewares/ST/STM32_USB_Device_Library/Class/CDC/Src/usbd_cdc.c ****     USBD_CtlSendData (pdev, USBD_WinUSBComm_Extended_Properties_OS_Desc, req->wLength);
1213:Middlewares/ST/STM32_USB_Device_Library/Class/CDC/Src/usbd_cdc.c ****     break;
1214:Middlewares/ST/STM32_USB_Device_Library/Class/CDC/Src/usbd_cdc.c ****   default:
1215:Middlewares/ST/STM32_USB_Device_Library/Class/CDC/Src/usbd_cdc.c ****     USBD_CtlError(pdev , req);
1216:Middlewares/ST/STM32_USB_Device_Library/Class/CDC/Src/usbd_cdc.c ****     return USBD_FAIL;
1217:Middlewares/ST/STM32_USB_Device_Library/Class/CDC/Src/usbd_cdc.c ****   }
1218:Middlewares/ST/STM32_USB_Device_Library/Class/CDC/Src/usbd_cdc.c ****   return USBD_OK;
1219:Middlewares/ST/STM32_USB_Device_Library/Class/CDC/Src/usbd_cdc.c **** }
1220:Middlewares/ST/STM32_USB_Device_Library/Class/CDC/Src/usbd_cdc.c **** static uint8_t  USBD_WinUSBComm_SetupVendorDevice(USBD_HandleTypeDef *pdev, USBD_SetupReqTypedef *r
1221:Middlewares/ST/STM32_USB_Device_Library/Class/CDC/Src/usbd_cdc.c **** {
 742              		.loc 1 1221 1 is_stmt 1 view -0
 743              		.cfi_startproc
 744              		@ args = 0, pretend = 0, frame = 0
 745              		@ frame_needed = 0, uses_anonymous_args = 0
 746              		.loc 1 1221 1 is_stmt 0 view .LVU211
 747 0000 08B5     		push	{r3, lr}
 748              	.LCFI7:
 749              		.cfi_def_cfa_offset 8
 750              		.cfi_offset 3, -8
 751              		.cfi_offset 14, -4
1222:Middlewares/ST/STM32_USB_Device_Library/Class/CDC/Src/usbd_cdc.c ****   USBD_CtlError(pdev , req);
 752              		.loc 1 1222 3 is_stmt 1 view .LVU212
 753 0002 FFF7FEFF 		bl	USBD_CtlError
 754              	.LVL78:
1223:Middlewares/ST/STM32_USB_Device_Library/Class/CDC/Src/usbd_cdc.c ****   return USBD_FAIL;
 755              		.loc 1 1223 3 view .LVU213
1224:Middlewares/ST/STM32_USB_Device_Library/Class/CDC/Src/usbd_cdc.c **** }
 756              		.loc 1 1224 1 is_stmt 0 view .LVU214
 757 0006 0320     		movs	r0, #3
 758 0008 08BD     		pop	{r3, pc}
 759              		.cfi_endproc
 760              	.LFE151:
 762              		.section	.text.USBD_WinUSBComm_GetMSExtendedPropertiesOSDescriptor,"ax",%progbits
 763              		.align	1
 764              		.syntax unified
 765              		.thumb
 766              		.thumb_func
 768              	USBD_WinUSBComm_GetMSExtendedPropertiesOSDescriptor:
 769              	.LVL79:
 770              	.LFB150:
1199:Middlewares/ST/STM32_USB_Device_Library/Class/CDC/Src/usbd_cdc.c ****   uint8_t byInterfaceIndex = (uint8_t)req->wValue;
 771              		.loc 1 1199 1 is_stmt 1 view -0
 772              		.cfi_startproc
 773              		@ args = 0, pretend = 0, frame = 0
 774              		@ frame_needed = 0, uses_anonymous_args = 0
1199:Middlewares/ST/STM32_USB_Device_Library/Class/CDC/Src/usbd_cdc.c ****   uint8_t byInterfaceIndex = (uint8_t)req->wValue;
 775              		.loc 1 1199 1 is_stmt 0 view .LVU216
 776 0000 10B5     		push	{r4, lr}
 777              	.LCFI8:
 778              		.cfi_def_cfa_offset 8
 779              		.cfi_offset 4, -8
 780              		.cfi_offset 14, -4
1200:Middlewares/ST/STM32_USB_Device_Library/Class/CDC/Src/usbd_cdc.c ****   if ( req->wIndex != 0x05 )
 781              		.loc 1 1200 3 is_stmt 1 view .LVU217
1200:Middlewares/ST/STM32_USB_Device_Library/Class/CDC/Src/usbd_cdc.c ****   if ( req->wIndex != 0x05 )
 782              		.loc 1 1200 11 is_stmt 0 view .LVU218
ARM GAS  C:\Users\ADMINI~1\AppData\Local\Temp\cccmLDA3.s 			page 39


 783 0002 8C78     		ldrb	r4, [r1, #2]	@ zero_extendqisi2
 784              	.LVL80:
1201:Middlewares/ST/STM32_USB_Device_Library/Class/CDC/Src/usbd_cdc.c ****   {
 785              		.loc 1 1201 3 is_stmt 1 view .LVU219
1201:Middlewares/ST/STM32_USB_Device_Library/Class/CDC/Src/usbd_cdc.c ****   {
 786              		.loc 1 1201 11 is_stmt 0 view .LVU220
 787 0004 8B88     		ldrh	r3, [r1, #4]
1201:Middlewares/ST/STM32_USB_Device_Library/Class/CDC/Src/usbd_cdc.c ****   {
 788              		.loc 1 1201 6 view .LVU221
 789 0006 052B     		cmp	r3, #5
 790 0008 06D1     		bne	.L63
1206:Middlewares/ST/STM32_USB_Device_Library/Class/CDC/Src/usbd_cdc.c ****   {
 791              		.loc 1 1206 3 is_stmt 1 view .LVU222
 792 000a 4CB9     		cbnz	r4, .L61
1212:Middlewares/ST/STM32_USB_Device_Library/Class/CDC/Src/usbd_cdc.c ****     break;
 793              		.loc 1 1212 5 view .LVU223
 794 000c CA88     		ldrh	r2, [r1, #6]
 795 000e 0649     		ldr	r1, .L64
 796              	.LVL81:
1212:Middlewares/ST/STM32_USB_Device_Library/Class/CDC/Src/usbd_cdc.c ****     break;
 797              		.loc 1 1212 5 is_stmt 0 view .LVU224
 798 0010 FFF7FEFF 		bl	USBD_CtlSendData
 799              	.LVL82:
1213:Middlewares/ST/STM32_USB_Device_Library/Class/CDC/Src/usbd_cdc.c ****   default:
 800              		.loc 1 1213 5 is_stmt 1 view .LVU225
1218:Middlewares/ST/STM32_USB_Device_Library/Class/CDC/Src/usbd_cdc.c **** }
 801              		.loc 1 1218 3 view .LVU226
 802              	.L60:
1219:Middlewares/ST/STM32_USB_Device_Library/Class/CDC/Src/usbd_cdc.c **** static uint8_t  USBD_WinUSBComm_SetupVendorDevice(USBD_HandleTypeDef *pdev, USBD_SetupReqTypedef *r
 803              		.loc 1 1219 1 is_stmt 0 view .LVU227
 804 0014 2046     		mov	r0, r4
 805 0016 10BD     		pop	{r4, pc}
 806              	.LVL83:
 807              	.L63:
1203:Middlewares/ST/STM32_USB_Device_Library/Class/CDC/Src/usbd_cdc.c ****     return USBD_FAIL;
 808              		.loc 1 1203 5 is_stmt 1 view .LVU228
 809 0018 FFF7FEFF 		bl	USBD_CtlError
 810              	.LVL84:
1204:Middlewares/ST/STM32_USB_Device_Library/Class/CDC/Src/usbd_cdc.c ****   }
 811              		.loc 1 1204 5 view .LVU229
1204:Middlewares/ST/STM32_USB_Device_Library/Class/CDC/Src/usbd_cdc.c ****   }
 812              		.loc 1 1204 12 is_stmt 0 view .LVU230
 813 001c 0324     		movs	r4, #3
 814              	.LVL85:
1204:Middlewares/ST/STM32_USB_Device_Library/Class/CDC/Src/usbd_cdc.c ****   }
 815              		.loc 1 1204 12 view .LVU231
 816 001e F9E7     		b	.L60
 817              	.LVL86:
 818              	.L61:
1215:Middlewares/ST/STM32_USB_Device_Library/Class/CDC/Src/usbd_cdc.c ****     return USBD_FAIL;
 819              		.loc 1 1215 5 is_stmt 1 view .LVU232
 820 0020 FFF7FEFF 		bl	USBD_CtlError
 821              	.LVL87:
1216:Middlewares/ST/STM32_USB_Device_Library/Class/CDC/Src/usbd_cdc.c ****   }
 822              		.loc 1 1216 5 view .LVU233
1216:Middlewares/ST/STM32_USB_Device_Library/Class/CDC/Src/usbd_cdc.c ****   }
 823              		.loc 1 1216 12 is_stmt 0 view .LVU234
ARM GAS  C:\Users\ADMINI~1\AppData\Local\Temp\cccmLDA3.s 			page 40


 824 0024 0324     		movs	r4, #3
 825              	.LVL88:
1216:Middlewares/ST/STM32_USB_Device_Library/Class/CDC/Src/usbd_cdc.c ****   }
 826              		.loc 1 1216 12 view .LVU235
 827 0026 F5E7     		b	.L60
 828              	.L65:
 829              		.align	2
 830              	.L64:
 831 0028 00000000 		.word	.LANCHOR3
 832              		.cfi_endproc
 833              	.LFE150:
 835              		.section	.text.USBD_WinUSBComm_SetupVendorInterface,"ax",%progbits
 836              		.align	1
 837              		.syntax unified
 838              		.thumb
 839              		.thumb_func
 841              	USBD_WinUSBComm_SetupVendorInterface:
 842              	.LVL89:
 843              	.LFB152:
1225:Middlewares/ST/STM32_USB_Device_Library/Class/CDC/Src/usbd_cdc.c **** static uint8_t  USBD_WinUSBComm_SetupVendorInterface(USBD_HandleTypeDef *pdev, USBD_SetupReqTypedef
1226:Middlewares/ST/STM32_USB_Device_Library/Class/CDC/Src/usbd_cdc.c **** {
 844              		.loc 1 1226 1 is_stmt 1 view -0
 845              		.cfi_startproc
 846              		@ args = 0, pretend = 0, frame = 0
 847              		@ frame_needed = 0, uses_anonymous_args = 0
 848              		.loc 1 1226 1 is_stmt 0 view .LVU237
 849 0000 08B5     		push	{r3, lr}
 850              	.LCFI9:
 851              		.cfi_def_cfa_offset 8
 852              		.cfi_offset 3, -8
 853              		.cfi_offset 14, -4
1227:Middlewares/ST/STM32_USB_Device_Library/Class/CDC/Src/usbd_cdc.c ****   USBD_CtlError(pdev , req);
 854              		.loc 1 1227 3 is_stmt 1 view .LVU238
 855 0002 FFF7FEFF 		bl	USBD_CtlError
 856              	.LVL90:
1228:Middlewares/ST/STM32_USB_Device_Library/Class/CDC/Src/usbd_cdc.c ****   // TODO: check if this is important
1229:Middlewares/ST/STM32_USB_Device_Library/Class/CDC/Src/usbd_cdc.c ****   return USBD_FAIL;
 857              		.loc 1 1229 3 view .LVU239
1230:Middlewares/ST/STM32_USB_Device_Library/Class/CDC/Src/usbd_cdc.c **** }
 858              		.loc 1 1230 1 is_stmt 0 view .LVU240
 859 0006 0320     		movs	r0, #3
 860 0008 08BD     		pop	{r3, pc}
 861              		.cfi_endproc
 862              	.LFE152:
 864              		.section	.text.USBD_WinUSBComm_SetupVendor,"ax",%progbits
 865              		.align	1
 866              		.syntax unified
 867              		.thumb
 868              		.thumb_func
 870              	USBD_WinUSBComm_SetupVendor:
 871              	.LVL91:
 872              	.LFB153:
1231:Middlewares/ST/STM32_USB_Device_Library/Class/CDC/Src/usbd_cdc.c **** static uint8_t  USBD_WinUSBComm_SetupVendor(USBD_HandleTypeDef *pdev, USBD_SetupReqTypedef *req)
1232:Middlewares/ST/STM32_USB_Device_Library/Class/CDC/Src/usbd_cdc.c **** {
 873              		.loc 1 1232 1 is_stmt 1 view -0
 874              		.cfi_startproc
 875              		@ args = 0, pretend = 0, frame = 0
ARM GAS  C:\Users\ADMINI~1\AppData\Local\Temp\cccmLDA3.s 			page 41


 876              		@ frame_needed = 0, uses_anonymous_args = 0
 877              		.loc 1 1232 1 is_stmt 0 view .LVU242
 878 0000 08B5     		push	{r3, lr}
 879              	.LCFI10:
 880              		.cfi_def_cfa_offset 8
 881              		.cfi_offset 3, -8
 882              		.cfi_offset 14, -4
1233:Middlewares/ST/STM32_USB_Device_Library/Class/CDC/Src/usbd_cdc.c ****   switch ( req->bmRequest & USB_REQ_RECIPIENT_MASK )
 883              		.loc 1 1233 3 is_stmt 1 view .LVU243
 884              		.loc 1 1233 15 is_stmt 0 view .LVU244
 885 0002 0B78     		ldrb	r3, [r1]	@ zero_extendqisi2
 886              		.loc 1 1233 3 view .LVU245
 887 0004 13F00303 		ands	r3, r3, #3
 888 0008 05D0     		beq	.L69
 889 000a 012B     		cmp	r3, #1
 890 000c 0CD0     		beq	.L70
1234:Middlewares/ST/STM32_USB_Device_Library/Class/CDC/Src/usbd_cdc.c ****   {
1235:Middlewares/ST/STM32_USB_Device_Library/Class/CDC/Src/usbd_cdc.c ****   case USB_REQ_RECIPIENT_DEVICE:
1236:Middlewares/ST/STM32_USB_Device_Library/Class/CDC/Src/usbd_cdc.c ****     return ( MS_VendorCode == req->bRequest ) ? USBD_WinUSBComm_GetMSExtendedCompatIDOSDescriptor(p
1237:Middlewares/ST/STM32_USB_Device_Library/Class/CDC/Src/usbd_cdc.c ****   case USB_REQ_RECIPIENT_INTERFACE:
1238:Middlewares/ST/STM32_USB_Device_Library/Class/CDC/Src/usbd_cdc.c ****     return ( MS_VendorCode == req->bRequest ) ? USBD_WinUSBComm_GetMSExtendedPropertiesOSDescriptor
1239:Middlewares/ST/STM32_USB_Device_Library/Class/CDC/Src/usbd_cdc.c ****   case USB_REQ_RECIPIENT_ENDPOINT:
1240:Middlewares/ST/STM32_USB_Device_Library/Class/CDC/Src/usbd_cdc.c ****     // fall through
1241:Middlewares/ST/STM32_USB_Device_Library/Class/CDC/Src/usbd_cdc.c ****   default:
1242:Middlewares/ST/STM32_USB_Device_Library/Class/CDC/Src/usbd_cdc.c ****     break;
 891              		.loc 1 1242 5 is_stmt 1 view .LVU246
1243:Middlewares/ST/STM32_USB_Device_Library/Class/CDC/Src/usbd_cdc.c ****   }
1244:Middlewares/ST/STM32_USB_Device_Library/Class/CDC/Src/usbd_cdc.c ****   USBD_CtlError(pdev , req);
 892              		.loc 1 1244 3 view .LVU247
 893 000e FFF7FEFF 		bl	USBD_CtlError
 894              	.LVL92:
1245:Middlewares/ST/STM32_USB_Device_Library/Class/CDC/Src/usbd_cdc.c ****   return USBD_FAIL;
 895              		.loc 1 1245 3 view .LVU248
 896              		.loc 1 1245 10 is_stmt 0 view .LVU249
 897 0012 0320     		movs	r0, #3
 898              	.L73:
1246:Middlewares/ST/STM32_USB_Device_Library/Class/CDC/Src/usbd_cdc.c **** }
 899              		.loc 1 1246 1 view .LVU250
 900 0014 08BD     		pop	{r3, pc}
 901              	.LVL93:
 902              	.L69:
1236:Middlewares/ST/STM32_USB_Device_Library/Class/CDC/Src/usbd_cdc.c ****   case USB_REQ_RECIPIENT_INTERFACE:
 903              		.loc 1 1236 5 is_stmt 1 view .LVU251
1236:Middlewares/ST/STM32_USB_Device_Library/Class/CDC/Src/usbd_cdc.c ****   case USB_REQ_RECIPIENT_INTERFACE:
 904              		.loc 1 1236 34 is_stmt 0 view .LVU252
 905 0016 4B78     		ldrb	r3, [r1, #1]	@ zero_extendqisi2
1236:Middlewares/ST/STM32_USB_Device_Library/Class/CDC/Src/usbd_cdc.c ****   case USB_REQ_RECIPIENT_INTERFACE:
 906              		.loc 1 1236 110 view .LVU253
 907 0018 502B     		cmp	r3, #80
 908 001a 02D0     		beq	.L77
1236:Middlewares/ST/STM32_USB_Device_Library/Class/CDC/Src/usbd_cdc.c ****   case USB_REQ_RECIPIENT_INTERFACE:
 909              		.loc 1 1236 112 discriminator 2 view .LVU254
 910 001c FFF7FEFF 		bl	USBD_WinUSBComm_SetupVendorDevice
 911              	.LVL94:
1236:Middlewares/ST/STM32_USB_Device_Library/Class/CDC/Src/usbd_cdc.c ****   case USB_REQ_RECIPIENT_INTERFACE:
 912              		.loc 1 1236 112 discriminator 2 view .LVU255
 913 0020 F8E7     		b	.L73
ARM GAS  C:\Users\ADMINI~1\AppData\Local\Temp\cccmLDA3.s 			page 42


 914              	.LVL95:
 915              	.L77:
1236:Middlewares/ST/STM32_USB_Device_Library/Class/CDC/Src/usbd_cdc.c ****   case USB_REQ_RECIPIENT_INTERFACE:
 916              		.loc 1 1236 49 discriminator 1 view .LVU256
 917 0022 FFF7FEFF 		bl	USBD_WinUSBComm_GetMSExtendedCompatIDOSDescriptor
 918              	.LVL96:
1236:Middlewares/ST/STM32_USB_Device_Library/Class/CDC/Src/usbd_cdc.c ****   case USB_REQ_RECIPIENT_INTERFACE:
 919              		.loc 1 1236 49 discriminator 1 view .LVU257
 920 0026 F5E7     		b	.L73
 921              	.LVL97:
 922              	.L70:
1238:Middlewares/ST/STM32_USB_Device_Library/Class/CDC/Src/usbd_cdc.c ****   case USB_REQ_RECIPIENT_ENDPOINT:
 923              		.loc 1 1238 5 is_stmt 1 view .LVU258
1238:Middlewares/ST/STM32_USB_Device_Library/Class/CDC/Src/usbd_cdc.c ****   case USB_REQ_RECIPIENT_ENDPOINT:
 924              		.loc 1 1238 34 is_stmt 0 view .LVU259
 925 0028 4B78     		ldrb	r3, [r1, #1]	@ zero_extendqisi2
1238:Middlewares/ST/STM32_USB_Device_Library/Class/CDC/Src/usbd_cdc.c ****   case USB_REQ_RECIPIENT_ENDPOINT:
 926              		.loc 1 1238 112 view .LVU260
 927 002a 502B     		cmp	r3, #80
 928 002c 02D0     		beq	.L78
1238:Middlewares/ST/STM32_USB_Device_Library/Class/CDC/Src/usbd_cdc.c ****   case USB_REQ_RECIPIENT_ENDPOINT:
 929              		.loc 1 1238 114 discriminator 2 view .LVU261
 930 002e FFF7FEFF 		bl	USBD_WinUSBComm_SetupVendorInterface
 931              	.LVL98:
1238:Middlewares/ST/STM32_USB_Device_Library/Class/CDC/Src/usbd_cdc.c ****   case USB_REQ_RECIPIENT_ENDPOINT:
 932              		.loc 1 1238 114 discriminator 2 view .LVU262
 933 0032 EFE7     		b	.L73
 934              	.LVL99:
 935              	.L78:
1238:Middlewares/ST/STM32_USB_Device_Library/Class/CDC/Src/usbd_cdc.c ****   case USB_REQ_RECIPIENT_ENDPOINT:
 936              		.loc 1 1238 49 discriminator 1 view .LVU263
 937 0034 FFF7FEFF 		bl	USBD_WinUSBComm_GetMSExtendedPropertiesOSDescriptor
 938              	.LVL100:
1238:Middlewares/ST/STM32_USB_Device_Library/Class/CDC/Src/usbd_cdc.c ****   case USB_REQ_RECIPIENT_ENDPOINT:
 939              		.loc 1 1238 49 discriminator 1 view .LVU264
 940 0038 ECE7     		b	.L73
 941              		.cfi_endproc
 942              	.LFE153:
 944              		.section	.text.USBD_CDC_Setup,"ax",%progbits
 945              		.align	1
 946              		.syntax unified
 947              		.thumb
 948              		.thumb_func
 950              	USBD_CDC_Setup:
 951              	.LVL101:
 952              	.LFB136:
 547:Middlewares/ST/STM32_USB_Device_Library/Class/CDC/Src/usbd_cdc.c ****   USBD_CDC_HandleTypeDef *hcdc = (USBD_CDC_HandleTypeDef *)pdev->pClassDataCmsit[pdev->classId];
 953              		.loc 1 547 1 is_stmt 1 view -0
 954              		.cfi_startproc
 955              		@ args = 0, pretend = 0, frame = 8
 956              		@ frame_needed = 0, uses_anonymous_args = 0
 547:Middlewares/ST/STM32_USB_Device_Library/Class/CDC/Src/usbd_cdc.c ****   USBD_CDC_HandleTypeDef *hcdc = (USBD_CDC_HandleTypeDef *)pdev->pClassDataCmsit[pdev->classId];
 957              		.loc 1 547 1 is_stmt 0 view .LVU266
 958 0000 F0B5     		push	{r4, r5, r6, r7, lr}
 959              	.LCFI11:
 960              		.cfi_def_cfa_offset 20
 961              		.cfi_offset 4, -20
ARM GAS  C:\Users\ADMINI~1\AppData\Local\Temp\cccmLDA3.s 			page 43


 962              		.cfi_offset 5, -16
 963              		.cfi_offset 6, -12
 964              		.cfi_offset 7, -8
 965              		.cfi_offset 14, -4
 966 0002 83B0     		sub	sp, sp, #12
 967              	.LCFI12:
 968              		.cfi_def_cfa_offset 32
 969 0004 0E46     		mov	r6, r1
 548:Middlewares/ST/STM32_USB_Device_Library/Class/CDC/Src/usbd_cdc.c ****   uint16_t len;
 970              		.loc 1 548 3 is_stmt 1 view .LVU267
 548:Middlewares/ST/STM32_USB_Device_Library/Class/CDC/Src/usbd_cdc.c ****   uint16_t len;
 971              		.loc 1 548 86 is_stmt 0 view .LVU268
 972 0006 D0F8D412 		ldr	r1, [r0, #724]
 973              	.LVL102:
 548:Middlewares/ST/STM32_USB_Device_Library/Class/CDC/Src/usbd_cdc.c ****   uint16_t len;
 974              		.loc 1 548 27 view .LVU269
 975 000a 01F1B003 		add	r3, r1, #176
 976 000e 50F82370 		ldr	r7, [r0, r3, lsl #2]
 977              	.LVL103:
 549:Middlewares/ST/STM32_USB_Device_Library/Class/CDC/Src/usbd_cdc.c ****   uint8_t ifalt = 0U;
 978              		.loc 1 549 3 is_stmt 1 view .LVU270
 550:Middlewares/ST/STM32_USB_Device_Library/Class/CDC/Src/usbd_cdc.c ****   uint16_t status_info = 0U;
 979              		.loc 1 550 3 view .LVU271
 550:Middlewares/ST/STM32_USB_Device_Library/Class/CDC/Src/usbd_cdc.c ****   uint16_t status_info = 0U;
 980              		.loc 1 550 11 is_stmt 0 view .LVU272
 981 0012 0023     		movs	r3, #0
 982 0014 8DF80730 		strb	r3, [sp, #7]
 551:Middlewares/ST/STM32_USB_Device_Library/Class/CDC/Src/usbd_cdc.c ****   USBD_StatusTypeDef ret = USBD_OK;
 983              		.loc 1 551 3 is_stmt 1 view .LVU273
 551:Middlewares/ST/STM32_USB_Device_Library/Class/CDC/Src/usbd_cdc.c ****   USBD_StatusTypeDef ret = USBD_OK;
 984              		.loc 1 551 12 is_stmt 0 view .LVU274
 985 0018 ADF80430 		strh	r3, [sp, #4]	@ movhi
 552:Middlewares/ST/STM32_USB_Device_Library/Class/CDC/Src/usbd_cdc.c **** 
 986              		.loc 1 552 3 is_stmt 1 view .LVU275
 987              	.LVL104:
 554:Middlewares/ST/STM32_USB_Device_Library/Class/CDC/Src/usbd_cdc.c ****   {
 988              		.loc 1 554 3 view .LVU276
 554:Middlewares/ST/STM32_USB_Device_Library/Class/CDC/Src/usbd_cdc.c ****   {
 989              		.loc 1 554 6 is_stmt 0 view .LVU277
 990 001c 002F     		cmp	r7, #0
 991 001e 00F08380 		beq	.L95
 992 0022 0446     		mov	r4, r0
 559:Middlewares/ST/STM32_USB_Device_Library/Class/CDC/Src/usbd_cdc.c ****   {
 993              		.loc 1 559 3 is_stmt 1 view .LVU278
 559:Middlewares/ST/STM32_USB_Device_Library/Class/CDC/Src/usbd_cdc.c ****   {
 994              		.loc 1 559 14 is_stmt 0 view .LVU279
 995 0024 3378     		ldrb	r3, [r6]	@ zero_extendqisi2
 996 0026 03F06005 		and	r5, r3, #96
 559:Middlewares/ST/STM32_USB_Device_Library/Class/CDC/Src/usbd_cdc.c ****   {
 997              		.loc 1 559 3 view .LVU280
 998 002a 202D     		cmp	r5, #32
 999 002c 08D0     		beq	.L81
 1000 002e 402D     		cmp	r5, #64
 1001 0030 73D0     		beq	.L82
 1002 0032 002D     		cmp	r5, #0
 1003 0034 37D0     		beq	.L99
 637:Middlewares/ST/STM32_USB_Device_Library/Class/CDC/Src/usbd_cdc.c ****       ret = USBD_FAIL;
ARM GAS  C:\Users\ADMINI~1\AppData\Local\Temp\cccmLDA3.s 			page 44


 1004              		.loc 1 637 7 is_stmt 1 view .LVU281
 1005 0036 3146     		mov	r1, r6
 1006 0038 FFF7FEFF 		bl	USBD_CtlError
 1007              	.LVL105:
 638:Middlewares/ST/STM32_USB_Device_Library/Class/CDC/Src/usbd_cdc.c ****       break;
 1008              		.loc 1 638 7 view .LVU282
 639:Middlewares/ST/STM32_USB_Device_Library/Class/CDC/Src/usbd_cdc.c ****   }
 1009              		.loc 1 639 7 view .LVU283
 638:Middlewares/ST/STM32_USB_Device_Library/Class/CDC/Src/usbd_cdc.c ****       break;
 1010              		.loc 1 638 11 is_stmt 0 view .LVU284
 1011 003c 0325     		movs	r5, #3
 639:Middlewares/ST/STM32_USB_Device_Library/Class/CDC/Src/usbd_cdc.c ****   }
 1012              		.loc 1 639 7 view .LVU285
 1013 003e 70E0     		b	.L80
 1014              	.LVL106:
 1015              	.L81:
 562:Middlewares/ST/STM32_USB_Device_Library/Class/CDC/Src/usbd_cdc.c ****       {
 1016              		.loc 1 562 7 is_stmt 1 view .LVU286
 562:Middlewares/ST/STM32_USB_Device_Library/Class/CDC/Src/usbd_cdc.c ****       {
 1017              		.loc 1 562 14 is_stmt 0 view .LVU287
 1018 0040 F288     		ldrh	r2, [r6, #6]
 562:Middlewares/ST/STM32_USB_Device_Library/Class/CDC/Src/usbd_cdc.c ****       {
 1019              		.loc 1 562 10 view .LVU288
 1020 0042 2AB3     		cbz	r2, .L85
 564:Middlewares/ST/STM32_USB_Device_Library/Class/CDC/Src/usbd_cdc.c ****         {
 1021              		.loc 1 564 9 is_stmt 1 view .LVU289
 564:Middlewares/ST/STM32_USB_Device_Library/Class/CDC/Src/usbd_cdc.c ****         {
 1022              		.loc 1 564 12 is_stmt 0 view .LVU290
 1023 0044 13F0800F 		tst	r3, #128
 1024 0048 07D1     		bne	.L100
 575:Middlewares/ST/STM32_USB_Device_Library/Class/CDC/Src/usbd_cdc.c ****           hcdc->CmdLength = (uint8_t)MIN(req->wLength, USB_MAX_EP0_SIZE);
 1025              		.loc 1 575 11 is_stmt 1 view .LVU291
 575:Middlewares/ST/STM32_USB_Device_Library/Class/CDC/Src/usbd_cdc.c ****           hcdc->CmdLength = (uint8_t)MIN(req->wLength, USB_MAX_EP0_SIZE);
 1026              		.loc 1 575 32 is_stmt 0 view .LVU292
 1027 004a 7378     		ldrb	r3, [r6, #1]	@ zero_extendqisi2
 575:Middlewares/ST/STM32_USB_Device_Library/Class/CDC/Src/usbd_cdc.c ****           hcdc->CmdLength = (uint8_t)MIN(req->wLength, USB_MAX_EP0_SIZE);
 1028              		.loc 1 575 27 view .LVU293
 1029 004c 87F84030 		strb	r3, [r7, #64]
 576:Middlewares/ST/STM32_USB_Device_Library/Class/CDC/Src/usbd_cdc.c **** 
 1030              		.loc 1 576 11 is_stmt 1 view .LVU294
 576:Middlewares/ST/STM32_USB_Device_Library/Class/CDC/Src/usbd_cdc.c **** 
 1031              		.loc 1 576 38 is_stmt 0 view .LVU295
 1032 0050 F288     		ldrh	r2, [r6, #6]
 576:Middlewares/ST/STM32_USB_Device_Library/Class/CDC/Src/usbd_cdc.c **** 
 1033              		.loc 1 576 29 view .LVU296
 1034 0052 3F2A     		cmp	r2, #63
 1035 0054 13D8     		bhi	.L96
 576:Middlewares/ST/STM32_USB_Device_Library/Class/CDC/Src/usbd_cdc.c **** 
 1036              		.loc 1 576 29 discriminator 1 view .LVU297
 1037 0056 D2B2     		uxtb	r2, r2
 1038 0058 12E0     		b	.L87
 1039              	.L100:
 566:Middlewares/ST/STM32_USB_Device_Library/Class/CDC/Src/usbd_cdc.c ****                                                                            (uint8_t *)hcdc->data,
 1040              		.loc 1 566 11 is_stmt 1 view .LVU298
 566:Middlewares/ST/STM32_USB_Device_Library/Class/CDC/Src/usbd_cdc.c ****                                                                            (uint8_t *)hcdc->data,
 1041              		.loc 1 566 50 is_stmt 0 view .LVU299
 1042 005a B031     		adds	r1, r1, #176
ARM GAS  C:\Users\ADMINI~1\AppData\Local\Temp\cccmLDA3.s 			page 45


 1043 005c 00EB8101 		add	r1, r0, r1, lsl #2
 1044 0060 4B68     		ldr	r3, [r1, #4]
 566:Middlewares/ST/STM32_USB_Device_Library/Class/CDC/Src/usbd_cdc.c ****                                                                            (uint8_t *)hcdc->data,
 1045              		.loc 1 566 66 view .LVU300
 1046 0062 9B68     		ldr	r3, [r3, #8]
 566:Middlewares/ST/STM32_USB_Device_Library/Class/CDC/Src/usbd_cdc.c ****                                                                            (uint8_t *)hcdc->data,
 1047              		.loc 1 566 12 view .LVU301
 1048 0064 3946     		mov	r1, r7
 1049 0066 7078     		ldrb	r0, [r6, #1]	@ zero_extendqisi2
 1050              	.LVL107:
 566:Middlewares/ST/STM32_USB_Device_Library/Class/CDC/Src/usbd_cdc.c ****                                                                            (uint8_t *)hcdc->data,
 1051              		.loc 1 566 12 view .LVU302
 1052 0068 9847     		blx	r3
 1053              	.LVL108:
 570:Middlewares/ST/STM32_USB_Device_Library/Class/CDC/Src/usbd_cdc.c ****           (void)USBD_CtlSendData(pdev, (uint8_t *)hcdc->data, len);
 1054              		.loc 1 570 11 is_stmt 1 view .LVU303
 570:Middlewares/ST/STM32_USB_Device_Library/Class/CDC/Src/usbd_cdc.c ****           (void)USBD_CtlSendData(pdev, (uint8_t *)hcdc->data, len);
 1055              		.loc 1 570 17 is_stmt 0 view .LVU304
 1056 006a F288     		ldrh	r2, [r6, #6]
 1057              	.LVL109:
 571:Middlewares/ST/STM32_USB_Device_Library/Class/CDC/Src/usbd_cdc.c ****         }
 1058              		.loc 1 571 11 is_stmt 1 view .LVU305
 571:Middlewares/ST/STM32_USB_Device_Library/Class/CDC/Src/usbd_cdc.c ****         }
 1059              		.loc 1 571 17 is_stmt 0 view .LVU306
 1060 006c 072A     		cmp	r2, #7
 1061 006e 28BF     		it	cs
 1062 0070 0722     		movcs	r2, #7
 1063              	.LVL110:
 571:Middlewares/ST/STM32_USB_Device_Library/Class/CDC/Src/usbd_cdc.c ****         }
 1064              		.loc 1 571 17 view .LVU307
 1065 0072 3946     		mov	r1, r7
 1066 0074 2046     		mov	r0, r4
 1067 0076 FFF7FEFF 		bl	USBD_CtlSendData
 1068              	.LVL111:
 552:Middlewares/ST/STM32_USB_Device_Library/Class/CDC/Src/usbd_cdc.c **** 
 1069              		.loc 1 552 22 view .LVU308
 1070 007a 0025     		movs	r5, #0
 1071 007c 51E0     		b	.L80
 1072              	.LVL112:
 1073              	.L96:
 576:Middlewares/ST/STM32_USB_Device_Library/Class/CDC/Src/usbd_cdc.c **** 
 1074              		.loc 1 576 29 view .LVU309
 1075 007e 4022     		movs	r2, #64
 1076              	.L87:
 576:Middlewares/ST/STM32_USB_Device_Library/Class/CDC/Src/usbd_cdc.c **** 
 1077              		.loc 1 576 27 discriminator 4 view .LVU310
 1078 0080 87F84120 		strb	r2, [r7, #65]
 578:Middlewares/ST/STM32_USB_Device_Library/Class/CDC/Src/usbd_cdc.c ****         }
 1079              		.loc 1 578 11 is_stmt 1 discriminator 4 view .LVU311
 578:Middlewares/ST/STM32_USB_Device_Library/Class/CDC/Src/usbd_cdc.c ****         }
 1080              		.loc 1 578 17 is_stmt 0 discriminator 4 view .LVU312
 1081 0084 3946     		mov	r1, r7
 1082 0086 2046     		mov	r0, r4
 1083              	.LVL113:
 578:Middlewares/ST/STM32_USB_Device_Library/Class/CDC/Src/usbd_cdc.c ****         }
 1084              		.loc 1 578 17 discriminator 4 view .LVU313
 1085 0088 FFF7FEFF 		bl	USBD_CtlPrepareRx
ARM GAS  C:\Users\ADMINI~1\AppData\Local\Temp\cccmLDA3.s 			page 46


 1086              	.LVL114:
 552:Middlewares/ST/STM32_USB_Device_Library/Class/CDC/Src/usbd_cdc.c **** 
 1087              		.loc 1 552 22 discriminator 4 view .LVU314
 1088 008c 0025     		movs	r5, #0
 1089 008e 48E0     		b	.L80
 1090              	.LVL115:
 1091              	.L85:
 583:Middlewares/ST/STM32_USB_Device_Library/Class/CDC/Src/usbd_cdc.c ****                                                                          (uint8_t *)req, 0U);
 1092              		.loc 1 583 9 is_stmt 1 view .LVU315
 583:Middlewares/ST/STM32_USB_Device_Library/Class/CDC/Src/usbd_cdc.c ****                                                                          (uint8_t *)req, 0U);
 1093              		.loc 1 583 48 is_stmt 0 view .LVU316
 1094 0090 B031     		adds	r1, r1, #176
 1095 0092 00EB8104 		add	r4, r0, r1, lsl #2
 1096 0096 6368     		ldr	r3, [r4, #4]
 583:Middlewares/ST/STM32_USB_Device_Library/Class/CDC/Src/usbd_cdc.c ****                                                                          (uint8_t *)req, 0U);
 1097              		.loc 1 583 64 view .LVU317
 1098 0098 9B68     		ldr	r3, [r3, #8]
 583:Middlewares/ST/STM32_USB_Device_Library/Class/CDC/Src/usbd_cdc.c ****                                                                          (uint8_t *)req, 0U);
 1099              		.loc 1 583 10 view .LVU318
 1100 009a 0022     		movs	r2, #0
 1101 009c 3146     		mov	r1, r6
 1102 009e 7078     		ldrb	r0, [r6, #1]	@ zero_extendqisi2
 1103              	.LVL116:
 583:Middlewares/ST/STM32_USB_Device_Library/Class/CDC/Src/usbd_cdc.c ****                                                                          (uint8_t *)req, 0U);
 1104              		.loc 1 583 10 view .LVU319
 1105 00a0 9847     		blx	r3
 1106              	.LVL117:
 552:Middlewares/ST/STM32_USB_Device_Library/Class/CDC/Src/usbd_cdc.c **** 
 1107              		.loc 1 552 22 view .LVU320
 1108 00a2 0025     		movs	r5, #0
 1109 00a4 3DE0     		b	.L80
 1110              	.LVL118:
 1111              	.L99:
 589:Middlewares/ST/STM32_USB_Device_Library/Class/CDC/Src/usbd_cdc.c ****       {
 1112              		.loc 1 589 7 is_stmt 1 view .LVU321
 589:Middlewares/ST/STM32_USB_Device_Library/Class/CDC/Src/usbd_cdc.c ****       {
 1113              		.loc 1 589 18 is_stmt 0 view .LVU322
 1114 00a6 7778     		ldrb	r7, [r6, #1]	@ zero_extendqisi2
 1115              	.LVL119:
 589:Middlewares/ST/STM32_USB_Device_Library/Class/CDC/Src/usbd_cdc.c ****       {
 1116              		.loc 1 589 18 view .LVU323
 1117 00a8 0B2F     		cmp	r7, #11
 1118 00aa 31D8     		bhi	.L88
 1119 00ac DFE807F0 		tbb	[pc, r7]
 1120              	.L90:
 1121 00b0 06       		.byte	(.L92-.L90)/2
 1122 00b1 39       		.byte	(.L80-.L90)/2
 1123 00b2 30       		.byte	(.L88-.L90)/2
 1124 00b3 30       		.byte	(.L88-.L90)/2
 1125 00b4 30       		.byte	(.L88-.L90)/2
 1126 00b5 30       		.byte	(.L88-.L90)/2
 1127 00b6 30       		.byte	(.L88-.L90)/2
 1128 00b7 30       		.byte	(.L88-.L90)/2
 1129 00b8 30       		.byte	(.L88-.L90)/2
 1130 00b9 30       		.byte	(.L88-.L90)/2
 1131 00ba 16       		.byte	(.L91-.L90)/2
 1132 00bb 26       		.byte	(.L89-.L90)/2
ARM GAS  C:\Users\ADMINI~1\AppData\Local\Temp\cccmLDA3.s 			page 47


 1133              		.p2align 1
 1134              	.L92:
 592:Middlewares/ST/STM32_USB_Device_Library/Class/CDC/Src/usbd_cdc.c ****           {
 1135              		.loc 1 592 11 is_stmt 1 view .LVU324
 592:Middlewares/ST/STM32_USB_Device_Library/Class/CDC/Src/usbd_cdc.c ****           {
 1136              		.loc 1 592 19 is_stmt 0 view .LVU325
 1137 00bc 90F89C32 		ldrb	r3, [r0, #668]	@ zero_extendqisi2
 1138 00c0 DBB2     		uxtb	r3, r3
 592:Middlewares/ST/STM32_USB_Device_Library/Class/CDC/Src/usbd_cdc.c ****           {
 1139              		.loc 1 592 14 view .LVU326
 1140 00c2 032B     		cmp	r3, #3
 1141 00c4 04D0     		beq	.L101
 598:Middlewares/ST/STM32_USB_Device_Library/Class/CDC/Src/usbd_cdc.c ****             ret = USBD_FAIL;
 1142              		.loc 1 598 13 is_stmt 1 view .LVU327
 1143 00c6 3146     		mov	r1, r6
 1144              	.LVL120:
 598:Middlewares/ST/STM32_USB_Device_Library/Class/CDC/Src/usbd_cdc.c ****             ret = USBD_FAIL;
 1145              		.loc 1 598 13 is_stmt 0 view .LVU328
 1146 00c8 FFF7FEFF 		bl	USBD_CtlError
 1147              	.LVL121:
 599:Middlewares/ST/STM32_USB_Device_Library/Class/CDC/Src/usbd_cdc.c ****           }
 1148              		.loc 1 599 13 is_stmt 1 view .LVU329
 599:Middlewares/ST/STM32_USB_Device_Library/Class/CDC/Src/usbd_cdc.c ****           }
 1149              		.loc 1 599 17 is_stmt 0 view .LVU330
 1150 00cc 0325     		movs	r5, #3
 1151 00ce 28E0     		b	.L80
 1152              	.LVL122:
 1153              	.L101:
 594:Middlewares/ST/STM32_USB_Device_Library/Class/CDC/Src/usbd_cdc.c ****           }
 1154              		.loc 1 594 13 is_stmt 1 view .LVU331
 594:Middlewares/ST/STM32_USB_Device_Library/Class/CDC/Src/usbd_cdc.c ****           }
 1155              		.loc 1 594 19 is_stmt 0 view .LVU332
 1156 00d0 0222     		movs	r2, #2
 1157 00d2 01A9     		add	r1, sp, #4
 1158              	.LVL123:
 594:Middlewares/ST/STM32_USB_Device_Library/Class/CDC/Src/usbd_cdc.c ****           }
 1159              		.loc 1 594 19 view .LVU333
 1160 00d4 FFF7FEFF 		bl	USBD_CtlSendData
 1161              	.LVL124:
 552:Middlewares/ST/STM32_USB_Device_Library/Class/CDC/Src/usbd_cdc.c **** 
 1162              		.loc 1 552 22 view .LVU334
 1163 00d8 3D46     		mov	r5, r7
 1164 00da 22E0     		b	.L80
 1165              	.LVL125:
 1166              	.L91:
 604:Middlewares/ST/STM32_USB_Device_Library/Class/CDC/Src/usbd_cdc.c ****           {
 1167              		.loc 1 604 11 is_stmt 1 view .LVU335
 604:Middlewares/ST/STM32_USB_Device_Library/Class/CDC/Src/usbd_cdc.c ****           {
 1168              		.loc 1 604 19 is_stmt 0 view .LVU336
 1169 00dc 90F89C32 		ldrb	r3, [r0, #668]	@ zero_extendqisi2
 1170 00e0 DBB2     		uxtb	r3, r3
 604:Middlewares/ST/STM32_USB_Device_Library/Class/CDC/Src/usbd_cdc.c ****           {
 1171              		.loc 1 604 14 view .LVU337
 1172 00e2 032B     		cmp	r3, #3
 1173 00e4 04D0     		beq	.L102
 610:Middlewares/ST/STM32_USB_Device_Library/Class/CDC/Src/usbd_cdc.c ****             ret = USBD_FAIL;
 1174              		.loc 1 610 13 is_stmt 1 view .LVU338
ARM GAS  C:\Users\ADMINI~1\AppData\Local\Temp\cccmLDA3.s 			page 48


 1175 00e6 3146     		mov	r1, r6
 1176              	.LVL126:
 610:Middlewares/ST/STM32_USB_Device_Library/Class/CDC/Src/usbd_cdc.c ****             ret = USBD_FAIL;
 1177              		.loc 1 610 13 is_stmt 0 view .LVU339
 1178 00e8 FFF7FEFF 		bl	USBD_CtlError
 1179              	.LVL127:
 611:Middlewares/ST/STM32_USB_Device_Library/Class/CDC/Src/usbd_cdc.c ****           }
 1180              		.loc 1 611 13 is_stmt 1 view .LVU340
 611:Middlewares/ST/STM32_USB_Device_Library/Class/CDC/Src/usbd_cdc.c ****           }
 1181              		.loc 1 611 17 is_stmt 0 view .LVU341
 1182 00ec 0325     		movs	r5, #3
 1183 00ee 18E0     		b	.L80
 1184              	.LVL128:
 1185              	.L102:
 606:Middlewares/ST/STM32_USB_Device_Library/Class/CDC/Src/usbd_cdc.c ****           }
 1186              		.loc 1 606 13 is_stmt 1 view .LVU342
 606:Middlewares/ST/STM32_USB_Device_Library/Class/CDC/Src/usbd_cdc.c ****           }
 1187              		.loc 1 606 19 is_stmt 0 view .LVU343
 1188 00f0 0122     		movs	r2, #1
 1189 00f2 0DF10701 		add	r1, sp, #7
 1190              	.LVL129:
 606:Middlewares/ST/STM32_USB_Device_Library/Class/CDC/Src/usbd_cdc.c ****           }
 1191              		.loc 1 606 19 view .LVU344
 1192 00f6 FFF7FEFF 		bl	USBD_CtlSendData
 1193              	.LVL130:
 606:Middlewares/ST/STM32_USB_Device_Library/Class/CDC/Src/usbd_cdc.c ****           }
 1194              		.loc 1 606 19 view .LVU345
 1195 00fa 12E0     		b	.L80
 1196              	.LVL131:
 1197              	.L89:
 616:Middlewares/ST/STM32_USB_Device_Library/Class/CDC/Src/usbd_cdc.c ****           {
 1198              		.loc 1 616 11 is_stmt 1 view .LVU346
 616:Middlewares/ST/STM32_USB_Device_Library/Class/CDC/Src/usbd_cdc.c ****           {
 1199              		.loc 1 616 19 is_stmt 0 view .LVU347
 1200 00fc 90F89C32 		ldrb	r3, [r0, #668]	@ zero_extendqisi2
 1201 0100 DBB2     		uxtb	r3, r3
 616:Middlewares/ST/STM32_USB_Device_Library/Class/CDC/Src/usbd_cdc.c ****           {
 1202              		.loc 1 616 14 view .LVU348
 1203 0102 032B     		cmp	r3, #3
 1204 0104 0DD0     		beq	.L80
 618:Middlewares/ST/STM32_USB_Device_Library/Class/CDC/Src/usbd_cdc.c ****             ret = USBD_FAIL;
 1205              		.loc 1 618 13 is_stmt 1 view .LVU349
 1206 0106 3146     		mov	r1, r6
 1207              	.LVL132:
 618:Middlewares/ST/STM32_USB_Device_Library/Class/CDC/Src/usbd_cdc.c ****             ret = USBD_FAIL;
 1208              		.loc 1 618 13 is_stmt 0 view .LVU350
 1209 0108 FFF7FEFF 		bl	USBD_CtlError
 1210              	.LVL133:
 619:Middlewares/ST/STM32_USB_Device_Library/Class/CDC/Src/usbd_cdc.c ****           }
 1211              		.loc 1 619 13 is_stmt 1 view .LVU351
 619:Middlewares/ST/STM32_USB_Device_Library/Class/CDC/Src/usbd_cdc.c ****           }
 1212              		.loc 1 619 17 is_stmt 0 view .LVU352
 1213 010c 0325     		movs	r5, #3
 1214 010e 08E0     		b	.L80
 1215              	.LVL134:
 1216              	.L88:
 627:Middlewares/ST/STM32_USB_Device_Library/Class/CDC/Src/usbd_cdc.c ****           ret = USBD_FAIL;
ARM GAS  C:\Users\ADMINI~1\AppData\Local\Temp\cccmLDA3.s 			page 49


 1217              		.loc 1 627 11 is_stmt 1 view .LVU353
 1218 0110 3146     		mov	r1, r6
 1219              	.LVL135:
 627:Middlewares/ST/STM32_USB_Device_Library/Class/CDC/Src/usbd_cdc.c ****           ret = USBD_FAIL;
 1220              		.loc 1 627 11 is_stmt 0 view .LVU354
 1221 0112 FFF7FEFF 		bl	USBD_CtlError
 1222              	.LVL136:
 628:Middlewares/ST/STM32_USB_Device_Library/Class/CDC/Src/usbd_cdc.c ****           break;
 1223              		.loc 1 628 11 is_stmt 1 view .LVU355
 629:Middlewares/ST/STM32_USB_Device_Library/Class/CDC/Src/usbd_cdc.c ****       }     
 1224              		.loc 1 629 11 view .LVU356
 628:Middlewares/ST/STM32_USB_Device_Library/Class/CDC/Src/usbd_cdc.c ****           break;
 1225              		.loc 1 628 15 is_stmt 0 view .LVU357
 1226 0116 0325     		movs	r5, #3
 629:Middlewares/ST/STM32_USB_Device_Library/Class/CDC/Src/usbd_cdc.c ****       }     
 1227              		.loc 1 629 11 view .LVU358
 1228 0118 03E0     		b	.L80
 1229              	.LVL137:
 1230              	.L82:
 633:Middlewares/ST/STM32_USB_Device_Library/Class/CDC/Src/usbd_cdc.c ****       }break;
 1231              		.loc 1 633 9 is_stmt 1 view .LVU359
 1232 011a 3146     		mov	r1, r6
 1233 011c FFF7FEFF 		bl	USBD_WinUSBComm_SetupVendor
 1234              	.LVL138:
 634:Middlewares/ST/STM32_USB_Device_Library/Class/CDC/Src/usbd_cdc.c **** 
 1235              		.loc 1 634 8 view .LVU360
 552:Middlewares/ST/STM32_USB_Device_Library/Class/CDC/Src/usbd_cdc.c **** 
 1236              		.loc 1 552 22 is_stmt 0 view .LVU361
 1237 0120 0025     		movs	r5, #0
 1238              	.LVL139:
 1239              	.L80:
 643:Middlewares/ST/STM32_USB_Device_Library/Class/CDC/Src/usbd_cdc.c **** 
 1240              		.loc 1 643 1 view .LVU362
 1241 0122 2846     		mov	r0, r5
 1242 0124 03B0     		add	sp, sp, #12
 1243              	.LCFI13:
 1244              		.cfi_remember_state
 1245              		.cfi_def_cfa_offset 20
 1246              		@ sp needed
 1247 0126 F0BD     		pop	{r4, r5, r6, r7, pc}
 1248              	.LVL140:
 1249              	.L95:
 1250              	.LCFI14:
 1251              		.cfi_restore_state
 556:Middlewares/ST/STM32_USB_Device_Library/Class/CDC/Src/usbd_cdc.c ****   }
 1252              		.loc 1 556 12 view .LVU363
 1253 0128 0325     		movs	r5, #3
 1254 012a FAE7     		b	.L80
 1255              		.cfi_endproc
 1256              	.LFE136:
 1258              		.section	.text.USBD_CDC_DeInit,"ax",%progbits
 1259              		.align	1
 1260              		.syntax unified
 1261              		.thumb
 1262              		.thumb_func
 1264              	USBD_CDC_DeInit:
 1265              	.LVL141:
ARM GAS  C:\Users\ADMINI~1\AppData\Local\Temp\cccmLDA3.s 			page 50


 1266              	.LFB135:
 496:Middlewares/ST/STM32_USB_Device_Library/Class/CDC/Src/usbd_cdc.c ****   UNUSED(cfgidx);
 1267              		.loc 1 496 1 is_stmt 1 view -0
 1268              		.cfi_startproc
 1269              		@ args = 0, pretend = 0, frame = 0
 1270              		@ frame_needed = 0, uses_anonymous_args = 0
 496:Middlewares/ST/STM32_USB_Device_Library/Class/CDC/Src/usbd_cdc.c ****   UNUSED(cfgidx);
 1271              		.loc 1 496 1 is_stmt 0 view .LVU365
 1272 0000 38B5     		push	{r3, r4, r5, lr}
 1273              	.LCFI15:
 1274              		.cfi_def_cfa_offset 16
 1275              		.cfi_offset 3, -16
 1276              		.cfi_offset 4, -12
 1277              		.cfi_offset 5, -8
 1278              		.cfi_offset 14, -4
 1279 0002 0446     		mov	r4, r0
 497:Middlewares/ST/STM32_USB_Device_Library/Class/CDC/Src/usbd_cdc.c **** 
 1280              		.loc 1 497 3 is_stmt 1 view .LVU366
 508:Middlewares/ST/STM32_USB_Device_Library/Class/CDC/Src/usbd_cdc.c ****   pdev->ep_in[CDCInEpAdd & 0xFU].is_used = 0U;
 1281              		.loc 1 508 3 view .LVU367
 508:Middlewares/ST/STM32_USB_Device_Library/Class/CDC/Src/usbd_cdc.c ****   pdev->ep_in[CDCInEpAdd & 0xFU].is_used = 0U;
 1282              		.loc 1 508 9 is_stmt 0 view .LVU368
 1283 0004 8121     		movs	r1, #129
 1284              	.LVL142:
 508:Middlewares/ST/STM32_USB_Device_Library/Class/CDC/Src/usbd_cdc.c ****   pdev->ep_in[CDCInEpAdd & 0xFU].is_used = 0U;
 1285              		.loc 1 508 9 view .LVU369
 1286 0006 FFF7FEFF 		bl	USBD_LL_CloseEP
 1287              	.LVL143:
 509:Middlewares/ST/STM32_USB_Device_Library/Class/CDC/Src/usbd_cdc.c **** 
 1288              		.loc 1 509 3 is_stmt 1 view .LVU370
 509:Middlewares/ST/STM32_USB_Device_Library/Class/CDC/Src/usbd_cdc.c **** 
 1289              		.loc 1 509 42 is_stmt 0 view .LVU371
 1290 000a 0025     		movs	r5, #0
 1291 000c 2587     		strh	r5, [r4, #56]	@ movhi
 512:Middlewares/ST/STM32_USB_Device_Library/Class/CDC/Src/usbd_cdc.c ****   pdev->ep_out[CDCOutEpAdd & 0xFU].is_used = 0U;
 1292              		.loc 1 512 3 is_stmt 1 view .LVU372
 512:Middlewares/ST/STM32_USB_Device_Library/Class/CDC/Src/usbd_cdc.c ****   pdev->ep_out[CDCOutEpAdd & 0xFU].is_used = 0U;
 1293              		.loc 1 512 9 is_stmt 0 view .LVU373
 1294 000e 0121     		movs	r1, #1
 1295 0010 2046     		mov	r0, r4
 1296 0012 FFF7FEFF 		bl	USBD_LL_CloseEP
 1297              	.LVL144:
 513:Middlewares/ST/STM32_USB_Device_Library/Class/CDC/Src/usbd_cdc.c **** 
 1298              		.loc 1 513 3 is_stmt 1 view .LVU374
 513:Middlewares/ST/STM32_USB_Device_Library/Class/CDC/Src/usbd_cdc.c **** 
 1299              		.loc 1 513 44 is_stmt 0 view .LVU375
 1300 0016 A4F87851 		strh	r5, [r4, #376]	@ movhi
 516:Middlewares/ST/STM32_USB_Device_Library/Class/CDC/Src/usbd_cdc.c **** 
 1301              		.loc 1 516 3 is_stmt 1 view .LVU376
 516:Middlewares/ST/STM32_USB_Device_Library/Class/CDC/Src/usbd_cdc.c **** 
 1302              		.loc 1 516 9 is_stmt 0 view .LVU377
 1303 001a 8221     		movs	r1, #130
 1304 001c 2046     		mov	r0, r4
 1305 001e FFF7FEFF 		bl	USBD_LL_CloseEP
 1306              	.LVL145:
 519:Middlewares/ST/STM32_USB_Device_Library/Class/CDC/Src/usbd_cdc.c ****   /* Close EP OUT */
 1307              		.loc 1 519 3 is_stmt 1 view .LVU378
ARM GAS  C:\Users\ADMINI~1\AppData\Local\Temp\cccmLDA3.s 			page 51


 1308 0022 8321     		movs	r1, #131
 1309 0024 2046     		mov	r0, r4
 1310 0026 FFF7FEFF 		bl	USBD_LL_CloseEP
 1311              	.LVL146:
 521:Middlewares/ST/STM32_USB_Device_Library/Class/CDC/Src/usbd_cdc.c **** 
 1312              		.loc 1 521 3 view .LVU379
 1313 002a 0321     		movs	r1, #3
 1314 002c 2046     		mov	r0, r4
 1315 002e FFF7FEFF 		bl	USBD_LL_CloseEP
 1316              	.LVL147:
 523:Middlewares/ST/STM32_USB_Device_Library/Class/CDC/Src/usbd_cdc.c ****   pdev->ep_in[CDCCmdEpAdd & 0xFU].bInterval = 0U;
 1317              		.loc 1 523 3 view .LVU380
 523:Middlewares/ST/STM32_USB_Device_Library/Class/CDC/Src/usbd_cdc.c ****   pdev->ep_in[CDCCmdEpAdd & 0xFU].bInterval = 0U;
 1318              		.loc 1 523 43 is_stmt 0 view .LVU381
 1319 0032 A4F84C50 		strh	r5, [r4, #76]	@ movhi
 524:Middlewares/ST/STM32_USB_Device_Library/Class/CDC/Src/usbd_cdc.c **** 
 1320              		.loc 1 524 3 is_stmt 1 view .LVU382
 524:Middlewares/ST/STM32_USB_Device_Library/Class/CDC/Src/usbd_cdc.c **** 
 1321              		.loc 1 524 45 is_stmt 0 view .LVU383
 1322 0036 A4F84E50 		strh	r5, [r4, #78]	@ movhi
 527:Middlewares/ST/STM32_USB_Device_Library/Class/CDC/Src/usbd_cdc.c ****   {
 1323              		.loc 1 527 3 is_stmt 1 view .LVU384
 527:Middlewares/ST/STM32_USB_Device_Library/Class/CDC/Src/usbd_cdc.c ****   {
 1324              		.loc 1 527 33 is_stmt 0 view .LVU385
 1325 003a D4F8D432 		ldr	r3, [r4, #724]
 527:Middlewares/ST/STM32_USB_Device_Library/Class/CDC/Src/usbd_cdc.c ****   {
 1326              		.loc 1 527 28 view .LVU386
 1327 003e 03F1B002 		add	r2, r3, #176
 1328 0042 54F82220 		ldr	r2, [r4, r2, lsl #2]
 527:Middlewares/ST/STM32_USB_Device_Library/Class/CDC/Src/usbd_cdc.c ****   {
 1329              		.loc 1 527 6 view .LVU387
 1330 0046 9AB1     		cbz	r2, .L104
 529:Middlewares/ST/STM32_USB_Device_Library/Class/CDC/Src/usbd_cdc.c ****     (void)USBD_free(pdev->pClassDataCmsit[pdev->classId]);
 1331              		.loc 1 529 5 is_stmt 1 view .LVU388
 529:Middlewares/ST/STM32_USB_Device_Library/Class/CDC/Src/usbd_cdc.c ****     (void)USBD_free(pdev->pClassDataCmsit[pdev->classId]);
 1332              		.loc 1 529 44 is_stmt 0 view .LVU389
 1333 0048 B033     		adds	r3, r3, #176
 1334 004a 04EB8303 		add	r3, r4, r3, lsl #2
 1335 004e 5B68     		ldr	r3, [r3, #4]
 529:Middlewares/ST/STM32_USB_Device_Library/Class/CDC/Src/usbd_cdc.c ****     (void)USBD_free(pdev->pClassDataCmsit[pdev->classId]);
 1336              		.loc 1 529 60 view .LVU390
 1337 0050 5B68     		ldr	r3, [r3, #4]
 529:Middlewares/ST/STM32_USB_Device_Library/Class/CDC/Src/usbd_cdc.c ****     (void)USBD_free(pdev->pClassDataCmsit[pdev->classId]);
 1338              		.loc 1 529 6 view .LVU391
 1339 0052 9847     		blx	r3
 1340              	.LVL148:
 530:Middlewares/ST/STM32_USB_Device_Library/Class/CDC/Src/usbd_cdc.c ****     pdev->pClassDataCmsit[pdev->classId] = NULL;
 1341              		.loc 1 530 5 is_stmt 1 view .LVU392
 530:Middlewares/ST/STM32_USB_Device_Library/Class/CDC/Src/usbd_cdc.c ****     pdev->pClassDataCmsit[pdev->classId] = NULL;
 1342              		.loc 1 530 47 is_stmt 0 view .LVU393
 1343 0054 D4F8D432 		ldr	r3, [r4, #724]
 530:Middlewares/ST/STM32_USB_Device_Library/Class/CDC/Src/usbd_cdc.c ****     pdev->pClassDataCmsit[pdev->classId] = NULL;
 1344              		.loc 1 530 5 view .LVU394
 1345 0058 B033     		adds	r3, r3, #176
 1346 005a 54F82300 		ldr	r0, [r4, r3, lsl #2]
 1347 005e FFF7FEFF 		bl	USBD_static_free
 1348              	.LVL149:
ARM GAS  C:\Users\ADMINI~1\AppData\Local\Temp\cccmLDA3.s 			page 52


 531:Middlewares/ST/STM32_USB_Device_Library/Class/CDC/Src/usbd_cdc.c ****     pdev->pClassData = NULL;
 1349              		.loc 1 531 5 is_stmt 1 view .LVU395
 531:Middlewares/ST/STM32_USB_Device_Library/Class/CDC/Src/usbd_cdc.c ****     pdev->pClassData = NULL;
 1350              		.loc 1 531 31 is_stmt 0 view .LVU396
 1351 0062 D4F8D432 		ldr	r3, [r4, #724]
 531:Middlewares/ST/STM32_USB_Device_Library/Class/CDC/Src/usbd_cdc.c ****     pdev->pClassData = NULL;
 1352              		.loc 1 531 42 view .LVU397
 1353 0066 B033     		adds	r3, r3, #176
 1354 0068 44F82350 		str	r5, [r4, r3, lsl #2]
 532:Middlewares/ST/STM32_USB_Device_Library/Class/CDC/Src/usbd_cdc.c ****   }
 1355              		.loc 1 532 5 is_stmt 1 view .LVU398
 532:Middlewares/ST/STM32_USB_Device_Library/Class/CDC/Src/usbd_cdc.c ****   }
 1356              		.loc 1 532 22 is_stmt 0 view .LVU399
 1357 006c C4F8BC52 		str	r5, [r4, #700]
 1358              	.L104:
 535:Middlewares/ST/STM32_USB_Device_Library/Class/CDC/Src/usbd_cdc.c **** }
 1359              		.loc 1 535 3 is_stmt 1 view .LVU400
 536:Middlewares/ST/STM32_USB_Device_Library/Class/CDC/Src/usbd_cdc.c **** 
 1360              		.loc 1 536 1 is_stmt 0 view .LVU401
 1361 0070 0020     		movs	r0, #0
 1362 0072 38BD     		pop	{r3, r4, r5, pc}
 536:Middlewares/ST/STM32_USB_Device_Library/Class/CDC/Src/usbd_cdc.c **** 
 1363              		.loc 1 536 1 view .LVU402
 1364              		.cfi_endproc
 1365              	.LFE135:
 1367              		.section	.text.USBD_CDC_Init,"ax",%progbits
 1368              		.align	1
 1369              		.syntax unified
 1370              		.thumb
 1371              		.thumb_func
 1373              	USBD_CDC_Init:
 1374              	.LVL150:
 1375              	.LFB134:
 357:Middlewares/ST/STM32_USB_Device_Library/Class/CDC/Src/usbd_cdc.c ****   UNUSED(cfgidx);
 1376              		.loc 1 357 1 is_stmt 1 view -0
 1377              		.cfi_startproc
 1378              		@ args = 0, pretend = 0, frame = 0
 1379              		@ frame_needed = 0, uses_anonymous_args = 0
 357:Middlewares/ST/STM32_USB_Device_Library/Class/CDC/Src/usbd_cdc.c ****   UNUSED(cfgidx);
 1380              		.loc 1 357 1 is_stmt 0 view .LVU404
 1381 0000 70B5     		push	{r4, r5, r6, lr}
 1382              	.LCFI16:
 1383              		.cfi_def_cfa_offset 16
 1384              		.cfi_offset 4, -16
 1385              		.cfi_offset 5, -12
 1386              		.cfi_offset 6, -8
 1387              		.cfi_offset 14, -4
 1388 0002 0446     		mov	r4, r0
 358:Middlewares/ST/STM32_USB_Device_Library/Class/CDC/Src/usbd_cdc.c ****   USBD_CDC_HandleTypeDef *hcdc;
 1389              		.loc 1 358 3 is_stmt 1 view .LVU405
 359:Middlewares/ST/STM32_USB_Device_Library/Class/CDC/Src/usbd_cdc.c **** 
 1390              		.loc 1 359 3 view .LVU406
 361:Middlewares/ST/STM32_USB_Device_Library/Class/CDC/Src/usbd_cdc.c **** 
 1391              		.loc 1 361 3 view .LVU407
 361:Middlewares/ST/STM32_USB_Device_Library/Class/CDC/Src/usbd_cdc.c **** 
 1392              		.loc 1 361 36 is_stmt 0 view .LVU408
 1393 0004 7420     		movs	r0, #116
ARM GAS  C:\Users\ADMINI~1\AppData\Local\Temp\cccmLDA3.s 			page 53


 1394              	.LVL151:
 361:Middlewares/ST/STM32_USB_Device_Library/Class/CDC/Src/usbd_cdc.c **** 
 1395              		.loc 1 361 36 view .LVU409
 1396 0006 FFF7FEFF 		bl	USBD_static_malloc
 1397              	.LVL152:
 363:Middlewares/ST/STM32_USB_Device_Library/Class/CDC/Src/usbd_cdc.c ****   {
 1398              		.loc 1 363 3 is_stmt 1 view .LVU410
 363:Middlewares/ST/STM32_USB_Device_Library/Class/CDC/Src/usbd_cdc.c ****   {
 1399              		.loc 1 363 6 is_stmt 0 view .LVU411
 1400 000a 0028     		cmp	r0, #0
 1401 000c 59D0     		beq	.L114
 1402 000e 0546     		mov	r5, r0
 369:Middlewares/ST/STM32_USB_Device_Library/Class/CDC/Src/usbd_cdc.c **** 
 1403              		.loc 1 369 3 is_stmt 1 view .LVU412
 369:Middlewares/ST/STM32_USB_Device_Library/Class/CDC/Src/usbd_cdc.c **** 
 1404              		.loc 1 369 9 is_stmt 0 view .LVU413
 1405 0010 7422     		movs	r2, #116
 1406 0012 0021     		movs	r1, #0
 1407 0014 FFF7FEFF 		bl	memset
 1408              	.LVL153:
 371:Middlewares/ST/STM32_USB_Device_Library/Class/CDC/Src/usbd_cdc.c ****   pdev->pClassData = pdev->pClassDataCmsit[pdev->classId];
 1409              		.loc 1 371 3 is_stmt 1 view .LVU414
 371:Middlewares/ST/STM32_USB_Device_Library/Class/CDC/Src/usbd_cdc.c ****   pdev->pClassData = pdev->pClassDataCmsit[pdev->classId];
 1410              		.loc 1 371 29 is_stmt 0 view .LVU415
 1411 0018 D4F8D432 		ldr	r3, [r4, #724]
 371:Middlewares/ST/STM32_USB_Device_Library/Class/CDC/Src/usbd_cdc.c ****   pdev->pClassData = pdev->pClassDataCmsit[pdev->classId];
 1412              		.loc 1 371 40 view .LVU416
 1413 001c B033     		adds	r3, r3, #176
 1414 001e 44F82350 		str	r5, [r4, r3, lsl #2]
 372:Middlewares/ST/STM32_USB_Device_Library/Class/CDC/Src/usbd_cdc.c **** 
 1415              		.loc 1 372 3 is_stmt 1 view .LVU417
 372:Middlewares/ST/STM32_USB_Device_Library/Class/CDC/Src/usbd_cdc.c **** 
 1416              		.loc 1 372 20 is_stmt 0 view .LVU418
 1417 0022 C4F8BC52 		str	r5, [r4, #700]
 381:Middlewares/ST/STM32_USB_Device_Library/Class/CDC/Src/usbd_cdc.c ****   {
 1418              		.loc 1 381 3 is_stmt 1 view .LVU419
 381:Middlewares/ST/STM32_USB_Device_Library/Class/CDC/Src/usbd_cdc.c ****   {
 1419              		.loc 1 381 11 is_stmt 0 view .LVU420
 1420 0026 237C     		ldrb	r3, [r4, #16]	@ zero_extendqisi2
 381:Middlewares/ST/STM32_USB_Device_Library/Class/CDC/Src/usbd_cdc.c ****   {
 1421              		.loc 1 381 6 view .LVU421
 1422 0028 002B     		cmp	r3, #0
 1423 002a 52D1     		bne	.L109
 384:Middlewares/ST/STM32_USB_Device_Library/Class/CDC/Src/usbd_cdc.c ****                          CDC_DATA_HS_IN_PACKET_SIZE);
 1424              		.loc 1 384 5 is_stmt 1 view .LVU422
 384:Middlewares/ST/STM32_USB_Device_Library/Class/CDC/Src/usbd_cdc.c ****                          CDC_DATA_HS_IN_PACKET_SIZE);
 1425              		.loc 1 384 11 is_stmt 0 view .LVU423
 1426 002c 4023     		movs	r3, #64
 1427 002e 0222     		movs	r2, #2
 1428 0030 8121     		movs	r1, #129
 1429 0032 2046     		mov	r0, r4
 1430 0034 FFF7FEFF 		bl	USBD_LL_OpenEP
 1431              	.LVL154:
 387:Middlewares/ST/STM32_USB_Device_Library/Class/CDC/Src/usbd_cdc.c **** 
 1432              		.loc 1 387 5 is_stmt 1 view .LVU424
 387:Middlewares/ST/STM32_USB_Device_Library/Class/CDC/Src/usbd_cdc.c **** 
 1433              		.loc 1 387 44 is_stmt 0 view .LVU425
ARM GAS  C:\Users\ADMINI~1\AppData\Local\Temp\cccmLDA3.s 			page 54


 1434 0038 0126     		movs	r6, #1
 1435 003a 2687     		strh	r6, [r4, #56]	@ movhi
 390:Middlewares/ST/STM32_USB_Device_Library/Class/CDC/Src/usbd_cdc.c ****                          CDC_DATA_HS_OUT_PACKET_SIZE);
 1436              		.loc 1 390 5 is_stmt 1 view .LVU426
 390:Middlewares/ST/STM32_USB_Device_Library/Class/CDC/Src/usbd_cdc.c ****                          CDC_DATA_HS_OUT_PACKET_SIZE);
 1437              		.loc 1 390 11 is_stmt 0 view .LVU427
 1438 003c 4023     		movs	r3, #64
 1439 003e 0222     		movs	r2, #2
 1440 0040 3146     		mov	r1, r6
 1441 0042 2046     		mov	r0, r4
 1442 0044 FFF7FEFF 		bl	USBD_LL_OpenEP
 1443              	.LVL155:
 393:Middlewares/ST/STM32_USB_Device_Library/Class/CDC/Src/usbd_cdc.c **** 
 1444              		.loc 1 393 5 is_stmt 1 view .LVU428
 393:Middlewares/ST/STM32_USB_Device_Library/Class/CDC/Src/usbd_cdc.c **** 
 1445              		.loc 1 393 46 is_stmt 0 view .LVU429
 1446 0048 A4F87861 		strh	r6, [r4, #376]	@ movhi
 396:Middlewares/ST/STM32_USB_Device_Library/Class/CDC/Src/usbd_cdc.c ****   }
 1447              		.loc 1 396 5 is_stmt 1 view .LVU430
 396:Middlewares/ST/STM32_USB_Device_Library/Class/CDC/Src/usbd_cdc.c ****   }
 1448              		.loc 1 396 47 is_stmt 0 view .LVU431
 1449 004c 1023     		movs	r3, #16
 1450 004e A4F84E30 		strh	r3, [r4, #78]	@ movhi
 1451              	.L110:
 416:Middlewares/ST/STM32_USB_Device_Library/Class/CDC/Src/usbd_cdc.c ****                  ODRIVE_IN_EP,
 1452              		.loc 1 416 3 is_stmt 1 view .LVU432
 1453 0052 4023     		movs	r3, #64
 1454 0054 0222     		movs	r2, #2
 1455 0056 8321     		movs	r1, #131
 1456 0058 2046     		mov	r0, r4
 1457 005a FFF7FEFF 		bl	USBD_LL_OpenEP
 1458              	.LVL156:
 422:Middlewares/ST/STM32_USB_Device_Library/Class/CDC/Src/usbd_cdc.c ****                  ODRIVE_OUT_EP,
 1459              		.loc 1 422 3 view .LVU433
 1460 005e 4023     		movs	r3, #64
 1461 0060 0222     		movs	r2, #2
 1462 0062 0321     		movs	r1, #3
 1463 0064 2046     		mov	r0, r4
 1464 0066 FFF7FEFF 		bl	USBD_LL_OpenEP
 1465              	.LVL157:
 427:Middlewares/ST/STM32_USB_Device_Library/Class/CDC/Src/usbd_cdc.c **** 
 1466              		.loc 1 427 3 view .LVU434
 427:Middlewares/ST/STM32_USB_Device_Library/Class/CDC/Src/usbd_cdc.c **** 
 1467              		.loc 1 427 9 is_stmt 0 view .LVU435
 1468 006a 0823     		movs	r3, #8
 1469 006c 0322     		movs	r2, #3
 1470 006e 8221     		movs	r1, #130
 1471 0070 2046     		mov	r0, r4
 1472 0072 FFF7FEFF 		bl	USBD_LL_OpenEP
 1473              	.LVL158:
 430:Middlewares/ST/STM32_USB_Device_Library/Class/CDC/Src/usbd_cdc.c **** 
 1474              		.loc 1 430 3 is_stmt 1 view .LVU436
 430:Middlewares/ST/STM32_USB_Device_Library/Class/CDC/Src/usbd_cdc.c **** 
 1475              		.loc 1 430 43 is_stmt 0 view .LVU437
 1476 0076 0123     		movs	r3, #1
 1477 0078 A4F84C30 		strh	r3, [r4, #76]	@ movhi
 432:Middlewares/ST/STM32_USB_Device_Library/Class/CDC/Src/usbd_cdc.c ****   hcdc->ODRIVE_Rx.Buffer = NULL;
ARM GAS  C:\Users\ADMINI~1\AppData\Local\Temp\cccmLDA3.s 			page 55


 1478              		.loc 1 432 3 is_stmt 1 view .LVU438
 432:Middlewares/ST/STM32_USB_Device_Library/Class/CDC/Src/usbd_cdc.c ****   hcdc->ODRIVE_Rx.Buffer = NULL;
 1479              		.loc 1 432 23 is_stmt 0 view .LVU439
 1480 007c 0026     		movs	r6, #0
 1481 007e 2E65     		str	r6, [r5, #80]
 433:Middlewares/ST/STM32_USB_Device_Library/Class/CDC/Src/usbd_cdc.c **** 
 1482              		.loc 1 433 3 is_stmt 1 view .LVU440
 433:Middlewares/ST/STM32_USB_Device_Library/Class/CDC/Src/usbd_cdc.c **** 
 1483              		.loc 1 433 26 is_stmt 0 view .LVU441
 1484 0080 AE66     		str	r6, [r5, #104]
 436:Middlewares/ST/STM32_USB_Device_Library/Class/CDC/Src/usbd_cdc.c **** 
 1485              		.loc 1 436 3 is_stmt 1 view .LVU442
 436:Middlewares/ST/STM32_USB_Device_Library/Class/CDC/Src/usbd_cdc.c **** 
 1486              		.loc 1 436 47 is_stmt 0 view .LVU443
 1487 0082 D4F8D432 		ldr	r3, [r4, #724]
 436:Middlewares/ST/STM32_USB_Device_Library/Class/CDC/Src/usbd_cdc.c **** 
 1488              		.loc 1 436 42 view .LVU444
 1489 0086 B033     		adds	r3, r3, #176
 1490 0088 04EB8303 		add	r3, r4, r3, lsl #2
 1491 008c 5B68     		ldr	r3, [r3, #4]
 436:Middlewares/ST/STM32_USB_Device_Library/Class/CDC/Src/usbd_cdc.c **** 
 1492              		.loc 1 436 58 view .LVU445
 1493 008e 1B68     		ldr	r3, [r3]
 436:Middlewares/ST/STM32_USB_Device_Library/Class/CDC/Src/usbd_cdc.c **** 
 1494              		.loc 1 436 4 view .LVU446
 1495 0090 9847     		blx	r3
 1496              	.LVL159:
 439:Middlewares/ST/STM32_USB_Device_Library/Class/CDC/Src/usbd_cdc.c ****   hcdc->CDC_Rx.State =0;
 1497              		.loc 1 439 3 is_stmt 1 view .LVU447
 439:Middlewares/ST/STM32_USB_Device_Library/Class/CDC/Src/usbd_cdc.c ****   hcdc->CDC_Rx.State =0;
 1498              		.loc 1 439 22 is_stmt 0 view .LVU448
 1499 0092 85F84C60 		strb	r6, [r5, #76]
 440:Middlewares/ST/STM32_USB_Device_Library/Class/CDC/Src/usbd_cdc.c ****   hcdc->ODRIVE_Tx.State =0;
 1500              		.loc 1 440 3 is_stmt 1 view .LVU449
 440:Middlewares/ST/STM32_USB_Device_Library/Class/CDC/Src/usbd_cdc.c ****   hcdc->ODRIVE_Tx.State =0;
 1501              		.loc 1 440 22 is_stmt 0 view .LVU450
 1502 0096 85F85860 		strb	r6, [r5, #88]
 441:Middlewares/ST/STM32_USB_Device_Library/Class/CDC/Src/usbd_cdc.c ****   hcdc->ODRIVE_Rx.State =0;
 1503              		.loc 1 441 3 is_stmt 1 view .LVU451
 441:Middlewares/ST/STM32_USB_Device_Library/Class/CDC/Src/usbd_cdc.c ****   hcdc->ODRIVE_Rx.State =0;
 1504              		.loc 1 441 25 is_stmt 0 view .LVU452
 1505 009a 85F86460 		strb	r6, [r5, #100]
 442:Middlewares/ST/STM32_USB_Device_Library/Class/CDC/Src/usbd_cdc.c **** 
 1506              		.loc 1 442 3 is_stmt 1 view .LVU453
 442:Middlewares/ST/STM32_USB_Device_Library/Class/CDC/Src/usbd_cdc.c **** 
 1507              		.loc 1 442 25 is_stmt 0 view .LVU454
 1508 009e 85F87060 		strb	r6, [r5, #112]
 462:Middlewares/ST/STM32_USB_Device_Library/Class/CDC/Src/usbd_cdc.c ****   {      
 1509              		.loc 1 462 3 is_stmt 1 view .LVU455
 462:Middlewares/ST/STM32_USB_Device_Library/Class/CDC/Src/usbd_cdc.c ****   {      
 1510              		.loc 1 462 10 is_stmt 0 view .LVU456
 1511 00a2 237C     		ldrb	r3, [r4, #16]	@ zero_extendqisi2
 462:Middlewares/ST/STM32_USB_Device_Library/Class/CDC/Src/usbd_cdc.c ****   {      
 1512              		.loc 1 462 5 view .LVU457
 1513 00a4 4BBB     		cbnz	r3, .L111
 465:Middlewares/ST/STM32_USB_Device_Library/Class/CDC/Src/usbd_cdc.c ****                             CDC_OUT_EP,
 1514              		.loc 1 465 5 is_stmt 1 view .LVU458
ARM GAS  C:\Users\ADMINI~1\AppData\Local\Temp\cccmLDA3.s 			page 56


 1515 00a6 4023     		movs	r3, #64
 1516 00a8 2A6D     		ldr	r2, [r5, #80]
 1517 00aa 0121     		movs	r1, #1
 1518 00ac 2046     		mov	r0, r4
 1519 00ae FFF7FEFF 		bl	USBD_LL_PrepareReceive
 1520              	.LVL160:
 1521              	.L112:
 480:Middlewares/ST/STM32_USB_Device_Library/Class/CDC/Src/usbd_cdc.c ****                           ODRIVE_OUT_EP,
 1522              		.loc 1 480 3 view .LVU459
 1523 00b2 4023     		movs	r3, #64
 1524 00b4 AA6E     		ldr	r2, [r5, #104]
 1525 00b6 0321     		movs	r1, #3
 1526 00b8 2046     		mov	r0, r4
 1527 00ba FFF7FEFF 		bl	USBD_LL_PrepareReceive
 1528              	.LVL161:
 485:Middlewares/ST/STM32_USB_Device_Library/Class/CDC/Src/usbd_cdc.c **** }
 1529              		.loc 1 485 3 view .LVU460
 485:Middlewares/ST/STM32_USB_Device_Library/Class/CDC/Src/usbd_cdc.c **** }
 1530              		.loc 1 485 10 is_stmt 0 view .LVU461
 1531 00be 0020     		movs	r0, #0
 1532              	.LVL162:
 1533              	.L108:
 486:Middlewares/ST/STM32_USB_Device_Library/Class/CDC/Src/usbd_cdc.c **** 
 1534              		.loc 1 486 1 view .LVU462
 1535 00c0 70BD     		pop	{r4, r5, r6, pc}
 1536              	.LVL163:
 1537              	.L114:
 365:Middlewares/ST/STM32_USB_Device_Library/Class/CDC/Src/usbd_cdc.c ****     return (uint8_t)USBD_EMEM;
 1538              		.loc 1 365 5 is_stmt 1 view .LVU463
 365:Middlewares/ST/STM32_USB_Device_Library/Class/CDC/Src/usbd_cdc.c ****     return (uint8_t)USBD_EMEM;
 1539              		.loc 1 365 31 is_stmt 0 view .LVU464
 1540 00c2 D4F8D432 		ldr	r3, [r4, #724]
 365:Middlewares/ST/STM32_USB_Device_Library/Class/CDC/Src/usbd_cdc.c ****     return (uint8_t)USBD_EMEM;
 1541              		.loc 1 365 42 view .LVU465
 1542 00c6 B033     		adds	r3, r3, #176
 1543 00c8 0022     		movs	r2, #0
 1544 00ca 44F82320 		str	r2, [r4, r3, lsl #2]
 366:Middlewares/ST/STM32_USB_Device_Library/Class/CDC/Src/usbd_cdc.c ****   }
 1545              		.loc 1 366 5 is_stmt 1 view .LVU466
 366:Middlewares/ST/STM32_USB_Device_Library/Class/CDC/Src/usbd_cdc.c ****   }
 1546              		.loc 1 366 12 is_stmt 0 view .LVU467
 1547 00ce 0220     		movs	r0, #2
 1548              	.LVL164:
 366:Middlewares/ST/STM32_USB_Device_Library/Class/CDC/Src/usbd_cdc.c ****   }
 1549              		.loc 1 366 12 view .LVU468
 1550 00d0 F6E7     		b	.L108
 1551              	.LVL165:
 1552              	.L109:
 401:Middlewares/ST/STM32_USB_Device_Library/Class/CDC/Src/usbd_cdc.c ****                          CDC_DATA_FS_IN_PACKET_SIZE);
 1553              		.loc 1 401 5 is_stmt 1 view .LVU469
 401:Middlewares/ST/STM32_USB_Device_Library/Class/CDC/Src/usbd_cdc.c ****                          CDC_DATA_FS_IN_PACKET_SIZE);
 1554              		.loc 1 401 11 is_stmt 0 view .LVU470
 1555 00d2 4023     		movs	r3, #64
 1556 00d4 0222     		movs	r2, #2
 1557 00d6 8121     		movs	r1, #129
 1558 00d8 2046     		mov	r0, r4
 1559 00da FFF7FEFF 		bl	USBD_LL_OpenEP
ARM GAS  C:\Users\ADMINI~1\AppData\Local\Temp\cccmLDA3.s 			page 57


 1560              	.LVL166:
 404:Middlewares/ST/STM32_USB_Device_Library/Class/CDC/Src/usbd_cdc.c **** 
 1561              		.loc 1 404 5 is_stmt 1 view .LVU471
 404:Middlewares/ST/STM32_USB_Device_Library/Class/CDC/Src/usbd_cdc.c **** 
 1562              		.loc 1 404 44 is_stmt 0 view .LVU472
 1563 00de 0126     		movs	r6, #1
 1564 00e0 2687     		strh	r6, [r4, #56]	@ movhi
 407:Middlewares/ST/STM32_USB_Device_Library/Class/CDC/Src/usbd_cdc.c ****                          CDC_DATA_FS_OUT_PACKET_SIZE);
 1565              		.loc 1 407 5 is_stmt 1 view .LVU473
 407:Middlewares/ST/STM32_USB_Device_Library/Class/CDC/Src/usbd_cdc.c ****                          CDC_DATA_FS_OUT_PACKET_SIZE);
 1566              		.loc 1 407 11 is_stmt 0 view .LVU474
 1567 00e2 4023     		movs	r3, #64
 1568 00e4 0222     		movs	r2, #2
 1569 00e6 3146     		mov	r1, r6
 1570 00e8 2046     		mov	r0, r4
 1571 00ea FFF7FEFF 		bl	USBD_LL_OpenEP
 1572              	.LVL167:
 410:Middlewares/ST/STM32_USB_Device_Library/Class/CDC/Src/usbd_cdc.c **** 
 1573              		.loc 1 410 5 is_stmt 1 view .LVU475
 410:Middlewares/ST/STM32_USB_Device_Library/Class/CDC/Src/usbd_cdc.c **** 
 1574              		.loc 1 410 46 is_stmt 0 view .LVU476
 1575 00ee A4F87861 		strh	r6, [r4, #376]	@ movhi
 413:Middlewares/ST/STM32_USB_Device_Library/Class/CDC/Src/usbd_cdc.c ****   }
 1576              		.loc 1 413 5 is_stmt 1 view .LVU477
 413:Middlewares/ST/STM32_USB_Device_Library/Class/CDC/Src/usbd_cdc.c ****   }
 1577              		.loc 1 413 47 is_stmt 0 view .LVU478
 1578 00f2 1023     		movs	r3, #16
 1579 00f4 A4F84E30 		strh	r3, [r4, #78]	@ movhi
 1580 00f8 ABE7     		b	.L110
 1581              	.L111:
 473:Middlewares/ST/STM32_USB_Device_Library/Class/CDC/Src/usbd_cdc.c ****                             CDC_OUT_EP,
 1582              		.loc 1 473 5 is_stmt 1 view .LVU479
 1583 00fa 4023     		movs	r3, #64
 1584 00fc 2A6D     		ldr	r2, [r5, #80]
 1585 00fe 0121     		movs	r1, #1
 1586 0100 2046     		mov	r0, r4
 1587 0102 FFF7FEFF 		bl	USBD_LL_PrepareReceive
 1588              	.LVL168:
 1589 0106 D4E7     		b	.L112
 1590              		.cfi_endproc
 1591              	.LFE134:
 1593              		.section	.text.USBD_CDC_RegisterInterface,"ax",%progbits
 1594              		.align	1
 1595              		.global	USBD_CDC_RegisterInterface
 1596              		.syntax unified
 1597              		.thumb
 1598              		.thumb_func
 1600              	USBD_CDC_RegisterInterface:
 1601              	.LVL169:
 1602              	.LFB144:
 868:Middlewares/ST/STM32_USB_Device_Library/Class/CDC/Src/usbd_cdc.c ****   if (fops == NULL)
 1603              		.loc 1 868 1 view -0
 1604              		.cfi_startproc
 1605              		@ args = 0, pretend = 0, frame = 0
 1606              		@ frame_needed = 0, uses_anonymous_args = 0
 1607              		@ link register save eliminated.
 869:Middlewares/ST/STM32_USB_Device_Library/Class/CDC/Src/usbd_cdc.c ****   {
ARM GAS  C:\Users\ADMINI~1\AppData\Local\Temp\cccmLDA3.s 			page 58


 1608              		.loc 1 869 3 view .LVU481
 869:Middlewares/ST/STM32_USB_Device_Library/Class/CDC/Src/usbd_cdc.c ****   {
 1609              		.loc 1 869 6 is_stmt 0 view .LVU482
 1610 0000 39B1     		cbz	r1, .L117
 874:Middlewares/ST/STM32_USB_Device_Library/Class/CDC/Src/usbd_cdc.c **** 
 1611              		.loc 1 874 3 is_stmt 1 view .LVU483
 874:Middlewares/ST/STM32_USB_Device_Library/Class/CDC/Src/usbd_cdc.c **** 
 1612              		.loc 1 874 23 is_stmt 0 view .LVU484
 1613 0002 D0F8D432 		ldr	r3, [r0, #724]
 874:Middlewares/ST/STM32_USB_Device_Library/Class/CDC/Src/usbd_cdc.c **** 
 1614              		.loc 1 874 34 view .LVU485
 1615 0006 B033     		adds	r3, r3, #176
 1616 0008 00EB8300 		add	r0, r0, r3, lsl #2
 1617              	.LVL170:
 874:Middlewares/ST/STM32_USB_Device_Library/Class/CDC/Src/usbd_cdc.c **** 
 1618              		.loc 1 874 34 view .LVU486
 1619 000c 4160     		str	r1, [r0, #4]
 876:Middlewares/ST/STM32_USB_Device_Library/Class/CDC/Src/usbd_cdc.c **** }
 1620              		.loc 1 876 3 is_stmt 1 view .LVU487
 876:Middlewares/ST/STM32_USB_Device_Library/Class/CDC/Src/usbd_cdc.c **** }
 1621              		.loc 1 876 10 is_stmt 0 view .LVU488
 1622 000e 0020     		movs	r0, #0
 1623 0010 7047     		bx	lr
 1624              	.LVL171:
 1625              	.L117:
 871:Middlewares/ST/STM32_USB_Device_Library/Class/CDC/Src/usbd_cdc.c ****   }
 1626              		.loc 1 871 12 view .LVU489
 1627 0012 0320     		movs	r0, #3
 1628              	.LVL172:
 877:Middlewares/ST/STM32_USB_Device_Library/Class/CDC/Src/usbd_cdc.c **** #if 0
 1629              		.loc 1 877 1 view .LVU490
 1630 0014 7047     		bx	lr
 1631              		.cfi_endproc
 1632              	.LFE144:
 1634              		.section	.text.USBD_CDC_SetTxBuffer,"ax",%progbits
 1635              		.align	1
 1636              		.global	USBD_CDC_SetTxBuffer
 1637              		.syntax unified
 1638              		.thumb
 1639              		.thumb_func
 1641              	USBD_CDC_SetTxBuffer:
 1642              	.LVL173:
 1643              	.LFB145:
 926:Middlewares/ST/STM32_USB_Device_Library/Class/CDC/Src/usbd_cdc.c ****   USBD_CDC_HandleTypeDef   *hcdc = (USBD_CDC_HandleTypeDef*) pdev->pClassData;
 1644              		.loc 1 926 1 is_stmt 1 view -0
 1645              		.cfi_startproc
 1646              		@ args = 0, pretend = 0, frame = 0
 1647              		@ frame_needed = 0, uses_anonymous_args = 0
 1648              		@ link register save eliminated.
 927:Middlewares/ST/STM32_USB_Device_Library/Class/CDC/Src/usbd_cdc.c ****   
 1649              		.loc 1 927 3 view .LVU492
 927:Middlewares/ST/STM32_USB_Device_Library/Class/CDC/Src/usbd_cdc.c ****   
 1650              		.loc 1 927 29 is_stmt 0 view .LVU493
 1651 0000 D0F8BC02 		ldr	r0, [r0, #700]
 1652              	.LVL174:
 929:Middlewares/ST/STM32_USB_Device_Library/Class/CDC/Src/usbd_cdc.c ****   if (endpoint_pair == CDC_OUT_EP) {
 1653              		.loc 1 929 3 is_stmt 1 view .LVU494
ARM GAS  C:\Users\ADMINI~1\AppData\Local\Temp\cccmLDA3.s 			page 59


 930:Middlewares/ST/STM32_USB_Device_Library/Class/CDC/Src/usbd_cdc.c ****     hEP_Tx = &hcdc->CDC_Tx;
 1654              		.loc 1 930 3 view .LVU495
 930:Middlewares/ST/STM32_USB_Device_Library/Class/CDC/Src/usbd_cdc.c ****     hEP_Tx = &hcdc->CDC_Tx;
 1655              		.loc 1 930 6 is_stmt 0 view .LVU496
 1656 0004 012B     		cmp	r3, #1
 1657 0006 07D0     		beq	.L123
 932:Middlewares/ST/STM32_USB_Device_Library/Class/CDC/Src/usbd_cdc.c ****     hEP_Tx = &hcdc->ODRIVE_Tx;
 1658              		.loc 1 932 10 is_stmt 1 view .LVU497
 932:Middlewares/ST/STM32_USB_Device_Library/Class/CDC/Src/usbd_cdc.c ****     hEP_Tx = &hcdc->ODRIVE_Tx;
 1659              		.loc 1 932 13 is_stmt 0 view .LVU498
 1660 0008 032B     		cmp	r3, #3
 1661 000a 08D1     		bne	.L122
 933:Middlewares/ST/STM32_USB_Device_Library/Class/CDC/Src/usbd_cdc.c ****   } else {
 1662              		.loc 1 933 5 is_stmt 1 view .LVU499
 933:Middlewares/ST/STM32_USB_Device_Library/Class/CDC/Src/usbd_cdc.c ****   } else {
 1663              		.loc 1 933 12 is_stmt 0 view .LVU500
 1664 000c 00F15C03 		add	r3, r0, #92
 1665              	.LVL175:
 1666              	.L120:
 938:Middlewares/ST/STM32_USB_Device_Library/Class/CDC/Src/usbd_cdc.c ****   hEP_Tx->Length = length;
 1667              		.loc 1 938 3 is_stmt 1 view .LVU501
 938:Middlewares/ST/STM32_USB_Device_Library/Class/CDC/Src/usbd_cdc.c ****   hEP_Tx->Length = length;
 1668              		.loc 1 938 18 is_stmt 0 view .LVU502
 1669 0010 1960     		str	r1, [r3]
 939:Middlewares/ST/STM32_USB_Device_Library/Class/CDC/Src/usbd_cdc.c ****   
 1670              		.loc 1 939 3 is_stmt 1 view .LVU503
 939:Middlewares/ST/STM32_USB_Device_Library/Class/CDC/Src/usbd_cdc.c ****   
 1671              		.loc 1 939 18 is_stmt 0 view .LVU504
 1672 0012 5A60     		str	r2, [r3, #4]
 941:Middlewares/ST/STM32_USB_Device_Library/Class/CDC/Src/usbd_cdc.c **** }
 1673              		.loc 1 941 3 is_stmt 1 view .LVU505
 941:Middlewares/ST/STM32_USB_Device_Library/Class/CDC/Src/usbd_cdc.c **** }
 1674              		.loc 1 941 10 is_stmt 0 view .LVU506
 1675 0014 0020     		movs	r0, #0
 1676              	.LVL176:
 941:Middlewares/ST/STM32_USB_Device_Library/Class/CDC/Src/usbd_cdc.c **** }
 1677              		.loc 1 941 10 view .LVU507
 1678 0016 7047     		bx	lr
 1679              	.LVL177:
 1680              	.L123:
 931:Middlewares/ST/STM32_USB_Device_Library/Class/CDC/Src/usbd_cdc.c ****   } else if (endpoint_pair == ODRIVE_OUT_EP) {
 1681              		.loc 1 931 5 is_stmt 1 view .LVU508
 931:Middlewares/ST/STM32_USB_Device_Library/Class/CDC/Src/usbd_cdc.c ****   } else if (endpoint_pair == ODRIVE_OUT_EP) {
 1682              		.loc 1 931 12 is_stmt 0 view .LVU509
 1683 0018 00F14403 		add	r3, r0, #68
 1684              	.LVL178:
 931:Middlewares/ST/STM32_USB_Device_Library/Class/CDC/Src/usbd_cdc.c ****   } else if (endpoint_pair == ODRIVE_OUT_EP) {
 1685              		.loc 1 931 12 view .LVU510
 1686 001c F8E7     		b	.L120
 1687              	.LVL179:
 1688              	.L122:
 935:Middlewares/ST/STM32_USB_Device_Library/Class/CDC/Src/usbd_cdc.c ****   }
 1689              		.loc 1 935 12 view .LVU511
 1690 001e 0320     		movs	r0, #3
 1691              	.LVL180:
 942:Middlewares/ST/STM32_USB_Device_Library/Class/CDC/Src/usbd_cdc.c **** 
 1692              		.loc 1 942 1 view .LVU512
ARM GAS  C:\Users\ADMINI~1\AppData\Local\Temp\cccmLDA3.s 			page 60


 1693 0020 7047     		bx	lr
 1694              		.cfi_endproc
 1695              	.LFE145:
 1697              		.section	.text.USBD_CDC_SetRxBuffer,"ax",%progbits
 1698              		.align	1
 1699              		.global	USBD_CDC_SetRxBuffer
 1700              		.syntax unified
 1701              		.thumb
 1702              		.thumb_func
 1704              	USBD_CDC_SetRxBuffer:
 1705              	.LVL181:
 1706              	.LFB146:
 953:Middlewares/ST/STM32_USB_Device_Library/Class/CDC/Src/usbd_cdc.c ****   USBD_CDC_HandleTypeDef   *hcdc = (USBD_CDC_HandleTypeDef*) pdev->pClassData;
 1707              		.loc 1 953 1 is_stmt 1 view -0
 1708              		.cfi_startproc
 1709              		@ args = 0, pretend = 0, frame = 0
 1710              		@ frame_needed = 0, uses_anonymous_args = 0
 1711              		@ link register save eliminated.
 954:Middlewares/ST/STM32_USB_Device_Library/Class/CDC/Src/usbd_cdc.c **** 
 1712              		.loc 1 954 3 view .LVU514
 954:Middlewares/ST/STM32_USB_Device_Library/Class/CDC/Src/usbd_cdc.c **** 
 1713              		.loc 1 954 29 is_stmt 0 view .LVU515
 1714 0000 D0F8BC32 		ldr	r3, [r0, #700]
 1715              	.LVL182:
 956:Middlewares/ST/STM32_USB_Device_Library/Class/CDC/Src/usbd_cdc.c ****   if (endpoint_pair == CDC_OUT_EP) {
 1716              		.loc 1 956 3 is_stmt 1 view .LVU516
 957:Middlewares/ST/STM32_USB_Device_Library/Class/CDC/Src/usbd_cdc.c ****     hEP_Rx = &hcdc->CDC_Rx;
 1717              		.loc 1 957 3 view .LVU517
 957:Middlewares/ST/STM32_USB_Device_Library/Class/CDC/Src/usbd_cdc.c ****     hEP_Rx = &hcdc->CDC_Rx;
 1718              		.loc 1 957 6 is_stmt 0 view .LVU518
 1719 0004 012A     		cmp	r2, #1
 1720 0006 05D0     		beq	.L129
 959:Middlewares/ST/STM32_USB_Device_Library/Class/CDC/Src/usbd_cdc.c ****     hEP_Rx = &hcdc->ODRIVE_Rx;
 1721              		.loc 1 959 10 is_stmt 1 view .LVU519
 959:Middlewares/ST/STM32_USB_Device_Library/Class/CDC/Src/usbd_cdc.c ****     hEP_Rx = &hcdc->ODRIVE_Rx;
 1722              		.loc 1 959 13 is_stmt 0 view .LVU520
 1723 0008 032A     		cmp	r2, #3
 1724 000a 05D1     		bne	.L128
 960:Middlewares/ST/STM32_USB_Device_Library/Class/CDC/Src/usbd_cdc.c ****   } else {
 1725              		.loc 1 960 5 is_stmt 1 view .LVU521
 960:Middlewares/ST/STM32_USB_Device_Library/Class/CDC/Src/usbd_cdc.c ****   } else {
 1726              		.loc 1 960 12 is_stmt 0 view .LVU522
 1727 000c 6833     		adds	r3, r3, #104
 1728              	.LVL183:
 1729              	.L126:
 965:Middlewares/ST/STM32_USB_Device_Library/Class/CDC/Src/usbd_cdc.c ****   
 1730              		.loc 1 965 3 is_stmt 1 view .LVU523
 965:Middlewares/ST/STM32_USB_Device_Library/Class/CDC/Src/usbd_cdc.c ****   
 1731              		.loc 1 965 18 is_stmt 0 view .LVU524
 1732 000e 1960     		str	r1, [r3]
 1733              	.LVL184:
 967:Middlewares/ST/STM32_USB_Device_Library/Class/CDC/Src/usbd_cdc.c **** }
 1734              		.loc 1 967 3 is_stmt 1 view .LVU525
 967:Middlewares/ST/STM32_USB_Device_Library/Class/CDC/Src/usbd_cdc.c **** }
 1735              		.loc 1 967 10 is_stmt 0 view .LVU526
 1736 0010 0020     		movs	r0, #0
 1737              	.LVL185:
ARM GAS  C:\Users\ADMINI~1\AppData\Local\Temp\cccmLDA3.s 			page 61


 967:Middlewares/ST/STM32_USB_Device_Library/Class/CDC/Src/usbd_cdc.c **** }
 1738              		.loc 1 967 10 view .LVU527
 1739 0012 7047     		bx	lr
 1740              	.LVL186:
 1741              	.L129:
 958:Middlewares/ST/STM32_USB_Device_Library/Class/CDC/Src/usbd_cdc.c ****   } else if (endpoint_pair == ODRIVE_OUT_EP) {
 1742              		.loc 1 958 5 is_stmt 1 view .LVU528
 958:Middlewares/ST/STM32_USB_Device_Library/Class/CDC/Src/usbd_cdc.c ****   } else if (endpoint_pair == ODRIVE_OUT_EP) {
 1743              		.loc 1 958 12 is_stmt 0 view .LVU529
 1744 0014 5033     		adds	r3, r3, #80
 1745              	.LVL187:
 958:Middlewares/ST/STM32_USB_Device_Library/Class/CDC/Src/usbd_cdc.c ****   } else if (endpoint_pair == ODRIVE_OUT_EP) {
 1746              		.loc 1 958 12 view .LVU530
 1747 0016 FAE7     		b	.L126
 1748              	.LVL188:
 1749              	.L128:
 962:Middlewares/ST/STM32_USB_Device_Library/Class/CDC/Src/usbd_cdc.c ****   }
 1750              		.loc 1 962 12 view .LVU531
 1751 0018 0320     		movs	r0, #3
 1752              	.LVL189:
 968:Middlewares/ST/STM32_USB_Device_Library/Class/CDC/Src/usbd_cdc.c **** 
 1753              		.loc 1 968 1 view .LVU532
 1754 001a 7047     		bx	lr
 1755              		.cfi_endproc
 1756              	.LFE146:
 1758              		.section	.text.USBD_CDC_TransmitPacket,"ax",%progbits
 1759              		.align	1
 1760              		.global	USBD_CDC_TransmitPacket
 1761              		.syntax unified
 1762              		.thumb
 1763              		.thumb_func
 1765              	USBD_CDC_TransmitPacket:
 1766              	.LVL190:
 1767              	.LFB147:
 978:Middlewares/ST/STM32_USB_Device_Library/Class/CDC/Src/usbd_cdc.c ****   USBD_CDC_HandleTypeDef *hcdc = (USBD_CDC_HandleTypeDef *)pdev->pClassDataCmsit[pdev->classId];
 1768              		.loc 1 978 1 is_stmt 1 view -0
 1769              		.cfi_startproc
 1770              		@ args = 0, pretend = 0, frame = 0
 1771              		@ frame_needed = 0, uses_anonymous_args = 0
 978:Middlewares/ST/STM32_USB_Device_Library/Class/CDC/Src/usbd_cdc.c ****   USBD_CDC_HandleTypeDef *hcdc = (USBD_CDC_HandleTypeDef *)pdev->pClassDataCmsit[pdev->classId];
 1772              		.loc 1 978 1 is_stmt 0 view .LVU534
 1773 0000 10B5     		push	{r4, lr}
 1774              	.LCFI17:
 1775              		.cfi_def_cfa_offset 8
 1776              		.cfi_offset 4, -8
 1777              		.cfi_offset 14, -4
 979:Middlewares/ST/STM32_USB_Device_Library/Class/CDC/Src/usbd_cdc.c ****   USBD_StatusTypeDef ret = USBD_BUSY;
 1778              		.loc 1 979 3 is_stmt 1 view .LVU535
 979:Middlewares/ST/STM32_USB_Device_Library/Class/CDC/Src/usbd_cdc.c ****   USBD_StatusTypeDef ret = USBD_BUSY;
 1779              		.loc 1 979 86 is_stmt 0 view .LVU536
 1780 0002 D0F8D432 		ldr	r3, [r0, #724]
 979:Middlewares/ST/STM32_USB_Device_Library/Class/CDC/Src/usbd_cdc.c ****   USBD_StatusTypeDef ret = USBD_BUSY;
 1781              		.loc 1 979 27 view .LVU537
 1782 0006 B033     		adds	r3, r3, #176
 1783 0008 50F82320 		ldr	r2, [r0, r3, lsl #2]
 1784              	.LVL191:
 980:Middlewares/ST/STM32_USB_Device_Library/Class/CDC/Src/usbd_cdc.c **** 
ARM GAS  C:\Users\ADMINI~1\AppData\Local\Temp\cccmLDA3.s 			page 62


 1785              		.loc 1 980 3 is_stmt 1 view .LVU538
 986:Middlewares/ST/STM32_USB_Device_Library/Class/CDC/Src/usbd_cdc.c ****   {
 1786              		.loc 1 986 3 view .LVU539
 986:Middlewares/ST/STM32_USB_Device_Library/Class/CDC/Src/usbd_cdc.c ****   {
 1787              		.loc 1 986 6 is_stmt 0 view .LVU540
 1788 000c C2B1     		cbz	r2, .L134
 990:Middlewares/ST/STM32_USB_Device_Library/Class/CDC/Src/usbd_cdc.c ****   uint8_t in_ep;
 1789              		.loc 1 990 3 is_stmt 1 view .LVU541
 991:Middlewares/ST/STM32_USB_Device_Library/Class/CDC/Src/usbd_cdc.c ****   if (endpoint_pair == CDC_OUT_EP) {
 1790              		.loc 1 991 3 view .LVU542
 992:Middlewares/ST/STM32_USB_Device_Library/Class/CDC/Src/usbd_cdc.c ****     hEP_Tx = &hcdc->CDC_Tx;
 1791              		.loc 1 992 3 view .LVU543
 992:Middlewares/ST/STM32_USB_Device_Library/Class/CDC/Src/usbd_cdc.c ****     hEP_Tx = &hcdc->CDC_Tx;
 1792              		.loc 1 992 6 is_stmt 0 view .LVU544
 1793 000e 0129     		cmp	r1, #1
 1794 0010 0AD0     		beq	.L138
 995:Middlewares/ST/STM32_USB_Device_Library/Class/CDC/Src/usbd_cdc.c ****     hEP_Tx = &hcdc->ODRIVE_Tx;
 1795              		.loc 1 995 10 is_stmt 1 view .LVU545
 995:Middlewares/ST/STM32_USB_Device_Library/Class/CDC/Src/usbd_cdc.c ****     hEP_Tx = &hcdc->ODRIVE_Tx;
 1796              		.loc 1 995 13 is_stmt 0 view .LVU546
 1797 0012 0329     		cmp	r1, #3
 1798 0014 16D1     		bne	.L135
 996:Middlewares/ST/STM32_USB_Device_Library/Class/CDC/Src/usbd_cdc.c ****     in_ep = ODRIVE_IN_EP;
 1799              		.loc 1 996 5 is_stmt 1 view .LVU547
 996:Middlewares/ST/STM32_USB_Device_Library/Class/CDC/Src/usbd_cdc.c ****     in_ep = ODRIVE_IN_EP;
 1800              		.loc 1 996 12 is_stmt 0 view .LVU548
 1801 0016 5C32     		adds	r2, r2, #92
 1802              	.LVL192:
 997:Middlewares/ST/STM32_USB_Device_Library/Class/CDC/Src/usbd_cdc.c ****   } else {
 1803              		.loc 1 997 5 is_stmt 1 view .LVU549
 997:Middlewares/ST/STM32_USB_Device_Library/Class/CDC/Src/usbd_cdc.c ****   } else {
 1804              		.loc 1 997 11 is_stmt 0 view .LVU550
 1805 0018 8321     		movs	r1, #131
 1806              	.LVL193:
 1807              	.L133:
1001:Middlewares/ST/STM32_USB_Device_Library/Class/CDC/Src/usbd_cdc.c ****   {
 1808              		.loc 1 1001 3 is_stmt 1 view .LVU551
1001:Middlewares/ST/STM32_USB_Device_Library/Class/CDC/Src/usbd_cdc.c ****   {
 1809              		.loc 1 1001 13 is_stmt 0 view .LVU552
 1810 001a 137A     		ldrb	r3, [r2, #8]	@ zero_extendqisi2
 1811              	.LVL194:
1001:Middlewares/ST/STM32_USB_Device_Library/Class/CDC/Src/usbd_cdc.c ****   {
 1812              		.loc 1 1001 6 view .LVU553
 1813 001c 03F0FF04 		and	r4, r3, #255
 1814 0020 2BB1     		cbz	r3, .L139
 980:Middlewares/ST/STM32_USB_Device_Library/Class/CDC/Src/usbd_cdc.c **** 
 1815              		.loc 1 980 22 view .LVU554
 1816 0022 0124     		movs	r4, #1
 1817              	.LVL195:
 1818              	.L131:
1016:Middlewares/ST/STM32_USB_Device_Library/Class/CDC/Src/usbd_cdc.c **** 
 1819              		.loc 1 1016 1 view .LVU555
 1820 0024 2046     		mov	r0, r4
 1821 0026 10BD     		pop	{r4, pc}
 1822              	.LVL196:
 1823              	.L138:
 993:Middlewares/ST/STM32_USB_Device_Library/Class/CDC/Src/usbd_cdc.c ****     in_ep = CDC_IN_EP;
ARM GAS  C:\Users\ADMINI~1\AppData\Local\Temp\cccmLDA3.s 			page 63


 1824              		.loc 1 993 5 is_stmt 1 view .LVU556
 993:Middlewares/ST/STM32_USB_Device_Library/Class/CDC/Src/usbd_cdc.c ****     in_ep = CDC_IN_EP;
 1825              		.loc 1 993 12 is_stmt 0 view .LVU557
 1826 0028 4432     		adds	r2, r2, #68
 1827              	.LVL197:
 994:Middlewares/ST/STM32_USB_Device_Library/Class/CDC/Src/usbd_cdc.c ****   } else if (endpoint_pair == ODRIVE_OUT_EP) {
 1828              		.loc 1 994 5 is_stmt 1 view .LVU558
 994:Middlewares/ST/STM32_USB_Device_Library/Class/CDC/Src/usbd_cdc.c ****   } else if (endpoint_pair == ODRIVE_OUT_EP) {
 1829              		.loc 1 994 11 is_stmt 0 view .LVU559
 1830 002a 8121     		movs	r1, #129
 1831              	.LVL198:
 994:Middlewares/ST/STM32_USB_Device_Library/Class/CDC/Src/usbd_cdc.c ****   } else if (endpoint_pair == ODRIVE_OUT_EP) {
 1832              		.loc 1 994 11 view .LVU560
 1833 002c F5E7     		b	.L133
 1834              	.LVL199:
 1835              	.L139:
1004:Middlewares/ST/STM32_USB_Device_Library/Class/CDC/Src/usbd_cdc.c **** 
 1836              		.loc 1 1004 5 is_stmt 1 view .LVU561
1004:Middlewares/ST/STM32_USB_Device_Library/Class/CDC/Src/usbd_cdc.c **** 
 1837              		.loc 1 1004 19 is_stmt 0 view .LVU562
 1838 002e 0123     		movs	r3, #1
 1839 0030 1372     		strb	r3, [r2, #8]
 1840              	.LVL200:
1007:Middlewares/ST/STM32_USB_Device_Library/Class/CDC/Src/usbd_cdc.c **** 
 1841              		.loc 1 1007 5 is_stmt 1 view .LVU563
1007:Middlewares/ST/STM32_USB_Device_Library/Class/CDC/Src/usbd_cdc.c **** 
 1842              		.loc 1 1007 57 is_stmt 0 view .LVU564
 1843 0032 5368     		ldr	r3, [r2, #4]
1007:Middlewares/ST/STM32_USB_Device_Library/Class/CDC/Src/usbd_cdc.c **** 
 1844              		.loc 1 1007 49 view .LVU565
 1845 0034 C362     		str	r3, [r0, #44]
1010:Middlewares/ST/STM32_USB_Device_Library/Class/CDC/Src/usbd_cdc.c **** 
 1846              		.loc 1 1010 5 is_stmt 1 view .LVU566
1010:Middlewares/ST/STM32_USB_Device_Library/Class/CDC/Src/usbd_cdc.c **** 
 1847              		.loc 1 1010 11 is_stmt 0 view .LVU567
 1848 0036 5368     		ldr	r3, [r2, #4]
 1849 0038 1268     		ldr	r2, [r2]
 1850              	.LVL201:
1010:Middlewares/ST/STM32_USB_Device_Library/Class/CDC/Src/usbd_cdc.c **** 
 1851              		.loc 1 1010 11 view .LVU568
 1852 003a FFF7FEFF 		bl	USBD_LL_Transmit
 1853              	.LVL202:
1012:Middlewares/ST/STM32_USB_Device_Library/Class/CDC/Src/usbd_cdc.c ****   }
 1854              		.loc 1 1012 5 is_stmt 1 view .LVU569
1012:Middlewares/ST/STM32_USB_Device_Library/Class/CDC/Src/usbd_cdc.c ****   }
 1855              		.loc 1 1012 5 is_stmt 0 view .LVU570
 1856 003e F1E7     		b	.L131
 1857              	.LVL203:
 1858              	.L134:
 988:Middlewares/ST/STM32_USB_Device_Library/Class/CDC/Src/usbd_cdc.c ****   }
 1859              		.loc 1 988 12 view .LVU571
 1860 0040 0324     		movs	r4, #3
 1861 0042 EFE7     		b	.L131
 1862              	.L135:
 999:Middlewares/ST/STM32_USB_Device_Library/Class/CDC/Src/usbd_cdc.c ****   }
 1863              		.loc 1 999 12 view .LVU572
 1864 0044 0324     		movs	r4, #3
ARM GAS  C:\Users\ADMINI~1\AppData\Local\Temp\cccmLDA3.s 			page 64


 1865 0046 EDE7     		b	.L131
 1866              		.cfi_endproc
 1867              	.LFE147:
 1869              		.section	.text.USBD_CDC_ReceivePacket,"ax",%progbits
 1870              		.align	1
 1871              		.global	USBD_CDC_ReceivePacket
 1872              		.syntax unified
 1873              		.thumb
 1874              		.thumb_func
 1876              	USBD_CDC_ReceivePacket:
 1877              	.LVL204:
 1878              	.LFB148:
1025:Middlewares/ST/STM32_USB_Device_Library/Class/CDC/Src/usbd_cdc.c ****   USBD_CDC_HandleTypeDef *hcdc = (USBD_CDC_HandleTypeDef *)pdev->pClassDataCmsit[pdev->classId];
 1879              		.loc 1 1025 1 is_stmt 1 view -0
 1880              		.cfi_startproc
 1881              		@ args = 0, pretend = 0, frame = 0
 1882              		@ frame_needed = 0, uses_anonymous_args = 0
1025:Middlewares/ST/STM32_USB_Device_Library/Class/CDC/Src/usbd_cdc.c ****   USBD_CDC_HandleTypeDef *hcdc = (USBD_CDC_HandleTypeDef *)pdev->pClassDataCmsit[pdev->classId];
 1883              		.loc 1 1025 1 is_stmt 0 view .LVU574
 1884 0000 10B5     		push	{r4, lr}
 1885              	.LCFI18:
 1886              		.cfi_def_cfa_offset 8
 1887              		.cfi_offset 4, -8
 1888              		.cfi_offset 14, -4
1026:Middlewares/ST/STM32_USB_Device_Library/Class/CDC/Src/usbd_cdc.c **** 
 1889              		.loc 1 1026 3 is_stmt 1 view .LVU575
1026:Middlewares/ST/STM32_USB_Device_Library/Class/CDC/Src/usbd_cdc.c **** 
 1890              		.loc 1 1026 86 is_stmt 0 view .LVU576
 1891 0002 D0F8D432 		ldr	r3, [r0, #724]
1026:Middlewares/ST/STM32_USB_Device_Library/Class/CDC/Src/usbd_cdc.c **** 
 1892              		.loc 1 1026 27 view .LVU577
 1893 0006 B033     		adds	r3, r3, #176
 1894 0008 50F82320 		ldr	r2, [r0, r3, lsl #2]
 1895              	.LVL205:
1033:Middlewares/ST/STM32_USB_Device_Library/Class/CDC/Src/usbd_cdc.c ****   {
 1896              		.loc 1 1033 3 is_stmt 1 view .LVU578
1033:Middlewares/ST/STM32_USB_Device_Library/Class/CDC/Src/usbd_cdc.c ****   {
 1897              		.loc 1 1033 6 is_stmt 0 view .LVU579
 1898 000c A2B1     		cbz	r2, .L145
1038:Middlewares/ST/STM32_USB_Device_Library/Class/CDC/Src/usbd_cdc.c ****   uint8_t out_ep;
 1899              		.loc 1 1038 3 is_stmt 1 view .LVU580
1039:Middlewares/ST/STM32_USB_Device_Library/Class/CDC/Src/usbd_cdc.c ****   if (endpoint_pair == CDC_OUT_EP) {
 1900              		.loc 1 1039 3 view .LVU581
1040:Middlewares/ST/STM32_USB_Device_Library/Class/CDC/Src/usbd_cdc.c ****     hEP_Rx = &hcdc->CDC_Rx;
 1901              		.loc 1 1040 3 view .LVU582
1040:Middlewares/ST/STM32_USB_Device_Library/Class/CDC/Src/usbd_cdc.c ****     hEP_Rx = &hcdc->CDC_Rx;
 1902              		.loc 1 1040 6 is_stmt 0 view .LVU583
 1903 000e 0129     		cmp	r1, #1
 1904 0010 0AD0     		beq	.L148
1043:Middlewares/ST/STM32_USB_Device_Library/Class/CDC/Src/usbd_cdc.c ****     hEP_Rx = &hcdc->ODRIVE_Rx;
 1905              		.loc 1 1043 10 is_stmt 1 view .LVU584
1043:Middlewares/ST/STM32_USB_Device_Library/Class/CDC/Src/usbd_cdc.c ****     hEP_Rx = &hcdc->ODRIVE_Rx;
 1906              		.loc 1 1043 13 is_stmt 0 view .LVU585
 1907 0012 0329     		cmp	r1, #3
 1908 0014 12D1     		bne	.L146
1044:Middlewares/ST/STM32_USB_Device_Library/Class/CDC/Src/usbd_cdc.c ****     out_ep = ODRIVE_OUT_EP;
 1909              		.loc 1 1044 5 is_stmt 1 view .LVU586
ARM GAS  C:\Users\ADMINI~1\AppData\Local\Temp\cccmLDA3.s 			page 65


1044:Middlewares/ST/STM32_USB_Device_Library/Class/CDC/Src/usbd_cdc.c ****     out_ep = ODRIVE_OUT_EP;
 1910              		.loc 1 1044 12 is_stmt 0 view .LVU587
 1911 0016 6832     		adds	r2, r2, #104
 1912              	.LVL206:
1045:Middlewares/ST/STM32_USB_Device_Library/Class/CDC/Src/usbd_cdc.c ****   } else {
 1913              		.loc 1 1045 5 is_stmt 1 view .LVU588
 1914              	.L143:
1050:Middlewares/ST/STM32_USB_Device_Library/Class/CDC/Src/usbd_cdc.c ****   {
 1915              		.loc 1 1050 3 view .LVU589
1050:Middlewares/ST/STM32_USB_Device_Library/Class/CDC/Src/usbd_cdc.c ****   {
 1916              		.loc 1 1050 11 is_stmt 0 view .LVU590
 1917 0018 047C     		ldrb	r4, [r0, #16]	@ zero_extendqisi2
1050:Middlewares/ST/STM32_USB_Device_Library/Class/CDC/Src/usbd_cdc.c ****   {
 1918              		.loc 1 1050 6 view .LVU591
 1919 001a 3CB9     		cbnz	r4, .L144
1053:Middlewares/ST/STM32_USB_Device_Library/Class/CDC/Src/usbd_cdc.c ****                                  CDC_DATA_HS_OUT_PACKET_SIZE);
 1920              		.loc 1 1053 5 is_stmt 1 view .LVU592
1053:Middlewares/ST/STM32_USB_Device_Library/Class/CDC/Src/usbd_cdc.c ****                                  CDC_DATA_HS_OUT_PACKET_SIZE);
 1921              		.loc 1 1053 11 is_stmt 0 view .LVU593
 1922 001c 4023     		movs	r3, #64
 1923              	.LVL207:
1053:Middlewares/ST/STM32_USB_Device_Library/Class/CDC/Src/usbd_cdc.c ****                                  CDC_DATA_HS_OUT_PACKET_SIZE);
 1924              		.loc 1 1053 11 view .LVU594
 1925 001e 1268     		ldr	r2, [r2]
 1926              	.LVL208:
1053:Middlewares/ST/STM32_USB_Device_Library/Class/CDC/Src/usbd_cdc.c ****                                  CDC_DATA_HS_OUT_PACKET_SIZE);
 1927              		.loc 1 1053 11 view .LVU595
 1928 0020 FFF7FEFF 		bl	USBD_LL_PrepareReceive
 1929              	.LVL209:
 1930              	.L141:
1064:Middlewares/ST/STM32_USB_Device_Library/Class/CDC/Src/usbd_cdc.c **** /**
 1931              		.loc 1 1064 1 view .LVU596
 1932 0024 2046     		mov	r0, r4
 1933 0026 10BD     		pop	{r4, pc}
 1934              	.LVL210:
 1935              	.L148:
1041:Middlewares/ST/STM32_USB_Device_Library/Class/CDC/Src/usbd_cdc.c ****     out_ep = CDC_OUT_EP;
 1936              		.loc 1 1041 5 is_stmt 1 view .LVU597
1041:Middlewares/ST/STM32_USB_Device_Library/Class/CDC/Src/usbd_cdc.c ****     out_ep = CDC_OUT_EP;
 1937              		.loc 1 1041 12 is_stmt 0 view .LVU598
 1938 0028 5032     		adds	r2, r2, #80
 1939              	.LVL211:
1042:Middlewares/ST/STM32_USB_Device_Library/Class/CDC/Src/usbd_cdc.c ****   } else if (endpoint_pair == ODRIVE_OUT_EP) {
 1940              		.loc 1 1042 5 is_stmt 1 view .LVU599
1042:Middlewares/ST/STM32_USB_Device_Library/Class/CDC/Src/usbd_cdc.c ****   } else if (endpoint_pair == ODRIVE_OUT_EP) {
 1941              		.loc 1 1042 5 is_stmt 0 view .LVU600
 1942 002a F5E7     		b	.L143
 1943              	.LVL212:
 1944              	.L144:
1059:Middlewares/ST/STM32_USB_Device_Library/Class/CDC/Src/usbd_cdc.c ****                                  CDC_DATA_FS_OUT_PACKET_SIZE);
 1945              		.loc 1 1059 5 is_stmt 1 view .LVU601
1059:Middlewares/ST/STM32_USB_Device_Library/Class/CDC/Src/usbd_cdc.c ****                                  CDC_DATA_FS_OUT_PACKET_SIZE);
 1946              		.loc 1 1059 11 is_stmt 0 view .LVU602
 1947 002c 4023     		movs	r3, #64
 1948              	.LVL213:
1059:Middlewares/ST/STM32_USB_Device_Library/Class/CDC/Src/usbd_cdc.c ****                                  CDC_DATA_FS_OUT_PACKET_SIZE);
 1949              		.loc 1 1059 11 view .LVU603
ARM GAS  C:\Users\ADMINI~1\AppData\Local\Temp\cccmLDA3.s 			page 66


 1950 002e 1268     		ldr	r2, [r2]
 1951              	.LVL214:
1059:Middlewares/ST/STM32_USB_Device_Library/Class/CDC/Src/usbd_cdc.c ****                                  CDC_DATA_FS_OUT_PACKET_SIZE);
 1952              		.loc 1 1059 11 view .LVU604
 1953 0030 FFF7FEFF 		bl	USBD_LL_PrepareReceive
 1954              	.LVL215:
1063:Middlewares/ST/STM32_USB_Device_Library/Class/CDC/Src/usbd_cdc.c **** }
 1955              		.loc 1 1063 10 view .LVU605
 1956 0034 0024     		movs	r4, #0
 1957 0036 F5E7     		b	.L141
 1958              	.LVL216:
 1959              	.L145:
1035:Middlewares/ST/STM32_USB_Device_Library/Class/CDC/Src/usbd_cdc.c ****   }
 1960              		.loc 1 1035 12 view .LVU606
 1961 0038 0324     		movs	r4, #3
 1962 003a F3E7     		b	.L141
 1963              	.L146:
1047:Middlewares/ST/STM32_USB_Device_Library/Class/CDC/Src/usbd_cdc.c ****   }
 1964              		.loc 1 1047 12 view .LVU607
 1965 003c 0324     		movs	r4, #3
 1966 003e F1E7     		b	.L141
 1967              		.cfi_endproc
 1968              	.LFE148:
 1970              		.global	USBD_WinUSBComm_Extended_Properties_OS_Desc
 1971              		.global	USBD_WinUSBComm_Extended_Compat_ID_OS_Desc
 1972              		.global	USBD_CDC
 1973              		.section	.data.USBD_CDC,"aw"
 1974              		.align	2
 1977              	USBD_CDC:
 1978 0000 00000000 		.word	USBD_CDC_Init
 1979 0004 00000000 		.word	USBD_CDC_DeInit
 1980 0008 00000000 		.word	USBD_CDC_Setup
 1981 000c 00000000 		.word	0
 1982 0010 00000000 		.word	USBD_CDC_EP0_RxReady
 1983 0014 00000000 		.word	USBD_CDC_DataIn
 1984 0018 00000000 		.word	USBD_CDC_DataOut
 1985 001c 00000000 		.word	0
 1986 0020 00000000 		.word	0
 1987 0024 00000000 		.word	0
 1988 0028 00000000 		.word	USBD_CDC_GetHSCfgDesc
 1989 002c 00000000 		.word	USBD_CDC_GetFSCfgDesc
 1990 0030 00000000 		.word	USBD_CDC_GetOtherSpeedCfgDesc
 1991 0034 00000000 		.word	USBD_CDC_GetDeviceQualifierDescriptor
 1992 0038 00000000 		.word	USBD_UsrStrDescriptor
 1993              		.section	.data.USBD_CDC_CfgDesc,"aw"
 1994              		.align	2
 1995              		.set	.LANCHOR1,. + 0
 1998              	USBD_CDC_CfgDesc:
 1999 0000 09026A00 		.ascii	"\011\002j\000\003\001\000\3002\010\013\000\002\002\002"
 1999      030100C0 
 1999      32080B00 
 1999      020202
 2000 000f 01000904 		.ascii	"\001\000\011\004\000\000\001\002\002\001\000\005$\000"
 2000      00000102 
 2000      02010005 
 2000      2400
 2001 001d 10010524 		.ascii	"\020\001\005$\001\000\001\004$\002\002\005$\006\000"
ARM GAS  C:\Users\ADMINI~1\AppData\Local\Temp\cccmLDA3.s 			page 67


 2001      01000104 
 2001      24020205 
 2001      240600
 2002 002c 01070582 		.ascii	"\001\007\005\202\003\010\000\020\011\004\001\000\002"
 2002      03080010 
 2002      09040100 
 2002      02
 2003 0039 0A000000 		.ascii	"\012\000\000\000\007\005\001\002@\000\000\007\005\201"
 2003      07050102 
 2003      40000007 
 2003      0581
 2004 0047 02400000 		.ascii	"\002@\000\000\010\013\002\001\000\000\000\006\011\004"
 2004      080B0201 
 2004      00000006 
 2004      0904
 2005 0055 02000200 		.ascii	"\002\000\002\000\001\000\000\007\005\003\002@\000\000"
 2005      01000007 
 2005      05030240 
 2005      0000
 2006 0063 07058302 		.ascii	"\007\005\203\002@\000\000"
 2006      400000
 2007              		.section	.data.USBD_CDC_DeviceQualifierDesc,"aw"
 2008              		.align	2
 2009              		.set	.LANCHOR0,. + 0
 2012              	USBD_CDC_DeviceQualifierDesc:
 2013 0000 0A060002 		.ascii	"\012\006\000\002\000\000\000@\001\000"
 2013      00000040 
 2013      0100
 2014              		.section	.data.USBD_WinUSBComm_Extended_Compat_ID_OS_Desc,"aw"
 2015              		.align	2
 2016              		.set	.LANCHOR2,. + 0
 2019              	USBD_WinUSBComm_Extended_Compat_ID_OS_Desc:
 2020 0000 28000000 		.ascii	"(\000\000\000\000\001\004\000\001\000\000\000\000\000"
 2020      00010400 
 2020      01000000 
 2020      0000
 2021 000e 00000200 		.ascii	"\000\000\002\000WINUSB\000\000\000\000\000\000\000\000"
 2021      57494E55 
 2021      53420000 
 2021      00000000 
 2021      0000
 2022 0020 00000000 		.ascii	"\000\000\000\000\000\000\000\000"
 2022      00000000 
 2023              		.section	.data.USBD_WinUSBComm_Extended_Properties_OS_Desc,"aw"
 2024              		.align	2
 2025              		.set	.LANCHOR3,. + 0
 2028              	USBD_WinUSBComm_Extended_Properties_OS_Desc:
 2029 0000 B6000000 		.ascii	"\266\000\000\000\000\001\005\000\002\000\204\000\000"
 2029      00010500 
 2029      02008400 
 2029      00
 2030 000d 00010000 		.ascii	"\000\001\000\000\000(\000D\000e\000v\000i\000c\000e"
 2030      00280044 
 2030      00650076 
 2030      00690063 
 2030      0065
 2031 001f 0049006E 		.ascii	"\000I\000n\000t\000e\000r\000f\000a\000c\000e\000G\000"
ARM GAS  C:\Users\ADMINI~1\AppData\Local\Temp\cccmLDA3.s 			page 68


 2031      00740065 
 2031      00720066 
 2031      00610063 
 2031      00650047 
 2032 0034 55004900 		.ascii	"U\000I\000D\000\000\000N\000\000\000{\000E\000A\000"
 2032      44000000 
 2032      4E000000 
 2032      7B004500 
 2032      4100
 2033 0046 30004200 		.ascii	"0\000B\000D\0005\000C\0003\000-\0005\0000\000F\0003"
 2033      44003500 
 2033      43003300 
 2033      2D003500 
 2033      30004600 
 2034 005b 002D0034 		.ascii	"\000-\0004\0008\0008\0008\000-\0008\0004\000B\0004\000"
 2034      00380038 
 2034      0038002D 
 2034      00380034 
 2034      00420034 
 2035 0070 2D003700 		.ascii	"-\0007\0004\000E\0005\0000\000E\0001\0006\0004\0009"
 2035      34004500 
 2035      35003000 
 2035      45003100 
 2035      36003400 
 2036 0085 00440042 		.ascii	"\000D\000B\000}\000\000\000>\000\000\000\001\000\000"
 2036      007D0000 
 2036      003E0000 
 2036      00010000 
 2037 0095 000C004C 		.ascii	"\000\014\000L\000a\000b\000e\000l\000\000\000$\000\000"
 2037      00610062 
 2037      0065006C 
 2037      00000024 
 2037      0000
 2038 00a7 004F0044 		.ascii	"\000O\000D\000r\000i\000v\000e\000\000\000"
 2038      00720069 
 2038      00760065 
 2038      000000
 2039              		.text
 2040              	.Letext0:
 2041              		.file 2 "e:\\program files (x86)\\gnu arm embedded toolchain\\10 2021.10\\arm-none-eabi\\include\\
 2042              		.file 3 "e:\\program files (x86)\\gnu arm embedded toolchain\\10 2021.10\\arm-none-eabi\\include\\
 2043              		.file 4 "Drivers/CMSIS/Device/ST/STM32F4xx/Include/stm32f405xx.h"
 2044              		.file 5 "Drivers/STM32F4xx_HAL_Driver/Inc/stm32f4xx_hal_def.h"
 2045              		.file 6 "Drivers/STM32F4xx_HAL_Driver/Inc/stm32f4xx_ll_usb.h"
 2046              		.file 7 "Drivers/STM32F4xx_HAL_Driver/Inc/stm32f4xx_hal_pcd.h"
 2047              		.file 8 "Middlewares/ST/STM32_USB_Device_Library/Core/Inc/usbd_def.h"
 2048              		.file 9 "Middlewares/ST/STM32_USB_Device_Library/Class/CDC/Inc/usbd_cdc.h"
 2049              		.file 10 "Middlewares/ST/STM32_USB_Device_Library/Core/Inc/usbd_ctlreq.h"
 2050              		.file 11 "Middlewares/ST/STM32_USB_Device_Library/Core/Inc/usbd_ioreq.h"
 2051              		.file 12 "Middlewares/ST/STM32_USB_Device_Library/Core/Inc/usbd_core.h"
 2052              		.file 13 "Inc/usbd_conf.h"
 2053              		.file 14 "<built-in>"
ARM GAS  C:\Users\ADMINI~1\AppData\Local\Temp\cccmLDA3.s 			page 69


DEFINED SYMBOLS
                            *ABS*:00000000 usbd_cdc.c
C:\Users\ADMINI~1\AppData\Local\Temp\cccmLDA3.s:20     .text.USBD_CDC_EP0_RxReady:00000000 $t
C:\Users\ADMINI~1\AppData\Local\Temp\cccmLDA3.s:25     .text.USBD_CDC_EP0_RxReady:00000000 USBD_CDC_EP0_RxReady
C:\Users\ADMINI~1\AppData\Local\Temp\cccmLDA3.s:97     .text.USBD_CDC_GetDeviceQualifierDescriptor:00000000 $t
C:\Users\ADMINI~1\AppData\Local\Temp\cccmLDA3.s:103    .text.USBD_CDC_GetDeviceQualifierDescriptor:00000000 USBD_CDC_GetDeviceQualifierDescriptor
C:\Users\ADMINI~1\AppData\Local\Temp\cccmLDA3.s:124    .text.USBD_CDC_GetDeviceQualifierDescriptor:00000008 $d
C:\Users\ADMINI~1\AppData\Local\Temp\cccmLDA3.s:129    .text.USBD_CDC_GetOtherSpeedCfgDesc:00000000 $t
C:\Users\ADMINI~1\AppData\Local\Temp\cccmLDA3.s:134    .text.USBD_CDC_GetOtherSpeedCfgDesc:00000000 USBD_CDC_GetOtherSpeedCfgDesc
C:\Users\ADMINI~1\AppData\Local\Temp\cccmLDA3.s:224    .text.USBD_CDC_GetOtherSpeedCfgDesc:00000044 $d
C:\Users\ADMINI~1\AppData\Local\Temp\cccmLDA3.s:229    .text.USBD_CDC_GetFSCfgDesc:00000000 $t
C:\Users\ADMINI~1\AppData\Local\Temp\cccmLDA3.s:234    .text.USBD_CDC_GetFSCfgDesc:00000000 USBD_CDC_GetFSCfgDesc
C:\Users\ADMINI~1\AppData\Local\Temp\cccmLDA3.s:324    .text.USBD_CDC_GetFSCfgDesc:00000044 $d
C:\Users\ADMINI~1\AppData\Local\Temp\cccmLDA3.s:329    .text.USBD_CDC_GetHSCfgDesc:00000000 $t
C:\Users\ADMINI~1\AppData\Local\Temp\cccmLDA3.s:334    .text.USBD_CDC_GetHSCfgDesc:00000000 USBD_CDC_GetHSCfgDesc
C:\Users\ADMINI~1\AppData\Local\Temp\cccmLDA3.s:424    .text.USBD_CDC_GetHSCfgDesc:00000044 $d
C:\Users\ADMINI~1\AppData\Local\Temp\cccmLDA3.s:429    .text.USBD_CDC_DataOut:00000000 $t
C:\Users\ADMINI~1\AppData\Local\Temp\cccmLDA3.s:434    .text.USBD_CDC_DataOut:00000000 USBD_CDC_DataOut
C:\Users\ADMINI~1\AppData\Local\Temp\cccmLDA3.s:537    .text.USBD_CDC_DataIn:00000000 $t
C:\Users\ADMINI~1\AppData\Local\Temp\cccmLDA3.s:542    .text.USBD_CDC_DataIn:00000000 USBD_CDC_DataIn
C:\Users\ADMINI~1\AppData\Local\Temp\cccmLDA3.s:679    .text.USBD_WinUSBComm_GetMSExtendedCompatIDOSDescriptor:00000000 $t
C:\Users\ADMINI~1\AppData\Local\Temp\cccmLDA3.s:684    .text.USBD_WinUSBComm_GetMSExtendedCompatIDOSDescriptor:00000000 USBD_WinUSBComm_GetMSExtendedCompatIDOSDescriptor
C:\Users\ADMINI~1\AppData\Local\Temp\cccmLDA3.s:729    .text.USBD_WinUSBComm_GetMSExtendedCompatIDOSDescriptor:0000001c $d
C:\Users\ADMINI~1\AppData\Local\Temp\cccmLDA3.s:734    .text.USBD_WinUSBComm_SetupVendorDevice:00000000 $t
C:\Users\ADMINI~1\AppData\Local\Temp\cccmLDA3.s:739    .text.USBD_WinUSBComm_SetupVendorDevice:00000000 USBD_WinUSBComm_SetupVendorDevice
C:\Users\ADMINI~1\AppData\Local\Temp\cccmLDA3.s:763    .text.USBD_WinUSBComm_GetMSExtendedPropertiesOSDescriptor:00000000 $t
C:\Users\ADMINI~1\AppData\Local\Temp\cccmLDA3.s:768    .text.USBD_WinUSBComm_GetMSExtendedPropertiesOSDescriptor:00000000 USBD_WinUSBComm_GetMSExtendedPropertiesOSDescriptor
C:\Users\ADMINI~1\AppData\Local\Temp\cccmLDA3.s:831    .text.USBD_WinUSBComm_GetMSExtendedPropertiesOSDescriptor:00000028 $d
C:\Users\ADMINI~1\AppData\Local\Temp\cccmLDA3.s:836    .text.USBD_WinUSBComm_SetupVendorInterface:00000000 $t
C:\Users\ADMINI~1\AppData\Local\Temp\cccmLDA3.s:841    .text.USBD_WinUSBComm_SetupVendorInterface:00000000 USBD_WinUSBComm_SetupVendorInterface
C:\Users\ADMINI~1\AppData\Local\Temp\cccmLDA3.s:865    .text.USBD_WinUSBComm_SetupVendor:00000000 $t
C:\Users\ADMINI~1\AppData\Local\Temp\cccmLDA3.s:870    .text.USBD_WinUSBComm_SetupVendor:00000000 USBD_WinUSBComm_SetupVendor
C:\Users\ADMINI~1\AppData\Local\Temp\cccmLDA3.s:945    .text.USBD_CDC_Setup:00000000 $t
C:\Users\ADMINI~1\AppData\Local\Temp\cccmLDA3.s:950    .text.USBD_CDC_Setup:00000000 USBD_CDC_Setup
C:\Users\ADMINI~1\AppData\Local\Temp\cccmLDA3.s:1121   .text.USBD_CDC_Setup:000000b0 $d
C:\Users\ADMINI~1\AppData\Local\Temp\cccmLDA3.s:1133   .text.USBD_CDC_Setup:000000bc $t
C:\Users\ADMINI~1\AppData\Local\Temp\cccmLDA3.s:1259   .text.USBD_CDC_DeInit:00000000 $t
C:\Users\ADMINI~1\AppData\Local\Temp\cccmLDA3.s:1264   .text.USBD_CDC_DeInit:00000000 USBD_CDC_DeInit
C:\Users\ADMINI~1\AppData\Local\Temp\cccmLDA3.s:1368   .text.USBD_CDC_Init:00000000 $t
C:\Users\ADMINI~1\AppData\Local\Temp\cccmLDA3.s:1373   .text.USBD_CDC_Init:00000000 USBD_CDC_Init
C:\Users\ADMINI~1\AppData\Local\Temp\cccmLDA3.s:1594   .text.USBD_CDC_RegisterInterface:00000000 $t
C:\Users\ADMINI~1\AppData\Local\Temp\cccmLDA3.s:1600   .text.USBD_CDC_RegisterInterface:00000000 USBD_CDC_RegisterInterface
C:\Users\ADMINI~1\AppData\Local\Temp\cccmLDA3.s:1635   .text.USBD_CDC_SetTxBuffer:00000000 $t
C:\Users\ADMINI~1\AppData\Local\Temp\cccmLDA3.s:1641   .text.USBD_CDC_SetTxBuffer:00000000 USBD_CDC_SetTxBuffer
C:\Users\ADMINI~1\AppData\Local\Temp\cccmLDA3.s:1698   .text.USBD_CDC_SetRxBuffer:00000000 $t
C:\Users\ADMINI~1\AppData\Local\Temp\cccmLDA3.s:1704   .text.USBD_CDC_SetRxBuffer:00000000 USBD_CDC_SetRxBuffer
C:\Users\ADMINI~1\AppData\Local\Temp\cccmLDA3.s:1759   .text.USBD_CDC_TransmitPacket:00000000 $t
C:\Users\ADMINI~1\AppData\Local\Temp\cccmLDA3.s:1765   .text.USBD_CDC_TransmitPacket:00000000 USBD_CDC_TransmitPacket
C:\Users\ADMINI~1\AppData\Local\Temp\cccmLDA3.s:1870   .text.USBD_CDC_ReceivePacket:00000000 $t
C:\Users\ADMINI~1\AppData\Local\Temp\cccmLDA3.s:1876   .text.USBD_CDC_ReceivePacket:00000000 USBD_CDC_ReceivePacket
C:\Users\ADMINI~1\AppData\Local\Temp\cccmLDA3.s:2028   .data.USBD_WinUSBComm_Extended_Properties_OS_Desc:00000000 USBD_WinUSBComm_Extended_Properties_OS_Desc
C:\Users\ADMINI~1\AppData\Local\Temp\cccmLDA3.s:2019   .data.USBD_WinUSBComm_Extended_Compat_ID_OS_Desc:00000000 USBD_WinUSBComm_Extended_Compat_ID_OS_Desc
C:\Users\ADMINI~1\AppData\Local\Temp\cccmLDA3.s:1977   .data.USBD_CDC:00000000 USBD_CDC
C:\Users\ADMINI~1\AppData\Local\Temp\cccmLDA3.s:1974   .data.USBD_CDC:00000000 $d
C:\Users\ADMINI~1\AppData\Local\Temp\cccmLDA3.s:1994   .data.USBD_CDC_CfgDesc:00000000 $d
C:\Users\ADMINI~1\AppData\Local\Temp\cccmLDA3.s:1998   .data.USBD_CDC_CfgDesc:00000000 USBD_CDC_CfgDesc
C:\Users\ADMINI~1\AppData\Local\Temp\cccmLDA3.s:2008   .data.USBD_CDC_DeviceQualifierDesc:00000000 $d
ARM GAS  C:\Users\ADMINI~1\AppData\Local\Temp\cccmLDA3.s 			page 70


C:\Users\ADMINI~1\AppData\Local\Temp\cccmLDA3.s:2012   .data.USBD_CDC_DeviceQualifierDesc:00000000 USBD_CDC_DeviceQualifierDesc
C:\Users\ADMINI~1\AppData\Local\Temp\cccmLDA3.s:2015   .data.USBD_WinUSBComm_Extended_Compat_ID_OS_Desc:00000000 $d
C:\Users\ADMINI~1\AppData\Local\Temp\cccmLDA3.s:2024   .data.USBD_WinUSBComm_Extended_Properties_OS_Desc:00000000 $d

UNDEFINED SYMBOLS
USBD_GetEpDesc
USBD_LL_GetRxDataSize
USBD_LL_Transmit
USBD_CtlError
USBD_CtlSendData
USBD_CtlPrepareRx
USBD_LL_CloseEP
USBD_static_free
USBD_static_malloc
memset
USBD_LL_OpenEP
USBD_LL_PrepareReceive
USBD_UsrStrDescriptor
