ARM GAS  C:\Users\ADMINI~1\AppData\Local\Temp\cc1p207y.s 			page 1


   1              		.cpu cortex-m4
   2              		.arch armv7e-m
   3              		.fpu fpv4-sp-d16
   4              		.eabi_attribute 27, 1
   5              		.eabi_attribute 28, 1
   6              		.eabi_attribute 20, 1
   7              		.eabi_attribute 21, 1
   8              		.eabi_attribute 23, 3
   9              		.eabi_attribute 24, 1
  10              		.eabi_attribute 25, 1
  11              		.eabi_attribute 26, 1
  12              		.eabi_attribute 30, 1
  13              		.eabi_attribute 34, 1
  14              		.eabi_attribute 18, 4
  15              		.file	"usbd_desc.c"
  16              		.text
  17              	.Ltext0:
  18              		.cfi_sections	.debug_frame
  19              		.section	.text.USBD_FS_DeviceDescriptor,"ax",%progbits
  20              		.align	1
  21              		.global	USBD_FS_DeviceDescriptor
  22              		.syntax unified
  23              		.thumb
  24              		.thumb_func
  26              	USBD_FS_DeviceDescriptor:
  27              	.LVL0:
  28              	.LFB135:
  29              		.file 1 "Src/usbd_desc.c"
   1:Src/usbd_desc.c **** /* USER CODE BEGIN Header */
   2:Src/usbd_desc.c **** /**
   3:Src/usbd_desc.c ****   ******************************************************************************
   4:Src/usbd_desc.c ****   * @file           : usbd_desc.c
   5:Src/usbd_desc.c ****   * @version        : v1.0_Cube
   6:Src/usbd_desc.c ****   * @brief          : This file implements the USB device descriptors.
   7:Src/usbd_desc.c ****   ******************************************************************************
   8:Src/usbd_desc.c ****   * @attention
   9:Src/usbd_desc.c ****   *
  10:Src/usbd_desc.c ****   * Copyright (c) 2022 STMicroelectronics.
  11:Src/usbd_desc.c ****   * All rights reserved.
  12:Src/usbd_desc.c ****   *
  13:Src/usbd_desc.c ****   * This software is licensed under terms that can be found in the LICENSE file
  14:Src/usbd_desc.c ****   * in the root directory of this software component.
  15:Src/usbd_desc.c ****   * If no LICENSE file comes with this software, it is provided AS-IS.
  16:Src/usbd_desc.c ****   *
  17:Src/usbd_desc.c ****   ******************************************************************************
  18:Src/usbd_desc.c ****   */
  19:Src/usbd_desc.c **** /* USER CODE END Header */
  20:Src/usbd_desc.c **** 
  21:Src/usbd_desc.c **** /* Includes ------------------------------------------------------------------*/
  22:Src/usbd_desc.c **** #include "usbd_core.h"
  23:Src/usbd_desc.c **** #include "usbd_desc.h"
  24:Src/usbd_desc.c **** #include "usbd_conf.h"
  25:Src/usbd_desc.c **** 
  26:Src/usbd_desc.c **** /* USER CODE BEGIN INCLUDE */
  27:Src/usbd_desc.c **** 
  28:Src/usbd_desc.c **** /* USER CODE END INCLUDE */
  29:Src/usbd_desc.c **** 
ARM GAS  C:\Users\ADMINI~1\AppData\Local\Temp\cc1p207y.s 			page 2


  30:Src/usbd_desc.c **** /* Private typedef -----------------------------------------------------------*/
  31:Src/usbd_desc.c **** /* Private define ------------------------------------------------------------*/
  32:Src/usbd_desc.c **** /* Private macro -------------------------------------------------------------*/
  33:Src/usbd_desc.c **** 
  34:Src/usbd_desc.c **** /* USER CODE BEGIN PV */
  35:Src/usbd_desc.c **** /* Private variables ---------------------------------------------------------*/
  36:Src/usbd_desc.c **** 
  37:Src/usbd_desc.c **** /* USER CODE END PV */
  38:Src/usbd_desc.c **** 
  39:Src/usbd_desc.c **** /** @addtogroup STM32_USB_OTG_DEVICE_LIBRARY
  40:Src/usbd_desc.c ****   * @{
  41:Src/usbd_desc.c ****   */
  42:Src/usbd_desc.c **** 
  43:Src/usbd_desc.c **** /** @addtogroup USBD_DESC
  44:Src/usbd_desc.c ****   * @{
  45:Src/usbd_desc.c ****   */
  46:Src/usbd_desc.c **** 
  47:Src/usbd_desc.c **** /** @defgroup USBD_DESC_Private_TypesDefinitions USBD_DESC_Private_TypesDefinitions
  48:Src/usbd_desc.c ****   * @brief Private types.
  49:Src/usbd_desc.c ****   * @{
  50:Src/usbd_desc.c ****   */
  51:Src/usbd_desc.c **** 
  52:Src/usbd_desc.c **** /* USER CODE BEGIN PRIVATE_TYPES */
  53:Src/usbd_desc.c **** 
  54:Src/usbd_desc.c **** /* USER CODE END PRIVATE_TYPES */
  55:Src/usbd_desc.c **** 
  56:Src/usbd_desc.c **** /**
  57:Src/usbd_desc.c ****   * @}
  58:Src/usbd_desc.c ****   */
  59:Src/usbd_desc.c **** 
  60:Src/usbd_desc.c **** /** @defgroup USBD_DESC_Private_Defines USBD_DESC_Private_Defines
  61:Src/usbd_desc.c ****   * @brief Private defines.
  62:Src/usbd_desc.c ****   * @{
  63:Src/usbd_desc.c ****   */
  64:Src/usbd_desc.c **** 
  65:Src/usbd_desc.c **** #define USBD_VID     0x1209
  66:Src/usbd_desc.c **** #define USBD_LANGID_STRING     1033
  67:Src/usbd_desc.c **** #define USBD_MANUFACTURER_STRING     "STMicroelectronics"
  68:Src/usbd_desc.c **** #define USBD_PID_FS     0x0D32
  69:Src/usbd_desc.c **** 
  70:Src/usbd_desc.c **** #define USBD_PRODUCT_XSTR(s) USBD_PRODUCT_STR(s)
  71:Src/usbd_desc.c **** #define USBD_PRODUCT_STR(s) #s
  72:Src/usbd_desc.c **** #define USBD_PRODUCT_STRING_FS Electronbot CDC Interface
  73:Src/usbd_desc.c **** #define NATIVE_STRING  Electronbot Native Interface
  74:Src/usbd_desc.c **** #define USBD_SERIALNUMBER_STRING_FS     "000000000001"
  75:Src/usbd_desc.c **** 
  76:Src/usbd_desc.c **** // #define USBD_PRODUCT_STRING_FS     "electronbot@wenyz"
  77:Src/usbd_desc.c **** #define USBD_CONFIGURATION_STRING_FS     "CDC Config"
  78:Src/usbd_desc.c **** #define USBD_INTERFACE_STRING_FS     "CDC Interface"
  79:Src/usbd_desc.c **** 
  80:Src/usbd_desc.c **** #define USB_SIZ_BOS_DESC            0x0C
  81:Src/usbd_desc.c **** 
  82:Src/usbd_desc.c **** 
  83:Src/usbd_desc.c **** 
  84:Src/usbd_desc.c **** 
  85:Src/usbd_desc.c **** /* #define USBD_VID     0x1209
  86:Src/usbd_desc.c **** #define USBD_LANGID_STRING     1033
ARM GAS  C:\Users\ADMINI~1\AppData\Local\Temp\cc1p207y.s 			page 3


  87:Src/usbd_desc.c **** #define USBD_MANUFACTURER_STRING     "ODrive Robotics"
  88:Src/usbd_desc.c **** #define USBD_PID_FS     0x0D32
  89:Src/usbd_desc.c **** #define USBD_PRODUCT_XSTR(s) USBD_PRODUCT_STR(s)
  90:Src/usbd_desc.c **** #define USBD_PRODUCT_STR(s) #s
  91:Src/usbd_desc.c **** #define USBD_PRODUCT_STRING_FS "Electronbot CDC Interface"
  92:Src/usbd_desc.c **** #define NATIVE_STRING "Electronbot Native Interface"
  93:Src/usbd_desc.c **** // #define USBD_SERIALNUMBER_STRING_FS     "000000000001"
  94:Src/usbd_desc.c **** #define USBD_CONFIGURATION_STRING_FS     "CDC Config"
  95:Src/usbd_desc.c **** #define USBD_INTERFACE_STRING_FS     "CDC Interface" 
  96:Src/usbd_desc.c **** 
  97:Src/usbd_desc.c **** #define USB_SIZ_BOS_DESC            0x0C */
  98:Src/usbd_desc.c **** 
  99:Src/usbd_desc.c **** 
 100:Src/usbd_desc.c **** 
 101:Src/usbd_desc.c **** /* USER CODE BEGIN PRIVATE_DEFINES */
 102:Src/usbd_desc.c **** 
 103:Src/usbd_desc.c **** /* USER CODE END PRIVATE_DEFINES */
 104:Src/usbd_desc.c **** 
 105:Src/usbd_desc.c **** /**
 106:Src/usbd_desc.c ****   * @}
 107:Src/usbd_desc.c ****   */
 108:Src/usbd_desc.c **** 
 109:Src/usbd_desc.c **** /* USER CODE BEGIN 0 */
 110:Src/usbd_desc.c **** 
 111:Src/usbd_desc.c **** /* USER CODE END 0 */
 112:Src/usbd_desc.c **** 
 113:Src/usbd_desc.c **** /** @defgroup USBD_DESC_Private_Macros USBD_DESC_Private_Macros
 114:Src/usbd_desc.c ****   * @brief Private macros.
 115:Src/usbd_desc.c ****   * @{
 116:Src/usbd_desc.c ****   */
 117:Src/usbd_desc.c **** 
 118:Src/usbd_desc.c **** /* USER CODE BEGIN PRIVATE_MACRO */
 119:Src/usbd_desc.c **** 
 120:Src/usbd_desc.c **** /* USER CODE END PRIVATE_MACRO */
 121:Src/usbd_desc.c **** 
 122:Src/usbd_desc.c **** /**
 123:Src/usbd_desc.c ****   * @}
 124:Src/usbd_desc.c ****   */
 125:Src/usbd_desc.c **** 
 126:Src/usbd_desc.c **** /** @defgroup USBD_DESC_Private_FunctionPrototypes USBD_DESC_Private_FunctionPrototypes
 127:Src/usbd_desc.c ****   * @brief Private functions declaration.
 128:Src/usbd_desc.c ****   * @{
 129:Src/usbd_desc.c ****   */
 130:Src/usbd_desc.c **** 
 131:Src/usbd_desc.c **** static void Get_SerialNum(void);
 132:Src/usbd_desc.c **** static void IntToUnicode(uint32_t value, uint8_t * pbuf, uint8_t len);
 133:Src/usbd_desc.c **** 
 134:Src/usbd_desc.c **** /**
 135:Src/usbd_desc.c ****   * @}
 136:Src/usbd_desc.c ****   */
 137:Src/usbd_desc.c **** 
 138:Src/usbd_desc.c ****  // MS OS String descriptor to tell Windows that it may query for other descriptors
 139:Src/usbd_desc.c **** // It's a standard string descriptor.
 140:Src/usbd_desc.c **** // Windows will only query for OS descriptors once!
 141:Src/usbd_desc.c **** // Delete the information about already queried devices in registry by deleting:
 142:Src/usbd_desc.c **** // HKEY_LOCAL_MACHINE\SYSTEM\CurrentControlSet\Control\usbflags\VVVVPPPPRRRR
 143:Src/usbd_desc.c **** __ALIGN_BEGIN uint8_t USBD_MS_OS_StringDescriptor[]  __ALIGN_END =
ARM GAS  C:\Users\ADMINI~1\AppData\Local\Temp\cc1p207y.s 			page 4


 144:Src/usbd_desc.c **** {
 145:Src/usbd_desc.c ****   0x12,           //  bLength           1 0x12  Length of the descriptor
 146:Src/usbd_desc.c ****   0x03,           //  bDescriptorType   1 0x03  Descriptor type
 147:Src/usbd_desc.c ****                   //  qwSignature      14 ‘MSFT100’ Signature field
 148:Src/usbd_desc.c ****   0x4D, 0x00,     //  'M'
 149:Src/usbd_desc.c ****   0x53, 0x00,     //  'S'
 150:Src/usbd_desc.c ****   0x46, 0x00,     //  'F'
 151:Src/usbd_desc.c ****   0x54, 0x00,     //  'T'
 152:Src/usbd_desc.c ****   0x31, 0x00,     //  '1'
 153:Src/usbd_desc.c ****   0x30, 0x00,     //  '0'
 154:Src/usbd_desc.c ****   0x30, 0x00,     //  '0'
 155:Src/usbd_desc.c ****   MS_VendorCode,  //  bMS_VendorCode    1 Vendor-specific Vendor code
 156:Src/usbd_desc.c ****   0x00            //  bPad              1 0x00  Pad field
 157:Src/usbd_desc.c **** };
 158:Src/usbd_desc.c **** // redefined further down
 159:Src/usbd_desc.c **** __ALIGN_BEGIN uint8_t USBD_StrDesc[USBD_MAX_STR_DESC_SIZ] __ALIGN_END;
 160:Src/usbd_desc.c **** 
 161:Src/usbd_desc.c **** uint8_t * USBD_UsrStrDescriptor(struct _USBD_HandleTypeDef *pdev, uint8_t index,  uint16_t *length)
 162:Src/usbd_desc.c **** {
 163:Src/usbd_desc.c ****   *length = 0;
 164:Src/usbd_desc.c ****   printf("index = %x\r\n",index);
 165:Src/usbd_desc.c ****   if (USBD_IDX_MICROSOFT_DESC_STR == index) {
 166:Src/usbd_desc.c ****     *length = sizeof (USBD_MS_OS_StringDescriptor);
 167:Src/usbd_desc.c ****     return USBD_MS_OS_StringDescriptor;
 168:Src/usbd_desc.c ****   } else if (USBD_IDX_ODRIVE_INTF_STR == index) {
 169:Src/usbd_desc.c ****     USBD_GetString((uint8_t *)USBD_PRODUCT_XSTR(NATIVE_STRING), USBD_StrDesc, length);
 170:Src/usbd_desc.c ****     return USBD_StrDesc;
 171:Src/usbd_desc.c ****   }
 172:Src/usbd_desc.c ****   return NULL;
 173:Src/usbd_desc.c **** }
 174:Src/usbd_desc.c **** /** @defgroup USBD_DESC_Private_FunctionPrototypes USBD_DESC_Private_FunctionPrototypes
 175:Src/usbd_desc.c ****   * @brief Private functions declaration for FS.
 176:Src/usbd_desc.c ****   * @{
 177:Src/usbd_desc.c ****   */
 178:Src/usbd_desc.c **** 
 179:Src/usbd_desc.c **** uint8_t * USBD_FS_DeviceDescriptor(USBD_SpeedTypeDef speed, uint16_t *length);
 180:Src/usbd_desc.c **** uint8_t * USBD_FS_LangIDStrDescriptor(USBD_SpeedTypeDef speed, uint16_t *length);
 181:Src/usbd_desc.c **** uint8_t * USBD_FS_ManufacturerStrDescriptor(USBD_SpeedTypeDef speed, uint16_t *length);
 182:Src/usbd_desc.c **** uint8_t * USBD_FS_ProductStrDescriptor(USBD_SpeedTypeDef speed, uint16_t *length);
 183:Src/usbd_desc.c **** uint8_t * USBD_FS_SerialStrDescriptor(USBD_SpeedTypeDef speed, uint16_t *length);
 184:Src/usbd_desc.c **** uint8_t * USBD_FS_ConfigStrDescriptor(USBD_SpeedTypeDef speed, uint16_t *length);
 185:Src/usbd_desc.c **** uint8_t * USBD_FS_InterfaceStrDescriptor(USBD_SpeedTypeDef speed, uint16_t *length);
 186:Src/usbd_desc.c **** 
 187:Src/usbd_desc.c **** #ifdef USB_SUPPORT_USER_STRING_DESC
 188:Src/usbd_desc.c **** uint8_t * USBD_FS_USRStringDesc(USBD_SpeedTypeDef speed, uint8_t idx, uint16_t *length);
 189:Src/usbd_desc.c **** #endif /* USB_SUPPORT_USER_STRING_DESC */
 190:Src/usbd_desc.c **** 
 191:Src/usbd_desc.c **** #if (USBD_LPM_ENABLED == 1)
 192:Src/usbd_desc.c **** uint8_t * USBD_FS_USR_BOSDescriptor(USBD_SpeedTypeDef speed, uint16_t *length);
 193:Src/usbd_desc.c **** #endif /* (USBD_LPM_ENABLED == 1) */
 194:Src/usbd_desc.c **** 
 195:Src/usbd_desc.c **** /**
 196:Src/usbd_desc.c ****   * @}
 197:Src/usbd_desc.c ****   */
 198:Src/usbd_desc.c **** 
 199:Src/usbd_desc.c **** /** @defgroup USBD_DESC_Private_Variables USBD_DESC_Private_Variables
 200:Src/usbd_desc.c ****   * @brief Private variables.
ARM GAS  C:\Users\ADMINI~1\AppData\Local\Temp\cc1p207y.s 			page 5


 201:Src/usbd_desc.c ****   * @{
 202:Src/usbd_desc.c ****   */
 203:Src/usbd_desc.c **** 
 204:Src/usbd_desc.c **** USBD_DescriptorsTypeDef FS_Desc =
 205:Src/usbd_desc.c **** {
 206:Src/usbd_desc.c ****   USBD_FS_DeviceDescriptor
 207:Src/usbd_desc.c **** , USBD_FS_LangIDStrDescriptor
 208:Src/usbd_desc.c **** , USBD_FS_ManufacturerStrDescriptor
 209:Src/usbd_desc.c **** , USBD_FS_ProductStrDescriptor
 210:Src/usbd_desc.c **** , USBD_FS_SerialStrDescriptor
 211:Src/usbd_desc.c **** , USBD_FS_ConfigStrDescriptor
 212:Src/usbd_desc.c **** , USBD_FS_InterfaceStrDescriptor
 213:Src/usbd_desc.c **** #if (USBD_LPM_ENABLED == 1)
 214:Src/usbd_desc.c **** , USBD_FS_USR_BOSDescriptor
 215:Src/usbd_desc.c **** #endif /* (USBD_LPM_ENABLED == 1) */
 216:Src/usbd_desc.c **** };
 217:Src/usbd_desc.c **** 
 218:Src/usbd_desc.c **** #if defined ( __ICCARM__ ) /* IAR Compiler */
 219:Src/usbd_desc.c ****   #pragma data_alignment=4
 220:Src/usbd_desc.c **** #endif /* defined ( __ICCARM__ ) */
 221:Src/usbd_desc.c **** /** USB standard device descriptor. */
 222:Src/usbd_desc.c **** __ALIGN_BEGIN uint8_t USBD_FS_DeviceDesc[USB_LEN_DEV_DESC] __ALIGN_END =
 223:Src/usbd_desc.c **** {
 224:Src/usbd_desc.c ****   0x12,                       /*bLength */
 225:Src/usbd_desc.c ****   USB_DESC_TYPE_DEVICE,       /*bDescriptorType*/
 226:Src/usbd_desc.c **** #if (USBD_LPM_ENABLED == 1)
 227:Src/usbd_desc.c ****   0x01,                       /*bcdUSB */ /* changed to USB version 2.01
 228:Src/usbd_desc.c ****                                              in order to support LPM L1 suspend
 229:Src/usbd_desc.c ****                                              resume test of USBCV3.0*/
 230:Src/usbd_desc.c **** #else
 231:Src/usbd_desc.c ****   0x00,                       /*bcdUSB */
 232:Src/usbd_desc.c **** #endif /* (USBD_LPM_ENABLED == 1) */
 233:Src/usbd_desc.c ****   0x02,
 234:Src/usbd_desc.c ****   // Notify OS that this is a composite device
 235:Src/usbd_desc.c ****   0xEF,                       /*bDeviceClass*/
 236:Src/usbd_desc.c ****   0x02,                       /*bDeviceSubClass*/
 237:Src/usbd_desc.c ****   0x01,                       /*bDeviceProtocol*/
 238:Src/usbd_desc.c ****   USB_MAX_EP0_SIZE,           /*bMaxPacketSize*/
 239:Src/usbd_desc.c ****   LOBYTE(USBD_VID),           /*idVendor*/
 240:Src/usbd_desc.c ****   HIBYTE(USBD_VID),           /*idVendor*/
 241:Src/usbd_desc.c ****   LOBYTE(USBD_PID_FS),        /*idProduct*/
 242:Src/usbd_desc.c ****   HIBYTE(USBD_PID_FS),        /*idProduct*/
 243:Src/usbd_desc.c ****   0x00,                       /*bcdDevice rel. 2.00*/
 244:Src/usbd_desc.c ****   0x03,                       /* bNumInterfaces */
 245:Src/usbd_desc.c ****   USBD_IDX_MFC_STR,           /*Index of manufacturer  string*/
 246:Src/usbd_desc.c ****   USBD_IDX_PRODUCT_STR,       /*Index of product string*/
 247:Src/usbd_desc.c ****   USBD_IDX_SERIAL_STR,        /*Index of serial number string*/
 248:Src/usbd_desc.c ****   USBD_MAX_NUM_CONFIGURATION  /*bNumConfigurations*/
 249:Src/usbd_desc.c **** };
 250:Src/usbd_desc.c **** 
 251:Src/usbd_desc.c **** /* USB_DeviceDescriptor */
 252:Src/usbd_desc.c **** /** BOS descriptor. */
 253:Src/usbd_desc.c **** #if (USBD_LPM_ENABLED == 1)
 254:Src/usbd_desc.c **** #if defined ( __ICCARM__ ) /* IAR Compiler */
 255:Src/usbd_desc.c ****   #pragma data_alignment=4
 256:Src/usbd_desc.c **** #endif /* defined ( __ICCARM__ ) */
 257:Src/usbd_desc.c **** __ALIGN_BEGIN uint8_t USBD_FS_BOSDesc[USB_SIZ_BOS_DESC] __ALIGN_END =
ARM GAS  C:\Users\ADMINI~1\AppData\Local\Temp\cc1p207y.s 			page 6


 258:Src/usbd_desc.c **** {
 259:Src/usbd_desc.c ****   0x5,
 260:Src/usbd_desc.c ****   USB_DESC_TYPE_BOS,
 261:Src/usbd_desc.c ****   0xC,
 262:Src/usbd_desc.c ****   0x0,
 263:Src/usbd_desc.c ****   0x1,  /* 1 device capability*/
 264:Src/usbd_desc.c ****         /* device capability*/
 265:Src/usbd_desc.c ****   0x7,
 266:Src/usbd_desc.c ****   USB_DEVICE_CAPABITY_TYPE,
 267:Src/usbd_desc.c ****   0x2,
 268:Src/usbd_desc.c ****   0x2,  /* LPM capability bit set*/
 269:Src/usbd_desc.c ****   0x0,
 270:Src/usbd_desc.c ****   0x0,
 271:Src/usbd_desc.c ****   0x0
 272:Src/usbd_desc.c **** };
 273:Src/usbd_desc.c **** #endif /* (USBD_LPM_ENABLED == 1) */
 274:Src/usbd_desc.c **** 
 275:Src/usbd_desc.c **** /**
 276:Src/usbd_desc.c ****   * @}
 277:Src/usbd_desc.c ****   */
 278:Src/usbd_desc.c **** 
 279:Src/usbd_desc.c **** /** @defgroup USBD_DESC_Private_Variables USBD_DESC_Private_Variables
 280:Src/usbd_desc.c ****   * @brief Private variables.
 281:Src/usbd_desc.c ****   * @{
 282:Src/usbd_desc.c ****   */
 283:Src/usbd_desc.c **** 
 284:Src/usbd_desc.c **** #if defined ( __ICCARM__ ) /* IAR Compiler */
 285:Src/usbd_desc.c ****   #pragma data_alignment=4
 286:Src/usbd_desc.c **** #endif /* defined ( __ICCARM__ ) */
 287:Src/usbd_desc.c **** 
 288:Src/usbd_desc.c **** /** USB lang identifier descriptor. */
 289:Src/usbd_desc.c **** __ALIGN_BEGIN uint8_t USBD_LangIDDesc[USB_LEN_LANGID_STR_DESC] __ALIGN_END =
 290:Src/usbd_desc.c **** {
 291:Src/usbd_desc.c ****      USB_LEN_LANGID_STR_DESC,
 292:Src/usbd_desc.c ****      USB_DESC_TYPE_STRING,
 293:Src/usbd_desc.c ****      LOBYTE(USBD_LANGID_STRING),
 294:Src/usbd_desc.c ****      HIBYTE(USBD_LANGID_STRING)
 295:Src/usbd_desc.c **** };
 296:Src/usbd_desc.c **** 
 297:Src/usbd_desc.c **** #if defined ( __ICCARM__ ) /* IAR Compiler */
 298:Src/usbd_desc.c ****   #pragma data_alignment=4
 299:Src/usbd_desc.c **** #endif /* defined ( __ICCARM__ ) */
 300:Src/usbd_desc.c **** /* Internal string descriptor. */
 301:Src/usbd_desc.c **** __ALIGN_BEGIN uint8_t USBD_StrDesc[USBD_MAX_STR_DESC_SIZ] __ALIGN_END;
 302:Src/usbd_desc.c **** 
 303:Src/usbd_desc.c **** #if defined ( __ICCARM__ ) /*!< IAR Compiler */
 304:Src/usbd_desc.c ****   #pragma data_alignment=4
 305:Src/usbd_desc.c **** #endif
 306:Src/usbd_desc.c **** __ALIGN_BEGIN uint8_t USBD_StringSerial[USB_SIZ_STRING_SERIAL] __ALIGN_END = {
 307:Src/usbd_desc.c ****   USB_SIZ_STRING_SERIAL,
 308:Src/usbd_desc.c ****   USB_DESC_TYPE_STRING,
 309:Src/usbd_desc.c **** };
 310:Src/usbd_desc.c **** 
 311:Src/usbd_desc.c **** /**
 312:Src/usbd_desc.c ****   * @}
 313:Src/usbd_desc.c ****   */
 314:Src/usbd_desc.c **** 
ARM GAS  C:\Users\ADMINI~1\AppData\Local\Temp\cc1p207y.s 			page 7


 315:Src/usbd_desc.c **** /** @defgroup USBD_DESC_Private_Functions USBD_DESC_Private_Functions
 316:Src/usbd_desc.c ****   * @brief Private functions.
 317:Src/usbd_desc.c ****   * @{
 318:Src/usbd_desc.c ****   */
 319:Src/usbd_desc.c **** 
 320:Src/usbd_desc.c **** /**
 321:Src/usbd_desc.c ****   * @brief  Return the device descriptor
 322:Src/usbd_desc.c ****   * @param  speed : Current device speed
 323:Src/usbd_desc.c ****   * @param  length : Pointer to data length variable
 324:Src/usbd_desc.c ****   * @retval Pointer to descriptor buffer
 325:Src/usbd_desc.c ****   */
 326:Src/usbd_desc.c **** uint8_t * USBD_FS_DeviceDescriptor(USBD_SpeedTypeDef speed, uint16_t *length)
 327:Src/usbd_desc.c **** {
  30              		.loc 1 327 1 view -0
  31              		.cfi_startproc
  32              		@ args = 0, pretend = 0, frame = 0
  33              		@ frame_needed = 0, uses_anonymous_args = 0
  34              		@ link register save eliminated.
 328:Src/usbd_desc.c ****   UNUSED(speed);
  35              		.loc 1 328 3 view .LVU1
 329:Src/usbd_desc.c ****   *length = sizeof(USBD_FS_DeviceDesc);
  36              		.loc 1 329 3 view .LVU2
  37              		.loc 1 329 11 is_stmt 0 view .LVU3
  38 0000 1223     		movs	r3, #18
  39 0002 0B80     		strh	r3, [r1]	@ movhi
 330:Src/usbd_desc.c ****   return USBD_FS_DeviceDesc;
  40              		.loc 1 330 3 is_stmt 1 view .LVU4
 331:Src/usbd_desc.c **** }
  41              		.loc 1 331 1 is_stmt 0 view .LVU5
  42 0004 0048     		ldr	r0, .L2
  43              	.LVL1:
  44              		.loc 1 331 1 view .LVU6
  45 0006 7047     		bx	lr
  46              	.L3:
  47              		.align	2
  48              	.L2:
  49 0008 00000000 		.word	.LANCHOR0
  50              		.cfi_endproc
  51              	.LFE135:
  53              		.section	.text.USBD_FS_LangIDStrDescriptor,"ax",%progbits
  54              		.align	1
  55              		.global	USBD_FS_LangIDStrDescriptor
  56              		.syntax unified
  57              		.thumb
  58              		.thumb_func
  60              	USBD_FS_LangIDStrDescriptor:
  61              	.LVL2:
  62              	.LFB136:
 332:Src/usbd_desc.c **** 
 333:Src/usbd_desc.c **** /**
 334:Src/usbd_desc.c ****   * @brief  Return the LangID string descriptor
 335:Src/usbd_desc.c ****   * @param  speed : Current device speed
 336:Src/usbd_desc.c ****   * @param  length : Pointer to data length variable
 337:Src/usbd_desc.c ****   * @retval Pointer to descriptor buffer
 338:Src/usbd_desc.c ****   */
 339:Src/usbd_desc.c **** uint8_t * USBD_FS_LangIDStrDescriptor(USBD_SpeedTypeDef speed, uint16_t *length)
 340:Src/usbd_desc.c **** {
ARM GAS  C:\Users\ADMINI~1\AppData\Local\Temp\cc1p207y.s 			page 8


  63              		.loc 1 340 1 is_stmt 1 view -0
  64              		.cfi_startproc
  65              		@ args = 0, pretend = 0, frame = 0
  66              		@ frame_needed = 0, uses_anonymous_args = 0
  67              		@ link register save eliminated.
 341:Src/usbd_desc.c ****   UNUSED(speed);
  68              		.loc 1 341 3 view .LVU8
 342:Src/usbd_desc.c ****   *length = sizeof(USBD_LangIDDesc);
  69              		.loc 1 342 3 view .LVU9
  70              		.loc 1 342 11 is_stmt 0 view .LVU10
  71 0000 0423     		movs	r3, #4
  72 0002 0B80     		strh	r3, [r1]	@ movhi
 343:Src/usbd_desc.c ****   return USBD_LangIDDesc;
  73              		.loc 1 343 3 is_stmt 1 view .LVU11
 344:Src/usbd_desc.c **** }
  74              		.loc 1 344 1 is_stmt 0 view .LVU12
  75 0004 0048     		ldr	r0, .L5
  76              	.LVL3:
  77              		.loc 1 344 1 view .LVU13
  78 0006 7047     		bx	lr
  79              	.L6:
  80              		.align	2
  81              	.L5:
  82 0008 00000000 		.word	.LANCHOR1
  83              		.cfi_endproc
  84              	.LFE136:
  86              		.section	.text.IntToUnicode,"ax",%progbits
  87              		.align	1
  88              		.syntax unified
  89              		.thumb
  90              		.thumb_func
  92              	IntToUnicode:
  93              	.LVL4:
  94              	.LFB143:
 345:Src/usbd_desc.c **** 
 346:Src/usbd_desc.c **** /**
 347:Src/usbd_desc.c ****   * @brief  Return the product string descriptor
 348:Src/usbd_desc.c ****   * @param  speed : Current device speed
 349:Src/usbd_desc.c ****   * @param  length : Pointer to data length variable
 350:Src/usbd_desc.c ****   * @retval Pointer to descriptor buffer
 351:Src/usbd_desc.c ****   */
 352:Src/usbd_desc.c **** uint8_t * USBD_FS_ProductStrDescriptor(USBD_SpeedTypeDef speed, uint16_t *length)
 353:Src/usbd_desc.c **** {
 354:Src/usbd_desc.c ****   if(speed == 0)
 355:Src/usbd_desc.c ****   {
 356:Src/usbd_desc.c ****     USBD_GetString((uint8_t *)USBD_PRODUCT_XSTR(USBD_PRODUCT_STRING_FS), USBD_StrDesc, length);
 357:Src/usbd_desc.c ****   }
 358:Src/usbd_desc.c ****   else
 359:Src/usbd_desc.c ****   {
 360:Src/usbd_desc.c ****     USBD_GetString((uint8_t *)USBD_PRODUCT_XSTR(USBD_PRODUCT_STRING_FS), USBD_StrDesc, length);
 361:Src/usbd_desc.c ****   }
 362:Src/usbd_desc.c ****   return USBD_StrDesc;
 363:Src/usbd_desc.c **** }
 364:Src/usbd_desc.c **** 
 365:Src/usbd_desc.c **** /**
 366:Src/usbd_desc.c ****   * @brief  Return the manufacturer string descriptor
 367:Src/usbd_desc.c ****   * @param  speed : Current device speed
ARM GAS  C:\Users\ADMINI~1\AppData\Local\Temp\cc1p207y.s 			page 9


 368:Src/usbd_desc.c ****   * @param  length : Pointer to data length variable
 369:Src/usbd_desc.c ****   * @retval Pointer to descriptor buffer
 370:Src/usbd_desc.c ****   */
 371:Src/usbd_desc.c **** uint8_t * USBD_FS_ManufacturerStrDescriptor(USBD_SpeedTypeDef speed, uint16_t *length)
 372:Src/usbd_desc.c **** {
 373:Src/usbd_desc.c ****   UNUSED(speed);
 374:Src/usbd_desc.c ****   USBD_GetString((uint8_t *)USBD_MANUFACTURER_STRING, USBD_StrDesc, length);
 375:Src/usbd_desc.c ****   return USBD_StrDesc;
 376:Src/usbd_desc.c **** }
 377:Src/usbd_desc.c **** 
 378:Src/usbd_desc.c **** /**
 379:Src/usbd_desc.c ****   * @brief  Return the serial number string descriptor
 380:Src/usbd_desc.c ****   * @param  speed : Current device speed
 381:Src/usbd_desc.c ****   * @param  length : Pointer to data length variable
 382:Src/usbd_desc.c ****   * @retval Pointer to descriptor buffer
 383:Src/usbd_desc.c ****   */
 384:Src/usbd_desc.c **** uint8_t * USBD_FS_SerialStrDescriptor(USBD_SpeedTypeDef speed, uint16_t *length)
 385:Src/usbd_desc.c **** {
 386:Src/usbd_desc.c ****   UNUSED(speed);
 387:Src/usbd_desc.c ****   *length = USB_SIZ_STRING_SERIAL;
 388:Src/usbd_desc.c **** 
 389:Src/usbd_desc.c ****   /* Update the serial number string descriptor with the data from the unique
 390:Src/usbd_desc.c ****    * ID */
 391:Src/usbd_desc.c ****   Get_SerialNum();
 392:Src/usbd_desc.c ****   /* USER CODE BEGIN USBD_FS_SerialStrDescriptor */
 393:Src/usbd_desc.c **** 
 394:Src/usbd_desc.c ****   /* USER CODE END USBD_FS_SerialStrDescriptor */
 395:Src/usbd_desc.c ****   return (uint8_t *) USBD_StringSerial;
 396:Src/usbd_desc.c **** }
 397:Src/usbd_desc.c **** 
 398:Src/usbd_desc.c **** /**
 399:Src/usbd_desc.c ****   * @brief  Return the configuration string descriptor
 400:Src/usbd_desc.c ****   * @param  speed : Current device speed
 401:Src/usbd_desc.c ****   * @param  length : Pointer to data length variable
 402:Src/usbd_desc.c ****   * @retval Pointer to descriptor buffer
 403:Src/usbd_desc.c ****   */
 404:Src/usbd_desc.c **** uint8_t * USBD_FS_ConfigStrDescriptor(USBD_SpeedTypeDef speed, uint16_t *length)
 405:Src/usbd_desc.c **** {
 406:Src/usbd_desc.c ****   if(speed == USBD_SPEED_HIGH)
 407:Src/usbd_desc.c ****   {
 408:Src/usbd_desc.c ****     USBD_GetString((uint8_t *)USBD_CONFIGURATION_STRING_FS, USBD_StrDesc, length);
 409:Src/usbd_desc.c ****   }
 410:Src/usbd_desc.c ****   else
 411:Src/usbd_desc.c ****   {
 412:Src/usbd_desc.c ****     USBD_GetString((uint8_t *)USBD_CONFIGURATION_STRING_FS, USBD_StrDesc, length);
 413:Src/usbd_desc.c ****   }
 414:Src/usbd_desc.c ****   return USBD_StrDesc;
 415:Src/usbd_desc.c **** }
 416:Src/usbd_desc.c **** 
 417:Src/usbd_desc.c **** /**
 418:Src/usbd_desc.c ****   * @brief  Return the interface string descriptor
 419:Src/usbd_desc.c ****   * @param  speed : Current device speed
 420:Src/usbd_desc.c ****   * @param  length : Pointer to data length variable
 421:Src/usbd_desc.c ****   * @retval Pointer to descriptor buffer
 422:Src/usbd_desc.c ****   */
 423:Src/usbd_desc.c **** uint8_t * USBD_FS_InterfaceStrDescriptor(USBD_SpeedTypeDef speed, uint16_t *length)
 424:Src/usbd_desc.c **** {
ARM GAS  C:\Users\ADMINI~1\AppData\Local\Temp\cc1p207y.s 			page 10


 425:Src/usbd_desc.c ****   if(speed == 0)
 426:Src/usbd_desc.c ****   {
 427:Src/usbd_desc.c ****     USBD_GetString((uint8_t *)USBD_INTERFACE_STRING_FS, USBD_StrDesc, length);
 428:Src/usbd_desc.c ****   }
 429:Src/usbd_desc.c ****   else
 430:Src/usbd_desc.c ****   {
 431:Src/usbd_desc.c ****     USBD_GetString((uint8_t *)USBD_INTERFACE_STRING_FS, USBD_StrDesc, length);
 432:Src/usbd_desc.c ****   }
 433:Src/usbd_desc.c ****   return USBD_StrDesc;
 434:Src/usbd_desc.c **** }
 435:Src/usbd_desc.c **** 
 436:Src/usbd_desc.c **** #if (USBD_LPM_ENABLED == 1)
 437:Src/usbd_desc.c **** /**
 438:Src/usbd_desc.c ****   * @brief  Return the BOS descriptor
 439:Src/usbd_desc.c ****   * @param  speed : Current device speed
 440:Src/usbd_desc.c ****   * @param  length : Pointer to data length variable
 441:Src/usbd_desc.c ****   * @retval Pointer to descriptor buffer
 442:Src/usbd_desc.c ****   */
 443:Src/usbd_desc.c **** uint8_t * USBD_FS_USR_BOSDescriptor(USBD_SpeedTypeDef speed, uint16_t *length)
 444:Src/usbd_desc.c **** {
 445:Src/usbd_desc.c ****   UNUSED(speed);
 446:Src/usbd_desc.c ****   *length = sizeof(USBD_FS_BOSDesc);
 447:Src/usbd_desc.c ****   return (uint8_t*)USBD_FS_BOSDesc;
 448:Src/usbd_desc.c **** }
 449:Src/usbd_desc.c **** #endif /* (USBD_LPM_ENABLED == 1) */
 450:Src/usbd_desc.c **** 
 451:Src/usbd_desc.c **** /**
 452:Src/usbd_desc.c ****   * @brief  Create the serial number string descriptor
 453:Src/usbd_desc.c ****   * @param  None
 454:Src/usbd_desc.c ****   * @retval None
 455:Src/usbd_desc.c ****   */
 456:Src/usbd_desc.c **** static void Get_SerialNum(void)
 457:Src/usbd_desc.c **** {
 458:Src/usbd_desc.c ****   uint32_t deviceserial0, deviceserial1, deviceserial2;
 459:Src/usbd_desc.c **** 
 460:Src/usbd_desc.c ****   deviceserial0 = *(uint32_t *) DEVICE_ID1;
 461:Src/usbd_desc.c ****   deviceserial1 = *(uint32_t *) DEVICE_ID2;
 462:Src/usbd_desc.c ****   deviceserial2 = *(uint32_t *) DEVICE_ID3;
 463:Src/usbd_desc.c **** 
 464:Src/usbd_desc.c ****   deviceserial0 += deviceserial2;
 465:Src/usbd_desc.c **** 
 466:Src/usbd_desc.c ****   if (deviceserial0 != 0)
 467:Src/usbd_desc.c ****   {
 468:Src/usbd_desc.c ****     IntToUnicode(deviceserial0, &USBD_StringSerial[2], 8);
 469:Src/usbd_desc.c ****     IntToUnicode(deviceserial1, &USBD_StringSerial[18], 4);
 470:Src/usbd_desc.c ****   }
 471:Src/usbd_desc.c **** }
 472:Src/usbd_desc.c **** 
 473:Src/usbd_desc.c **** /**
 474:Src/usbd_desc.c ****   * @brief  Convert Hex 32Bits value into char
 475:Src/usbd_desc.c ****   * @param  value: value to convert
 476:Src/usbd_desc.c ****   * @param  pbuf: pointer to the buffer
 477:Src/usbd_desc.c ****   * @param  len: buffer length
 478:Src/usbd_desc.c ****   * @retval None
 479:Src/usbd_desc.c ****   */
 480:Src/usbd_desc.c **** static void IntToUnicode(uint32_t value, uint8_t * pbuf, uint8_t len)
 481:Src/usbd_desc.c **** {
ARM GAS  C:\Users\ADMINI~1\AppData\Local\Temp\cc1p207y.s 			page 11


  95              		.loc 1 481 1 is_stmt 1 view -0
  96              		.cfi_startproc
  97              		@ args = 0, pretend = 0, frame = 0
  98              		@ frame_needed = 0, uses_anonymous_args = 0
 482:Src/usbd_desc.c ****   uint8_t idx = 0;
  99              		.loc 1 482 3 view .LVU15
 483:Src/usbd_desc.c **** 
 484:Src/usbd_desc.c ****   for (idx = 0; idx < len; idx++)
 100              		.loc 1 484 3 view .LVU16
 101              		.loc 1 484 12 is_stmt 0 view .LVU17
 102 0000 0023     		movs	r3, #0
 103              	.LVL5:
 104              		.loc 1 484 17 is_stmt 1 view .LVU18
 105              		.loc 1 484 3 is_stmt 0 view .LVU19
 106 0002 9342     		cmp	r3, r2
 107 0004 1ED2     		bcs	.L15
 481:Src/usbd_desc.c ****   uint8_t idx = 0;
 108              		.loc 1 481 1 view .LVU20
 109 0006 00B5     		push	{lr}
 110              	.LCFI0:
 111              		.cfi_def_cfa_offset 4
 112              		.cfi_offset 14, -4
 113 0008 10E0     		b	.L11
 114              	.L9:
 485:Src/usbd_desc.c ****   {
 486:Src/usbd_desc.c ****     if (((value >> 28)) < 0xA)
 487:Src/usbd_desc.c ****     {
 488:Src/usbd_desc.c ****       pbuf[2 * idx] = (value >> 28) + '0';
 489:Src/usbd_desc.c ****     }
 490:Src/usbd_desc.c ****     else
 491:Src/usbd_desc.c ****     {
 492:Src/usbd_desc.c ****       pbuf[2 * idx] = (value >> 28) + 'A' - 10;
 115              		.loc 1 492 7 is_stmt 1 view .LVU21
 116              		.loc 1 492 43 is_stmt 0 view .LVU22
 117 000a 0CF1370C 		add	ip, ip, #55
 118              		.loc 1 492 21 view .LVU23
 119 000e 01F813C0 		strb	ip, [r1, r3, lsl #1]
 120              	.L10:
 493:Src/usbd_desc.c ****     }
 494:Src/usbd_desc.c **** 
 495:Src/usbd_desc.c ****     value = value << 4;
 121              		.loc 1 495 5 is_stmt 1 discriminator 2 view .LVU24
 122              		.loc 1 495 11 is_stmt 0 discriminator 2 view .LVU25
 123 0012 0001     		lsls	r0, r0, #4
 124              	.LVL6:
 496:Src/usbd_desc.c **** 
 497:Src/usbd_desc.c ****     pbuf[2 * idx + 1] = 0;
 125              		.loc 1 497 5 is_stmt 1 discriminator 2 view .LVU26
 126              		.loc 1 497 12 is_stmt 0 discriminator 2 view .LVU27
 127 0014 4FEA430C 		lsl	ip, r3, #1
 128              		.loc 1 497 9 discriminator 2 view .LVU28
 129 0018 0CF1010C 		add	ip, ip, #1
 130              		.loc 1 497 23 discriminator 2 view .LVU29
 131 001c 4FF0000E 		mov	lr, #0
 132 0020 01F80CE0 		strb	lr, [r1, ip]
 484:Src/usbd_desc.c ****   {
 133              		.loc 1 484 28 is_stmt 1 discriminator 2 view .LVU30
ARM GAS  C:\Users\ADMINI~1\AppData\Local\Temp\cc1p207y.s 			page 12


 484:Src/usbd_desc.c ****   {
 134              		.loc 1 484 31 is_stmt 0 discriminator 2 view .LVU31
 135 0024 0133     		adds	r3, r3, #1
 136              	.LVL7:
 484:Src/usbd_desc.c ****   {
 137              		.loc 1 484 31 discriminator 2 view .LVU32
 138 0026 DBB2     		uxtb	r3, r3
 139              	.LVL8:
 484:Src/usbd_desc.c ****   {
 140              		.loc 1 484 17 is_stmt 1 discriminator 2 view .LVU33
 484:Src/usbd_desc.c ****   {
 141              		.loc 1 484 3 is_stmt 0 discriminator 2 view .LVU34
 142 0028 9342     		cmp	r3, r2
 143 002a 09D2     		bcs	.L16
 144              	.L11:
 486:Src/usbd_desc.c ****     {
 145              		.loc 1 486 5 is_stmt 1 view .LVU35
 486:Src/usbd_desc.c ****     {
 146              		.loc 1 486 17 is_stmt 0 view .LVU36
 147 002c 4FEA107C 		lsr	ip, r0, #28
 486:Src/usbd_desc.c ****     {
 148              		.loc 1 486 8 view .LVU37
 149 0030 B0F1204F 		cmp	r0, #-1610612736
 150 0034 E9D2     		bcs	.L9
 488:Src/usbd_desc.c ****     }
 151              		.loc 1 488 7 is_stmt 1 view .LVU38
 488:Src/usbd_desc.c ****     }
 152              		.loc 1 488 37 is_stmt 0 view .LVU39
 153 0036 0CF1300C 		add	ip, ip, #48
 488:Src/usbd_desc.c ****     }
 154              		.loc 1 488 21 view .LVU40
 155 003a 01F813C0 		strb	ip, [r1, r3, lsl #1]
 156 003e E8E7     		b	.L10
 157              	.L16:
 498:Src/usbd_desc.c ****   }
 499:Src/usbd_desc.c **** }
 158              		.loc 1 499 1 view .LVU41
 159 0040 5DF804FB 		ldr	pc, [sp], #4
 160              	.L15:
 161              	.LCFI1:
 162              		.cfi_def_cfa_offset 0
 163              		.cfi_restore 14
 164              		.loc 1 499 1 view .LVU42
 165 0044 7047     		bx	lr
 166              		.cfi_endproc
 167              	.LFE143:
 169              		.section	.text.Get_SerialNum,"ax",%progbits
 170              		.align	1
 171              		.syntax unified
 172              		.thumb
 173              		.thumb_func
 175              	Get_SerialNum:
 176              	.LFB142:
 457:Src/usbd_desc.c ****   uint32_t deviceserial0, deviceserial1, deviceserial2;
 177              		.loc 1 457 1 is_stmt 1 view -0
 178              		.cfi_startproc
 179              		@ args = 0, pretend = 0, frame = 0
ARM GAS  C:\Users\ADMINI~1\AppData\Local\Temp\cc1p207y.s 			page 13


 180              		@ frame_needed = 0, uses_anonymous_args = 0
 181 0000 38B5     		push	{r3, r4, r5, lr}
 182              	.LCFI2:
 183              		.cfi_def_cfa_offset 16
 184              		.cfi_offset 3, -16
 185              		.cfi_offset 4, -12
 186              		.cfi_offset 5, -8
 187              		.cfi_offset 14, -4
 458:Src/usbd_desc.c **** 
 188              		.loc 1 458 3 view .LVU44
 460:Src/usbd_desc.c ****   deviceserial1 = *(uint32_t *) DEVICE_ID2;
 189              		.loc 1 460 3 view .LVU45
 460:Src/usbd_desc.c ****   deviceserial1 = *(uint32_t *) DEVICE_ID2;
 190              		.loc 1 460 17 is_stmt 0 view .LVU46
 191 0002 0B4B     		ldr	r3, .L21
 192 0004 D3F8100A 		ldr	r0, [r3, #2576]
 193              	.LVL9:
 461:Src/usbd_desc.c ****   deviceserial2 = *(uint32_t *) DEVICE_ID3;
 194              		.loc 1 461 3 is_stmt 1 view .LVU47
 461:Src/usbd_desc.c ****   deviceserial2 = *(uint32_t *) DEVICE_ID3;
 195              		.loc 1 461 17 is_stmt 0 view .LVU48
 196 0008 D3F8144A 		ldr	r4, [r3, #2580]
 197              	.LVL10:
 462:Src/usbd_desc.c **** 
 198              		.loc 1 462 3 is_stmt 1 view .LVU49
 462:Src/usbd_desc.c **** 
 199              		.loc 1 462 17 is_stmt 0 view .LVU50
 200 000c D3F8183A 		ldr	r3, [r3, #2584]
 201              	.LVL11:
 464:Src/usbd_desc.c **** 
 202              		.loc 1 464 3 is_stmt 1 view .LVU51
 466:Src/usbd_desc.c ****   {
 203              		.loc 1 466 3 view .LVU52
 466:Src/usbd_desc.c ****   {
 204              		.loc 1 466 6 is_stmt 0 view .LVU53
 205 0010 C018     		adds	r0, r0, r3
 206              	.LVL12:
 466:Src/usbd_desc.c ****   {
 207              		.loc 1 466 6 view .LVU54
 208 0012 00D1     		bne	.L20
 209              	.LVL13:
 210              	.L17:
 471:Src/usbd_desc.c **** 
 211              		.loc 1 471 1 view .LVU55
 212 0014 38BD     		pop	{r3, r4, r5, pc}
 213              	.LVL14:
 214              	.L20:
 468:Src/usbd_desc.c ****     IntToUnicode(deviceserial1, &USBD_StringSerial[18], 4);
 215              		.loc 1 468 5 is_stmt 1 view .LVU56
 216 0016 074D     		ldr	r5, .L21+4
 217 0018 0822     		movs	r2, #8
 218 001a A91C     		adds	r1, r5, #2
 219 001c FFF7FEFF 		bl	IntToUnicode
 220              	.LVL15:
 469:Src/usbd_desc.c ****   }
 221              		.loc 1 469 5 view .LVU57
 222 0020 0422     		movs	r2, #4
ARM GAS  C:\Users\ADMINI~1\AppData\Local\Temp\cc1p207y.s 			page 14


 223 0022 05F11201 		add	r1, r5, #18
 224 0026 2046     		mov	r0, r4
 225 0028 FFF7FEFF 		bl	IntToUnicode
 226              	.LVL16:
 471:Src/usbd_desc.c **** 
 227              		.loc 1 471 1 is_stmt 0 view .LVU58
 228 002c F2E7     		b	.L17
 229              	.L22:
 230 002e 00BF     		.align	2
 231              	.L21:
 232 0030 0070FF1F 		.word	536834048
 233 0034 00000000 		.word	.LANCHOR2
 234              		.cfi_endproc
 235              	.LFE142:
 237              		.section	.text.USBD_FS_SerialStrDescriptor,"ax",%progbits
 238              		.align	1
 239              		.global	USBD_FS_SerialStrDescriptor
 240              		.syntax unified
 241              		.thumb
 242              		.thumb_func
 244              	USBD_FS_SerialStrDescriptor:
 245              	.LVL17:
 246              	.LFB139:
 385:Src/usbd_desc.c ****   UNUSED(speed);
 247              		.loc 1 385 1 is_stmt 1 view -0
 248              		.cfi_startproc
 249              		@ args = 0, pretend = 0, frame = 0
 250              		@ frame_needed = 0, uses_anonymous_args = 0
 385:Src/usbd_desc.c ****   UNUSED(speed);
 251              		.loc 1 385 1 is_stmt 0 view .LVU60
 252 0000 08B5     		push	{r3, lr}
 253              	.LCFI3:
 254              		.cfi_def_cfa_offset 8
 255              		.cfi_offset 3, -8
 256              		.cfi_offset 14, -4
 386:Src/usbd_desc.c ****   *length = USB_SIZ_STRING_SERIAL;
 257              		.loc 1 386 3 is_stmt 1 view .LVU61
 387:Src/usbd_desc.c **** 
 258              		.loc 1 387 3 view .LVU62
 387:Src/usbd_desc.c **** 
 259              		.loc 1 387 11 is_stmt 0 view .LVU63
 260 0002 1A23     		movs	r3, #26
 261 0004 0B80     		strh	r3, [r1]	@ movhi
 391:Src/usbd_desc.c ****   /* USER CODE BEGIN USBD_FS_SerialStrDescriptor */
 262              		.loc 1 391 3 is_stmt 1 view .LVU64
 263 0006 FFF7FEFF 		bl	Get_SerialNum
 264              	.LVL18:
 395:Src/usbd_desc.c **** }
 265              		.loc 1 395 3 view .LVU65
 396:Src/usbd_desc.c **** 
 266              		.loc 1 396 1 is_stmt 0 view .LVU66
 267 000a 0148     		ldr	r0, .L25
 268 000c 08BD     		pop	{r3, pc}
 269              	.L26:
 270 000e 00BF     		.align	2
 271              	.L25:
 272 0010 00000000 		.word	.LANCHOR2
ARM GAS  C:\Users\ADMINI~1\AppData\Local\Temp\cc1p207y.s 			page 15


 273              		.cfi_endproc
 274              	.LFE139:
 276              		.section	.rodata.USBD_FS_ProductStrDescriptor.str1.4,"aMS",%progbits,1
 277              		.align	2
 278              	.LC0:
 279 0000 456C6563 		.ascii	"Electronbot CDC Interface\000"
 279      74726F6E 
 279      626F7420 
 279      43444320 
 279      496E7465 
 280              		.section	.text.USBD_FS_ProductStrDescriptor,"ax",%progbits
 281              		.align	1
 282              		.global	USBD_FS_ProductStrDescriptor
 283              		.syntax unified
 284              		.thumb
 285              		.thumb_func
 287              	USBD_FS_ProductStrDescriptor:
 288              	.LVL19:
 289              	.LFB137:
 353:Src/usbd_desc.c ****   if(speed == 0)
 290              		.loc 1 353 1 is_stmt 1 view -0
 291              		.cfi_startproc
 292              		@ args = 0, pretend = 0, frame = 0
 293              		@ frame_needed = 0, uses_anonymous_args = 0
 353:Src/usbd_desc.c ****   if(speed == 0)
 294              		.loc 1 353 1 is_stmt 0 view .LVU68
 295 0000 08B5     		push	{r3, lr}
 296              	.LCFI4:
 297              		.cfi_def_cfa_offset 8
 298              		.cfi_offset 3, -8
 299              		.cfi_offset 14, -4
 300 0002 0A46     		mov	r2, r1
 354:Src/usbd_desc.c ****   {
 301              		.loc 1 354 3 is_stmt 1 view .LVU69
 354:Src/usbd_desc.c ****   {
 302              		.loc 1 354 5 is_stmt 0 view .LVU70
 303 0004 28B9     		cbnz	r0, .L28
 356:Src/usbd_desc.c ****   }
 304              		.loc 1 356 5 is_stmt 1 view .LVU71
 305 0006 0549     		ldr	r1, .L31
 306              	.LVL20:
 356:Src/usbd_desc.c ****   }
 307              		.loc 1 356 5 is_stmt 0 view .LVU72
 308 0008 0548     		ldr	r0, .L31+4
 309              	.LVL21:
 356:Src/usbd_desc.c ****   }
 310              		.loc 1 356 5 view .LVU73
 311 000a FFF7FEFF 		bl	USBD_GetString
 312              	.LVL22:
 313              	.L29:
 362:Src/usbd_desc.c **** }
 314              		.loc 1 362 3 is_stmt 1 view .LVU74
 363:Src/usbd_desc.c **** 
 315              		.loc 1 363 1 is_stmt 0 view .LVU75
 316 000e 0348     		ldr	r0, .L31
 317 0010 08BD     		pop	{r3, pc}
 318              	.LVL23:
ARM GAS  C:\Users\ADMINI~1\AppData\Local\Temp\cc1p207y.s 			page 16


 319              	.L28:
 360:Src/usbd_desc.c ****   }
 320              		.loc 1 360 5 is_stmt 1 view .LVU76
 321 0012 0249     		ldr	r1, .L31
 322              	.LVL24:
 360:Src/usbd_desc.c ****   }
 323              		.loc 1 360 5 is_stmt 0 view .LVU77
 324 0014 0248     		ldr	r0, .L31+4
 325              	.LVL25:
 360:Src/usbd_desc.c ****   }
 326              		.loc 1 360 5 view .LVU78
 327 0016 FFF7FEFF 		bl	USBD_GetString
 328              	.LVL26:
 360:Src/usbd_desc.c ****   }
 329              		.loc 1 360 5 view .LVU79
 330 001a F8E7     		b	.L29
 331              	.L32:
 332              		.align	2
 333              	.L31:
 334 001c 00000000 		.word	.LANCHOR3
 335 0020 00000000 		.word	.LC0
 336              		.cfi_endproc
 337              	.LFE137:
 339              		.section	.rodata.USBD_FS_ManufacturerStrDescriptor.str1.4,"aMS",%progbits,1
 340              		.align	2
 341              	.LC1:
 342 0000 53544D69 		.ascii	"STMicroelectronics\000"
 342      63726F65 
 342      6C656374 
 342      726F6E69 
 342      637300
 343              		.section	.text.USBD_FS_ManufacturerStrDescriptor,"ax",%progbits
 344              		.align	1
 345              		.global	USBD_FS_ManufacturerStrDescriptor
 346              		.syntax unified
 347              		.thumb
 348              		.thumb_func
 350              	USBD_FS_ManufacturerStrDescriptor:
 351              	.LVL27:
 352              	.LFB138:
 372:Src/usbd_desc.c ****   UNUSED(speed);
 353              		.loc 1 372 1 is_stmt 1 view -0
 354              		.cfi_startproc
 355              		@ args = 0, pretend = 0, frame = 0
 356              		@ frame_needed = 0, uses_anonymous_args = 0
 372:Src/usbd_desc.c ****   UNUSED(speed);
 357              		.loc 1 372 1 is_stmt 0 view .LVU81
 358 0000 10B5     		push	{r4, lr}
 359              	.LCFI5:
 360              		.cfi_def_cfa_offset 8
 361              		.cfi_offset 4, -8
 362              		.cfi_offset 14, -4
 363 0002 0A46     		mov	r2, r1
 373:Src/usbd_desc.c ****   USBD_GetString((uint8_t *)USBD_MANUFACTURER_STRING, USBD_StrDesc, length);
 364              		.loc 1 373 3 is_stmt 1 view .LVU82
 374:Src/usbd_desc.c ****   return USBD_StrDesc;
 365              		.loc 1 374 3 view .LVU83
ARM GAS  C:\Users\ADMINI~1\AppData\Local\Temp\cc1p207y.s 			page 17


 366 0004 034C     		ldr	r4, .L35
 367 0006 2146     		mov	r1, r4
 368              	.LVL28:
 374:Src/usbd_desc.c ****   return USBD_StrDesc;
 369              		.loc 1 374 3 is_stmt 0 view .LVU84
 370 0008 0348     		ldr	r0, .L35+4
 371              	.LVL29:
 374:Src/usbd_desc.c ****   return USBD_StrDesc;
 372              		.loc 1 374 3 view .LVU85
 373 000a FFF7FEFF 		bl	USBD_GetString
 374              	.LVL30:
 375:Src/usbd_desc.c **** }
 375              		.loc 1 375 3 is_stmt 1 view .LVU86
 376:Src/usbd_desc.c **** 
 376              		.loc 1 376 1 is_stmt 0 view .LVU87
 377 000e 2046     		mov	r0, r4
 378 0010 10BD     		pop	{r4, pc}
 379              	.L36:
 380 0012 00BF     		.align	2
 381              	.L35:
 382 0014 00000000 		.word	.LANCHOR3
 383 0018 00000000 		.word	.LC1
 384              		.cfi_endproc
 385              	.LFE138:
 387              		.section	.rodata.USBD_FS_ConfigStrDescriptor.str1.4,"aMS",%progbits,1
 388              		.align	2
 389              	.LC2:
 390 0000 43444320 		.ascii	"CDC Config\000"
 390      436F6E66 
 390      696700
 391              		.section	.text.USBD_FS_ConfigStrDescriptor,"ax",%progbits
 392              		.align	1
 393              		.global	USBD_FS_ConfigStrDescriptor
 394              		.syntax unified
 395              		.thumb
 396              		.thumb_func
 398              	USBD_FS_ConfigStrDescriptor:
 399              	.LVL31:
 400              	.LFB140:
 405:Src/usbd_desc.c ****   if(speed == USBD_SPEED_HIGH)
 401              		.loc 1 405 1 is_stmt 1 view -0
 402              		.cfi_startproc
 403              		@ args = 0, pretend = 0, frame = 0
 404              		@ frame_needed = 0, uses_anonymous_args = 0
 405:Src/usbd_desc.c ****   if(speed == USBD_SPEED_HIGH)
 405              		.loc 1 405 1 is_stmt 0 view .LVU89
 406 0000 08B5     		push	{r3, lr}
 407              	.LCFI6:
 408              		.cfi_def_cfa_offset 8
 409              		.cfi_offset 3, -8
 410              		.cfi_offset 14, -4
 411 0002 0A46     		mov	r2, r1
 406:Src/usbd_desc.c ****   {
 412              		.loc 1 406 3 is_stmt 1 view .LVU90
 406:Src/usbd_desc.c ****   {
 413              		.loc 1 406 5 is_stmt 0 view .LVU91
 414 0004 28B9     		cbnz	r0, .L38
ARM GAS  C:\Users\ADMINI~1\AppData\Local\Temp\cc1p207y.s 			page 18


 408:Src/usbd_desc.c ****   }
 415              		.loc 1 408 5 is_stmt 1 view .LVU92
 416 0006 0549     		ldr	r1, .L41
 417              	.LVL32:
 408:Src/usbd_desc.c ****   }
 418              		.loc 1 408 5 is_stmt 0 view .LVU93
 419 0008 0548     		ldr	r0, .L41+4
 420              	.LVL33:
 408:Src/usbd_desc.c ****   }
 421              		.loc 1 408 5 view .LVU94
 422 000a FFF7FEFF 		bl	USBD_GetString
 423              	.LVL34:
 424              	.L39:
 414:Src/usbd_desc.c **** }
 425              		.loc 1 414 3 is_stmt 1 view .LVU95
 415:Src/usbd_desc.c **** 
 426              		.loc 1 415 1 is_stmt 0 view .LVU96
 427 000e 0348     		ldr	r0, .L41
 428 0010 08BD     		pop	{r3, pc}
 429              	.LVL35:
 430              	.L38:
 412:Src/usbd_desc.c ****   }
 431              		.loc 1 412 5 is_stmt 1 view .LVU97
 432 0012 0249     		ldr	r1, .L41
 433              	.LVL36:
 412:Src/usbd_desc.c ****   }
 434              		.loc 1 412 5 is_stmt 0 view .LVU98
 435 0014 0248     		ldr	r0, .L41+4
 436              	.LVL37:
 412:Src/usbd_desc.c ****   }
 437              		.loc 1 412 5 view .LVU99
 438 0016 FFF7FEFF 		bl	USBD_GetString
 439              	.LVL38:
 412:Src/usbd_desc.c ****   }
 440              		.loc 1 412 5 view .LVU100
 441 001a F8E7     		b	.L39
 442              	.L42:
 443              		.align	2
 444              	.L41:
 445 001c 00000000 		.word	.LANCHOR3
 446 0020 00000000 		.word	.LC2
 447              		.cfi_endproc
 448              	.LFE140:
 450              		.section	.rodata.USBD_FS_InterfaceStrDescriptor.str1.4,"aMS",%progbits,1
 451              		.align	2
 452              	.LC3:
 453 0000 43444320 		.ascii	"CDC Interface\000"
 453      496E7465 
 453      72666163 
 453      6500
 454              		.section	.text.USBD_FS_InterfaceStrDescriptor,"ax",%progbits
 455              		.align	1
 456              		.global	USBD_FS_InterfaceStrDescriptor
 457              		.syntax unified
 458              		.thumb
 459              		.thumb_func
 461              	USBD_FS_InterfaceStrDescriptor:
ARM GAS  C:\Users\ADMINI~1\AppData\Local\Temp\cc1p207y.s 			page 19


 462              	.LVL39:
 463              	.LFB141:
 424:Src/usbd_desc.c ****   if(speed == 0)
 464              		.loc 1 424 1 is_stmt 1 view -0
 465              		.cfi_startproc
 466              		@ args = 0, pretend = 0, frame = 0
 467              		@ frame_needed = 0, uses_anonymous_args = 0
 424:Src/usbd_desc.c ****   if(speed == 0)
 468              		.loc 1 424 1 is_stmt 0 view .LVU102
 469 0000 08B5     		push	{r3, lr}
 470              	.LCFI7:
 471              		.cfi_def_cfa_offset 8
 472              		.cfi_offset 3, -8
 473              		.cfi_offset 14, -4
 474 0002 0A46     		mov	r2, r1
 425:Src/usbd_desc.c ****   {
 475              		.loc 1 425 3 is_stmt 1 view .LVU103
 425:Src/usbd_desc.c ****   {
 476              		.loc 1 425 5 is_stmt 0 view .LVU104
 477 0004 28B9     		cbnz	r0, .L44
 427:Src/usbd_desc.c ****   }
 478              		.loc 1 427 5 is_stmt 1 view .LVU105
 479 0006 0549     		ldr	r1, .L47
 480              	.LVL40:
 427:Src/usbd_desc.c ****   }
 481              		.loc 1 427 5 is_stmt 0 view .LVU106
 482 0008 0548     		ldr	r0, .L47+4
 483              	.LVL41:
 427:Src/usbd_desc.c ****   }
 484              		.loc 1 427 5 view .LVU107
 485 000a FFF7FEFF 		bl	USBD_GetString
 486              	.LVL42:
 487              	.L45:
 433:Src/usbd_desc.c **** }
 488              		.loc 1 433 3 is_stmt 1 view .LVU108
 434:Src/usbd_desc.c **** 
 489              		.loc 1 434 1 is_stmt 0 view .LVU109
 490 000e 0348     		ldr	r0, .L47
 491 0010 08BD     		pop	{r3, pc}
 492              	.LVL43:
 493              	.L44:
 431:Src/usbd_desc.c ****   }
 494              		.loc 1 431 5 is_stmt 1 view .LVU110
 495 0012 0249     		ldr	r1, .L47
 496              	.LVL44:
 431:Src/usbd_desc.c ****   }
 497              		.loc 1 431 5 is_stmt 0 view .LVU111
 498 0014 0248     		ldr	r0, .L47+4
 499              	.LVL45:
 431:Src/usbd_desc.c ****   }
 500              		.loc 1 431 5 view .LVU112
 501 0016 FFF7FEFF 		bl	USBD_GetString
 502              	.LVL46:
 431:Src/usbd_desc.c ****   }
 503              		.loc 1 431 5 view .LVU113
 504 001a F8E7     		b	.L45
 505              	.L48:
ARM GAS  C:\Users\ADMINI~1\AppData\Local\Temp\cc1p207y.s 			page 20


 506              		.align	2
 507              	.L47:
 508 001c 00000000 		.word	.LANCHOR3
 509 0020 00000000 		.word	.LC3
 510              		.cfi_endproc
 511              	.LFE141:
 513              		.section	.rodata.USBD_UsrStrDescriptor.str1.4,"aMS",%progbits,1
 514              		.align	2
 515              	.LC4:
 516 0000 696E6465 		.ascii	"index = %x\015\012\000"
 516      78203D20 
 516      25780D0A 
 516      00
 517 000d 000000   		.align	2
 518              	.LC5:
 519 0010 456C6563 		.ascii	"Electronbot Native Interface\000"
 519      74726F6E 
 519      626F7420 
 519      4E617469 
 519      76652049 
 520              		.section	.text.USBD_UsrStrDescriptor,"ax",%progbits
 521              		.align	1
 522              		.global	USBD_UsrStrDescriptor
 523              		.syntax unified
 524              		.thumb
 525              		.thumb_func
 527              	USBD_UsrStrDescriptor:
 528              	.LVL47:
 529              	.LFB134:
 162:Src/usbd_desc.c ****   *length = 0;
 530              		.loc 1 162 1 is_stmt 1 view -0
 531              		.cfi_startproc
 532              		@ args = 0, pretend = 0, frame = 0
 533              		@ frame_needed = 0, uses_anonymous_args = 0
 162:Src/usbd_desc.c ****   *length = 0;
 534              		.loc 1 162 1 is_stmt 0 view .LVU115
 535 0000 38B5     		push	{r3, r4, r5, lr}
 536              	.LCFI8:
 537              		.cfi_def_cfa_offset 16
 538              		.cfi_offset 3, -16
 539              		.cfi_offset 4, -12
 540              		.cfi_offset 5, -8
 541              		.cfi_offset 14, -4
 542 0002 0C46     		mov	r4, r1
 543 0004 1546     		mov	r5, r2
 163:Src/usbd_desc.c ****   printf("index = %x\r\n",index);
 544              		.loc 1 163 3 is_stmt 1 view .LVU116
 163:Src/usbd_desc.c ****   printf("index = %x\r\n",index);
 545              		.loc 1 163 11 is_stmt 0 view .LVU117
 546 0006 0023     		movs	r3, #0
 547 0008 1380     		strh	r3, [r2]	@ movhi
 164:Src/usbd_desc.c ****   if (USBD_IDX_MICROSOFT_DESC_STR == index) {
 548              		.loc 1 164 3 is_stmt 1 view .LVU118
 549 000a 0A48     		ldr	r0, .L56
 550              	.LVL48:
 164:Src/usbd_desc.c ****   if (USBD_IDX_MICROSOFT_DESC_STR == index) {
 551              		.loc 1 164 3 is_stmt 0 view .LVU119
ARM GAS  C:\Users\ADMINI~1\AppData\Local\Temp\cc1p207y.s 			page 21


 552 000c FFF7FEFF 		bl	printf
 553              	.LVL49:
 165:Src/usbd_desc.c ****     *length = sizeof (USBD_MS_OS_StringDescriptor);
 554              		.loc 1 165 3 is_stmt 1 view .LVU120
 165:Src/usbd_desc.c ****     *length = sizeof (USBD_MS_OS_StringDescriptor);
 555              		.loc 1 165 6 is_stmt 0 view .LVU121
 556 0010 EE2C     		cmp	r4, #238
 557 0012 03D0     		beq	.L54
 168:Src/usbd_desc.c ****     USBD_GetString((uint8_t *)USBD_PRODUCT_XSTR(NATIVE_STRING), USBD_StrDesc, length);
 558              		.loc 1 168 10 is_stmt 1 view .LVU122
 168:Src/usbd_desc.c ****     USBD_GetString((uint8_t *)USBD_PRODUCT_XSTR(NATIVE_STRING), USBD_StrDesc, length);
 559              		.loc 1 168 13 is_stmt 0 view .LVU123
 560 0014 062C     		cmp	r4, #6
 561 0016 05D0     		beq	.L55
 172:Src/usbd_desc.c **** }
 562              		.loc 1 172 10 view .LVU124
 563 0018 0020     		movs	r0, #0
 564              	.L49:
 173:Src/usbd_desc.c **** /** @defgroup USBD_DESC_Private_FunctionPrototypes USBD_DESC_Private_FunctionPrototypes
 565              		.loc 1 173 1 view .LVU125
 566 001a 38BD     		pop	{r3, r4, r5, pc}
 567              	.LVL50:
 568              	.L54:
 166:Src/usbd_desc.c ****     return USBD_MS_OS_StringDescriptor;
 569              		.loc 1 166 5 is_stmt 1 view .LVU126
 166:Src/usbd_desc.c ****     return USBD_MS_OS_StringDescriptor;
 570              		.loc 1 166 13 is_stmt 0 view .LVU127
 571 001c 1223     		movs	r3, #18
 572 001e 2B80     		strh	r3, [r5]	@ movhi
 167:Src/usbd_desc.c ****   } else if (USBD_IDX_ODRIVE_INTF_STR == index) {
 573              		.loc 1 167 5 is_stmt 1 view .LVU128
 167:Src/usbd_desc.c ****   } else if (USBD_IDX_ODRIVE_INTF_STR == index) {
 574              		.loc 1 167 12 is_stmt 0 view .LVU129
 575 0020 0548     		ldr	r0, .L56+4
 576 0022 FAE7     		b	.L49
 577              	.L55:
 169:Src/usbd_desc.c ****     return USBD_StrDesc;
 578              		.loc 1 169 5 is_stmt 1 view .LVU130
 579 0024 054C     		ldr	r4, .L56+8
 580 0026 2A46     		mov	r2, r5
 581 0028 2146     		mov	r1, r4
 582 002a 0548     		ldr	r0, .L56+12
 583 002c FFF7FEFF 		bl	USBD_GetString
 584              	.LVL51:
 170:Src/usbd_desc.c ****   }
 585              		.loc 1 170 5 view .LVU131
 170:Src/usbd_desc.c ****   }
 586              		.loc 1 170 12 is_stmt 0 view .LVU132
 587 0030 2046     		mov	r0, r4
 588 0032 F2E7     		b	.L49
 589              	.L57:
 590              		.align	2
 591              	.L56:
 592 0034 00000000 		.word	.LC4
 593 0038 00000000 		.word	.LANCHOR4
 594 003c 00000000 		.word	.LANCHOR3
 595 0040 10000000 		.word	.LC5
ARM GAS  C:\Users\ADMINI~1\AppData\Local\Temp\cc1p207y.s 			page 22


 596              		.cfi_endproc
 597              	.LFE134:
 599              		.global	USBD_StringSerial
 600              		.global	USBD_LangIDDesc
 601              		.global	USBD_FS_DeviceDesc
 602              		.global	FS_Desc
 603              		.global	USBD_StrDesc
 604              		.global	USBD_MS_OS_StringDescriptor
 605              		.section	.bss.USBD_StrDesc,"aw",%nobits
 606              		.align	2
 607              		.set	.LANCHOR3,. + 0
 610              	USBD_StrDesc:
 611 0000 00000000 		.space	512
 611      00000000 
 611      00000000 
 611      00000000 
 611      00000000 
 612              		.section	.data.FS_Desc,"aw"
 613              		.align	2
 616              	FS_Desc:
 617 0000 00000000 		.word	USBD_FS_DeviceDescriptor
 618 0004 00000000 		.word	USBD_FS_LangIDStrDescriptor
 619 0008 00000000 		.word	USBD_FS_ManufacturerStrDescriptor
 620 000c 00000000 		.word	USBD_FS_ProductStrDescriptor
 621 0010 00000000 		.word	USBD_FS_SerialStrDescriptor
 622 0014 00000000 		.word	USBD_FS_ConfigStrDescriptor
 623 0018 00000000 		.word	USBD_FS_InterfaceStrDescriptor
 624              		.section	.data.USBD_FS_DeviceDesc,"aw"
 625              		.align	2
 626              		.set	.LANCHOR0,. + 0
 629              	USBD_FS_DeviceDesc:
 630 0000 12010002 		.ascii	"\022\001\000\002\357\002\001@\011\0222\015\000\003\001"
 630      EF020140 
 630      0912320D 
 630      000301
 631 000f 020301   		.ascii	"\002\003\001"
 632              		.section	.data.USBD_LangIDDesc,"aw"
 633              		.align	2
 634              		.set	.LANCHOR1,. + 0
 637              	USBD_LangIDDesc:
 638 0000 04030904 		.ascii	"\004\003\011\004"
 639              		.section	.data.USBD_MS_OS_StringDescriptor,"aw"
 640              		.align	2
 641              		.set	.LANCHOR4,. + 0
 644              	USBD_MS_OS_StringDescriptor:
 645 0000 12034D00 		.ascii	"\022\003M\000S\000F\000T\0001\0000\0000\000P\000"
 645      53004600 
 645      54003100 
 645      30003000 
 645      5000
 646              		.section	.data.USBD_StringSerial,"aw"
 647              		.align	2
 648              		.set	.LANCHOR2,. + 0
 651              	USBD_StringSerial:
 652 0000 1A0300   		.ascii	"\032\003\000"
 653 0003 00000000 		.space	23
 653      00000000 
ARM GAS  C:\Users\ADMINI~1\AppData\Local\Temp\cc1p207y.s 			page 23


 653      00000000 
 653      00000000 
 653      00000000 
 654              		.text
 655              	.Letext0:
 656              		.file 2 "c:\\program files (x86)\\gnu arm embedded toolchain\\10 2021.10\\arm-none-eabi\\include\\
 657              		.file 3 "c:\\program files (x86)\\gnu arm embedded toolchain\\10 2021.10\\arm-none-eabi\\include\\
 658              		.file 4 "Middlewares/ST/STM32_USB_Device_Library/Core/Inc/usbd_def.h"
 659              		.file 5 "Inc/usbd_desc.h"
 660              		.file 6 "Middlewares/ST/STM32_USB_Device_Library/Core/Inc/usbd_ctlreq.h"
 661              		.file 7 "c:\\program files (x86)\\gnu arm embedded toolchain\\10 2021.10\\arm-none-eabi\\include\\
ARM GAS  C:\Users\ADMINI~1\AppData\Local\Temp\cc1p207y.s 			page 24

