ARM GAS  C:\Users\ADMINI~1\AppData\Local\Temp\ccGIMzdt.s 			page 1


   1              		.cpu cortex-m0
   2              		.arch armv6s-m
   3              		.fpu softvfp
   4              		.eabi_attribute 20, 1
   5              		.eabi_attribute 21, 1
   6              		.eabi_attribute 23, 3
   7              		.eabi_attribute 24, 1
   8              		.eabi_attribute 25, 1
   9              		.eabi_attribute 26, 1
  10              		.eabi_attribute 30, 1
  11              		.eabi_attribute 34, 0
  12              		.eabi_attribute 18, 4
  13              		.file	"adc.c"
  14              		.text
  15              	.Ltext0:
  16              		.cfi_sections	.debug_frame
  17              		.section	.text.MX_ADC_Init,"ax",%progbits
  18              		.align	1
  19              		.global	MX_ADC_Init
  20              		.syntax unified
  21              		.code	16
  22              		.thumb_func
  24              	MX_ADC_Init:
  25              	.LFB40:
  26              		.file 1 "Src/adc.c"
   1:Src/adc.c     **** /* USER CODE BEGIN Header */
   2:Src/adc.c     **** /**
   3:Src/adc.c     ****   ******************************************************************************
   4:Src/adc.c     ****   * @file    adc.c
   5:Src/adc.c     ****   * @brief   This file provides code for the configuration
   6:Src/adc.c     ****   *          of the ADC instances.
   7:Src/adc.c     ****   ******************************************************************************
   8:Src/adc.c     ****   * @attention
   9:Src/adc.c     ****   *
  10:Src/adc.c     ****   * Copyright (c) 2022 STMicroelectronics.
  11:Src/adc.c     ****   * All rights reserved.
  12:Src/adc.c     ****   *
  13:Src/adc.c     ****   * This software is licensed under terms that can be found in the LICENSE file
  14:Src/adc.c     ****   * in the root directory of this software component.
  15:Src/adc.c     ****   * If no LICENSE file comes with this software, it is provided AS-IS.
  16:Src/adc.c     ****   *
  17:Src/adc.c     ****   ******************************************************************************
  18:Src/adc.c     ****   */
  19:Src/adc.c     **** /* USER CODE END Header */
  20:Src/adc.c     **** /* Includes ------------------------------------------------------------------*/
  21:Src/adc.c     **** #include "adc.h"
  22:Src/adc.c     **** 
  23:Src/adc.c     **** /* USER CODE BEGIN 0 */
  24:Src/adc.c     **** uint16_t adcData[4];
  25:Src/adc.c     **** /* USER CODE END 0 */
  26:Src/adc.c     **** 
  27:Src/adc.c     **** ADC_HandleTypeDef hadc;
  28:Src/adc.c     **** DMA_HandleTypeDef hdma_adc;
  29:Src/adc.c     **** 
  30:Src/adc.c     **** /* ADC init function */
  31:Src/adc.c     **** void MX_ADC_Init(void)
  32:Src/adc.c     **** {
ARM GAS  C:\Users\ADMINI~1\AppData\Local\Temp\ccGIMzdt.s 			page 2


  27              		.loc 1 32 1 view -0
  28              		.cfi_startproc
  29              		@ args = 0, pretend = 0, frame = 16
  30              		@ frame_needed = 0, uses_anonymous_args = 0
  31 0000 00B5     		push	{lr}
  32              	.LCFI0:
  33              		.cfi_def_cfa_offset 4
  34              		.cfi_offset 14, -4
  35 0002 85B0     		sub	sp, sp, #20
  36              	.LCFI1:
  37              		.cfi_def_cfa_offset 24
  33:Src/adc.c     **** 
  34:Src/adc.c     ****   /* USER CODE BEGIN ADC_Init 0 */
  35:Src/adc.c     **** 
  36:Src/adc.c     ****   /* USER CODE END ADC_Init 0 */
  37:Src/adc.c     **** 
  38:Src/adc.c     ****   ADC_ChannelConfTypeDef sConfig = {0};
  38              		.loc 1 38 3 view .LVU1
  39              		.loc 1 38 26 is_stmt 0 view .LVU2
  40 0004 0C22     		movs	r2, #12
  41 0006 0021     		movs	r1, #0
  42 0008 01A8     		add	r0, sp, #4
  43 000a FFF7FEFF 		bl	memset
  44              	.LVL0:
  39:Src/adc.c     **** 
  40:Src/adc.c     ****   /* USER CODE BEGIN ADC_Init 1 */
  41:Src/adc.c     ****   /* LL_DMA_SetDataLength(DMA1,LL_DMA_CHANNEL_1,1);
  42:Src/adc.c     ****   LL_DMA_SetMemoryAddress(DMA1,LL_DMA_CHANNEL_1,(uint32_t )&adcData);
  43:Src/adc.c     ****   LL_DMA_SetPeriphAddress(DMA1,LL_DMA_CHANNEL_1,LL_ADC_DMA_GetRegAddr(ADC1,LL_ADC_DMA_REG_REGULAR_D
  44:Src/adc.c     ****   LL_DMA_EnableIT_TC(DMA1,LL_DMA_CHANNEL_1); */
  45:Src/adc.c     **** 
  46:Src/adc.c     ****   /* USER CODE END ADC_Init 1 */
  47:Src/adc.c     **** 
  48:Src/adc.c     ****   /** Configure the global features of the ADC (Clock, Resolution, Data Alignment and number of con
  49:Src/adc.c     ****   */
  50:Src/adc.c     ****   hadc.Instance = ADC1;
  45              		.loc 1 50 3 is_stmt 1 view .LVU3
  46              		.loc 1 50 17 is_stmt 0 view .LVU4
  47 000e 1848     		ldr	r0, .L6
  48 0010 184B     		ldr	r3, .L6+4
  49 0012 0360     		str	r3, [r0]
  51:Src/adc.c     ****   hadc.Init.ClockPrescaler = ADC_CLOCK_ASYNC_DIV1;
  50              		.loc 1 51 3 is_stmt 1 view .LVU5
  51              		.loc 1 51 28 is_stmt 0 view .LVU6
  52 0014 0023     		movs	r3, #0
  53 0016 4360     		str	r3, [r0, #4]
  52:Src/adc.c     ****   hadc.Init.Resolution = ADC_RESOLUTION_12B;
  54              		.loc 1 52 3 is_stmt 1 view .LVU7
  55              		.loc 1 52 24 is_stmt 0 view .LVU8
  56 0018 8360     		str	r3, [r0, #8]
  53:Src/adc.c     ****   hadc.Init.DataAlign = ADC_DATAALIGN_RIGHT;
  57              		.loc 1 53 3 is_stmt 1 view .LVU9
  58              		.loc 1 53 23 is_stmt 0 view .LVU10
  59 001a C360     		str	r3, [r0, #12]
  54:Src/adc.c     ****   hadc.Init.ScanConvMode = ADC_SCAN_DIRECTION_FORWARD;
  60              		.loc 1 54 3 is_stmt 1 view .LVU11
  61              		.loc 1 54 26 is_stmt 0 view .LVU12
ARM GAS  C:\Users\ADMINI~1\AppData\Local\Temp\ccGIMzdt.s 			page 3


  62 001c 0122     		movs	r2, #1
  63 001e 0261     		str	r2, [r0, #16]
  55:Src/adc.c     ****   hadc.Init.EOCSelection = ADC_EOC_SINGLE_CONV;
  64              		.loc 1 55 3 is_stmt 1 view .LVU13
  65              		.loc 1 55 26 is_stmt 0 view .LVU14
  66 0020 0421     		movs	r1, #4
  67 0022 4161     		str	r1, [r0, #20]
  56:Src/adc.c     ****   hadc.Init.LowPowerAutoWait = DISABLE;
  68              		.loc 1 56 3 is_stmt 1 view .LVU15
  69              		.loc 1 56 30 is_stmt 0 view .LVU16
  70 0024 0376     		strb	r3, [r0, #24]
  57:Src/adc.c     ****   hadc.Init.LowPowerAutoPowerOff = DISABLE;
  71              		.loc 1 57 3 is_stmt 1 view .LVU17
  72              		.loc 1 57 34 is_stmt 0 view .LVU18
  73 0026 4376     		strb	r3, [r0, #25]
  58:Src/adc.c     ****   hadc.Init.ContinuousConvMode = DISABLE;
  74              		.loc 1 58 3 is_stmt 1 view .LVU19
  75              		.loc 1 58 32 is_stmt 0 view .LVU20
  76 0028 8376     		strb	r3, [r0, #26]
  59:Src/adc.c     ****   hadc.Init.DiscontinuousConvMode = DISABLE;
  77              		.loc 1 59 3 is_stmt 1 view .LVU21
  78              		.loc 1 59 35 is_stmt 0 view .LVU22
  79 002a C376     		strb	r3, [r0, #27]
  60:Src/adc.c     ****   hadc.Init.ExternalTrigConv = ADC_SOFTWARE_START;
  80              		.loc 1 60 3 is_stmt 1 view .LVU23
  81              		.loc 1 60 30 is_stmt 0 view .LVU24
  82 002c C221     		movs	r1, #194
  83 002e FF31     		adds	r1, r1, #255
  84 0030 C161     		str	r1, [r0, #28]
  61:Src/adc.c     ****   hadc.Init.ExternalTrigConvEdge = ADC_EXTERNALTRIGCONVEDGE_NONE;
  85              		.loc 1 61 3 is_stmt 1 view .LVU25
  86              		.loc 1 61 34 is_stmt 0 view .LVU26
  87 0032 0362     		str	r3, [r0, #32]
  62:Src/adc.c     ****   hadc.Init.DMAContinuousRequests = DISABLE;
  88              		.loc 1 62 3 is_stmt 1 view .LVU27
  89              		.loc 1 62 35 is_stmt 0 view .LVU28
  90 0034 9E39     		subs	r1, r1, #158
  91 0036 FF39     		subs	r1, r1, #255
  92 0038 4354     		strb	r3, [r0, r1]
  63:Src/adc.c     ****   hadc.Init.Overrun = ADC_OVR_DATA_PRESERVED;
  93              		.loc 1 63 3 is_stmt 1 view .LVU29
  94              		.loc 1 63 21 is_stmt 0 view .LVU30
  95 003a 8262     		str	r2, [r0, #40]
  64:Src/adc.c     ****   if (HAL_ADC_Init(&hadc) != HAL_OK)
  96              		.loc 1 64 3 is_stmt 1 view .LVU31
  97              		.loc 1 64 7 is_stmt 0 view .LVU32
  98 003c FFF7FEFF 		bl	HAL_ADC_Init
  99              	.LVL1:
 100              		.loc 1 64 6 view .LVU33
 101 0040 0028     		cmp	r0, #0
 102 0042 0FD1     		bne	.L4
 103              	.L2:
  65:Src/adc.c     ****   {
  66:Src/adc.c     ****     Error_Handler();
  67:Src/adc.c     ****   }
  68:Src/adc.c     **** 
  69:Src/adc.c     ****   /** Configure for the selected ADC regular channel to be converted.
ARM GAS  C:\Users\ADMINI~1\AppData\Local\Temp\ccGIMzdt.s 			page 4


  70:Src/adc.c     ****   */
  71:Src/adc.c     ****   sConfig.Channel = ADC_CHANNEL_4;
 104              		.loc 1 71 3 is_stmt 1 view .LVU34
 105              		.loc 1 71 19 is_stmt 0 view .LVU35
 106 0044 0423     		movs	r3, #4
 107 0046 0193     		str	r3, [sp, #4]
  72:Src/adc.c     ****   sConfig.Rank = ADC_RANK_CHANNEL_NUMBER;
 108              		.loc 1 72 3 is_stmt 1 view .LVU36
 109              		.loc 1 72 16 is_stmt 0 view .LVU37
 110 0048 8023     		movs	r3, #128
 111 004a 5B01     		lsls	r3, r3, #5
 112 004c 0293     		str	r3, [sp, #8]
  73:Src/adc.c     ****   sConfig.SamplingTime = ADC_SAMPLETIME_1CYCLE_5;
 113              		.loc 1 73 3 is_stmt 1 view .LVU38
 114              		.loc 1 73 24 is_stmt 0 view .LVU39
 115 004e 8023     		movs	r3, #128
 116 0050 5B05     		lsls	r3, r3, #21
 117 0052 0393     		str	r3, [sp, #12]
  74:Src/adc.c     ****   if (HAL_ADC_ConfigChannel(&hadc, &sConfig) != HAL_OK)
 118              		.loc 1 74 3 is_stmt 1 view .LVU40
 119              		.loc 1 74 7 is_stmt 0 view .LVU41
 120 0054 01A9     		add	r1, sp, #4
 121 0056 0648     		ldr	r0, .L6
 122 0058 FFF7FEFF 		bl	HAL_ADC_ConfigChannel
 123              	.LVL2:
 124              		.loc 1 74 6 view .LVU42
 125 005c 0028     		cmp	r0, #0
 126 005e 04D1     		bne	.L5
 127              	.L1:
  75:Src/adc.c     ****   {
  76:Src/adc.c     ****     Error_Handler();
  77:Src/adc.c     ****   }
  78:Src/adc.c     ****   /* USER CODE BEGIN ADC_Init 2 */
  79:Src/adc.c     ****   //LL_ADC_Enable(ADC1);
  80:Src/adc.c     ****   //LL_ADC_REG_StartConversion(ADC1);
  81:Src/adc.c     ****   /* USER CODE END ADC_Init 2 */
  82:Src/adc.c     **** 
  83:Src/adc.c     **** }
 128              		.loc 1 83 1 view .LVU43
 129 0060 05B0     		add	sp, sp, #20
 130              		@ sp needed
 131 0062 00BD     		pop	{pc}
 132              	.L4:
  66:Src/adc.c     ****   }
 133              		.loc 1 66 5 is_stmt 1 view .LVU44
 134 0064 FFF7FEFF 		bl	Error_Handler
 135              	.LVL3:
 136 0068 ECE7     		b	.L2
 137              	.L5:
  76:Src/adc.c     ****   }
 138              		.loc 1 76 5 view .LVU45
 139 006a FFF7FEFF 		bl	Error_Handler
 140              	.LVL4:
 141              		.loc 1 83 1 is_stmt 0 view .LVU46
 142 006e F7E7     		b	.L1
 143              	.L7:
 144              		.align	2
ARM GAS  C:\Users\ADMINI~1\AppData\Local\Temp\ccGIMzdt.s 			page 5


 145              	.L6:
 146 0070 00000000 		.word	.LANCHOR0
 147 0074 00240140 		.word	1073816576
 148              		.cfi_endproc
 149              	.LFE40:
 151              		.section	.text.HAL_ADC_MspInit,"ax",%progbits
 152              		.align	1
 153              		.global	HAL_ADC_MspInit
 154              		.syntax unified
 155              		.code	16
 156              		.thumb_func
 158              	HAL_ADC_MspInit:
 159              	.LVL5:
 160              	.LFB41:
  84:Src/adc.c     **** 
  85:Src/adc.c     **** void HAL_ADC_MspInit(ADC_HandleTypeDef* adcHandle)
  86:Src/adc.c     **** {
 161              		.loc 1 86 1 is_stmt 1 view -0
 162              		.cfi_startproc
 163              		@ args = 0, pretend = 0, frame = 32
 164              		@ frame_needed = 0, uses_anonymous_args = 0
 165              		.loc 1 86 1 is_stmt 0 view .LVU48
 166 0000 10B5     		push	{r4, lr}
 167              	.LCFI2:
 168              		.cfi_def_cfa_offset 8
 169              		.cfi_offset 4, -8
 170              		.cfi_offset 14, -4
 171 0002 88B0     		sub	sp, sp, #32
 172              	.LCFI3:
 173              		.cfi_def_cfa_offset 40
 174 0004 0400     		movs	r4, r0
  87:Src/adc.c     **** 
  88:Src/adc.c     ****   GPIO_InitTypeDef GPIO_InitStruct = {0};
 175              		.loc 1 88 3 is_stmt 1 view .LVU49
 176              		.loc 1 88 20 is_stmt 0 view .LVU50
 177 0006 1422     		movs	r2, #20
 178 0008 0021     		movs	r1, #0
 179 000a 03A8     		add	r0, sp, #12
 180              	.LVL6:
 181              		.loc 1 88 20 view .LVU51
 182 000c FFF7FEFF 		bl	memset
 183              	.LVL7:
  89:Src/adc.c     ****   if(adcHandle->Instance==ADC1)
 184              		.loc 1 89 3 is_stmt 1 view .LVU52
 185              		.loc 1 89 5 is_stmt 0 view .LVU53
 186 0010 1E4B     		ldr	r3, .L13
 187 0012 2268     		ldr	r2, [r4]
 188 0014 9A42     		cmp	r2, r3
 189 0016 01D0     		beq	.L11
 190              	.L8:
  90:Src/adc.c     ****   {
  91:Src/adc.c     ****   /* USER CODE BEGIN ADC1_MspInit 0 */
  92:Src/adc.c     **** 
  93:Src/adc.c     ****   /* USER CODE END ADC1_MspInit 0 */
  94:Src/adc.c     ****     /* ADC1 clock enable */
  95:Src/adc.c     ****     __HAL_RCC_ADC1_CLK_ENABLE();
  96:Src/adc.c     **** 
ARM GAS  C:\Users\ADMINI~1\AppData\Local\Temp\ccGIMzdt.s 			page 6


  97:Src/adc.c     ****     __HAL_RCC_GPIOA_CLK_ENABLE();
  98:Src/adc.c     ****     /**ADC GPIO Configuration
  99:Src/adc.c     ****     PA4     ------> ADC_IN4
 100:Src/adc.c     ****     */
 101:Src/adc.c     ****     GPIO_InitStruct.Pin = GPIO_PIN_4;
 102:Src/adc.c     ****     GPIO_InitStruct.Mode = GPIO_MODE_ANALOG;
 103:Src/adc.c     ****     GPIO_InitStruct.Pull = GPIO_NOPULL;
 104:Src/adc.c     ****     HAL_GPIO_Init(GPIOA, &GPIO_InitStruct);
 105:Src/adc.c     **** 
 106:Src/adc.c     ****     /* ADC1 DMA Init */
 107:Src/adc.c     ****     /* ADC Init */
 108:Src/adc.c     ****     hdma_adc.Instance = DMA1_Channel1;
 109:Src/adc.c     ****     hdma_adc.Init.Direction = DMA_PERIPH_TO_MEMORY;
 110:Src/adc.c     ****     hdma_adc.Init.PeriphInc = DMA_PINC_DISABLE;
 111:Src/adc.c     ****     hdma_adc.Init.MemInc = DMA_MINC_ENABLE;
 112:Src/adc.c     ****     hdma_adc.Init.PeriphDataAlignment = DMA_PDATAALIGN_HALFWORD;
 113:Src/adc.c     ****     hdma_adc.Init.MemDataAlignment = DMA_MDATAALIGN_HALFWORD;
 114:Src/adc.c     ****     hdma_adc.Init.Mode = DMA_CIRCULAR;
 115:Src/adc.c     ****     hdma_adc.Init.Priority = DMA_PRIORITY_LOW;
 116:Src/adc.c     ****     if (HAL_DMA_Init(&hdma_adc) != HAL_OK)
 117:Src/adc.c     ****     {
 118:Src/adc.c     ****       Error_Handler();
 119:Src/adc.c     ****     }
 120:Src/adc.c     **** 
 121:Src/adc.c     ****     __HAL_LINKDMA(adcHandle,DMA_Handle,hdma_adc);
 122:Src/adc.c     **** 
 123:Src/adc.c     ****   /* USER CODE BEGIN ADC1_MspInit 1 */
 124:Src/adc.c     **** 
 125:Src/adc.c     ****   /* USER CODE END ADC1_MspInit 1 */
 126:Src/adc.c     ****   }
 127:Src/adc.c     **** }
 191              		.loc 1 127 1 view .LVU54
 192 0018 08B0     		add	sp, sp, #32
 193              		@ sp needed
 194              	.LVL8:
 195              		.loc 1 127 1 view .LVU55
 196 001a 10BD     		pop	{r4, pc}
 197              	.LVL9:
 198              	.L11:
  95:Src/adc.c     **** 
 199              		.loc 1 95 5 is_stmt 1 view .LVU56
 200              	.LBB2:
  95:Src/adc.c     **** 
 201              		.loc 1 95 5 view .LVU57
  95:Src/adc.c     **** 
 202              		.loc 1 95 5 view .LVU58
 203 001c 1C4B     		ldr	r3, .L13+4
 204 001e 9969     		ldr	r1, [r3, #24]
 205 0020 8020     		movs	r0, #128
 206 0022 8000     		lsls	r0, r0, #2
 207 0024 0143     		orrs	r1, r0
 208 0026 9961     		str	r1, [r3, #24]
  95:Src/adc.c     **** 
 209              		.loc 1 95 5 view .LVU59
 210 0028 9A69     		ldr	r2, [r3, #24]
 211 002a 0240     		ands	r2, r0
 212 002c 0192     		str	r2, [sp, #4]
ARM GAS  C:\Users\ADMINI~1\AppData\Local\Temp\ccGIMzdt.s 			page 7


  95:Src/adc.c     **** 
 213              		.loc 1 95 5 view .LVU60
 214 002e 019A     		ldr	r2, [sp, #4]
 215              	.LBE2:
  95:Src/adc.c     **** 
 216              		.loc 1 95 5 view .LVU61
  97:Src/adc.c     ****     /**ADC GPIO Configuration
 217              		.loc 1 97 5 view .LVU62
 218              	.LBB3:
  97:Src/adc.c     ****     /**ADC GPIO Configuration
 219              		.loc 1 97 5 view .LVU63
  97:Src/adc.c     ****     /**ADC GPIO Configuration
 220              		.loc 1 97 5 view .LVU64
 221 0030 5A69     		ldr	r2, [r3, #20]
 222 0032 8021     		movs	r1, #128
 223 0034 8902     		lsls	r1, r1, #10
 224 0036 0A43     		orrs	r2, r1
 225 0038 5A61     		str	r2, [r3, #20]
  97:Src/adc.c     ****     /**ADC GPIO Configuration
 226              		.loc 1 97 5 view .LVU65
 227 003a 5B69     		ldr	r3, [r3, #20]
 228 003c 0B40     		ands	r3, r1
 229 003e 0293     		str	r3, [sp, #8]
  97:Src/adc.c     ****     /**ADC GPIO Configuration
 230              		.loc 1 97 5 view .LVU66
 231 0040 029B     		ldr	r3, [sp, #8]
 232              	.LBE3:
  97:Src/adc.c     ****     /**ADC GPIO Configuration
 233              		.loc 1 97 5 view .LVU67
 101:Src/adc.c     ****     GPIO_InitStruct.Mode = GPIO_MODE_ANALOG;
 234              		.loc 1 101 5 view .LVU68
 101:Src/adc.c     ****     GPIO_InitStruct.Mode = GPIO_MODE_ANALOG;
 235              		.loc 1 101 25 is_stmt 0 view .LVU69
 236 0042 1023     		movs	r3, #16
 237 0044 0393     		str	r3, [sp, #12]
 102:Src/adc.c     ****     GPIO_InitStruct.Pull = GPIO_NOPULL;
 238              		.loc 1 102 5 is_stmt 1 view .LVU70
 102:Src/adc.c     ****     GPIO_InitStruct.Pull = GPIO_NOPULL;
 239              		.loc 1 102 26 is_stmt 0 view .LVU71
 240 0046 0D3B     		subs	r3, r3, #13
 241 0048 0493     		str	r3, [sp, #16]
 103:Src/adc.c     ****     HAL_GPIO_Init(GPIOA, &GPIO_InitStruct);
 242              		.loc 1 103 5 is_stmt 1 view .LVU72
 104:Src/adc.c     **** 
 243              		.loc 1 104 5 view .LVU73
 244 004a 7138     		subs	r0, r0, #113
 245 004c FF38     		subs	r0, r0, #255
 246 004e 03A9     		add	r1, sp, #12
 247 0050 C005     		lsls	r0, r0, #23
 248 0052 FFF7FEFF 		bl	HAL_GPIO_Init
 249              	.LVL10:
 108:Src/adc.c     ****     hdma_adc.Init.Direction = DMA_PERIPH_TO_MEMORY;
 250              		.loc 1 108 5 view .LVU74
 108:Src/adc.c     ****     hdma_adc.Init.Direction = DMA_PERIPH_TO_MEMORY;
 251              		.loc 1 108 23 is_stmt 0 view .LVU75
 252 0056 0F48     		ldr	r0, .L13+8
 253 0058 0F4B     		ldr	r3, .L13+12
ARM GAS  C:\Users\ADMINI~1\AppData\Local\Temp\ccGIMzdt.s 			page 8


 254 005a 0360     		str	r3, [r0]
 109:Src/adc.c     ****     hdma_adc.Init.PeriphInc = DMA_PINC_DISABLE;
 255              		.loc 1 109 5 is_stmt 1 view .LVU76
 109:Src/adc.c     ****     hdma_adc.Init.PeriphInc = DMA_PINC_DISABLE;
 256              		.loc 1 109 29 is_stmt 0 view .LVU77
 257 005c 0023     		movs	r3, #0
 258 005e 4360     		str	r3, [r0, #4]
 110:Src/adc.c     ****     hdma_adc.Init.MemInc = DMA_MINC_ENABLE;
 259              		.loc 1 110 5 is_stmt 1 view .LVU78
 110:Src/adc.c     ****     hdma_adc.Init.MemInc = DMA_MINC_ENABLE;
 260              		.loc 1 110 29 is_stmt 0 view .LVU79
 261 0060 8360     		str	r3, [r0, #8]
 111:Src/adc.c     ****     hdma_adc.Init.PeriphDataAlignment = DMA_PDATAALIGN_HALFWORD;
 262              		.loc 1 111 5 is_stmt 1 view .LVU80
 111:Src/adc.c     ****     hdma_adc.Init.PeriphDataAlignment = DMA_PDATAALIGN_HALFWORD;
 263              		.loc 1 111 26 is_stmt 0 view .LVU81
 264 0062 8022     		movs	r2, #128
 265 0064 C260     		str	r2, [r0, #12]
 112:Src/adc.c     ****     hdma_adc.Init.MemDataAlignment = DMA_MDATAALIGN_HALFWORD;
 266              		.loc 1 112 5 is_stmt 1 view .LVU82
 112:Src/adc.c     ****     hdma_adc.Init.MemDataAlignment = DMA_MDATAALIGN_HALFWORD;
 267              		.loc 1 112 39 is_stmt 0 view .LVU83
 268 0066 8032     		adds	r2, r2, #128
 269 0068 0261     		str	r2, [r0, #16]
 113:Src/adc.c     ****     hdma_adc.Init.Mode = DMA_CIRCULAR;
 270              		.loc 1 113 5 is_stmt 1 view .LVU84
 113:Src/adc.c     ****     hdma_adc.Init.Mode = DMA_CIRCULAR;
 271              		.loc 1 113 36 is_stmt 0 view .LVU85
 272 006a 8022     		movs	r2, #128
 273 006c D200     		lsls	r2, r2, #3
 274 006e 4261     		str	r2, [r0, #20]
 114:Src/adc.c     ****     hdma_adc.Init.Priority = DMA_PRIORITY_LOW;
 275              		.loc 1 114 5 is_stmt 1 view .LVU86
 114:Src/adc.c     ****     hdma_adc.Init.Priority = DMA_PRIORITY_LOW;
 276              		.loc 1 114 24 is_stmt 0 view .LVU87
 277 0070 2022     		movs	r2, #32
 278 0072 8261     		str	r2, [r0, #24]
 115:Src/adc.c     ****     if (HAL_DMA_Init(&hdma_adc) != HAL_OK)
 279              		.loc 1 115 5 is_stmt 1 view .LVU88
 115:Src/adc.c     ****     if (HAL_DMA_Init(&hdma_adc) != HAL_OK)
 280              		.loc 1 115 28 is_stmt 0 view .LVU89
 281 0074 C361     		str	r3, [r0, #28]
 116:Src/adc.c     ****     {
 282              		.loc 1 116 5 is_stmt 1 view .LVU90
 116:Src/adc.c     ****     {
 283              		.loc 1 116 9 is_stmt 0 view .LVU91
 284 0076 FFF7FEFF 		bl	HAL_DMA_Init
 285              	.LVL11:
 116:Src/adc.c     ****     {
 286              		.loc 1 116 8 view .LVU92
 287 007a 0028     		cmp	r0, #0
 288 007c 03D1     		bne	.L12
 289              	.L10:
 121:Src/adc.c     **** 
 290              		.loc 1 121 5 is_stmt 1 view .LVU93
 121:Src/adc.c     **** 
 291              		.loc 1 121 5 view .LVU94
ARM GAS  C:\Users\ADMINI~1\AppData\Local\Temp\ccGIMzdt.s 			page 9


 292 007e 054B     		ldr	r3, .L13+8
 293 0080 2363     		str	r3, [r4, #48]
 121:Src/adc.c     **** 
 294              		.loc 1 121 5 view .LVU95
 295 0082 5C62     		str	r4, [r3, #36]
 121:Src/adc.c     **** 
 296              		.loc 1 121 5 view .LVU96
 297              		.loc 1 127 1 is_stmt 0 view .LVU97
 298 0084 C8E7     		b	.L8
 299              	.L12:
 118:Src/adc.c     ****     }
 300              		.loc 1 118 7 is_stmt 1 view .LVU98
 301 0086 FFF7FEFF 		bl	Error_Handler
 302              	.LVL12:
 303 008a F8E7     		b	.L10
 304              	.L14:
 305              		.align	2
 306              	.L13:
 307 008c 00240140 		.word	1073816576
 308 0090 00100240 		.word	1073876992
 309 0094 00000000 		.word	.LANCHOR1
 310 0098 08000240 		.word	1073872904
 311              		.cfi_endproc
 312              	.LFE41:
 314              		.section	.text.HAL_ADC_MspDeInit,"ax",%progbits
 315              		.align	1
 316              		.global	HAL_ADC_MspDeInit
 317              		.syntax unified
 318              		.code	16
 319              		.thumb_func
 321              	HAL_ADC_MspDeInit:
 322              	.LVL13:
 323              	.LFB42:
 128:Src/adc.c     **** 
 129:Src/adc.c     **** void HAL_ADC_MspDeInit(ADC_HandleTypeDef* adcHandle)
 130:Src/adc.c     **** {
 324              		.loc 1 130 1 view -0
 325              		.cfi_startproc
 326              		@ args = 0, pretend = 0, frame = 0
 327              		@ frame_needed = 0, uses_anonymous_args = 0
 328              		.loc 1 130 1 is_stmt 0 view .LVU100
 329 0000 10B5     		push	{r4, lr}
 330              	.LCFI4:
 331              		.cfi_def_cfa_offset 8
 332              		.cfi_offset 4, -8
 333              		.cfi_offset 14, -4
 334 0002 0400     		movs	r4, r0
 131:Src/adc.c     **** 
 132:Src/adc.c     ****   if(adcHandle->Instance==ADC1)
 335              		.loc 1 132 3 is_stmt 1 view .LVU101
 336              		.loc 1 132 5 is_stmt 0 view .LVU102
 337 0004 094B     		ldr	r3, .L18
 338 0006 0268     		ldr	r2, [r0]
 339 0008 9A42     		cmp	r2, r3
 340 000a 00D0     		beq	.L17
 341              	.LVL14:
 342              	.L15:
ARM GAS  C:\Users\ADMINI~1\AppData\Local\Temp\ccGIMzdt.s 			page 10


 133:Src/adc.c     ****   {
 134:Src/adc.c     ****   /* USER CODE BEGIN ADC1_MspDeInit 0 */
 135:Src/adc.c     **** 
 136:Src/adc.c     ****   /* USER CODE END ADC1_MspDeInit 0 */
 137:Src/adc.c     ****     /* Peripheral clock disable */
 138:Src/adc.c     ****     __HAL_RCC_ADC1_CLK_DISABLE();
 139:Src/adc.c     **** 
 140:Src/adc.c     ****     /**ADC GPIO Configuration
 141:Src/adc.c     ****     PA4     ------> ADC_IN4
 142:Src/adc.c     ****     */
 143:Src/adc.c     ****     HAL_GPIO_DeInit(GPIOA, GPIO_PIN_4);
 144:Src/adc.c     **** 
 145:Src/adc.c     ****     /* ADC1 DMA DeInit */
 146:Src/adc.c     ****     HAL_DMA_DeInit(adcHandle->DMA_Handle);
 147:Src/adc.c     ****   /* USER CODE BEGIN ADC1_MspDeInit 1 */
 148:Src/adc.c     **** 
 149:Src/adc.c     ****   /* USER CODE END ADC1_MspDeInit 1 */
 150:Src/adc.c     ****   }
 151:Src/adc.c     **** }
 343              		.loc 1 151 1 view .LVU103
 344              		@ sp needed
 345              	.LVL15:
 346              		.loc 1 151 1 view .LVU104
 347 000c 10BD     		pop	{r4, pc}
 348              	.LVL16:
 349              	.L17:
 138:Src/adc.c     **** 
 350              		.loc 1 138 5 is_stmt 1 view .LVU105
 351 000e 084A     		ldr	r2, .L18+4
 352 0010 9369     		ldr	r3, [r2, #24]
 353 0012 0849     		ldr	r1, .L18+8
 354 0014 0B40     		ands	r3, r1
 355 0016 9361     		str	r3, [r2, #24]
 143:Src/adc.c     **** 
 356              		.loc 1 143 5 view .LVU106
 357 0018 9020     		movs	r0, #144
 358              	.LVL17:
 143:Src/adc.c     **** 
 359              		.loc 1 143 5 is_stmt 0 view .LVU107
 360 001a 1021     		movs	r1, #16
 361 001c C005     		lsls	r0, r0, #23
 362 001e FFF7FEFF 		bl	HAL_GPIO_DeInit
 363              	.LVL18:
 146:Src/adc.c     ****   /* USER CODE BEGIN ADC1_MspDeInit 1 */
 364              		.loc 1 146 5 is_stmt 1 view .LVU108
 365 0022 206B     		ldr	r0, [r4, #48]
 366 0024 FFF7FEFF 		bl	HAL_DMA_DeInit
 367              	.LVL19:
 368              		.loc 1 151 1 is_stmt 0 view .LVU109
 369 0028 F0E7     		b	.L15
 370              	.L19:
 371 002a C046     		.align	2
 372              	.L18:
 373 002c 00240140 		.word	1073816576
 374 0030 00100240 		.word	1073876992
 375 0034 FFFDFFFF 		.word	-513
 376              		.cfi_endproc
ARM GAS  C:\Users\ADMINI~1\AppData\Local\Temp\ccGIMzdt.s 			page 11


 377              	.LFE42:
 379              		.global	hdma_adc
 380              		.global	hadc
 381              		.global	adcData
 382              		.section	.bss.adcData,"aw",%nobits
 383              		.align	2
 386              	adcData:
 387 0000 00000000 		.space	8
 387      00000000 
 388              		.section	.bss.hadc,"aw",%nobits
 389              		.align	2
 390              		.set	.LANCHOR0,. + 0
 393              	hadc:
 394 0000 00000000 		.space	64
 394      00000000 
 394      00000000 
 394      00000000 
 394      00000000 
 395              		.section	.bss.hdma_adc,"aw",%nobits
 396              		.align	2
 397              		.set	.LANCHOR1,. + 0
 400              	hdma_adc:
 401 0000 00000000 		.space	68
 401      00000000 
 401      00000000 
 401      00000000 
 401      00000000 
 402              		.text
 403              	.Letext0:
 404              		.file 2 "c:\\program files (x86)\\gnu arm embedded toolchain\\10 2021.10\\arm-none-eabi\\include\\
 405              		.file 3 "c:\\program files (x86)\\gnu arm embedded toolchain\\10 2021.10\\arm-none-eabi\\include\\
 406              		.file 4 "Drivers/CMSIS/Device/ST/STM32F0xx/Include/stm32f030x6.h"
 407              		.file 5 "Drivers/CMSIS/Device/ST/STM32F0xx/Include/stm32f0xx.h"
 408              		.file 6 "Drivers/STM32F0xx_HAL_Driver/Inc/stm32f0xx_hal_def.h"
 409              		.file 7 "Drivers/STM32F0xx_HAL_Driver/Inc/stm32f0xx_hal_gpio.h"
 410              		.file 8 "Drivers/STM32F0xx_HAL_Driver/Inc/stm32f0xx_hal_dma.h"
 411              		.file 9 "Drivers/STM32F0xx_HAL_Driver/Inc/stm32f0xx_hal_adc.h"
 412              		.file 10 "Inc/adc.h"
 413              		.file 11 "Inc/main.h"
 414              		.file 12 "<built-in>"
ARM GAS  C:\Users\ADMINI~1\AppData\Local\Temp\ccGIMzdt.s 			page 12

