ARM GAS  C:\Users\ADMINI~1\AppData\Local\Temp\ccPvM60L.s 			page 1


   1              		.cpu cortex-m0
   2              		.arch armv6s-m
   3              		.fpu softvfp
   4              		.eabi_attribute 20, 1
   5              		.eabi_attribute 21, 1
   6              		.eabi_attribute 23, 3
   7              		.eabi_attribute 24, 1
   8              		.eabi_attribute 25, 1
   9              		.eabi_attribute 26, 1
  10              		.eabi_attribute 30, 1
  11              		.eabi_attribute 34, 0
  12              		.eabi_attribute 18, 4
  13              		.file	"usart.c"
  14              		.text
  15              	.Ltext0:
  16              		.cfi_sections	.debug_frame
  17              		.section	.text.MX_USART1_UART_Init,"ax",%progbits
  18              		.align	1
  19              		.global	MX_USART1_UART_Init
  20              		.syntax unified
  21              		.code	16
  22              		.thumb_func
  24              	MX_USART1_UART_Init:
  25              	.LFB40:
  26              		.file 1 "Src/usart.c"
   1:Src/usart.c   **** /* USER CODE BEGIN Header */
   2:Src/usart.c   **** /**
   3:Src/usart.c   ****   ******************************************************************************
   4:Src/usart.c   ****   * @file    usart.c
   5:Src/usart.c   ****   * @brief   This file provides code for the configuration
   6:Src/usart.c   ****   *          of the USART instances.
   7:Src/usart.c   ****   ******************************************************************************
   8:Src/usart.c   ****   * @attention
   9:Src/usart.c   ****   *
  10:Src/usart.c   ****   * Copyright (c) 2022 STMicroelectronics.
  11:Src/usart.c   ****   * All rights reserved.
  12:Src/usart.c   ****   *
  13:Src/usart.c   ****   * This software is licensed under terms that can be found in the LICENSE file
  14:Src/usart.c   ****   * in the root directory of this software component.
  15:Src/usart.c   ****   * If no LICENSE file comes with this software, it is provided AS-IS.
  16:Src/usart.c   ****   *
  17:Src/usart.c   ****   ******************************************************************************
  18:Src/usart.c   ****   */
  19:Src/usart.c   **** /* USER CODE END Header */
  20:Src/usart.c   **** /* Includes ------------------------------------------------------------------*/
  21:Src/usart.c   **** #include "usart.h"
  22:Src/usart.c   **** 
  23:Src/usart.c   **** /* USER CODE BEGIN 0 */
  24:Src/usart.c   **** 
  25:Src/usart.c   **** /* USER CODE END 0 */
  26:Src/usart.c   **** 
  27:Src/usart.c   **** UART_HandleTypeDef huart1;
  28:Src/usart.c   **** 
  29:Src/usart.c   **** /* USART1 init function */
  30:Src/usart.c   **** 
  31:Src/usart.c   **** void MX_USART1_UART_Init(void)
  32:Src/usart.c   **** {
ARM GAS  C:\Users\ADMINI~1\AppData\Local\Temp\ccPvM60L.s 			page 2


  27              		.loc 1 32 1 view -0
  28              		.cfi_startproc
  29              		@ args = 0, pretend = 0, frame = 0
  30              		@ frame_needed = 0, uses_anonymous_args = 0
  31 0000 10B5     		push	{r4, lr}
  32              	.LCFI0:
  33              		.cfi_def_cfa_offset 8
  34              		.cfi_offset 4, -8
  35              		.cfi_offset 14, -4
  33:Src/usart.c   **** 
  34:Src/usart.c   ****   /* USER CODE BEGIN USART1_Init 0 */
  35:Src/usart.c   **** 
  36:Src/usart.c   ****   /* USER CODE END USART1_Init 0 */
  37:Src/usart.c   **** 
  38:Src/usart.c   ****   /* USER CODE BEGIN USART1_Init 1 */
  39:Src/usart.c   **** 
  40:Src/usart.c   ****   /* USER CODE END USART1_Init 1 */
  41:Src/usart.c   ****   huart1.Instance = USART1;
  36              		.loc 1 41 3 view .LVU1
  37              		.loc 1 41 19 is_stmt 0 view .LVU2
  38 0002 0C48     		ldr	r0, .L4
  39 0004 0C4B     		ldr	r3, .L4+4
  40 0006 0360     		str	r3, [r0]
  42:Src/usart.c   ****   huart1.Init.BaudRate = 115200;
  41              		.loc 1 42 3 is_stmt 1 view .LVU3
  42              		.loc 1 42 24 is_stmt 0 view .LVU4
  43 0008 E123     		movs	r3, #225
  44 000a 5B02     		lsls	r3, r3, #9
  45 000c 4360     		str	r3, [r0, #4]
  43:Src/usart.c   ****   huart1.Init.WordLength = UART_WORDLENGTH_8B;
  46              		.loc 1 43 3 is_stmt 1 view .LVU5
  47              		.loc 1 43 26 is_stmt 0 view .LVU6
  48 000e 0023     		movs	r3, #0
  49 0010 8360     		str	r3, [r0, #8]
  44:Src/usart.c   ****   huart1.Init.StopBits = UART_STOPBITS_1;
  50              		.loc 1 44 3 is_stmt 1 view .LVU7
  51              		.loc 1 44 24 is_stmt 0 view .LVU8
  52 0012 C360     		str	r3, [r0, #12]
  45:Src/usart.c   ****   huart1.Init.Parity = UART_PARITY_NONE;
  53              		.loc 1 45 3 is_stmt 1 view .LVU9
  54              		.loc 1 45 22 is_stmt 0 view .LVU10
  55 0014 0361     		str	r3, [r0, #16]
  46:Src/usart.c   ****   huart1.Init.Mode = UART_MODE_TX_RX;
  56              		.loc 1 46 3 is_stmt 1 view .LVU11
  57              		.loc 1 46 20 is_stmt 0 view .LVU12
  58 0016 0C22     		movs	r2, #12
  59 0018 4261     		str	r2, [r0, #20]
  47:Src/usart.c   ****   huart1.Init.HwFlowCtl = UART_HWCONTROL_NONE;
  60              		.loc 1 47 3 is_stmt 1 view .LVU13
  61              		.loc 1 47 25 is_stmt 0 view .LVU14
  62 001a 8361     		str	r3, [r0, #24]
  48:Src/usart.c   ****   huart1.Init.OverSampling = UART_OVERSAMPLING_16;
  63              		.loc 1 48 3 is_stmt 1 view .LVU15
  64              		.loc 1 48 28 is_stmt 0 view .LVU16
  65 001c C361     		str	r3, [r0, #28]
  49:Src/usart.c   ****   huart1.Init.OneBitSampling = UART_ONE_BIT_SAMPLE_DISABLE;
  66              		.loc 1 49 3 is_stmt 1 view .LVU17
ARM GAS  C:\Users\ADMINI~1\AppData\Local\Temp\ccPvM60L.s 			page 3


  67              		.loc 1 49 30 is_stmt 0 view .LVU18
  68 001e 0362     		str	r3, [r0, #32]
  50:Src/usart.c   ****   huart1.AdvancedInit.AdvFeatureInit = UART_ADVFEATURE_NO_INIT;
  69              		.loc 1 50 3 is_stmt 1 view .LVU19
  70              		.loc 1 50 38 is_stmt 0 view .LVU20
  71 0020 4362     		str	r3, [r0, #36]
  51:Src/usart.c   ****   if (HAL_UART_Init(&huart1) != HAL_OK)
  72              		.loc 1 51 3 is_stmt 1 view .LVU21
  73              		.loc 1 51 7 is_stmt 0 view .LVU22
  74 0022 FFF7FEFF 		bl	HAL_UART_Init
  75              	.LVL0:
  76              		.loc 1 51 6 view .LVU23
  77 0026 0028     		cmp	r0, #0
  78 0028 00D1     		bne	.L3
  79              	.L1:
  52:Src/usart.c   ****   {
  53:Src/usart.c   ****     Error_Handler();
  54:Src/usart.c   ****   }
  55:Src/usart.c   ****   /* USER CODE BEGIN USART1_Init 2 */
  56:Src/usart.c   **** 
  57:Src/usart.c   ****   /* USER CODE END USART1_Init 2 */
  58:Src/usart.c   **** 
  59:Src/usart.c   **** }
  80              		.loc 1 59 1 view .LVU24
  81              		@ sp needed
  82 002a 10BD     		pop	{r4, pc}
  83              	.L3:
  53:Src/usart.c   ****   }
  84              		.loc 1 53 5 is_stmt 1 view .LVU25
  85 002c FFF7FEFF 		bl	Error_Handler
  86              	.LVL1:
  87              		.loc 1 59 1 is_stmt 0 view .LVU26
  88 0030 FBE7     		b	.L1
  89              	.L5:
  90 0032 C046     		.align	2
  91              	.L4:
  92 0034 00000000 		.word	huart1
  93 0038 00380140 		.word	1073821696
  94              		.cfi_endproc
  95              	.LFE40:
  97              		.section	.text.HAL_UART_MspInit,"ax",%progbits
  98              		.align	1
  99              		.global	HAL_UART_MspInit
 100              		.syntax unified
 101              		.code	16
 102              		.thumb_func
 104              	HAL_UART_MspInit:
 105              	.LVL2:
 106              	.LFB41:
  60:Src/usart.c   **** 
  61:Src/usart.c   **** void HAL_UART_MspInit(UART_HandleTypeDef* uartHandle)
  62:Src/usart.c   **** {
 107              		.loc 1 62 1 is_stmt 1 view -0
 108              		.cfi_startproc
 109              		@ args = 0, pretend = 0, frame = 32
 110              		@ frame_needed = 0, uses_anonymous_args = 0
 111              		.loc 1 62 1 is_stmt 0 view .LVU28
ARM GAS  C:\Users\ADMINI~1\AppData\Local\Temp\ccPvM60L.s 			page 4


 112 0000 10B5     		push	{r4, lr}
 113              	.LCFI1:
 114              		.cfi_def_cfa_offset 8
 115              		.cfi_offset 4, -8
 116              		.cfi_offset 14, -4
 117 0002 88B0     		sub	sp, sp, #32
 118              	.LCFI2:
 119              		.cfi_def_cfa_offset 40
 120 0004 0400     		movs	r4, r0
  63:Src/usart.c   **** 
  64:Src/usart.c   ****   GPIO_InitTypeDef GPIO_InitStruct = {0};
 121              		.loc 1 64 3 is_stmt 1 view .LVU29
 122              		.loc 1 64 20 is_stmt 0 view .LVU30
 123 0006 1422     		movs	r2, #20
 124 0008 0021     		movs	r1, #0
 125 000a 03A8     		add	r0, sp, #12
 126              	.LVL3:
 127              		.loc 1 64 20 view .LVU31
 128 000c FFF7FEFF 		bl	memset
 129              	.LVL4:
  65:Src/usart.c   ****   if(uartHandle->Instance==USART1)
 130              		.loc 1 65 3 is_stmt 1 view .LVU32
 131              		.loc 1 65 16 is_stmt 0 view .LVU33
 132 0010 2268     		ldr	r2, [r4]
 133              		.loc 1 65 5 view .LVU34
 134 0012 134B     		ldr	r3, .L9
 135 0014 9A42     		cmp	r2, r3
 136 0016 01D0     		beq	.L8
 137              	.L6:
  66:Src/usart.c   ****   {
  67:Src/usart.c   ****   /* USER CODE BEGIN USART1_MspInit 0 */
  68:Src/usart.c   **** 
  69:Src/usart.c   ****   /* USER CODE END USART1_MspInit 0 */
  70:Src/usart.c   ****     /* USART1 clock enable */
  71:Src/usart.c   ****     __HAL_RCC_USART1_CLK_ENABLE();
  72:Src/usart.c   **** 
  73:Src/usart.c   ****     __HAL_RCC_GPIOA_CLK_ENABLE();
  74:Src/usart.c   ****     /**USART1 GPIO Configuration
  75:Src/usart.c   ****     PA2     ------> USART1_TX
  76:Src/usart.c   ****     PA3     ------> USART1_RX
  77:Src/usart.c   ****     */
  78:Src/usart.c   ****     GPIO_InitStruct.Pin = GPIO_PIN_2|GPIO_PIN_3;
  79:Src/usart.c   ****     GPIO_InitStruct.Mode = GPIO_MODE_AF_PP;
  80:Src/usart.c   ****     GPIO_InitStruct.Pull = GPIO_NOPULL;
  81:Src/usart.c   ****     GPIO_InitStruct.Speed = GPIO_SPEED_FREQ_HIGH;
  82:Src/usart.c   ****     GPIO_InitStruct.Alternate = GPIO_AF1_USART1;
  83:Src/usart.c   ****     HAL_GPIO_Init(GPIOA, &GPIO_InitStruct);
  84:Src/usart.c   **** 
  85:Src/usart.c   ****   /* USER CODE BEGIN USART1_MspInit 1 */
  86:Src/usart.c   **** 
  87:Src/usart.c   ****   /* USER CODE END USART1_MspInit 1 */
  88:Src/usart.c   ****   }
  89:Src/usart.c   **** }
 138              		.loc 1 89 1 view .LVU35
 139 0018 08B0     		add	sp, sp, #32
 140              		@ sp needed
 141              	.LVL5:
ARM GAS  C:\Users\ADMINI~1\AppData\Local\Temp\ccPvM60L.s 			page 5


 142              		.loc 1 89 1 view .LVU36
 143 001a 10BD     		pop	{r4, pc}
 144              	.LVL6:
 145              	.L8:
  71:Src/usart.c   **** 
 146              		.loc 1 71 5 is_stmt 1 view .LVU37
 147              	.LBB2:
  71:Src/usart.c   **** 
 148              		.loc 1 71 5 view .LVU38
  71:Src/usart.c   **** 
 149              		.loc 1 71 5 view .LVU39
 150 001c 114B     		ldr	r3, .L9+4
 151 001e 9969     		ldr	r1, [r3, #24]
 152 0020 8020     		movs	r0, #128
 153 0022 C001     		lsls	r0, r0, #7
 154 0024 0143     		orrs	r1, r0
 155 0026 9961     		str	r1, [r3, #24]
  71:Src/usart.c   **** 
 156              		.loc 1 71 5 view .LVU40
 157 0028 9A69     		ldr	r2, [r3, #24]
 158 002a 0240     		ands	r2, r0
 159 002c 0192     		str	r2, [sp, #4]
  71:Src/usart.c   **** 
 160              		.loc 1 71 5 view .LVU41
 161 002e 019A     		ldr	r2, [sp, #4]
 162              	.LBE2:
  71:Src/usart.c   **** 
 163              		.loc 1 71 5 view .LVU42
  73:Src/usart.c   ****     /**USART1 GPIO Configuration
 164              		.loc 1 73 5 view .LVU43
 165              	.LBB3:
  73:Src/usart.c   ****     /**USART1 GPIO Configuration
 166              		.loc 1 73 5 view .LVU44
  73:Src/usart.c   ****     /**USART1 GPIO Configuration
 167              		.loc 1 73 5 view .LVU45
 168 0030 5A69     		ldr	r2, [r3, #20]
 169 0032 8021     		movs	r1, #128
 170 0034 8902     		lsls	r1, r1, #10
 171 0036 0A43     		orrs	r2, r1
 172 0038 5A61     		str	r2, [r3, #20]
  73:Src/usart.c   ****     /**USART1 GPIO Configuration
 173              		.loc 1 73 5 view .LVU46
 174 003a 5B69     		ldr	r3, [r3, #20]
 175 003c 0B40     		ands	r3, r1
 176 003e 0293     		str	r3, [sp, #8]
  73:Src/usart.c   ****     /**USART1 GPIO Configuration
 177              		.loc 1 73 5 view .LVU47
 178 0040 029B     		ldr	r3, [sp, #8]
 179              	.LBE3:
  73:Src/usart.c   ****     /**USART1 GPIO Configuration
 180              		.loc 1 73 5 view .LVU48
  78:Src/usart.c   ****     GPIO_InitStruct.Mode = GPIO_MODE_AF_PP;
 181              		.loc 1 78 5 view .LVU49
  78:Src/usart.c   ****     GPIO_InitStruct.Mode = GPIO_MODE_AF_PP;
 182              		.loc 1 78 25 is_stmt 0 view .LVU50
 183 0042 0C23     		movs	r3, #12
 184 0044 0393     		str	r3, [sp, #12]
ARM GAS  C:\Users\ADMINI~1\AppData\Local\Temp\ccPvM60L.s 			page 6


  79:Src/usart.c   ****     GPIO_InitStruct.Pull = GPIO_NOPULL;
 185              		.loc 1 79 5 is_stmt 1 view .LVU51
  79:Src/usart.c   ****     GPIO_InitStruct.Pull = GPIO_NOPULL;
 186              		.loc 1 79 26 is_stmt 0 view .LVU52
 187 0046 0A3B     		subs	r3, r3, #10
 188 0048 0493     		str	r3, [sp, #16]
  80:Src/usart.c   ****     GPIO_InitStruct.Speed = GPIO_SPEED_FREQ_HIGH;
 189              		.loc 1 80 5 is_stmt 1 view .LVU53
  81:Src/usart.c   ****     GPIO_InitStruct.Alternate = GPIO_AF1_USART1;
 190              		.loc 1 81 5 view .LVU54
  81:Src/usart.c   ****     GPIO_InitStruct.Alternate = GPIO_AF1_USART1;
 191              		.loc 1 81 27 is_stmt 0 view .LVU55
 192 004a 0133     		adds	r3, r3, #1
 193 004c 0693     		str	r3, [sp, #24]
  82:Src/usart.c   ****     HAL_GPIO_Init(GPIOA, &GPIO_InitStruct);
 194              		.loc 1 82 5 is_stmt 1 view .LVU56
  82:Src/usart.c   ****     HAL_GPIO_Init(GPIOA, &GPIO_InitStruct);
 195              		.loc 1 82 31 is_stmt 0 view .LVU57
 196 004e 023B     		subs	r3, r3, #2
 197 0050 0793     		str	r3, [sp, #28]
  83:Src/usart.c   **** 
 198              		.loc 1 83 5 is_stmt 1 view .LVU58
 199 0052 9020     		movs	r0, #144
 200 0054 03A9     		add	r1, sp, #12
 201 0056 C005     		lsls	r0, r0, #23
 202 0058 FFF7FEFF 		bl	HAL_GPIO_Init
 203              	.LVL7:
 204              		.loc 1 89 1 is_stmt 0 view .LVU59
 205 005c DCE7     		b	.L6
 206              	.L10:
 207 005e C046     		.align	2
 208              	.L9:
 209 0060 00380140 		.word	1073821696
 210 0064 00100240 		.word	1073876992
 211              		.cfi_endproc
 212              	.LFE41:
 214              		.section	.text.HAL_UART_MspDeInit,"ax",%progbits
 215              		.align	1
 216              		.global	HAL_UART_MspDeInit
 217              		.syntax unified
 218              		.code	16
 219              		.thumb_func
 221              	HAL_UART_MspDeInit:
 222              	.LVL8:
 223              	.LFB42:
  90:Src/usart.c   **** 
  91:Src/usart.c   **** void HAL_UART_MspDeInit(UART_HandleTypeDef* uartHandle)
  92:Src/usart.c   **** {
 224              		.loc 1 92 1 is_stmt 1 view -0
 225              		.cfi_startproc
 226              		@ args = 0, pretend = 0, frame = 0
 227              		@ frame_needed = 0, uses_anonymous_args = 0
 228              		.loc 1 92 1 is_stmt 0 view .LVU61
 229 0000 10B5     		push	{r4, lr}
 230              	.LCFI3:
 231              		.cfi_def_cfa_offset 8
 232              		.cfi_offset 4, -8
ARM GAS  C:\Users\ADMINI~1\AppData\Local\Temp\ccPvM60L.s 			page 7


 233              		.cfi_offset 14, -4
  93:Src/usart.c   **** 
  94:Src/usart.c   ****   if(uartHandle->Instance==USART1)
 234              		.loc 1 94 3 is_stmt 1 view .LVU62
 235              		.loc 1 94 16 is_stmt 0 view .LVU63
 236 0002 0268     		ldr	r2, [r0]
 237              		.loc 1 94 5 view .LVU64
 238 0004 074B     		ldr	r3, .L14
 239 0006 9A42     		cmp	r2, r3
 240 0008 00D0     		beq	.L13
 241              	.LVL9:
 242              	.L11:
  95:Src/usart.c   ****   {
  96:Src/usart.c   ****   /* USER CODE BEGIN USART1_MspDeInit 0 */
  97:Src/usart.c   **** 
  98:Src/usart.c   ****   /* USER CODE END USART1_MspDeInit 0 */
  99:Src/usart.c   ****     /* Peripheral clock disable */
 100:Src/usart.c   ****     __HAL_RCC_USART1_CLK_DISABLE();
 101:Src/usart.c   **** 
 102:Src/usart.c   ****     /**USART1 GPIO Configuration
 103:Src/usart.c   ****     PA2     ------> USART1_TX
 104:Src/usart.c   ****     PA3     ------> USART1_RX
 105:Src/usart.c   ****     */
 106:Src/usart.c   ****     HAL_GPIO_DeInit(GPIOA, GPIO_PIN_2|GPIO_PIN_3);
 107:Src/usart.c   **** 
 108:Src/usart.c   ****   /* USER CODE BEGIN USART1_MspDeInit 1 */
 109:Src/usart.c   **** 
 110:Src/usart.c   ****   /* USER CODE END USART1_MspDeInit 1 */
 111:Src/usart.c   ****   }
 112:Src/usart.c   **** }
 243              		.loc 1 112 1 view .LVU65
 244              		@ sp needed
 245 000a 10BD     		pop	{r4, pc}
 246              	.LVL10:
 247              	.L13:
 100:Src/usart.c   **** 
 248              		.loc 1 100 5 is_stmt 1 view .LVU66
 249 000c 064A     		ldr	r2, .L14+4
 250 000e 9369     		ldr	r3, [r2, #24]
 251 0010 0649     		ldr	r1, .L14+8
 252 0012 0B40     		ands	r3, r1
 253 0014 9361     		str	r3, [r2, #24]
 106:Src/usart.c   **** 
 254              		.loc 1 106 5 view .LVU67
 255 0016 9020     		movs	r0, #144
 256              	.LVL11:
 106:Src/usart.c   **** 
 257              		.loc 1 106 5 is_stmt 0 view .LVU68
 258 0018 0C21     		movs	r1, #12
 259 001a C005     		lsls	r0, r0, #23
 260 001c FFF7FEFF 		bl	HAL_GPIO_DeInit
 261              	.LVL12:
 262              		.loc 1 112 1 view .LVU69
 263 0020 F3E7     		b	.L11
 264              	.L15:
 265 0022 C046     		.align	2
 266              	.L14:
ARM GAS  C:\Users\ADMINI~1\AppData\Local\Temp\ccPvM60L.s 			page 8


 267 0024 00380140 		.word	1073821696
 268 0028 00100240 		.word	1073876992
 269 002c FFBFFFFF 		.word	-16385
 270              		.cfi_endproc
 271              	.LFE42:
 273              		.global	huart1
 274              		.section	.bss.huart1,"aw",%nobits
 275              		.align	2
 278              	huart1:
 279 0000 00000000 		.space	132
 279      00000000 
 279      00000000 
 279      00000000 
 279      00000000 
 280              		.text
 281              	.Letext0:
 282              		.file 2 "c:\\program files (x86)\\gnu arm embedded toolchain\\10 2021.10\\arm-none-eabi\\include\\
 283              		.file 3 "c:\\program files (x86)\\gnu arm embedded toolchain\\10 2021.10\\arm-none-eabi\\include\\
 284              		.file 4 "Drivers/CMSIS/Device/ST/STM32F0xx/Include/stm32f030x6.h"
 285              		.file 5 "Drivers/STM32F0xx_HAL_Driver/Inc/stm32f0xx_hal_def.h"
 286              		.file 6 "Drivers/STM32F0xx_HAL_Driver/Inc/stm32f0xx_hal_gpio.h"
 287              		.file 7 "Drivers/STM32F0xx_HAL_Driver/Inc/stm32f0xx_hal_dma.h"
 288              		.file 8 "Drivers/STM32F0xx_HAL_Driver/Inc/stm32f0xx_hal_uart.h"
 289              		.file 9 "Inc/main.h"
 290              		.file 10 "Inc/usart.h"
 291              		.file 11 "<built-in>"
ARM GAS  C:\Users\ADMINI~1\AppData\Local\Temp\ccPvM60L.s 			page 9

