ARM GAS  C:\Users\ADMINI~1\AppData\Local\Temp\cc3oB4jI.s 			page 1


   1              		.cpu cortex-m0
   2              		.arch armv6s-m
   3              		.fpu softvfp
   4              		.eabi_attribute 20, 1
   5              		.eabi_attribute 21, 1
   6              		.eabi_attribute 23, 3
   7              		.eabi_attribute 24, 1
   8              		.eabi_attribute 25, 1
   9              		.eabi_attribute 26, 1
  10              		.eabi_attribute 30, 1
  11              		.eabi_attribute 34, 0
  12              		.eabi_attribute 18, 4
  13              		.file	"stm32f0xx_ll_tim.c"
  14              		.text
  15              	.Ltext0:
  16              		.cfi_sections	.debug_frame
  17              		.section	.text.OC1Config,"ax",%progbits
  18              		.align	1
  19              		.syntax unified
  20              		.code	16
  21              		.thumb_func
  23              	OC1Config:
  24              	.LVL0:
  25              	.LFB246:
  26              		.file 1 "Drivers/STM32F0xx_HAL_Driver/Src/stm32f0xx_ll_tim.c"
   1:Drivers/STM32F0xx_HAL_Driver/Src/stm32f0xx_ll_tim.c **** /**
   2:Drivers/STM32F0xx_HAL_Driver/Src/stm32f0xx_ll_tim.c ****   ******************************************************************************
   3:Drivers/STM32F0xx_HAL_Driver/Src/stm32f0xx_ll_tim.c ****   * @file    stm32f0xx_ll_tim.c
   4:Drivers/STM32F0xx_HAL_Driver/Src/stm32f0xx_ll_tim.c ****   * @author  MCD Application Team
   5:Drivers/STM32F0xx_HAL_Driver/Src/stm32f0xx_ll_tim.c ****   * @brief   TIM LL module driver.
   6:Drivers/STM32F0xx_HAL_Driver/Src/stm32f0xx_ll_tim.c ****   ******************************************************************************
   7:Drivers/STM32F0xx_HAL_Driver/Src/stm32f0xx_ll_tim.c ****   * @attention
   8:Drivers/STM32F0xx_HAL_Driver/Src/stm32f0xx_ll_tim.c ****   *
   9:Drivers/STM32F0xx_HAL_Driver/Src/stm32f0xx_ll_tim.c ****   * <h2><center>&copy; Copyright (c) 2016 STMicroelectronics.
  10:Drivers/STM32F0xx_HAL_Driver/Src/stm32f0xx_ll_tim.c ****   * All rights reserved.</center></h2>
  11:Drivers/STM32F0xx_HAL_Driver/Src/stm32f0xx_ll_tim.c ****   *
  12:Drivers/STM32F0xx_HAL_Driver/Src/stm32f0xx_ll_tim.c ****   * This software component is licensed by ST under BSD 3-Clause license,
  13:Drivers/STM32F0xx_HAL_Driver/Src/stm32f0xx_ll_tim.c ****   * the "License"; You may not use this file except in compliance with the
  14:Drivers/STM32F0xx_HAL_Driver/Src/stm32f0xx_ll_tim.c ****   * License. You may obtain a copy of the License at:
  15:Drivers/STM32F0xx_HAL_Driver/Src/stm32f0xx_ll_tim.c ****   *                        opensource.org/licenses/BSD-3-Clause
  16:Drivers/STM32F0xx_HAL_Driver/Src/stm32f0xx_ll_tim.c ****   *
  17:Drivers/STM32F0xx_HAL_Driver/Src/stm32f0xx_ll_tim.c ****   ******************************************************************************
  18:Drivers/STM32F0xx_HAL_Driver/Src/stm32f0xx_ll_tim.c ****   */
  19:Drivers/STM32F0xx_HAL_Driver/Src/stm32f0xx_ll_tim.c **** #if defined(USE_FULL_LL_DRIVER)
  20:Drivers/STM32F0xx_HAL_Driver/Src/stm32f0xx_ll_tim.c **** 
  21:Drivers/STM32F0xx_HAL_Driver/Src/stm32f0xx_ll_tim.c **** /* Includes ------------------------------------------------------------------*/
  22:Drivers/STM32F0xx_HAL_Driver/Src/stm32f0xx_ll_tim.c **** #include "stm32f0xx_ll_tim.h"
  23:Drivers/STM32F0xx_HAL_Driver/Src/stm32f0xx_ll_tim.c **** #include "stm32f0xx_ll_bus.h"
  24:Drivers/STM32F0xx_HAL_Driver/Src/stm32f0xx_ll_tim.c **** 
  25:Drivers/STM32F0xx_HAL_Driver/Src/stm32f0xx_ll_tim.c **** #ifdef  USE_FULL_ASSERT
  26:Drivers/STM32F0xx_HAL_Driver/Src/stm32f0xx_ll_tim.c **** #include "stm32_assert.h"
  27:Drivers/STM32F0xx_HAL_Driver/Src/stm32f0xx_ll_tim.c **** #else
  28:Drivers/STM32F0xx_HAL_Driver/Src/stm32f0xx_ll_tim.c **** #define assert_param(expr) ((void)0U)
  29:Drivers/STM32F0xx_HAL_Driver/Src/stm32f0xx_ll_tim.c **** #endif /* USE_FULL_ASSERT */
  30:Drivers/STM32F0xx_HAL_Driver/Src/stm32f0xx_ll_tim.c **** 
  31:Drivers/STM32F0xx_HAL_Driver/Src/stm32f0xx_ll_tim.c **** /** @addtogroup STM32F0xx_LL_Driver
  32:Drivers/STM32F0xx_HAL_Driver/Src/stm32f0xx_ll_tim.c ****   * @{
ARM GAS  C:\Users\ADMINI~1\AppData\Local\Temp\cc3oB4jI.s 			page 2


  33:Drivers/STM32F0xx_HAL_Driver/Src/stm32f0xx_ll_tim.c ****   */
  34:Drivers/STM32F0xx_HAL_Driver/Src/stm32f0xx_ll_tim.c **** 
  35:Drivers/STM32F0xx_HAL_Driver/Src/stm32f0xx_ll_tim.c **** #if defined (TIM1) || defined (TIM2) || defined (TIM3) || defined (TIM14) || defined (TIM15) || def
  36:Drivers/STM32F0xx_HAL_Driver/Src/stm32f0xx_ll_tim.c **** 
  37:Drivers/STM32F0xx_HAL_Driver/Src/stm32f0xx_ll_tim.c **** /** @addtogroup TIM_LL
  38:Drivers/STM32F0xx_HAL_Driver/Src/stm32f0xx_ll_tim.c ****   * @{
  39:Drivers/STM32F0xx_HAL_Driver/Src/stm32f0xx_ll_tim.c ****   */
  40:Drivers/STM32F0xx_HAL_Driver/Src/stm32f0xx_ll_tim.c **** 
  41:Drivers/STM32F0xx_HAL_Driver/Src/stm32f0xx_ll_tim.c **** /* Private types -------------------------------------------------------------*/
  42:Drivers/STM32F0xx_HAL_Driver/Src/stm32f0xx_ll_tim.c **** /* Private variables ---------------------------------------------------------*/
  43:Drivers/STM32F0xx_HAL_Driver/Src/stm32f0xx_ll_tim.c **** /* Private constants ---------------------------------------------------------*/
  44:Drivers/STM32F0xx_HAL_Driver/Src/stm32f0xx_ll_tim.c **** /* Private macros ------------------------------------------------------------*/
  45:Drivers/STM32F0xx_HAL_Driver/Src/stm32f0xx_ll_tim.c **** /** @addtogroup TIM_LL_Private_Macros
  46:Drivers/STM32F0xx_HAL_Driver/Src/stm32f0xx_ll_tim.c ****   * @{
  47:Drivers/STM32F0xx_HAL_Driver/Src/stm32f0xx_ll_tim.c ****   */
  48:Drivers/STM32F0xx_HAL_Driver/Src/stm32f0xx_ll_tim.c **** #define IS_LL_TIM_COUNTERMODE(__VALUE__) (((__VALUE__) == LL_TIM_COUNTERMODE_UP) \
  49:Drivers/STM32F0xx_HAL_Driver/Src/stm32f0xx_ll_tim.c ****                                           || ((__VALUE__) == LL_TIM_COUNTERMODE_DOWN) \
  50:Drivers/STM32F0xx_HAL_Driver/Src/stm32f0xx_ll_tim.c ****                                           || ((__VALUE__) == LL_TIM_COUNTERMODE_CENTER_UP) \
  51:Drivers/STM32F0xx_HAL_Driver/Src/stm32f0xx_ll_tim.c ****                                           || ((__VALUE__) == LL_TIM_COUNTERMODE_CENTER_DOWN) \
  52:Drivers/STM32F0xx_HAL_Driver/Src/stm32f0xx_ll_tim.c ****                                           || ((__VALUE__) == LL_TIM_COUNTERMODE_CENTER_UP_DOWN))
  53:Drivers/STM32F0xx_HAL_Driver/Src/stm32f0xx_ll_tim.c **** 
  54:Drivers/STM32F0xx_HAL_Driver/Src/stm32f0xx_ll_tim.c **** #define IS_LL_TIM_CLOCKDIVISION(__VALUE__) (((__VALUE__) == LL_TIM_CLOCKDIVISION_DIV1) \
  55:Drivers/STM32F0xx_HAL_Driver/Src/stm32f0xx_ll_tim.c ****                                             || ((__VALUE__) == LL_TIM_CLOCKDIVISION_DIV2) \
  56:Drivers/STM32F0xx_HAL_Driver/Src/stm32f0xx_ll_tim.c ****                                             || ((__VALUE__) == LL_TIM_CLOCKDIVISION_DIV4))
  57:Drivers/STM32F0xx_HAL_Driver/Src/stm32f0xx_ll_tim.c **** 
  58:Drivers/STM32F0xx_HAL_Driver/Src/stm32f0xx_ll_tim.c **** #define IS_LL_TIM_OCMODE(__VALUE__) (((__VALUE__) == LL_TIM_OCMODE_FROZEN) \
  59:Drivers/STM32F0xx_HAL_Driver/Src/stm32f0xx_ll_tim.c ****                                      || ((__VALUE__) == LL_TIM_OCMODE_ACTIVE) \
  60:Drivers/STM32F0xx_HAL_Driver/Src/stm32f0xx_ll_tim.c ****                                      || ((__VALUE__) == LL_TIM_OCMODE_INACTIVE) \
  61:Drivers/STM32F0xx_HAL_Driver/Src/stm32f0xx_ll_tim.c ****                                      || ((__VALUE__) == LL_TIM_OCMODE_TOGGLE) \
  62:Drivers/STM32F0xx_HAL_Driver/Src/stm32f0xx_ll_tim.c ****                                      || ((__VALUE__) == LL_TIM_OCMODE_FORCED_INACTIVE) \
  63:Drivers/STM32F0xx_HAL_Driver/Src/stm32f0xx_ll_tim.c ****                                      || ((__VALUE__) == LL_TIM_OCMODE_FORCED_ACTIVE) \
  64:Drivers/STM32F0xx_HAL_Driver/Src/stm32f0xx_ll_tim.c ****                                      || ((__VALUE__) == LL_TIM_OCMODE_PWM1) \
  65:Drivers/STM32F0xx_HAL_Driver/Src/stm32f0xx_ll_tim.c ****                                      || ((__VALUE__) == LL_TIM_OCMODE_PWM2))
  66:Drivers/STM32F0xx_HAL_Driver/Src/stm32f0xx_ll_tim.c **** 
  67:Drivers/STM32F0xx_HAL_Driver/Src/stm32f0xx_ll_tim.c **** #define IS_LL_TIM_OCSTATE(__VALUE__) (((__VALUE__) == LL_TIM_OCSTATE_DISABLE) \
  68:Drivers/STM32F0xx_HAL_Driver/Src/stm32f0xx_ll_tim.c ****                                       || ((__VALUE__) == LL_TIM_OCSTATE_ENABLE))
  69:Drivers/STM32F0xx_HAL_Driver/Src/stm32f0xx_ll_tim.c **** 
  70:Drivers/STM32F0xx_HAL_Driver/Src/stm32f0xx_ll_tim.c **** #define IS_LL_TIM_OCPOLARITY(__VALUE__) (((__VALUE__) == LL_TIM_OCPOLARITY_HIGH) \
  71:Drivers/STM32F0xx_HAL_Driver/Src/stm32f0xx_ll_tim.c ****                                          || ((__VALUE__) == LL_TIM_OCPOLARITY_LOW))
  72:Drivers/STM32F0xx_HAL_Driver/Src/stm32f0xx_ll_tim.c **** 
  73:Drivers/STM32F0xx_HAL_Driver/Src/stm32f0xx_ll_tim.c **** #define IS_LL_TIM_OCIDLESTATE(__VALUE__) (((__VALUE__) == LL_TIM_OCIDLESTATE_LOW) \
  74:Drivers/STM32F0xx_HAL_Driver/Src/stm32f0xx_ll_tim.c ****                                           || ((__VALUE__) == LL_TIM_OCIDLESTATE_HIGH))
  75:Drivers/STM32F0xx_HAL_Driver/Src/stm32f0xx_ll_tim.c **** 
  76:Drivers/STM32F0xx_HAL_Driver/Src/stm32f0xx_ll_tim.c **** #define IS_LL_TIM_ACTIVEINPUT(__VALUE__) (((__VALUE__) == LL_TIM_ACTIVEINPUT_DIRECTTI) \
  77:Drivers/STM32F0xx_HAL_Driver/Src/stm32f0xx_ll_tim.c ****                                           || ((__VALUE__) == LL_TIM_ACTIVEINPUT_INDIRECTTI) \
  78:Drivers/STM32F0xx_HAL_Driver/Src/stm32f0xx_ll_tim.c ****                                           || ((__VALUE__) == LL_TIM_ACTIVEINPUT_TRC))
  79:Drivers/STM32F0xx_HAL_Driver/Src/stm32f0xx_ll_tim.c **** 
  80:Drivers/STM32F0xx_HAL_Driver/Src/stm32f0xx_ll_tim.c **** #define IS_LL_TIM_ICPSC(__VALUE__) (((__VALUE__) == LL_TIM_ICPSC_DIV1) \
  81:Drivers/STM32F0xx_HAL_Driver/Src/stm32f0xx_ll_tim.c ****                                     || ((__VALUE__) == LL_TIM_ICPSC_DIV2) \
  82:Drivers/STM32F0xx_HAL_Driver/Src/stm32f0xx_ll_tim.c ****                                     || ((__VALUE__) == LL_TIM_ICPSC_DIV4) \
  83:Drivers/STM32F0xx_HAL_Driver/Src/stm32f0xx_ll_tim.c ****                                     || ((__VALUE__) == LL_TIM_ICPSC_DIV8))
  84:Drivers/STM32F0xx_HAL_Driver/Src/stm32f0xx_ll_tim.c **** 
  85:Drivers/STM32F0xx_HAL_Driver/Src/stm32f0xx_ll_tim.c **** #define IS_LL_TIM_IC_FILTER(__VALUE__) (((__VALUE__) == LL_TIM_IC_FILTER_FDIV1) \
  86:Drivers/STM32F0xx_HAL_Driver/Src/stm32f0xx_ll_tim.c ****                                         || ((__VALUE__) == LL_TIM_IC_FILTER_FDIV1_N2) \
  87:Drivers/STM32F0xx_HAL_Driver/Src/stm32f0xx_ll_tim.c ****                                         || ((__VALUE__) == LL_TIM_IC_FILTER_FDIV1_N4) \
  88:Drivers/STM32F0xx_HAL_Driver/Src/stm32f0xx_ll_tim.c ****                                         || ((__VALUE__) == LL_TIM_IC_FILTER_FDIV1_N8) \
  89:Drivers/STM32F0xx_HAL_Driver/Src/stm32f0xx_ll_tim.c ****                                         || ((__VALUE__) == LL_TIM_IC_FILTER_FDIV2_N6) \
ARM GAS  C:\Users\ADMINI~1\AppData\Local\Temp\cc3oB4jI.s 			page 3


  90:Drivers/STM32F0xx_HAL_Driver/Src/stm32f0xx_ll_tim.c ****                                         || ((__VALUE__) == LL_TIM_IC_FILTER_FDIV2_N8) \
  91:Drivers/STM32F0xx_HAL_Driver/Src/stm32f0xx_ll_tim.c ****                                         || ((__VALUE__) == LL_TIM_IC_FILTER_FDIV4_N6) \
  92:Drivers/STM32F0xx_HAL_Driver/Src/stm32f0xx_ll_tim.c ****                                         || ((__VALUE__) == LL_TIM_IC_FILTER_FDIV4_N8) \
  93:Drivers/STM32F0xx_HAL_Driver/Src/stm32f0xx_ll_tim.c ****                                         || ((__VALUE__) == LL_TIM_IC_FILTER_FDIV8_N6) \
  94:Drivers/STM32F0xx_HAL_Driver/Src/stm32f0xx_ll_tim.c ****                                         || ((__VALUE__) == LL_TIM_IC_FILTER_FDIV8_N8) \
  95:Drivers/STM32F0xx_HAL_Driver/Src/stm32f0xx_ll_tim.c ****                                         || ((__VALUE__) == LL_TIM_IC_FILTER_FDIV16_N5) \
  96:Drivers/STM32F0xx_HAL_Driver/Src/stm32f0xx_ll_tim.c ****                                         || ((__VALUE__) == LL_TIM_IC_FILTER_FDIV16_N6) \
  97:Drivers/STM32F0xx_HAL_Driver/Src/stm32f0xx_ll_tim.c ****                                         || ((__VALUE__) == LL_TIM_IC_FILTER_FDIV16_N8) \
  98:Drivers/STM32F0xx_HAL_Driver/Src/stm32f0xx_ll_tim.c ****                                         || ((__VALUE__) == LL_TIM_IC_FILTER_FDIV32_N5) \
  99:Drivers/STM32F0xx_HAL_Driver/Src/stm32f0xx_ll_tim.c ****                                         || ((__VALUE__) == LL_TIM_IC_FILTER_FDIV32_N6) \
 100:Drivers/STM32F0xx_HAL_Driver/Src/stm32f0xx_ll_tim.c ****                                         || ((__VALUE__) == LL_TIM_IC_FILTER_FDIV32_N8))
 101:Drivers/STM32F0xx_HAL_Driver/Src/stm32f0xx_ll_tim.c **** 
 102:Drivers/STM32F0xx_HAL_Driver/Src/stm32f0xx_ll_tim.c **** #define IS_LL_TIM_IC_POLARITY(__VALUE__) (((__VALUE__) == LL_TIM_IC_POLARITY_RISING) \
 103:Drivers/STM32F0xx_HAL_Driver/Src/stm32f0xx_ll_tim.c ****                                           || ((__VALUE__) == LL_TIM_IC_POLARITY_FALLING) \
 104:Drivers/STM32F0xx_HAL_Driver/Src/stm32f0xx_ll_tim.c ****                                           || ((__VALUE__) == LL_TIM_IC_POLARITY_BOTHEDGE))
 105:Drivers/STM32F0xx_HAL_Driver/Src/stm32f0xx_ll_tim.c **** 
 106:Drivers/STM32F0xx_HAL_Driver/Src/stm32f0xx_ll_tim.c **** #define IS_LL_TIM_ENCODERMODE(__VALUE__) (((__VALUE__) == LL_TIM_ENCODERMODE_X2_TI1) \
 107:Drivers/STM32F0xx_HAL_Driver/Src/stm32f0xx_ll_tim.c ****                                           || ((__VALUE__) == LL_TIM_ENCODERMODE_X2_TI2) \
 108:Drivers/STM32F0xx_HAL_Driver/Src/stm32f0xx_ll_tim.c ****                                           || ((__VALUE__) == LL_TIM_ENCODERMODE_X4_TI12))
 109:Drivers/STM32F0xx_HAL_Driver/Src/stm32f0xx_ll_tim.c **** 
 110:Drivers/STM32F0xx_HAL_Driver/Src/stm32f0xx_ll_tim.c **** #define IS_LL_TIM_IC_POLARITY_ENCODER(__VALUE__) (((__VALUE__) == LL_TIM_IC_POLARITY_RISING) \
 111:Drivers/STM32F0xx_HAL_Driver/Src/stm32f0xx_ll_tim.c ****                                                   || ((__VALUE__) == LL_TIM_IC_POLARITY_FALLING))
 112:Drivers/STM32F0xx_HAL_Driver/Src/stm32f0xx_ll_tim.c **** 
 113:Drivers/STM32F0xx_HAL_Driver/Src/stm32f0xx_ll_tim.c **** #define IS_LL_TIM_OSSR_STATE(__VALUE__) (((__VALUE__) == LL_TIM_OSSR_DISABLE) \
 114:Drivers/STM32F0xx_HAL_Driver/Src/stm32f0xx_ll_tim.c ****                                          || ((__VALUE__) == LL_TIM_OSSR_ENABLE))
 115:Drivers/STM32F0xx_HAL_Driver/Src/stm32f0xx_ll_tim.c **** 
 116:Drivers/STM32F0xx_HAL_Driver/Src/stm32f0xx_ll_tim.c **** #define IS_LL_TIM_OSSI_STATE(__VALUE__) (((__VALUE__) == LL_TIM_OSSI_DISABLE) \
 117:Drivers/STM32F0xx_HAL_Driver/Src/stm32f0xx_ll_tim.c ****                                          || ((__VALUE__) == LL_TIM_OSSI_ENABLE))
 118:Drivers/STM32F0xx_HAL_Driver/Src/stm32f0xx_ll_tim.c **** 
 119:Drivers/STM32F0xx_HAL_Driver/Src/stm32f0xx_ll_tim.c **** #define IS_LL_TIM_LOCK_LEVEL(__VALUE__) (((__VALUE__) == LL_TIM_LOCKLEVEL_OFF) \
 120:Drivers/STM32F0xx_HAL_Driver/Src/stm32f0xx_ll_tim.c ****                                          || ((__VALUE__) == LL_TIM_LOCKLEVEL_1)   \
 121:Drivers/STM32F0xx_HAL_Driver/Src/stm32f0xx_ll_tim.c ****                                          || ((__VALUE__) == LL_TIM_LOCKLEVEL_2)   \
 122:Drivers/STM32F0xx_HAL_Driver/Src/stm32f0xx_ll_tim.c ****                                          || ((__VALUE__) == LL_TIM_LOCKLEVEL_3))
 123:Drivers/STM32F0xx_HAL_Driver/Src/stm32f0xx_ll_tim.c **** 
 124:Drivers/STM32F0xx_HAL_Driver/Src/stm32f0xx_ll_tim.c **** #define IS_LL_TIM_BREAK_STATE(__VALUE__) (((__VALUE__) == LL_TIM_BREAK_DISABLE) \
 125:Drivers/STM32F0xx_HAL_Driver/Src/stm32f0xx_ll_tim.c ****                                           || ((__VALUE__) == LL_TIM_BREAK_ENABLE))
 126:Drivers/STM32F0xx_HAL_Driver/Src/stm32f0xx_ll_tim.c **** 
 127:Drivers/STM32F0xx_HAL_Driver/Src/stm32f0xx_ll_tim.c **** #define IS_LL_TIM_BREAK_POLARITY(__VALUE__) (((__VALUE__) == LL_TIM_BREAK_POLARITY_LOW) \
 128:Drivers/STM32F0xx_HAL_Driver/Src/stm32f0xx_ll_tim.c ****                                              || ((__VALUE__) == LL_TIM_BREAK_POLARITY_HIGH))
 129:Drivers/STM32F0xx_HAL_Driver/Src/stm32f0xx_ll_tim.c **** 
 130:Drivers/STM32F0xx_HAL_Driver/Src/stm32f0xx_ll_tim.c **** #define IS_LL_TIM_AUTOMATIC_OUTPUT_STATE(__VALUE__) (((__VALUE__) == LL_TIM_AUTOMATICOUTPUT_DISABLE
 131:Drivers/STM32F0xx_HAL_Driver/Src/stm32f0xx_ll_tim.c ****                                                      || ((__VALUE__) == LL_TIM_AUTOMATICOUTPUT_ENAB
 132:Drivers/STM32F0xx_HAL_Driver/Src/stm32f0xx_ll_tim.c **** /**
 133:Drivers/STM32F0xx_HAL_Driver/Src/stm32f0xx_ll_tim.c ****   * @}
 134:Drivers/STM32F0xx_HAL_Driver/Src/stm32f0xx_ll_tim.c ****   */
 135:Drivers/STM32F0xx_HAL_Driver/Src/stm32f0xx_ll_tim.c **** 
 136:Drivers/STM32F0xx_HAL_Driver/Src/stm32f0xx_ll_tim.c **** 
 137:Drivers/STM32F0xx_HAL_Driver/Src/stm32f0xx_ll_tim.c **** /* Private function prototypes -----------------------------------------------*/
 138:Drivers/STM32F0xx_HAL_Driver/Src/stm32f0xx_ll_tim.c **** /** @defgroup TIM_LL_Private_Functions TIM Private Functions
 139:Drivers/STM32F0xx_HAL_Driver/Src/stm32f0xx_ll_tim.c ****   * @{
 140:Drivers/STM32F0xx_HAL_Driver/Src/stm32f0xx_ll_tim.c ****   */
 141:Drivers/STM32F0xx_HAL_Driver/Src/stm32f0xx_ll_tim.c **** static ErrorStatus OC1Config(TIM_TypeDef *TIMx, LL_TIM_OC_InitTypeDef *TIM_OCInitStruct);
 142:Drivers/STM32F0xx_HAL_Driver/Src/stm32f0xx_ll_tim.c **** static ErrorStatus OC2Config(TIM_TypeDef *TIMx, LL_TIM_OC_InitTypeDef *TIM_OCInitStruct);
 143:Drivers/STM32F0xx_HAL_Driver/Src/stm32f0xx_ll_tim.c **** static ErrorStatus OC3Config(TIM_TypeDef *TIMx, LL_TIM_OC_InitTypeDef *TIM_OCInitStruct);
 144:Drivers/STM32F0xx_HAL_Driver/Src/stm32f0xx_ll_tim.c **** static ErrorStatus OC4Config(TIM_TypeDef *TIMx, LL_TIM_OC_InitTypeDef *TIM_OCInitStruct);
 145:Drivers/STM32F0xx_HAL_Driver/Src/stm32f0xx_ll_tim.c **** static ErrorStatus IC1Config(TIM_TypeDef *TIMx, LL_TIM_IC_InitTypeDef *TIM_ICInitStruct);
 146:Drivers/STM32F0xx_HAL_Driver/Src/stm32f0xx_ll_tim.c **** static ErrorStatus IC2Config(TIM_TypeDef *TIMx, LL_TIM_IC_InitTypeDef *TIM_ICInitStruct);
ARM GAS  C:\Users\ADMINI~1\AppData\Local\Temp\cc3oB4jI.s 			page 4


 147:Drivers/STM32F0xx_HAL_Driver/Src/stm32f0xx_ll_tim.c **** static ErrorStatus IC3Config(TIM_TypeDef *TIMx, LL_TIM_IC_InitTypeDef *TIM_ICInitStruct);
 148:Drivers/STM32F0xx_HAL_Driver/Src/stm32f0xx_ll_tim.c **** static ErrorStatus IC4Config(TIM_TypeDef *TIMx, LL_TIM_IC_InitTypeDef *TIM_ICInitStruct);
 149:Drivers/STM32F0xx_HAL_Driver/Src/stm32f0xx_ll_tim.c **** /**
 150:Drivers/STM32F0xx_HAL_Driver/Src/stm32f0xx_ll_tim.c ****   * @}
 151:Drivers/STM32F0xx_HAL_Driver/Src/stm32f0xx_ll_tim.c ****   */
 152:Drivers/STM32F0xx_HAL_Driver/Src/stm32f0xx_ll_tim.c **** 
 153:Drivers/STM32F0xx_HAL_Driver/Src/stm32f0xx_ll_tim.c **** /* Exported functions --------------------------------------------------------*/
 154:Drivers/STM32F0xx_HAL_Driver/Src/stm32f0xx_ll_tim.c **** /** @addtogroup TIM_LL_Exported_Functions
 155:Drivers/STM32F0xx_HAL_Driver/Src/stm32f0xx_ll_tim.c ****   * @{
 156:Drivers/STM32F0xx_HAL_Driver/Src/stm32f0xx_ll_tim.c ****   */
 157:Drivers/STM32F0xx_HAL_Driver/Src/stm32f0xx_ll_tim.c **** 
 158:Drivers/STM32F0xx_HAL_Driver/Src/stm32f0xx_ll_tim.c **** /** @addtogroup TIM_LL_EF_Init
 159:Drivers/STM32F0xx_HAL_Driver/Src/stm32f0xx_ll_tim.c ****   * @{
 160:Drivers/STM32F0xx_HAL_Driver/Src/stm32f0xx_ll_tim.c ****   */
 161:Drivers/STM32F0xx_HAL_Driver/Src/stm32f0xx_ll_tim.c **** 
 162:Drivers/STM32F0xx_HAL_Driver/Src/stm32f0xx_ll_tim.c **** /**
 163:Drivers/STM32F0xx_HAL_Driver/Src/stm32f0xx_ll_tim.c ****   * @brief  Set TIMx registers to their reset values.
 164:Drivers/STM32F0xx_HAL_Driver/Src/stm32f0xx_ll_tim.c ****   * @param  TIMx Timer instance
 165:Drivers/STM32F0xx_HAL_Driver/Src/stm32f0xx_ll_tim.c ****   * @retval An ErrorStatus enumeration value:
 166:Drivers/STM32F0xx_HAL_Driver/Src/stm32f0xx_ll_tim.c ****   *          - SUCCESS: TIMx registers are de-initialized
 167:Drivers/STM32F0xx_HAL_Driver/Src/stm32f0xx_ll_tim.c ****   *          - ERROR: invalid TIMx instance
 168:Drivers/STM32F0xx_HAL_Driver/Src/stm32f0xx_ll_tim.c ****   */
 169:Drivers/STM32F0xx_HAL_Driver/Src/stm32f0xx_ll_tim.c **** ErrorStatus LL_TIM_DeInit(TIM_TypeDef *TIMx)
 170:Drivers/STM32F0xx_HAL_Driver/Src/stm32f0xx_ll_tim.c **** {
 171:Drivers/STM32F0xx_HAL_Driver/Src/stm32f0xx_ll_tim.c ****   ErrorStatus result = SUCCESS;
 172:Drivers/STM32F0xx_HAL_Driver/Src/stm32f0xx_ll_tim.c **** 
 173:Drivers/STM32F0xx_HAL_Driver/Src/stm32f0xx_ll_tim.c ****   /* Check the parameters */
 174:Drivers/STM32F0xx_HAL_Driver/Src/stm32f0xx_ll_tim.c ****   assert_param(IS_TIM_INSTANCE(TIMx));
 175:Drivers/STM32F0xx_HAL_Driver/Src/stm32f0xx_ll_tim.c **** 
 176:Drivers/STM32F0xx_HAL_Driver/Src/stm32f0xx_ll_tim.c ****   if (TIMx == TIM1)
 177:Drivers/STM32F0xx_HAL_Driver/Src/stm32f0xx_ll_tim.c ****   {
 178:Drivers/STM32F0xx_HAL_Driver/Src/stm32f0xx_ll_tim.c ****     LL_APB1_GRP2_ForceReset(LL_APB1_GRP2_PERIPH_TIM1);
 179:Drivers/STM32F0xx_HAL_Driver/Src/stm32f0xx_ll_tim.c ****     LL_APB1_GRP2_ReleaseReset(LL_APB1_GRP2_PERIPH_TIM1);
 180:Drivers/STM32F0xx_HAL_Driver/Src/stm32f0xx_ll_tim.c ****   }
 181:Drivers/STM32F0xx_HAL_Driver/Src/stm32f0xx_ll_tim.c **** #if defined (TIM2)
 182:Drivers/STM32F0xx_HAL_Driver/Src/stm32f0xx_ll_tim.c ****   else if (TIMx == TIM2)
 183:Drivers/STM32F0xx_HAL_Driver/Src/stm32f0xx_ll_tim.c ****   {
 184:Drivers/STM32F0xx_HAL_Driver/Src/stm32f0xx_ll_tim.c ****     LL_APB1_GRP1_ForceReset(LL_APB1_GRP1_PERIPH_TIM2);
 185:Drivers/STM32F0xx_HAL_Driver/Src/stm32f0xx_ll_tim.c ****     LL_APB1_GRP1_ReleaseReset(LL_APB1_GRP1_PERIPH_TIM2);
 186:Drivers/STM32F0xx_HAL_Driver/Src/stm32f0xx_ll_tim.c ****   }
 187:Drivers/STM32F0xx_HAL_Driver/Src/stm32f0xx_ll_tim.c **** #endif /* TIM2 */
 188:Drivers/STM32F0xx_HAL_Driver/Src/stm32f0xx_ll_tim.c **** #if defined(TIM3)
 189:Drivers/STM32F0xx_HAL_Driver/Src/stm32f0xx_ll_tim.c ****   else if (TIMx == TIM3)
 190:Drivers/STM32F0xx_HAL_Driver/Src/stm32f0xx_ll_tim.c ****   {
 191:Drivers/STM32F0xx_HAL_Driver/Src/stm32f0xx_ll_tim.c ****     LL_APB1_GRP1_ForceReset(LL_APB1_GRP1_PERIPH_TIM3);
 192:Drivers/STM32F0xx_HAL_Driver/Src/stm32f0xx_ll_tim.c ****     LL_APB1_GRP1_ReleaseReset(LL_APB1_GRP1_PERIPH_TIM3);
 193:Drivers/STM32F0xx_HAL_Driver/Src/stm32f0xx_ll_tim.c ****   }
 194:Drivers/STM32F0xx_HAL_Driver/Src/stm32f0xx_ll_tim.c **** #endif /* TIM3 */
 195:Drivers/STM32F0xx_HAL_Driver/Src/stm32f0xx_ll_tim.c **** #if defined(TIM5)
 196:Drivers/STM32F0xx_HAL_Driver/Src/stm32f0xx_ll_tim.c ****   else if (TIMx == TIM5)
 197:Drivers/STM32F0xx_HAL_Driver/Src/stm32f0xx_ll_tim.c ****   {
 198:Drivers/STM32F0xx_HAL_Driver/Src/stm32f0xx_ll_tim.c ****     LL_APB1_GRP1_ForceReset(LL_APB1_GRP1_PERIPH_TIM5);
 199:Drivers/STM32F0xx_HAL_Driver/Src/stm32f0xx_ll_tim.c ****     LL_APB1_GRP1_ReleaseReset(LL_APB1_GRP1_PERIPH_TIM5);
 200:Drivers/STM32F0xx_HAL_Driver/Src/stm32f0xx_ll_tim.c ****   }
 201:Drivers/STM32F0xx_HAL_Driver/Src/stm32f0xx_ll_tim.c **** #endif /* TIM5 */
 202:Drivers/STM32F0xx_HAL_Driver/Src/stm32f0xx_ll_tim.c **** #if defined (TIM6)
 203:Drivers/STM32F0xx_HAL_Driver/Src/stm32f0xx_ll_tim.c ****   else if (TIMx == TIM6)
ARM GAS  C:\Users\ADMINI~1\AppData\Local\Temp\cc3oB4jI.s 			page 5


 204:Drivers/STM32F0xx_HAL_Driver/Src/stm32f0xx_ll_tim.c ****   {
 205:Drivers/STM32F0xx_HAL_Driver/Src/stm32f0xx_ll_tim.c ****     LL_APB1_GRP1_ForceReset(LL_APB1_GRP1_PERIPH_TIM6);
 206:Drivers/STM32F0xx_HAL_Driver/Src/stm32f0xx_ll_tim.c ****     LL_APB1_GRP1_ReleaseReset(LL_APB1_GRP1_PERIPH_TIM6);
 207:Drivers/STM32F0xx_HAL_Driver/Src/stm32f0xx_ll_tim.c ****   }
 208:Drivers/STM32F0xx_HAL_Driver/Src/stm32f0xx_ll_tim.c **** #endif /* TIM6 */
 209:Drivers/STM32F0xx_HAL_Driver/Src/stm32f0xx_ll_tim.c **** #if defined (TIM7)
 210:Drivers/STM32F0xx_HAL_Driver/Src/stm32f0xx_ll_tim.c ****   else if (TIMx == TIM7)
 211:Drivers/STM32F0xx_HAL_Driver/Src/stm32f0xx_ll_tim.c ****   {
 212:Drivers/STM32F0xx_HAL_Driver/Src/stm32f0xx_ll_tim.c ****     LL_APB1_GRP1_ForceReset(LL_APB1_GRP1_PERIPH_TIM7);
 213:Drivers/STM32F0xx_HAL_Driver/Src/stm32f0xx_ll_tim.c ****     LL_APB1_GRP1_ReleaseReset(LL_APB1_GRP1_PERIPH_TIM7);
 214:Drivers/STM32F0xx_HAL_Driver/Src/stm32f0xx_ll_tim.c ****   }
 215:Drivers/STM32F0xx_HAL_Driver/Src/stm32f0xx_ll_tim.c **** #endif /* TIM7 */
 216:Drivers/STM32F0xx_HAL_Driver/Src/stm32f0xx_ll_tim.c **** #if defined(TIM8)
 217:Drivers/STM32F0xx_HAL_Driver/Src/stm32f0xx_ll_tim.c ****   else if (TIMx == TIM8)
 218:Drivers/STM32F0xx_HAL_Driver/Src/stm32f0xx_ll_tim.c ****   {
 219:Drivers/STM32F0xx_HAL_Driver/Src/stm32f0xx_ll_tim.c ****     LL_APB2_GRP1_ForceReset(LL_APB2_GRP1_PERIPH_TIM8);
 220:Drivers/STM32F0xx_HAL_Driver/Src/stm32f0xx_ll_tim.c ****     LL_APB2_GRP1_ReleaseReset(LL_APB2_GRP1_PERIPH_TIM8);
 221:Drivers/STM32F0xx_HAL_Driver/Src/stm32f0xx_ll_tim.c ****   }
 222:Drivers/STM32F0xx_HAL_Driver/Src/stm32f0xx_ll_tim.c **** #endif /* TIM8 */
 223:Drivers/STM32F0xx_HAL_Driver/Src/stm32f0xx_ll_tim.c **** #if defined (TIM14)
 224:Drivers/STM32F0xx_HAL_Driver/Src/stm32f0xx_ll_tim.c ****   else if (TIMx == TIM14)
 225:Drivers/STM32F0xx_HAL_Driver/Src/stm32f0xx_ll_tim.c ****   {
 226:Drivers/STM32F0xx_HAL_Driver/Src/stm32f0xx_ll_tim.c ****     LL_APB1_GRP1_ForceReset(LL_APB1_GRP1_PERIPH_TIM14);
 227:Drivers/STM32F0xx_HAL_Driver/Src/stm32f0xx_ll_tim.c ****     LL_APB1_GRP1_ReleaseReset(LL_APB1_GRP1_PERIPH_TIM14);
 228:Drivers/STM32F0xx_HAL_Driver/Src/stm32f0xx_ll_tim.c ****   }
 229:Drivers/STM32F0xx_HAL_Driver/Src/stm32f0xx_ll_tim.c **** #endif /* TIM14 */
 230:Drivers/STM32F0xx_HAL_Driver/Src/stm32f0xx_ll_tim.c **** #if defined (TIM15)
 231:Drivers/STM32F0xx_HAL_Driver/Src/stm32f0xx_ll_tim.c ****   else if (TIMx == TIM15)
 232:Drivers/STM32F0xx_HAL_Driver/Src/stm32f0xx_ll_tim.c ****   {
 233:Drivers/STM32F0xx_HAL_Driver/Src/stm32f0xx_ll_tim.c ****     LL_APB1_GRP2_ForceReset(LL_APB1_GRP2_PERIPH_TIM15);
 234:Drivers/STM32F0xx_HAL_Driver/Src/stm32f0xx_ll_tim.c ****     LL_APB1_GRP2_ReleaseReset(LL_APB1_GRP2_PERIPH_TIM15);
 235:Drivers/STM32F0xx_HAL_Driver/Src/stm32f0xx_ll_tim.c ****   }
 236:Drivers/STM32F0xx_HAL_Driver/Src/stm32f0xx_ll_tim.c **** #endif /* TIM15 */
 237:Drivers/STM32F0xx_HAL_Driver/Src/stm32f0xx_ll_tim.c **** #if defined (TIM16)
 238:Drivers/STM32F0xx_HAL_Driver/Src/stm32f0xx_ll_tim.c ****   else if (TIMx == TIM16)
 239:Drivers/STM32F0xx_HAL_Driver/Src/stm32f0xx_ll_tim.c ****   {
 240:Drivers/STM32F0xx_HAL_Driver/Src/stm32f0xx_ll_tim.c ****     LL_APB1_GRP2_ForceReset(LL_APB1_GRP2_PERIPH_TIM16);
 241:Drivers/STM32F0xx_HAL_Driver/Src/stm32f0xx_ll_tim.c ****     LL_APB1_GRP2_ReleaseReset(LL_APB1_GRP2_PERIPH_TIM16);
 242:Drivers/STM32F0xx_HAL_Driver/Src/stm32f0xx_ll_tim.c ****   }
 243:Drivers/STM32F0xx_HAL_Driver/Src/stm32f0xx_ll_tim.c **** #endif /* TIM16 */
 244:Drivers/STM32F0xx_HAL_Driver/Src/stm32f0xx_ll_tim.c **** #if defined(TIM17)
 245:Drivers/STM32F0xx_HAL_Driver/Src/stm32f0xx_ll_tim.c ****   else if (TIMx == TIM17)
 246:Drivers/STM32F0xx_HAL_Driver/Src/stm32f0xx_ll_tim.c ****   {
 247:Drivers/STM32F0xx_HAL_Driver/Src/stm32f0xx_ll_tim.c ****     LL_APB1_GRP2_ForceReset(LL_APB1_GRP2_PERIPH_TIM17);
 248:Drivers/STM32F0xx_HAL_Driver/Src/stm32f0xx_ll_tim.c ****     LL_APB1_GRP2_ReleaseReset(LL_APB1_GRP2_PERIPH_TIM17);
 249:Drivers/STM32F0xx_HAL_Driver/Src/stm32f0xx_ll_tim.c ****   }
 250:Drivers/STM32F0xx_HAL_Driver/Src/stm32f0xx_ll_tim.c **** #endif /* TIM17 */
 251:Drivers/STM32F0xx_HAL_Driver/Src/stm32f0xx_ll_tim.c ****   else
 252:Drivers/STM32F0xx_HAL_Driver/Src/stm32f0xx_ll_tim.c ****   {
 253:Drivers/STM32F0xx_HAL_Driver/Src/stm32f0xx_ll_tim.c ****     result = ERROR;
 254:Drivers/STM32F0xx_HAL_Driver/Src/stm32f0xx_ll_tim.c ****   }
 255:Drivers/STM32F0xx_HAL_Driver/Src/stm32f0xx_ll_tim.c **** 
 256:Drivers/STM32F0xx_HAL_Driver/Src/stm32f0xx_ll_tim.c ****   return result;
 257:Drivers/STM32F0xx_HAL_Driver/Src/stm32f0xx_ll_tim.c **** }
 258:Drivers/STM32F0xx_HAL_Driver/Src/stm32f0xx_ll_tim.c **** 
 259:Drivers/STM32F0xx_HAL_Driver/Src/stm32f0xx_ll_tim.c **** /**
 260:Drivers/STM32F0xx_HAL_Driver/Src/stm32f0xx_ll_tim.c ****   * @brief  Set the fields of the time base unit configuration data structure
ARM GAS  C:\Users\ADMINI~1\AppData\Local\Temp\cc3oB4jI.s 			page 6


 261:Drivers/STM32F0xx_HAL_Driver/Src/stm32f0xx_ll_tim.c ****   *         to their default values.
 262:Drivers/STM32F0xx_HAL_Driver/Src/stm32f0xx_ll_tim.c ****   * @param  TIM_InitStruct pointer to a @ref LL_TIM_InitTypeDef structure (time base unit configura
 263:Drivers/STM32F0xx_HAL_Driver/Src/stm32f0xx_ll_tim.c ****   * @retval None
 264:Drivers/STM32F0xx_HAL_Driver/Src/stm32f0xx_ll_tim.c ****   */
 265:Drivers/STM32F0xx_HAL_Driver/Src/stm32f0xx_ll_tim.c **** void LL_TIM_StructInit(LL_TIM_InitTypeDef *TIM_InitStruct)
 266:Drivers/STM32F0xx_HAL_Driver/Src/stm32f0xx_ll_tim.c **** {
 267:Drivers/STM32F0xx_HAL_Driver/Src/stm32f0xx_ll_tim.c ****   /* Set the default configuration */
 268:Drivers/STM32F0xx_HAL_Driver/Src/stm32f0xx_ll_tim.c ****   TIM_InitStruct->Prescaler         = (uint16_t)0x0000;
 269:Drivers/STM32F0xx_HAL_Driver/Src/stm32f0xx_ll_tim.c ****   TIM_InitStruct->CounterMode       = LL_TIM_COUNTERMODE_UP;
 270:Drivers/STM32F0xx_HAL_Driver/Src/stm32f0xx_ll_tim.c ****   TIM_InitStruct->Autoreload        = 0xFFFFFFFFU;
 271:Drivers/STM32F0xx_HAL_Driver/Src/stm32f0xx_ll_tim.c ****   TIM_InitStruct->ClockDivision     = LL_TIM_CLOCKDIVISION_DIV1;
 272:Drivers/STM32F0xx_HAL_Driver/Src/stm32f0xx_ll_tim.c ****   TIM_InitStruct->RepetitionCounter = 0x00000000U;
 273:Drivers/STM32F0xx_HAL_Driver/Src/stm32f0xx_ll_tim.c **** }
 274:Drivers/STM32F0xx_HAL_Driver/Src/stm32f0xx_ll_tim.c **** 
 275:Drivers/STM32F0xx_HAL_Driver/Src/stm32f0xx_ll_tim.c **** /**
 276:Drivers/STM32F0xx_HAL_Driver/Src/stm32f0xx_ll_tim.c ****   * @brief  Configure the TIMx time base unit.
 277:Drivers/STM32F0xx_HAL_Driver/Src/stm32f0xx_ll_tim.c ****   * @param  TIMx Timer Instance
 278:Drivers/STM32F0xx_HAL_Driver/Src/stm32f0xx_ll_tim.c ****   * @param  TIM_InitStruct pointer to a @ref LL_TIM_InitTypeDef structure
 279:Drivers/STM32F0xx_HAL_Driver/Src/stm32f0xx_ll_tim.c ****   *         (TIMx time base unit configuration data structure)
 280:Drivers/STM32F0xx_HAL_Driver/Src/stm32f0xx_ll_tim.c ****   * @retval An ErrorStatus enumeration value:
 281:Drivers/STM32F0xx_HAL_Driver/Src/stm32f0xx_ll_tim.c ****   *          - SUCCESS: TIMx registers are de-initialized
 282:Drivers/STM32F0xx_HAL_Driver/Src/stm32f0xx_ll_tim.c ****   *          - ERROR: not applicable
 283:Drivers/STM32F0xx_HAL_Driver/Src/stm32f0xx_ll_tim.c ****   */
 284:Drivers/STM32F0xx_HAL_Driver/Src/stm32f0xx_ll_tim.c **** ErrorStatus LL_TIM_Init(TIM_TypeDef *TIMx, LL_TIM_InitTypeDef *TIM_InitStruct)
 285:Drivers/STM32F0xx_HAL_Driver/Src/stm32f0xx_ll_tim.c **** {
 286:Drivers/STM32F0xx_HAL_Driver/Src/stm32f0xx_ll_tim.c ****   uint32_t tmpcr1;
 287:Drivers/STM32F0xx_HAL_Driver/Src/stm32f0xx_ll_tim.c **** 
 288:Drivers/STM32F0xx_HAL_Driver/Src/stm32f0xx_ll_tim.c ****   /* Check the parameters */
 289:Drivers/STM32F0xx_HAL_Driver/Src/stm32f0xx_ll_tim.c ****   assert_param(IS_TIM_INSTANCE(TIMx));
 290:Drivers/STM32F0xx_HAL_Driver/Src/stm32f0xx_ll_tim.c ****   assert_param(IS_LL_TIM_COUNTERMODE(TIM_InitStruct->CounterMode));
 291:Drivers/STM32F0xx_HAL_Driver/Src/stm32f0xx_ll_tim.c ****   assert_param(IS_LL_TIM_CLOCKDIVISION(TIM_InitStruct->ClockDivision));
 292:Drivers/STM32F0xx_HAL_Driver/Src/stm32f0xx_ll_tim.c **** 
 293:Drivers/STM32F0xx_HAL_Driver/Src/stm32f0xx_ll_tim.c ****   tmpcr1 = LL_TIM_ReadReg(TIMx, CR1);
 294:Drivers/STM32F0xx_HAL_Driver/Src/stm32f0xx_ll_tim.c **** 
 295:Drivers/STM32F0xx_HAL_Driver/Src/stm32f0xx_ll_tim.c ****   if (IS_TIM_COUNTER_MODE_SELECT_INSTANCE(TIMx))
 296:Drivers/STM32F0xx_HAL_Driver/Src/stm32f0xx_ll_tim.c ****   {
 297:Drivers/STM32F0xx_HAL_Driver/Src/stm32f0xx_ll_tim.c ****     /* Select the Counter Mode */
 298:Drivers/STM32F0xx_HAL_Driver/Src/stm32f0xx_ll_tim.c ****     MODIFY_REG(tmpcr1, (TIM_CR1_DIR | TIM_CR1_CMS), TIM_InitStruct->CounterMode);
 299:Drivers/STM32F0xx_HAL_Driver/Src/stm32f0xx_ll_tim.c ****   }
 300:Drivers/STM32F0xx_HAL_Driver/Src/stm32f0xx_ll_tim.c **** 
 301:Drivers/STM32F0xx_HAL_Driver/Src/stm32f0xx_ll_tim.c ****   if (IS_TIM_CLOCK_DIVISION_INSTANCE(TIMx))
 302:Drivers/STM32F0xx_HAL_Driver/Src/stm32f0xx_ll_tim.c ****   {
 303:Drivers/STM32F0xx_HAL_Driver/Src/stm32f0xx_ll_tim.c ****     /* Set the clock division */
 304:Drivers/STM32F0xx_HAL_Driver/Src/stm32f0xx_ll_tim.c ****     MODIFY_REG(tmpcr1, TIM_CR1_CKD, TIM_InitStruct->ClockDivision);
 305:Drivers/STM32F0xx_HAL_Driver/Src/stm32f0xx_ll_tim.c ****   }
 306:Drivers/STM32F0xx_HAL_Driver/Src/stm32f0xx_ll_tim.c **** 
 307:Drivers/STM32F0xx_HAL_Driver/Src/stm32f0xx_ll_tim.c ****   /* Write to TIMx CR1 */
 308:Drivers/STM32F0xx_HAL_Driver/Src/stm32f0xx_ll_tim.c ****   LL_TIM_WriteReg(TIMx, CR1, tmpcr1);
 309:Drivers/STM32F0xx_HAL_Driver/Src/stm32f0xx_ll_tim.c **** 
 310:Drivers/STM32F0xx_HAL_Driver/Src/stm32f0xx_ll_tim.c ****   /* Set the Autoreload value */
 311:Drivers/STM32F0xx_HAL_Driver/Src/stm32f0xx_ll_tim.c ****   LL_TIM_SetAutoReload(TIMx, TIM_InitStruct->Autoreload);
 312:Drivers/STM32F0xx_HAL_Driver/Src/stm32f0xx_ll_tim.c **** 
 313:Drivers/STM32F0xx_HAL_Driver/Src/stm32f0xx_ll_tim.c ****   /* Set the Prescaler value */
 314:Drivers/STM32F0xx_HAL_Driver/Src/stm32f0xx_ll_tim.c ****   LL_TIM_SetPrescaler(TIMx, TIM_InitStruct->Prescaler);
 315:Drivers/STM32F0xx_HAL_Driver/Src/stm32f0xx_ll_tim.c **** 
 316:Drivers/STM32F0xx_HAL_Driver/Src/stm32f0xx_ll_tim.c ****   if (IS_TIM_REPETITION_COUNTER_INSTANCE(TIMx))
 317:Drivers/STM32F0xx_HAL_Driver/Src/stm32f0xx_ll_tim.c ****   {
ARM GAS  C:\Users\ADMINI~1\AppData\Local\Temp\cc3oB4jI.s 			page 7


 318:Drivers/STM32F0xx_HAL_Driver/Src/stm32f0xx_ll_tim.c ****     /* Set the Repetition Counter value */
 319:Drivers/STM32F0xx_HAL_Driver/Src/stm32f0xx_ll_tim.c ****     LL_TIM_SetRepetitionCounter(TIMx, TIM_InitStruct->RepetitionCounter);
 320:Drivers/STM32F0xx_HAL_Driver/Src/stm32f0xx_ll_tim.c ****   }
 321:Drivers/STM32F0xx_HAL_Driver/Src/stm32f0xx_ll_tim.c **** 
 322:Drivers/STM32F0xx_HAL_Driver/Src/stm32f0xx_ll_tim.c ****   /* Generate an update event to reload the Prescaler
 323:Drivers/STM32F0xx_HAL_Driver/Src/stm32f0xx_ll_tim.c ****      and the repetition counter value (if applicable) immediately */
 324:Drivers/STM32F0xx_HAL_Driver/Src/stm32f0xx_ll_tim.c ****   LL_TIM_GenerateEvent_UPDATE(TIMx);
 325:Drivers/STM32F0xx_HAL_Driver/Src/stm32f0xx_ll_tim.c **** 
 326:Drivers/STM32F0xx_HAL_Driver/Src/stm32f0xx_ll_tim.c ****   return SUCCESS;
 327:Drivers/STM32F0xx_HAL_Driver/Src/stm32f0xx_ll_tim.c **** }
 328:Drivers/STM32F0xx_HAL_Driver/Src/stm32f0xx_ll_tim.c **** 
 329:Drivers/STM32F0xx_HAL_Driver/Src/stm32f0xx_ll_tim.c **** /**
 330:Drivers/STM32F0xx_HAL_Driver/Src/stm32f0xx_ll_tim.c ****   * @brief  Set the fields of the TIMx output channel configuration data
 331:Drivers/STM32F0xx_HAL_Driver/Src/stm32f0xx_ll_tim.c ****   *         structure to their default values.
 332:Drivers/STM32F0xx_HAL_Driver/Src/stm32f0xx_ll_tim.c ****   * @param  TIM_OC_InitStruct pointer to a @ref LL_TIM_OC_InitTypeDef structure
 333:Drivers/STM32F0xx_HAL_Driver/Src/stm32f0xx_ll_tim.c ****   *         (the output channel configuration data structure)
 334:Drivers/STM32F0xx_HAL_Driver/Src/stm32f0xx_ll_tim.c ****   * @retval None
 335:Drivers/STM32F0xx_HAL_Driver/Src/stm32f0xx_ll_tim.c ****   */
 336:Drivers/STM32F0xx_HAL_Driver/Src/stm32f0xx_ll_tim.c **** void LL_TIM_OC_StructInit(LL_TIM_OC_InitTypeDef *TIM_OC_InitStruct)
 337:Drivers/STM32F0xx_HAL_Driver/Src/stm32f0xx_ll_tim.c **** {
 338:Drivers/STM32F0xx_HAL_Driver/Src/stm32f0xx_ll_tim.c ****   /* Set the default configuration */
 339:Drivers/STM32F0xx_HAL_Driver/Src/stm32f0xx_ll_tim.c ****   TIM_OC_InitStruct->OCMode       = LL_TIM_OCMODE_FROZEN;
 340:Drivers/STM32F0xx_HAL_Driver/Src/stm32f0xx_ll_tim.c ****   TIM_OC_InitStruct->OCState      = LL_TIM_OCSTATE_DISABLE;
 341:Drivers/STM32F0xx_HAL_Driver/Src/stm32f0xx_ll_tim.c ****   TIM_OC_InitStruct->OCNState     = LL_TIM_OCSTATE_DISABLE;
 342:Drivers/STM32F0xx_HAL_Driver/Src/stm32f0xx_ll_tim.c ****   TIM_OC_InitStruct->CompareValue = 0x00000000U;
 343:Drivers/STM32F0xx_HAL_Driver/Src/stm32f0xx_ll_tim.c ****   TIM_OC_InitStruct->OCPolarity   = LL_TIM_OCPOLARITY_HIGH;
 344:Drivers/STM32F0xx_HAL_Driver/Src/stm32f0xx_ll_tim.c ****   TIM_OC_InitStruct->OCNPolarity  = LL_TIM_OCPOLARITY_HIGH;
 345:Drivers/STM32F0xx_HAL_Driver/Src/stm32f0xx_ll_tim.c ****   TIM_OC_InitStruct->OCIdleState  = LL_TIM_OCIDLESTATE_LOW;
 346:Drivers/STM32F0xx_HAL_Driver/Src/stm32f0xx_ll_tim.c ****   TIM_OC_InitStruct->OCNIdleState = LL_TIM_OCIDLESTATE_LOW;
 347:Drivers/STM32F0xx_HAL_Driver/Src/stm32f0xx_ll_tim.c **** }
 348:Drivers/STM32F0xx_HAL_Driver/Src/stm32f0xx_ll_tim.c **** 
 349:Drivers/STM32F0xx_HAL_Driver/Src/stm32f0xx_ll_tim.c **** /**
 350:Drivers/STM32F0xx_HAL_Driver/Src/stm32f0xx_ll_tim.c ****   * @brief  Configure the TIMx output channel.
 351:Drivers/STM32F0xx_HAL_Driver/Src/stm32f0xx_ll_tim.c ****   * @param  TIMx Timer Instance
 352:Drivers/STM32F0xx_HAL_Driver/Src/stm32f0xx_ll_tim.c ****   * @param  Channel This parameter can be one of the following values:
 353:Drivers/STM32F0xx_HAL_Driver/Src/stm32f0xx_ll_tim.c ****   *         @arg @ref LL_TIM_CHANNEL_CH1
 354:Drivers/STM32F0xx_HAL_Driver/Src/stm32f0xx_ll_tim.c ****   *         @arg @ref LL_TIM_CHANNEL_CH2
 355:Drivers/STM32F0xx_HAL_Driver/Src/stm32f0xx_ll_tim.c ****   *         @arg @ref LL_TIM_CHANNEL_CH3
 356:Drivers/STM32F0xx_HAL_Driver/Src/stm32f0xx_ll_tim.c ****   *         @arg @ref LL_TIM_CHANNEL_CH4
 357:Drivers/STM32F0xx_HAL_Driver/Src/stm32f0xx_ll_tim.c ****   * @param  TIM_OC_InitStruct pointer to a @ref LL_TIM_OC_InitTypeDef structure (TIMx output channe
 358:Drivers/STM32F0xx_HAL_Driver/Src/stm32f0xx_ll_tim.c ****   *         data structure)
 359:Drivers/STM32F0xx_HAL_Driver/Src/stm32f0xx_ll_tim.c ****   * @retval An ErrorStatus enumeration value:
 360:Drivers/STM32F0xx_HAL_Driver/Src/stm32f0xx_ll_tim.c ****   *          - SUCCESS: TIMx output channel is initialized
 361:Drivers/STM32F0xx_HAL_Driver/Src/stm32f0xx_ll_tim.c ****   *          - ERROR: TIMx output channel is not initialized
 362:Drivers/STM32F0xx_HAL_Driver/Src/stm32f0xx_ll_tim.c ****   */
 363:Drivers/STM32F0xx_HAL_Driver/Src/stm32f0xx_ll_tim.c **** ErrorStatus LL_TIM_OC_Init(TIM_TypeDef *TIMx, uint32_t Channel, LL_TIM_OC_InitTypeDef *TIM_OC_InitS
 364:Drivers/STM32F0xx_HAL_Driver/Src/stm32f0xx_ll_tim.c **** {
 365:Drivers/STM32F0xx_HAL_Driver/Src/stm32f0xx_ll_tim.c ****   ErrorStatus result = ERROR;
 366:Drivers/STM32F0xx_HAL_Driver/Src/stm32f0xx_ll_tim.c **** 
 367:Drivers/STM32F0xx_HAL_Driver/Src/stm32f0xx_ll_tim.c ****   switch (Channel)
 368:Drivers/STM32F0xx_HAL_Driver/Src/stm32f0xx_ll_tim.c ****   {
 369:Drivers/STM32F0xx_HAL_Driver/Src/stm32f0xx_ll_tim.c ****     case LL_TIM_CHANNEL_CH1:
 370:Drivers/STM32F0xx_HAL_Driver/Src/stm32f0xx_ll_tim.c ****       result = OC1Config(TIMx, TIM_OC_InitStruct);
 371:Drivers/STM32F0xx_HAL_Driver/Src/stm32f0xx_ll_tim.c ****       break;
 372:Drivers/STM32F0xx_HAL_Driver/Src/stm32f0xx_ll_tim.c ****     case LL_TIM_CHANNEL_CH2:
 373:Drivers/STM32F0xx_HAL_Driver/Src/stm32f0xx_ll_tim.c ****       result = OC2Config(TIMx, TIM_OC_InitStruct);
 374:Drivers/STM32F0xx_HAL_Driver/Src/stm32f0xx_ll_tim.c ****       break;
ARM GAS  C:\Users\ADMINI~1\AppData\Local\Temp\cc3oB4jI.s 			page 8


 375:Drivers/STM32F0xx_HAL_Driver/Src/stm32f0xx_ll_tim.c ****     case LL_TIM_CHANNEL_CH3:
 376:Drivers/STM32F0xx_HAL_Driver/Src/stm32f0xx_ll_tim.c ****       result = OC3Config(TIMx, TIM_OC_InitStruct);
 377:Drivers/STM32F0xx_HAL_Driver/Src/stm32f0xx_ll_tim.c ****       break;
 378:Drivers/STM32F0xx_HAL_Driver/Src/stm32f0xx_ll_tim.c ****     case LL_TIM_CHANNEL_CH4:
 379:Drivers/STM32F0xx_HAL_Driver/Src/stm32f0xx_ll_tim.c ****       result = OC4Config(TIMx, TIM_OC_InitStruct);
 380:Drivers/STM32F0xx_HAL_Driver/Src/stm32f0xx_ll_tim.c ****       break;
 381:Drivers/STM32F0xx_HAL_Driver/Src/stm32f0xx_ll_tim.c ****     default:
 382:Drivers/STM32F0xx_HAL_Driver/Src/stm32f0xx_ll_tim.c ****       break;
 383:Drivers/STM32F0xx_HAL_Driver/Src/stm32f0xx_ll_tim.c ****   }
 384:Drivers/STM32F0xx_HAL_Driver/Src/stm32f0xx_ll_tim.c **** 
 385:Drivers/STM32F0xx_HAL_Driver/Src/stm32f0xx_ll_tim.c ****   return result;
 386:Drivers/STM32F0xx_HAL_Driver/Src/stm32f0xx_ll_tim.c **** }
 387:Drivers/STM32F0xx_HAL_Driver/Src/stm32f0xx_ll_tim.c **** 
 388:Drivers/STM32F0xx_HAL_Driver/Src/stm32f0xx_ll_tim.c **** /**
 389:Drivers/STM32F0xx_HAL_Driver/Src/stm32f0xx_ll_tim.c ****   * @brief  Set the fields of the TIMx input channel configuration data
 390:Drivers/STM32F0xx_HAL_Driver/Src/stm32f0xx_ll_tim.c ****   *         structure to their default values.
 391:Drivers/STM32F0xx_HAL_Driver/Src/stm32f0xx_ll_tim.c ****   * @param  TIM_ICInitStruct pointer to a @ref LL_TIM_IC_InitTypeDef structure (the input channel c
 392:Drivers/STM32F0xx_HAL_Driver/Src/stm32f0xx_ll_tim.c ****   *         data structure)
 393:Drivers/STM32F0xx_HAL_Driver/Src/stm32f0xx_ll_tim.c ****   * @retval None
 394:Drivers/STM32F0xx_HAL_Driver/Src/stm32f0xx_ll_tim.c ****   */
 395:Drivers/STM32F0xx_HAL_Driver/Src/stm32f0xx_ll_tim.c **** void LL_TIM_IC_StructInit(LL_TIM_IC_InitTypeDef *TIM_ICInitStruct)
 396:Drivers/STM32F0xx_HAL_Driver/Src/stm32f0xx_ll_tim.c **** {
 397:Drivers/STM32F0xx_HAL_Driver/Src/stm32f0xx_ll_tim.c ****   /* Set the default configuration */
 398:Drivers/STM32F0xx_HAL_Driver/Src/stm32f0xx_ll_tim.c ****   TIM_ICInitStruct->ICPolarity    = LL_TIM_IC_POLARITY_RISING;
 399:Drivers/STM32F0xx_HAL_Driver/Src/stm32f0xx_ll_tim.c ****   TIM_ICInitStruct->ICActiveInput = LL_TIM_ACTIVEINPUT_DIRECTTI;
 400:Drivers/STM32F0xx_HAL_Driver/Src/stm32f0xx_ll_tim.c ****   TIM_ICInitStruct->ICPrescaler   = LL_TIM_ICPSC_DIV1;
 401:Drivers/STM32F0xx_HAL_Driver/Src/stm32f0xx_ll_tim.c ****   TIM_ICInitStruct->ICFilter      = LL_TIM_IC_FILTER_FDIV1;
 402:Drivers/STM32F0xx_HAL_Driver/Src/stm32f0xx_ll_tim.c **** }
 403:Drivers/STM32F0xx_HAL_Driver/Src/stm32f0xx_ll_tim.c **** 
 404:Drivers/STM32F0xx_HAL_Driver/Src/stm32f0xx_ll_tim.c **** /**
 405:Drivers/STM32F0xx_HAL_Driver/Src/stm32f0xx_ll_tim.c ****   * @brief  Configure the TIMx input channel.
 406:Drivers/STM32F0xx_HAL_Driver/Src/stm32f0xx_ll_tim.c ****   * @param  TIMx Timer Instance
 407:Drivers/STM32F0xx_HAL_Driver/Src/stm32f0xx_ll_tim.c ****   * @param  Channel This parameter can be one of the following values:
 408:Drivers/STM32F0xx_HAL_Driver/Src/stm32f0xx_ll_tim.c ****   *         @arg @ref LL_TIM_CHANNEL_CH1
 409:Drivers/STM32F0xx_HAL_Driver/Src/stm32f0xx_ll_tim.c ****   *         @arg @ref LL_TIM_CHANNEL_CH2
 410:Drivers/STM32F0xx_HAL_Driver/Src/stm32f0xx_ll_tim.c ****   *         @arg @ref LL_TIM_CHANNEL_CH3
 411:Drivers/STM32F0xx_HAL_Driver/Src/stm32f0xx_ll_tim.c ****   *         @arg @ref LL_TIM_CHANNEL_CH4
 412:Drivers/STM32F0xx_HAL_Driver/Src/stm32f0xx_ll_tim.c ****   * @param  TIM_IC_InitStruct pointer to a @ref LL_TIM_IC_InitTypeDef structure (TIMx input channel
 413:Drivers/STM32F0xx_HAL_Driver/Src/stm32f0xx_ll_tim.c ****   *         structure)
 414:Drivers/STM32F0xx_HAL_Driver/Src/stm32f0xx_ll_tim.c ****   * @retval An ErrorStatus enumeration value:
 415:Drivers/STM32F0xx_HAL_Driver/Src/stm32f0xx_ll_tim.c ****   *          - SUCCESS: TIMx output channel is initialized
 416:Drivers/STM32F0xx_HAL_Driver/Src/stm32f0xx_ll_tim.c ****   *          - ERROR: TIMx output channel is not initialized
 417:Drivers/STM32F0xx_HAL_Driver/Src/stm32f0xx_ll_tim.c ****   */
 418:Drivers/STM32F0xx_HAL_Driver/Src/stm32f0xx_ll_tim.c **** ErrorStatus LL_TIM_IC_Init(TIM_TypeDef *TIMx, uint32_t Channel, LL_TIM_IC_InitTypeDef *TIM_IC_InitS
 419:Drivers/STM32F0xx_HAL_Driver/Src/stm32f0xx_ll_tim.c **** {
 420:Drivers/STM32F0xx_HAL_Driver/Src/stm32f0xx_ll_tim.c ****   ErrorStatus result = ERROR;
 421:Drivers/STM32F0xx_HAL_Driver/Src/stm32f0xx_ll_tim.c **** 
 422:Drivers/STM32F0xx_HAL_Driver/Src/stm32f0xx_ll_tim.c ****   switch (Channel)
 423:Drivers/STM32F0xx_HAL_Driver/Src/stm32f0xx_ll_tim.c ****   {
 424:Drivers/STM32F0xx_HAL_Driver/Src/stm32f0xx_ll_tim.c ****     case LL_TIM_CHANNEL_CH1:
 425:Drivers/STM32F0xx_HAL_Driver/Src/stm32f0xx_ll_tim.c ****       result = IC1Config(TIMx, TIM_IC_InitStruct);
 426:Drivers/STM32F0xx_HAL_Driver/Src/stm32f0xx_ll_tim.c ****       break;
 427:Drivers/STM32F0xx_HAL_Driver/Src/stm32f0xx_ll_tim.c ****     case LL_TIM_CHANNEL_CH2:
 428:Drivers/STM32F0xx_HAL_Driver/Src/stm32f0xx_ll_tim.c ****       result = IC2Config(TIMx, TIM_IC_InitStruct);
 429:Drivers/STM32F0xx_HAL_Driver/Src/stm32f0xx_ll_tim.c ****       break;
 430:Drivers/STM32F0xx_HAL_Driver/Src/stm32f0xx_ll_tim.c ****     case LL_TIM_CHANNEL_CH3:
 431:Drivers/STM32F0xx_HAL_Driver/Src/stm32f0xx_ll_tim.c ****       result = IC3Config(TIMx, TIM_IC_InitStruct);
ARM GAS  C:\Users\ADMINI~1\AppData\Local\Temp\cc3oB4jI.s 			page 9


 432:Drivers/STM32F0xx_HAL_Driver/Src/stm32f0xx_ll_tim.c ****       break;
 433:Drivers/STM32F0xx_HAL_Driver/Src/stm32f0xx_ll_tim.c ****     case LL_TIM_CHANNEL_CH4:
 434:Drivers/STM32F0xx_HAL_Driver/Src/stm32f0xx_ll_tim.c ****       result = IC4Config(TIMx, TIM_IC_InitStruct);
 435:Drivers/STM32F0xx_HAL_Driver/Src/stm32f0xx_ll_tim.c ****       break;
 436:Drivers/STM32F0xx_HAL_Driver/Src/stm32f0xx_ll_tim.c ****     default:
 437:Drivers/STM32F0xx_HAL_Driver/Src/stm32f0xx_ll_tim.c ****       break;
 438:Drivers/STM32F0xx_HAL_Driver/Src/stm32f0xx_ll_tim.c ****   }
 439:Drivers/STM32F0xx_HAL_Driver/Src/stm32f0xx_ll_tim.c **** 
 440:Drivers/STM32F0xx_HAL_Driver/Src/stm32f0xx_ll_tim.c ****   return result;
 441:Drivers/STM32F0xx_HAL_Driver/Src/stm32f0xx_ll_tim.c **** }
 442:Drivers/STM32F0xx_HAL_Driver/Src/stm32f0xx_ll_tim.c **** 
 443:Drivers/STM32F0xx_HAL_Driver/Src/stm32f0xx_ll_tim.c **** /**
 444:Drivers/STM32F0xx_HAL_Driver/Src/stm32f0xx_ll_tim.c ****   * @brief  Fills each TIM_EncoderInitStruct field with its default value
 445:Drivers/STM32F0xx_HAL_Driver/Src/stm32f0xx_ll_tim.c ****   * @param  TIM_EncoderInitStruct pointer to a @ref LL_TIM_ENCODER_InitTypeDef structure (encoder i
 446:Drivers/STM32F0xx_HAL_Driver/Src/stm32f0xx_ll_tim.c ****   *         configuration data structure)
 447:Drivers/STM32F0xx_HAL_Driver/Src/stm32f0xx_ll_tim.c ****   * @retval None
 448:Drivers/STM32F0xx_HAL_Driver/Src/stm32f0xx_ll_tim.c ****   */
 449:Drivers/STM32F0xx_HAL_Driver/Src/stm32f0xx_ll_tim.c **** void LL_TIM_ENCODER_StructInit(LL_TIM_ENCODER_InitTypeDef *TIM_EncoderInitStruct)
 450:Drivers/STM32F0xx_HAL_Driver/Src/stm32f0xx_ll_tim.c **** {
 451:Drivers/STM32F0xx_HAL_Driver/Src/stm32f0xx_ll_tim.c ****   /* Set the default configuration */
 452:Drivers/STM32F0xx_HAL_Driver/Src/stm32f0xx_ll_tim.c ****   TIM_EncoderInitStruct->EncoderMode    = LL_TIM_ENCODERMODE_X2_TI1;
 453:Drivers/STM32F0xx_HAL_Driver/Src/stm32f0xx_ll_tim.c ****   TIM_EncoderInitStruct->IC1Polarity    = LL_TIM_IC_POLARITY_RISING;
 454:Drivers/STM32F0xx_HAL_Driver/Src/stm32f0xx_ll_tim.c ****   TIM_EncoderInitStruct->IC1ActiveInput = LL_TIM_ACTIVEINPUT_DIRECTTI;
 455:Drivers/STM32F0xx_HAL_Driver/Src/stm32f0xx_ll_tim.c ****   TIM_EncoderInitStruct->IC1Prescaler   = LL_TIM_ICPSC_DIV1;
 456:Drivers/STM32F0xx_HAL_Driver/Src/stm32f0xx_ll_tim.c ****   TIM_EncoderInitStruct->IC1Filter      = LL_TIM_IC_FILTER_FDIV1;
 457:Drivers/STM32F0xx_HAL_Driver/Src/stm32f0xx_ll_tim.c ****   TIM_EncoderInitStruct->IC2Polarity    = LL_TIM_IC_POLARITY_RISING;
 458:Drivers/STM32F0xx_HAL_Driver/Src/stm32f0xx_ll_tim.c ****   TIM_EncoderInitStruct->IC2ActiveInput = LL_TIM_ACTIVEINPUT_DIRECTTI;
 459:Drivers/STM32F0xx_HAL_Driver/Src/stm32f0xx_ll_tim.c ****   TIM_EncoderInitStruct->IC2Prescaler   = LL_TIM_ICPSC_DIV1;
 460:Drivers/STM32F0xx_HAL_Driver/Src/stm32f0xx_ll_tim.c ****   TIM_EncoderInitStruct->IC2Filter      = LL_TIM_IC_FILTER_FDIV1;
 461:Drivers/STM32F0xx_HAL_Driver/Src/stm32f0xx_ll_tim.c **** }
 462:Drivers/STM32F0xx_HAL_Driver/Src/stm32f0xx_ll_tim.c **** 
 463:Drivers/STM32F0xx_HAL_Driver/Src/stm32f0xx_ll_tim.c **** /**
 464:Drivers/STM32F0xx_HAL_Driver/Src/stm32f0xx_ll_tim.c ****   * @brief  Configure the encoder interface of the timer instance.
 465:Drivers/STM32F0xx_HAL_Driver/Src/stm32f0xx_ll_tim.c ****   * @param  TIMx Timer Instance
 466:Drivers/STM32F0xx_HAL_Driver/Src/stm32f0xx_ll_tim.c ****   * @param  TIM_EncoderInitStruct pointer to a @ref LL_TIM_ENCODER_InitTypeDef structure (TIMx enco
 467:Drivers/STM32F0xx_HAL_Driver/Src/stm32f0xx_ll_tim.c ****   *         configuration data structure)
 468:Drivers/STM32F0xx_HAL_Driver/Src/stm32f0xx_ll_tim.c ****   * @retval An ErrorStatus enumeration value:
 469:Drivers/STM32F0xx_HAL_Driver/Src/stm32f0xx_ll_tim.c ****   *          - SUCCESS: TIMx registers are de-initialized
 470:Drivers/STM32F0xx_HAL_Driver/Src/stm32f0xx_ll_tim.c ****   *          - ERROR: not applicable
 471:Drivers/STM32F0xx_HAL_Driver/Src/stm32f0xx_ll_tim.c ****   */
 472:Drivers/STM32F0xx_HAL_Driver/Src/stm32f0xx_ll_tim.c **** ErrorStatus LL_TIM_ENCODER_Init(TIM_TypeDef *TIMx, LL_TIM_ENCODER_InitTypeDef *TIM_EncoderInitStruc
 473:Drivers/STM32F0xx_HAL_Driver/Src/stm32f0xx_ll_tim.c **** {
 474:Drivers/STM32F0xx_HAL_Driver/Src/stm32f0xx_ll_tim.c ****   uint32_t tmpccmr1;
 475:Drivers/STM32F0xx_HAL_Driver/Src/stm32f0xx_ll_tim.c ****   uint32_t tmpccer;
 476:Drivers/STM32F0xx_HAL_Driver/Src/stm32f0xx_ll_tim.c **** 
 477:Drivers/STM32F0xx_HAL_Driver/Src/stm32f0xx_ll_tim.c ****   /* Check the parameters */
 478:Drivers/STM32F0xx_HAL_Driver/Src/stm32f0xx_ll_tim.c ****   assert_param(IS_TIM_ENCODER_INTERFACE_INSTANCE(TIMx));
 479:Drivers/STM32F0xx_HAL_Driver/Src/stm32f0xx_ll_tim.c ****   assert_param(IS_LL_TIM_ENCODERMODE(TIM_EncoderInitStruct->EncoderMode));
 480:Drivers/STM32F0xx_HAL_Driver/Src/stm32f0xx_ll_tim.c ****   assert_param(IS_LL_TIM_IC_POLARITY_ENCODER(TIM_EncoderInitStruct->IC1Polarity));
 481:Drivers/STM32F0xx_HAL_Driver/Src/stm32f0xx_ll_tim.c ****   assert_param(IS_LL_TIM_ACTIVEINPUT(TIM_EncoderInitStruct->IC1ActiveInput));
 482:Drivers/STM32F0xx_HAL_Driver/Src/stm32f0xx_ll_tim.c ****   assert_param(IS_LL_TIM_ICPSC(TIM_EncoderInitStruct->IC1Prescaler));
 483:Drivers/STM32F0xx_HAL_Driver/Src/stm32f0xx_ll_tim.c ****   assert_param(IS_LL_TIM_IC_FILTER(TIM_EncoderInitStruct->IC1Filter));
 484:Drivers/STM32F0xx_HAL_Driver/Src/stm32f0xx_ll_tim.c ****   assert_param(IS_LL_TIM_IC_POLARITY_ENCODER(TIM_EncoderInitStruct->IC2Polarity));
 485:Drivers/STM32F0xx_HAL_Driver/Src/stm32f0xx_ll_tim.c ****   assert_param(IS_LL_TIM_ACTIVEINPUT(TIM_EncoderInitStruct->IC2ActiveInput));
 486:Drivers/STM32F0xx_HAL_Driver/Src/stm32f0xx_ll_tim.c ****   assert_param(IS_LL_TIM_ICPSC(TIM_EncoderInitStruct->IC2Prescaler));
 487:Drivers/STM32F0xx_HAL_Driver/Src/stm32f0xx_ll_tim.c ****   assert_param(IS_LL_TIM_IC_FILTER(TIM_EncoderInitStruct->IC2Filter));
 488:Drivers/STM32F0xx_HAL_Driver/Src/stm32f0xx_ll_tim.c **** 
ARM GAS  C:\Users\ADMINI~1\AppData\Local\Temp\cc3oB4jI.s 			page 10


 489:Drivers/STM32F0xx_HAL_Driver/Src/stm32f0xx_ll_tim.c ****   /* Disable the CC1 and CC2: Reset the CC1E and CC2E Bits */
 490:Drivers/STM32F0xx_HAL_Driver/Src/stm32f0xx_ll_tim.c ****   TIMx->CCER &= (uint32_t)~(TIM_CCER_CC1E | TIM_CCER_CC2E);
 491:Drivers/STM32F0xx_HAL_Driver/Src/stm32f0xx_ll_tim.c **** 
 492:Drivers/STM32F0xx_HAL_Driver/Src/stm32f0xx_ll_tim.c ****   /* Get the TIMx CCMR1 register value */
 493:Drivers/STM32F0xx_HAL_Driver/Src/stm32f0xx_ll_tim.c ****   tmpccmr1 = LL_TIM_ReadReg(TIMx, CCMR1);
 494:Drivers/STM32F0xx_HAL_Driver/Src/stm32f0xx_ll_tim.c **** 
 495:Drivers/STM32F0xx_HAL_Driver/Src/stm32f0xx_ll_tim.c ****   /* Get the TIMx CCER register value */
 496:Drivers/STM32F0xx_HAL_Driver/Src/stm32f0xx_ll_tim.c ****   tmpccer = LL_TIM_ReadReg(TIMx, CCER);
 497:Drivers/STM32F0xx_HAL_Driver/Src/stm32f0xx_ll_tim.c **** 
 498:Drivers/STM32F0xx_HAL_Driver/Src/stm32f0xx_ll_tim.c ****   /* Configure TI1 */
 499:Drivers/STM32F0xx_HAL_Driver/Src/stm32f0xx_ll_tim.c ****   tmpccmr1 &= (uint32_t)~(TIM_CCMR1_CC1S | TIM_CCMR1_IC1F  | TIM_CCMR1_IC1PSC);
 500:Drivers/STM32F0xx_HAL_Driver/Src/stm32f0xx_ll_tim.c ****   tmpccmr1 |= (uint32_t)(TIM_EncoderInitStruct->IC1ActiveInput >> 16U);
 501:Drivers/STM32F0xx_HAL_Driver/Src/stm32f0xx_ll_tim.c ****   tmpccmr1 |= (uint32_t)(TIM_EncoderInitStruct->IC1Filter >> 16U);
 502:Drivers/STM32F0xx_HAL_Driver/Src/stm32f0xx_ll_tim.c ****   tmpccmr1 |= (uint32_t)(TIM_EncoderInitStruct->IC1Prescaler >> 16U);
 503:Drivers/STM32F0xx_HAL_Driver/Src/stm32f0xx_ll_tim.c **** 
 504:Drivers/STM32F0xx_HAL_Driver/Src/stm32f0xx_ll_tim.c ****   /* Configure TI2 */
 505:Drivers/STM32F0xx_HAL_Driver/Src/stm32f0xx_ll_tim.c ****   tmpccmr1 &= (uint32_t)~(TIM_CCMR1_CC2S | TIM_CCMR1_IC2F  | TIM_CCMR1_IC2PSC);
 506:Drivers/STM32F0xx_HAL_Driver/Src/stm32f0xx_ll_tim.c ****   tmpccmr1 |= (uint32_t)(TIM_EncoderInitStruct->IC2ActiveInput >> 8U);
 507:Drivers/STM32F0xx_HAL_Driver/Src/stm32f0xx_ll_tim.c ****   tmpccmr1 |= (uint32_t)(TIM_EncoderInitStruct->IC2Filter >> 8U);
 508:Drivers/STM32F0xx_HAL_Driver/Src/stm32f0xx_ll_tim.c ****   tmpccmr1 |= (uint32_t)(TIM_EncoderInitStruct->IC2Prescaler >> 8U);
 509:Drivers/STM32F0xx_HAL_Driver/Src/stm32f0xx_ll_tim.c **** 
 510:Drivers/STM32F0xx_HAL_Driver/Src/stm32f0xx_ll_tim.c ****   /* Set TI1 and TI2 polarity and enable TI1 and TI2 */
 511:Drivers/STM32F0xx_HAL_Driver/Src/stm32f0xx_ll_tim.c ****   tmpccer &= (uint32_t)~(TIM_CCER_CC1P | TIM_CCER_CC1NP | TIM_CCER_CC2P | TIM_CCER_CC2NP);
 512:Drivers/STM32F0xx_HAL_Driver/Src/stm32f0xx_ll_tim.c ****   tmpccer |= (uint32_t)(TIM_EncoderInitStruct->IC1Polarity);
 513:Drivers/STM32F0xx_HAL_Driver/Src/stm32f0xx_ll_tim.c ****   tmpccer |= (uint32_t)(TIM_EncoderInitStruct->IC2Polarity << 4U);
 514:Drivers/STM32F0xx_HAL_Driver/Src/stm32f0xx_ll_tim.c ****   tmpccer |= (uint32_t)(TIM_CCER_CC1E | TIM_CCER_CC2E);
 515:Drivers/STM32F0xx_HAL_Driver/Src/stm32f0xx_ll_tim.c **** 
 516:Drivers/STM32F0xx_HAL_Driver/Src/stm32f0xx_ll_tim.c ****   /* Set encoder mode */
 517:Drivers/STM32F0xx_HAL_Driver/Src/stm32f0xx_ll_tim.c ****   LL_TIM_SetEncoderMode(TIMx, TIM_EncoderInitStruct->EncoderMode);
 518:Drivers/STM32F0xx_HAL_Driver/Src/stm32f0xx_ll_tim.c **** 
 519:Drivers/STM32F0xx_HAL_Driver/Src/stm32f0xx_ll_tim.c ****   /* Write to TIMx CCMR1 */
 520:Drivers/STM32F0xx_HAL_Driver/Src/stm32f0xx_ll_tim.c ****   LL_TIM_WriteReg(TIMx, CCMR1, tmpccmr1);
 521:Drivers/STM32F0xx_HAL_Driver/Src/stm32f0xx_ll_tim.c **** 
 522:Drivers/STM32F0xx_HAL_Driver/Src/stm32f0xx_ll_tim.c ****   /* Write to TIMx CCER */
 523:Drivers/STM32F0xx_HAL_Driver/Src/stm32f0xx_ll_tim.c ****   LL_TIM_WriteReg(TIMx, CCER, tmpccer);
 524:Drivers/STM32F0xx_HAL_Driver/Src/stm32f0xx_ll_tim.c **** 
 525:Drivers/STM32F0xx_HAL_Driver/Src/stm32f0xx_ll_tim.c ****   return SUCCESS;
 526:Drivers/STM32F0xx_HAL_Driver/Src/stm32f0xx_ll_tim.c **** }
 527:Drivers/STM32F0xx_HAL_Driver/Src/stm32f0xx_ll_tim.c **** 
 528:Drivers/STM32F0xx_HAL_Driver/Src/stm32f0xx_ll_tim.c **** /**
 529:Drivers/STM32F0xx_HAL_Driver/Src/stm32f0xx_ll_tim.c ****   * @brief  Set the fields of the TIMx Hall sensor interface configuration data
 530:Drivers/STM32F0xx_HAL_Driver/Src/stm32f0xx_ll_tim.c ****   *         structure to their default values.
 531:Drivers/STM32F0xx_HAL_Driver/Src/stm32f0xx_ll_tim.c ****   * @param  TIM_HallSensorInitStruct pointer to a @ref LL_TIM_HALLSENSOR_InitTypeDef structure (HAL
 532:Drivers/STM32F0xx_HAL_Driver/Src/stm32f0xx_ll_tim.c ****   *         configuration data structure)
 533:Drivers/STM32F0xx_HAL_Driver/Src/stm32f0xx_ll_tim.c ****   * @retval None
 534:Drivers/STM32F0xx_HAL_Driver/Src/stm32f0xx_ll_tim.c ****   */
 535:Drivers/STM32F0xx_HAL_Driver/Src/stm32f0xx_ll_tim.c **** void LL_TIM_HALLSENSOR_StructInit(LL_TIM_HALLSENSOR_InitTypeDef *TIM_HallSensorInitStruct)
 536:Drivers/STM32F0xx_HAL_Driver/Src/stm32f0xx_ll_tim.c **** {
 537:Drivers/STM32F0xx_HAL_Driver/Src/stm32f0xx_ll_tim.c ****   /* Set the default configuration */
 538:Drivers/STM32F0xx_HAL_Driver/Src/stm32f0xx_ll_tim.c ****   TIM_HallSensorInitStruct->IC1Polarity       = LL_TIM_IC_POLARITY_RISING;
 539:Drivers/STM32F0xx_HAL_Driver/Src/stm32f0xx_ll_tim.c ****   TIM_HallSensorInitStruct->IC1Prescaler      = LL_TIM_ICPSC_DIV1;
 540:Drivers/STM32F0xx_HAL_Driver/Src/stm32f0xx_ll_tim.c ****   TIM_HallSensorInitStruct->IC1Filter         = LL_TIM_IC_FILTER_FDIV1;
 541:Drivers/STM32F0xx_HAL_Driver/Src/stm32f0xx_ll_tim.c ****   TIM_HallSensorInitStruct->CommutationDelay  = 0U;
 542:Drivers/STM32F0xx_HAL_Driver/Src/stm32f0xx_ll_tim.c **** }
 543:Drivers/STM32F0xx_HAL_Driver/Src/stm32f0xx_ll_tim.c **** 
 544:Drivers/STM32F0xx_HAL_Driver/Src/stm32f0xx_ll_tim.c **** /**
 545:Drivers/STM32F0xx_HAL_Driver/Src/stm32f0xx_ll_tim.c ****   * @brief  Configure the Hall sensor interface of the timer instance.
ARM GAS  C:\Users\ADMINI~1\AppData\Local\Temp\cc3oB4jI.s 			page 11


 546:Drivers/STM32F0xx_HAL_Driver/Src/stm32f0xx_ll_tim.c ****   * @note TIMx CH1, CH2 and CH3 inputs connected through a XOR
 547:Drivers/STM32F0xx_HAL_Driver/Src/stm32f0xx_ll_tim.c ****   *       to the TI1 input channel
 548:Drivers/STM32F0xx_HAL_Driver/Src/stm32f0xx_ll_tim.c ****   * @note TIMx slave mode controller is configured in reset mode.
 549:Drivers/STM32F0xx_HAL_Driver/Src/stm32f0xx_ll_tim.c ****           Selected internal trigger is TI1F_ED.
 550:Drivers/STM32F0xx_HAL_Driver/Src/stm32f0xx_ll_tim.c ****   * @note Channel 1 is configured as input, IC1 is mapped on TRC.
 551:Drivers/STM32F0xx_HAL_Driver/Src/stm32f0xx_ll_tim.c ****   * @note Captured value stored in TIMx_CCR1 correspond to the time elapsed
 552:Drivers/STM32F0xx_HAL_Driver/Src/stm32f0xx_ll_tim.c ****   *       between 2 changes on the inputs. It gives information about motor speed.
 553:Drivers/STM32F0xx_HAL_Driver/Src/stm32f0xx_ll_tim.c ****   * @note Channel 2 is configured in output PWM 2 mode.
 554:Drivers/STM32F0xx_HAL_Driver/Src/stm32f0xx_ll_tim.c ****   * @note Compare value stored in TIMx_CCR2 corresponds to the commutation delay.
 555:Drivers/STM32F0xx_HAL_Driver/Src/stm32f0xx_ll_tim.c ****   * @note OC2REF is selected as trigger output on TRGO.
 556:Drivers/STM32F0xx_HAL_Driver/Src/stm32f0xx_ll_tim.c ****   * @note LL_TIM_IC_POLARITY_BOTHEDGE must not be used for TI1 when it is used
 557:Drivers/STM32F0xx_HAL_Driver/Src/stm32f0xx_ll_tim.c ****   *       when TIMx operates in Hall sensor interface mode.
 558:Drivers/STM32F0xx_HAL_Driver/Src/stm32f0xx_ll_tim.c ****   * @param  TIMx Timer Instance
 559:Drivers/STM32F0xx_HAL_Driver/Src/stm32f0xx_ll_tim.c ****   * @param  TIM_HallSensorInitStruct pointer to a @ref LL_TIM_HALLSENSOR_InitTypeDef structure (TIM
 560:Drivers/STM32F0xx_HAL_Driver/Src/stm32f0xx_ll_tim.c ****   *         interface configuration data structure)
 561:Drivers/STM32F0xx_HAL_Driver/Src/stm32f0xx_ll_tim.c ****   * @retval An ErrorStatus enumeration value:
 562:Drivers/STM32F0xx_HAL_Driver/Src/stm32f0xx_ll_tim.c ****   *          - SUCCESS: TIMx registers are de-initialized
 563:Drivers/STM32F0xx_HAL_Driver/Src/stm32f0xx_ll_tim.c ****   *          - ERROR: not applicable
 564:Drivers/STM32F0xx_HAL_Driver/Src/stm32f0xx_ll_tim.c ****   */
 565:Drivers/STM32F0xx_HAL_Driver/Src/stm32f0xx_ll_tim.c **** ErrorStatus LL_TIM_HALLSENSOR_Init(TIM_TypeDef *TIMx, LL_TIM_HALLSENSOR_InitTypeDef *TIM_HallSensor
 566:Drivers/STM32F0xx_HAL_Driver/Src/stm32f0xx_ll_tim.c **** {
 567:Drivers/STM32F0xx_HAL_Driver/Src/stm32f0xx_ll_tim.c ****   uint32_t tmpcr2;
 568:Drivers/STM32F0xx_HAL_Driver/Src/stm32f0xx_ll_tim.c ****   uint32_t tmpccmr1;
 569:Drivers/STM32F0xx_HAL_Driver/Src/stm32f0xx_ll_tim.c ****   uint32_t tmpccer;
 570:Drivers/STM32F0xx_HAL_Driver/Src/stm32f0xx_ll_tim.c ****   uint32_t tmpsmcr;
 571:Drivers/STM32F0xx_HAL_Driver/Src/stm32f0xx_ll_tim.c **** 
 572:Drivers/STM32F0xx_HAL_Driver/Src/stm32f0xx_ll_tim.c ****   /* Check the parameters */
 573:Drivers/STM32F0xx_HAL_Driver/Src/stm32f0xx_ll_tim.c ****   assert_param(IS_TIM_HALL_SENSOR_INTERFACE_INSTANCE(TIMx));
 574:Drivers/STM32F0xx_HAL_Driver/Src/stm32f0xx_ll_tim.c ****   assert_param(IS_LL_TIM_IC_POLARITY_ENCODER(TIM_HallSensorInitStruct->IC1Polarity));
 575:Drivers/STM32F0xx_HAL_Driver/Src/stm32f0xx_ll_tim.c ****   assert_param(IS_LL_TIM_ICPSC(TIM_HallSensorInitStruct->IC1Prescaler));
 576:Drivers/STM32F0xx_HAL_Driver/Src/stm32f0xx_ll_tim.c ****   assert_param(IS_LL_TIM_IC_FILTER(TIM_HallSensorInitStruct->IC1Filter));
 577:Drivers/STM32F0xx_HAL_Driver/Src/stm32f0xx_ll_tim.c **** 
 578:Drivers/STM32F0xx_HAL_Driver/Src/stm32f0xx_ll_tim.c ****   /* Disable the CC1 and CC2: Reset the CC1E and CC2E Bits */
 579:Drivers/STM32F0xx_HAL_Driver/Src/stm32f0xx_ll_tim.c ****   TIMx->CCER &= (uint32_t)~(TIM_CCER_CC1E | TIM_CCER_CC2E);
 580:Drivers/STM32F0xx_HAL_Driver/Src/stm32f0xx_ll_tim.c **** 
 581:Drivers/STM32F0xx_HAL_Driver/Src/stm32f0xx_ll_tim.c ****   /* Get the TIMx CR2 register value */
 582:Drivers/STM32F0xx_HAL_Driver/Src/stm32f0xx_ll_tim.c ****   tmpcr2 = LL_TIM_ReadReg(TIMx, CR2);
 583:Drivers/STM32F0xx_HAL_Driver/Src/stm32f0xx_ll_tim.c **** 
 584:Drivers/STM32F0xx_HAL_Driver/Src/stm32f0xx_ll_tim.c ****   /* Get the TIMx CCMR1 register value */
 585:Drivers/STM32F0xx_HAL_Driver/Src/stm32f0xx_ll_tim.c ****   tmpccmr1 = LL_TIM_ReadReg(TIMx, CCMR1);
 586:Drivers/STM32F0xx_HAL_Driver/Src/stm32f0xx_ll_tim.c **** 
 587:Drivers/STM32F0xx_HAL_Driver/Src/stm32f0xx_ll_tim.c ****   /* Get the TIMx CCER register value */
 588:Drivers/STM32F0xx_HAL_Driver/Src/stm32f0xx_ll_tim.c ****   tmpccer = LL_TIM_ReadReg(TIMx, CCER);
 589:Drivers/STM32F0xx_HAL_Driver/Src/stm32f0xx_ll_tim.c **** 
 590:Drivers/STM32F0xx_HAL_Driver/Src/stm32f0xx_ll_tim.c ****   /* Get the TIMx SMCR register value */
 591:Drivers/STM32F0xx_HAL_Driver/Src/stm32f0xx_ll_tim.c ****   tmpsmcr = LL_TIM_ReadReg(TIMx, SMCR);
 592:Drivers/STM32F0xx_HAL_Driver/Src/stm32f0xx_ll_tim.c **** 
 593:Drivers/STM32F0xx_HAL_Driver/Src/stm32f0xx_ll_tim.c ****   /* Connect TIMx_CH1, CH2 and CH3 pins to the TI1 input */
 594:Drivers/STM32F0xx_HAL_Driver/Src/stm32f0xx_ll_tim.c ****   tmpcr2 |= TIM_CR2_TI1S;
 595:Drivers/STM32F0xx_HAL_Driver/Src/stm32f0xx_ll_tim.c **** 
 596:Drivers/STM32F0xx_HAL_Driver/Src/stm32f0xx_ll_tim.c ****   /* OC2REF signal is used as trigger output (TRGO) */
 597:Drivers/STM32F0xx_HAL_Driver/Src/stm32f0xx_ll_tim.c ****   tmpcr2 |= LL_TIM_TRGO_OC2REF;
 598:Drivers/STM32F0xx_HAL_Driver/Src/stm32f0xx_ll_tim.c **** 
 599:Drivers/STM32F0xx_HAL_Driver/Src/stm32f0xx_ll_tim.c ****   /* Configure the slave mode controller */
 600:Drivers/STM32F0xx_HAL_Driver/Src/stm32f0xx_ll_tim.c ****   tmpsmcr &= (uint32_t)~(TIM_SMCR_TS | TIM_SMCR_SMS);
 601:Drivers/STM32F0xx_HAL_Driver/Src/stm32f0xx_ll_tim.c ****   tmpsmcr |= LL_TIM_TS_TI1F_ED;
 602:Drivers/STM32F0xx_HAL_Driver/Src/stm32f0xx_ll_tim.c ****   tmpsmcr |= LL_TIM_SLAVEMODE_RESET;
ARM GAS  C:\Users\ADMINI~1\AppData\Local\Temp\cc3oB4jI.s 			page 12


 603:Drivers/STM32F0xx_HAL_Driver/Src/stm32f0xx_ll_tim.c **** 
 604:Drivers/STM32F0xx_HAL_Driver/Src/stm32f0xx_ll_tim.c ****   /* Configure input channel 1 */
 605:Drivers/STM32F0xx_HAL_Driver/Src/stm32f0xx_ll_tim.c ****   tmpccmr1 &= (uint32_t)~(TIM_CCMR1_CC1S | TIM_CCMR1_IC1F  | TIM_CCMR1_IC1PSC);
 606:Drivers/STM32F0xx_HAL_Driver/Src/stm32f0xx_ll_tim.c ****   tmpccmr1 |= (uint32_t)(LL_TIM_ACTIVEINPUT_TRC >> 16U);
 607:Drivers/STM32F0xx_HAL_Driver/Src/stm32f0xx_ll_tim.c ****   tmpccmr1 |= (uint32_t)(TIM_HallSensorInitStruct->IC1Filter >> 16U);
 608:Drivers/STM32F0xx_HAL_Driver/Src/stm32f0xx_ll_tim.c ****   tmpccmr1 |= (uint32_t)(TIM_HallSensorInitStruct->IC1Prescaler >> 16U);
 609:Drivers/STM32F0xx_HAL_Driver/Src/stm32f0xx_ll_tim.c **** 
 610:Drivers/STM32F0xx_HAL_Driver/Src/stm32f0xx_ll_tim.c ****   /* Configure input channel 2 */
 611:Drivers/STM32F0xx_HAL_Driver/Src/stm32f0xx_ll_tim.c ****   tmpccmr1 &= (uint32_t)~(TIM_CCMR1_OC2M | TIM_CCMR1_OC2FE  | TIM_CCMR1_OC2PE  | TIM_CCMR1_OC2CE);
 612:Drivers/STM32F0xx_HAL_Driver/Src/stm32f0xx_ll_tim.c ****   tmpccmr1 |= (uint32_t)(LL_TIM_OCMODE_PWM2 << 8U);
 613:Drivers/STM32F0xx_HAL_Driver/Src/stm32f0xx_ll_tim.c **** 
 614:Drivers/STM32F0xx_HAL_Driver/Src/stm32f0xx_ll_tim.c ****   /* Set Channel 1 polarity and enable Channel 1 and Channel2 */
 615:Drivers/STM32F0xx_HAL_Driver/Src/stm32f0xx_ll_tim.c ****   tmpccer &= (uint32_t)~(TIM_CCER_CC1P | TIM_CCER_CC1NP | TIM_CCER_CC2P | TIM_CCER_CC2NP);
 616:Drivers/STM32F0xx_HAL_Driver/Src/stm32f0xx_ll_tim.c ****   tmpccer |= (uint32_t)(TIM_HallSensorInitStruct->IC1Polarity);
 617:Drivers/STM32F0xx_HAL_Driver/Src/stm32f0xx_ll_tim.c ****   tmpccer |= (uint32_t)(TIM_CCER_CC1E | TIM_CCER_CC2E);
 618:Drivers/STM32F0xx_HAL_Driver/Src/stm32f0xx_ll_tim.c **** 
 619:Drivers/STM32F0xx_HAL_Driver/Src/stm32f0xx_ll_tim.c ****   /* Write to TIMx CR2 */
 620:Drivers/STM32F0xx_HAL_Driver/Src/stm32f0xx_ll_tim.c ****   LL_TIM_WriteReg(TIMx, CR2, tmpcr2);
 621:Drivers/STM32F0xx_HAL_Driver/Src/stm32f0xx_ll_tim.c **** 
 622:Drivers/STM32F0xx_HAL_Driver/Src/stm32f0xx_ll_tim.c ****   /* Write to TIMx SMCR */
 623:Drivers/STM32F0xx_HAL_Driver/Src/stm32f0xx_ll_tim.c ****   LL_TIM_WriteReg(TIMx, SMCR, tmpsmcr);
 624:Drivers/STM32F0xx_HAL_Driver/Src/stm32f0xx_ll_tim.c **** 
 625:Drivers/STM32F0xx_HAL_Driver/Src/stm32f0xx_ll_tim.c ****   /* Write to TIMx CCMR1 */
 626:Drivers/STM32F0xx_HAL_Driver/Src/stm32f0xx_ll_tim.c ****   LL_TIM_WriteReg(TIMx, CCMR1, tmpccmr1);
 627:Drivers/STM32F0xx_HAL_Driver/Src/stm32f0xx_ll_tim.c **** 
 628:Drivers/STM32F0xx_HAL_Driver/Src/stm32f0xx_ll_tim.c ****   /* Write to TIMx CCER */
 629:Drivers/STM32F0xx_HAL_Driver/Src/stm32f0xx_ll_tim.c ****   LL_TIM_WriteReg(TIMx, CCER, tmpccer);
 630:Drivers/STM32F0xx_HAL_Driver/Src/stm32f0xx_ll_tim.c **** 
 631:Drivers/STM32F0xx_HAL_Driver/Src/stm32f0xx_ll_tim.c ****   /* Write to TIMx CCR2 */
 632:Drivers/STM32F0xx_HAL_Driver/Src/stm32f0xx_ll_tim.c ****   LL_TIM_OC_SetCompareCH2(TIMx, TIM_HallSensorInitStruct->CommutationDelay);
 633:Drivers/STM32F0xx_HAL_Driver/Src/stm32f0xx_ll_tim.c **** 
 634:Drivers/STM32F0xx_HAL_Driver/Src/stm32f0xx_ll_tim.c ****   return SUCCESS;
 635:Drivers/STM32F0xx_HAL_Driver/Src/stm32f0xx_ll_tim.c **** }
 636:Drivers/STM32F0xx_HAL_Driver/Src/stm32f0xx_ll_tim.c **** 
 637:Drivers/STM32F0xx_HAL_Driver/Src/stm32f0xx_ll_tim.c **** /**
 638:Drivers/STM32F0xx_HAL_Driver/Src/stm32f0xx_ll_tim.c ****   * @brief  Set the fields of the Break and Dead Time configuration data structure
 639:Drivers/STM32F0xx_HAL_Driver/Src/stm32f0xx_ll_tim.c ****   *         to their default values.
 640:Drivers/STM32F0xx_HAL_Driver/Src/stm32f0xx_ll_tim.c ****   * @param  TIM_BDTRInitStruct pointer to a @ref LL_TIM_BDTR_InitTypeDef structure (Break and Dead 
 641:Drivers/STM32F0xx_HAL_Driver/Src/stm32f0xx_ll_tim.c ****   *         data structure)
 642:Drivers/STM32F0xx_HAL_Driver/Src/stm32f0xx_ll_tim.c ****   * @retval None
 643:Drivers/STM32F0xx_HAL_Driver/Src/stm32f0xx_ll_tim.c ****   */
 644:Drivers/STM32F0xx_HAL_Driver/Src/stm32f0xx_ll_tim.c **** void LL_TIM_BDTR_StructInit(LL_TIM_BDTR_InitTypeDef *TIM_BDTRInitStruct)
 645:Drivers/STM32F0xx_HAL_Driver/Src/stm32f0xx_ll_tim.c **** {
 646:Drivers/STM32F0xx_HAL_Driver/Src/stm32f0xx_ll_tim.c ****   /* Set the default configuration */
 647:Drivers/STM32F0xx_HAL_Driver/Src/stm32f0xx_ll_tim.c ****   TIM_BDTRInitStruct->OSSRState       = LL_TIM_OSSR_DISABLE;
 648:Drivers/STM32F0xx_HAL_Driver/Src/stm32f0xx_ll_tim.c ****   TIM_BDTRInitStruct->OSSIState       = LL_TIM_OSSI_DISABLE;
 649:Drivers/STM32F0xx_HAL_Driver/Src/stm32f0xx_ll_tim.c ****   TIM_BDTRInitStruct->LockLevel       = LL_TIM_LOCKLEVEL_OFF;
 650:Drivers/STM32F0xx_HAL_Driver/Src/stm32f0xx_ll_tim.c ****   TIM_BDTRInitStruct->DeadTime        = (uint8_t)0x00;
 651:Drivers/STM32F0xx_HAL_Driver/Src/stm32f0xx_ll_tim.c ****   TIM_BDTRInitStruct->BreakState      = LL_TIM_BREAK_DISABLE;
 652:Drivers/STM32F0xx_HAL_Driver/Src/stm32f0xx_ll_tim.c ****   TIM_BDTRInitStruct->BreakPolarity   = LL_TIM_BREAK_POLARITY_LOW;
 653:Drivers/STM32F0xx_HAL_Driver/Src/stm32f0xx_ll_tim.c ****   TIM_BDTRInitStruct->AutomaticOutput = LL_TIM_AUTOMATICOUTPUT_DISABLE;
 654:Drivers/STM32F0xx_HAL_Driver/Src/stm32f0xx_ll_tim.c **** }
 655:Drivers/STM32F0xx_HAL_Driver/Src/stm32f0xx_ll_tim.c **** 
 656:Drivers/STM32F0xx_HAL_Driver/Src/stm32f0xx_ll_tim.c **** /**
 657:Drivers/STM32F0xx_HAL_Driver/Src/stm32f0xx_ll_tim.c ****   * @brief  Configure the Break and Dead Time feature of the timer instance.
 658:Drivers/STM32F0xx_HAL_Driver/Src/stm32f0xx_ll_tim.c ****   * @note As the bits AOE, BKP, BKE, OSSR, OSSI and DTG[7:0] can be write-locked
 659:Drivers/STM32F0xx_HAL_Driver/Src/stm32f0xx_ll_tim.c ****   *  depending on the LOCK configuration, it can be necessary to configure all of
ARM GAS  C:\Users\ADMINI~1\AppData\Local\Temp\cc3oB4jI.s 			page 13


 660:Drivers/STM32F0xx_HAL_Driver/Src/stm32f0xx_ll_tim.c ****   *  them during the first write access to the TIMx_BDTR register.
 661:Drivers/STM32F0xx_HAL_Driver/Src/stm32f0xx_ll_tim.c ****   * @note Macro IS_TIM_BREAK_INSTANCE(TIMx) can be used to check whether or not
 662:Drivers/STM32F0xx_HAL_Driver/Src/stm32f0xx_ll_tim.c ****   *       a timer instance provides a break input.
 663:Drivers/STM32F0xx_HAL_Driver/Src/stm32f0xx_ll_tim.c ****   * @param  TIMx Timer Instance
 664:Drivers/STM32F0xx_HAL_Driver/Src/stm32f0xx_ll_tim.c ****   * @param  TIM_BDTRInitStruct pointer to a @ref LL_TIM_BDTR_InitTypeDef structure (Break and Dead 
 665:Drivers/STM32F0xx_HAL_Driver/Src/stm32f0xx_ll_tim.c ****   *         data structure)
 666:Drivers/STM32F0xx_HAL_Driver/Src/stm32f0xx_ll_tim.c ****   * @retval An ErrorStatus enumeration value:
 667:Drivers/STM32F0xx_HAL_Driver/Src/stm32f0xx_ll_tim.c ****   *          - SUCCESS: Break and Dead Time is initialized
 668:Drivers/STM32F0xx_HAL_Driver/Src/stm32f0xx_ll_tim.c ****   *          - ERROR: not applicable
 669:Drivers/STM32F0xx_HAL_Driver/Src/stm32f0xx_ll_tim.c ****   */
 670:Drivers/STM32F0xx_HAL_Driver/Src/stm32f0xx_ll_tim.c **** ErrorStatus LL_TIM_BDTR_Init(TIM_TypeDef *TIMx, LL_TIM_BDTR_InitTypeDef *TIM_BDTRInitStruct)
 671:Drivers/STM32F0xx_HAL_Driver/Src/stm32f0xx_ll_tim.c **** {
 672:Drivers/STM32F0xx_HAL_Driver/Src/stm32f0xx_ll_tim.c ****   uint32_t tmpbdtr = 0;
 673:Drivers/STM32F0xx_HAL_Driver/Src/stm32f0xx_ll_tim.c **** 
 674:Drivers/STM32F0xx_HAL_Driver/Src/stm32f0xx_ll_tim.c ****   /* Check the parameters */
 675:Drivers/STM32F0xx_HAL_Driver/Src/stm32f0xx_ll_tim.c ****   assert_param(IS_TIM_BREAK_INSTANCE(TIMx));
 676:Drivers/STM32F0xx_HAL_Driver/Src/stm32f0xx_ll_tim.c ****   assert_param(IS_LL_TIM_OSSR_STATE(TIM_BDTRInitStruct->OSSRState));
 677:Drivers/STM32F0xx_HAL_Driver/Src/stm32f0xx_ll_tim.c ****   assert_param(IS_LL_TIM_OSSI_STATE(TIM_BDTRInitStruct->OSSIState));
 678:Drivers/STM32F0xx_HAL_Driver/Src/stm32f0xx_ll_tim.c ****   assert_param(IS_LL_TIM_LOCK_LEVEL(TIM_BDTRInitStruct->LockLevel));
 679:Drivers/STM32F0xx_HAL_Driver/Src/stm32f0xx_ll_tim.c ****   assert_param(IS_LL_TIM_BREAK_STATE(TIM_BDTRInitStruct->BreakState));
 680:Drivers/STM32F0xx_HAL_Driver/Src/stm32f0xx_ll_tim.c ****   assert_param(IS_LL_TIM_BREAK_POLARITY(TIM_BDTRInitStruct->BreakPolarity));
 681:Drivers/STM32F0xx_HAL_Driver/Src/stm32f0xx_ll_tim.c ****   assert_param(IS_LL_TIM_AUTOMATIC_OUTPUT_STATE(TIM_BDTRInitStruct->AutomaticOutput));
 682:Drivers/STM32F0xx_HAL_Driver/Src/stm32f0xx_ll_tim.c **** 
 683:Drivers/STM32F0xx_HAL_Driver/Src/stm32f0xx_ll_tim.c ****   /* Set the Lock level, the Break enable Bit and the Polarity, the OSSR State,
 684:Drivers/STM32F0xx_HAL_Driver/Src/stm32f0xx_ll_tim.c ****   the OSSI State, the dead time value and the Automatic Output Enable Bit */
 685:Drivers/STM32F0xx_HAL_Driver/Src/stm32f0xx_ll_tim.c **** 
 686:Drivers/STM32F0xx_HAL_Driver/Src/stm32f0xx_ll_tim.c ****   /* Set the BDTR bits */
 687:Drivers/STM32F0xx_HAL_Driver/Src/stm32f0xx_ll_tim.c ****   MODIFY_REG(tmpbdtr, TIM_BDTR_DTG, TIM_BDTRInitStruct->DeadTime);
 688:Drivers/STM32F0xx_HAL_Driver/Src/stm32f0xx_ll_tim.c ****   MODIFY_REG(tmpbdtr, TIM_BDTR_LOCK, TIM_BDTRInitStruct->LockLevel);
 689:Drivers/STM32F0xx_HAL_Driver/Src/stm32f0xx_ll_tim.c ****   MODIFY_REG(tmpbdtr, TIM_BDTR_OSSI, TIM_BDTRInitStruct->OSSIState);
 690:Drivers/STM32F0xx_HAL_Driver/Src/stm32f0xx_ll_tim.c ****   MODIFY_REG(tmpbdtr, TIM_BDTR_OSSR, TIM_BDTRInitStruct->OSSRState);
 691:Drivers/STM32F0xx_HAL_Driver/Src/stm32f0xx_ll_tim.c ****   MODIFY_REG(tmpbdtr, TIM_BDTR_BKE, TIM_BDTRInitStruct->BreakState);
 692:Drivers/STM32F0xx_HAL_Driver/Src/stm32f0xx_ll_tim.c ****   MODIFY_REG(tmpbdtr, TIM_BDTR_BKP, TIM_BDTRInitStruct->BreakPolarity);
 693:Drivers/STM32F0xx_HAL_Driver/Src/stm32f0xx_ll_tim.c ****   MODIFY_REG(tmpbdtr, TIM_BDTR_AOE, TIM_BDTRInitStruct->AutomaticOutput);
 694:Drivers/STM32F0xx_HAL_Driver/Src/stm32f0xx_ll_tim.c ****   MODIFY_REG(tmpbdtr, TIM_BDTR_MOE, TIM_BDTRInitStruct->AutomaticOutput);
 695:Drivers/STM32F0xx_HAL_Driver/Src/stm32f0xx_ll_tim.c **** 
 696:Drivers/STM32F0xx_HAL_Driver/Src/stm32f0xx_ll_tim.c ****   /* Set TIMx_BDTR */
 697:Drivers/STM32F0xx_HAL_Driver/Src/stm32f0xx_ll_tim.c ****   LL_TIM_WriteReg(TIMx, BDTR, tmpbdtr);
 698:Drivers/STM32F0xx_HAL_Driver/Src/stm32f0xx_ll_tim.c **** 
 699:Drivers/STM32F0xx_HAL_Driver/Src/stm32f0xx_ll_tim.c ****   return SUCCESS;
 700:Drivers/STM32F0xx_HAL_Driver/Src/stm32f0xx_ll_tim.c **** }
 701:Drivers/STM32F0xx_HAL_Driver/Src/stm32f0xx_ll_tim.c **** /**
 702:Drivers/STM32F0xx_HAL_Driver/Src/stm32f0xx_ll_tim.c ****   * @}
 703:Drivers/STM32F0xx_HAL_Driver/Src/stm32f0xx_ll_tim.c ****   */
 704:Drivers/STM32F0xx_HAL_Driver/Src/stm32f0xx_ll_tim.c **** 
 705:Drivers/STM32F0xx_HAL_Driver/Src/stm32f0xx_ll_tim.c **** /**
 706:Drivers/STM32F0xx_HAL_Driver/Src/stm32f0xx_ll_tim.c ****   * @}
 707:Drivers/STM32F0xx_HAL_Driver/Src/stm32f0xx_ll_tim.c ****   */
 708:Drivers/STM32F0xx_HAL_Driver/Src/stm32f0xx_ll_tim.c **** 
 709:Drivers/STM32F0xx_HAL_Driver/Src/stm32f0xx_ll_tim.c **** /** @addtogroup TIM_LL_Private_Functions TIM Private Functions
 710:Drivers/STM32F0xx_HAL_Driver/Src/stm32f0xx_ll_tim.c ****   *  @brief   Private functions
 711:Drivers/STM32F0xx_HAL_Driver/Src/stm32f0xx_ll_tim.c ****   * @{
 712:Drivers/STM32F0xx_HAL_Driver/Src/stm32f0xx_ll_tim.c ****   */
 713:Drivers/STM32F0xx_HAL_Driver/Src/stm32f0xx_ll_tim.c **** /**
 714:Drivers/STM32F0xx_HAL_Driver/Src/stm32f0xx_ll_tim.c ****   * @brief  Configure the TIMx output channel 1.
 715:Drivers/STM32F0xx_HAL_Driver/Src/stm32f0xx_ll_tim.c ****   * @param  TIMx Timer Instance
 716:Drivers/STM32F0xx_HAL_Driver/Src/stm32f0xx_ll_tim.c ****   * @param  TIM_OCInitStruct pointer to the the TIMx output channel 1 configuration data structure
ARM GAS  C:\Users\ADMINI~1\AppData\Local\Temp\cc3oB4jI.s 			page 14


 717:Drivers/STM32F0xx_HAL_Driver/Src/stm32f0xx_ll_tim.c ****   * @retval An ErrorStatus enumeration value:
 718:Drivers/STM32F0xx_HAL_Driver/Src/stm32f0xx_ll_tim.c ****   *          - SUCCESS: TIMx registers are de-initialized
 719:Drivers/STM32F0xx_HAL_Driver/Src/stm32f0xx_ll_tim.c ****   *          - ERROR: not applicable
 720:Drivers/STM32F0xx_HAL_Driver/Src/stm32f0xx_ll_tim.c ****   */
 721:Drivers/STM32F0xx_HAL_Driver/Src/stm32f0xx_ll_tim.c **** static ErrorStatus OC1Config(TIM_TypeDef *TIMx, LL_TIM_OC_InitTypeDef *TIM_OCInitStruct)
 722:Drivers/STM32F0xx_HAL_Driver/Src/stm32f0xx_ll_tim.c **** {
  27              		.loc 1 722 1 view -0
  28              		.cfi_startproc
  29              		@ args = 0, pretend = 0, frame = 0
  30              		@ frame_needed = 0, uses_anonymous_args = 0
  31              		.loc 1 722 1 is_stmt 0 view .LVU1
  32 0000 70B5     		push	{r4, r5, r6, lr}
  33              	.LCFI0:
  34              		.cfi_def_cfa_offset 16
  35              		.cfi_offset 4, -16
  36              		.cfi_offset 5, -12
  37              		.cfi_offset 6, -8
  38              		.cfi_offset 14, -4
 723:Drivers/STM32F0xx_HAL_Driver/Src/stm32f0xx_ll_tim.c ****   uint32_t tmpccmr1;
  39              		.loc 1 723 3 is_stmt 1 view .LVU2
 724:Drivers/STM32F0xx_HAL_Driver/Src/stm32f0xx_ll_tim.c ****   uint32_t tmpccer;
  40              		.loc 1 724 3 view .LVU3
 725:Drivers/STM32F0xx_HAL_Driver/Src/stm32f0xx_ll_tim.c ****   uint32_t tmpcr2;
  41              		.loc 1 725 3 view .LVU4
 726:Drivers/STM32F0xx_HAL_Driver/Src/stm32f0xx_ll_tim.c **** 
 727:Drivers/STM32F0xx_HAL_Driver/Src/stm32f0xx_ll_tim.c ****   /* Check the parameters */
 728:Drivers/STM32F0xx_HAL_Driver/Src/stm32f0xx_ll_tim.c ****   assert_param(IS_TIM_CC1_INSTANCE(TIMx));
  42              		.loc 1 728 3 view .LVU5
 729:Drivers/STM32F0xx_HAL_Driver/Src/stm32f0xx_ll_tim.c ****   assert_param(IS_LL_TIM_OCMODE(TIM_OCInitStruct->OCMode));
  43              		.loc 1 729 3 view .LVU6
 730:Drivers/STM32F0xx_HAL_Driver/Src/stm32f0xx_ll_tim.c ****   assert_param(IS_LL_TIM_OCSTATE(TIM_OCInitStruct->OCState));
  44              		.loc 1 730 3 view .LVU7
 731:Drivers/STM32F0xx_HAL_Driver/Src/stm32f0xx_ll_tim.c ****   assert_param(IS_LL_TIM_OCPOLARITY(TIM_OCInitStruct->OCPolarity));
  45              		.loc 1 731 3 view .LVU8
 732:Drivers/STM32F0xx_HAL_Driver/Src/stm32f0xx_ll_tim.c ****   assert_param(IS_LL_TIM_OCSTATE(TIM_OCInitStruct->OCNState));
  46              		.loc 1 732 3 view .LVU9
 733:Drivers/STM32F0xx_HAL_Driver/Src/stm32f0xx_ll_tim.c ****   assert_param(IS_LL_TIM_OCPOLARITY(TIM_OCInitStruct->OCNPolarity));
  47              		.loc 1 733 3 view .LVU10
 734:Drivers/STM32F0xx_HAL_Driver/Src/stm32f0xx_ll_tim.c **** 
 735:Drivers/STM32F0xx_HAL_Driver/Src/stm32f0xx_ll_tim.c ****   /* Disable the Channel 1: Reset the CC1E Bit */
 736:Drivers/STM32F0xx_HAL_Driver/Src/stm32f0xx_ll_tim.c ****   CLEAR_BIT(TIMx->CCER, TIM_CCER_CC1E);
  48              		.loc 1 736 3 view .LVU11
  49 0002 036A     		ldr	r3, [r0, #32]
  50 0004 0122     		movs	r2, #1
  51 0006 9343     		bics	r3, r2
  52 0008 0362     		str	r3, [r0, #32]
 737:Drivers/STM32F0xx_HAL_Driver/Src/stm32f0xx_ll_tim.c **** 
 738:Drivers/STM32F0xx_HAL_Driver/Src/stm32f0xx_ll_tim.c ****   /* Get the TIMx CCER register value */
 739:Drivers/STM32F0xx_HAL_Driver/Src/stm32f0xx_ll_tim.c ****   tmpccer = LL_TIM_ReadReg(TIMx, CCER);
  53              		.loc 1 739 3 view .LVU12
  54              		.loc 1 739 11 is_stmt 0 view .LVU13
  55 000a 036A     		ldr	r3, [r0, #32]
  56              	.LVL1:
 740:Drivers/STM32F0xx_HAL_Driver/Src/stm32f0xx_ll_tim.c **** 
 741:Drivers/STM32F0xx_HAL_Driver/Src/stm32f0xx_ll_tim.c ****   /* Get the TIMx CR2 register value */
 742:Drivers/STM32F0xx_HAL_Driver/Src/stm32f0xx_ll_tim.c ****   tmpcr2 = LL_TIM_ReadReg(TIMx, CR2);
  57              		.loc 1 742 3 is_stmt 1 view .LVU14
ARM GAS  C:\Users\ADMINI~1\AppData\Local\Temp\cc3oB4jI.s 			page 15


  58              		.loc 1 742 10 is_stmt 0 view .LVU15
  59 000c 4568     		ldr	r5, [r0, #4]
  60              	.LVL2:
 743:Drivers/STM32F0xx_HAL_Driver/Src/stm32f0xx_ll_tim.c **** 
 744:Drivers/STM32F0xx_HAL_Driver/Src/stm32f0xx_ll_tim.c ****   /* Get the TIMx CCMR1 register value */
 745:Drivers/STM32F0xx_HAL_Driver/Src/stm32f0xx_ll_tim.c ****   tmpccmr1 = LL_TIM_ReadReg(TIMx, CCMR1);
  61              		.loc 1 745 3 is_stmt 1 view .LVU16
  62              		.loc 1 745 12 is_stmt 0 view .LVU17
  63 000e 8469     		ldr	r4, [r0, #24]
  64              	.LVL3:
 746:Drivers/STM32F0xx_HAL_Driver/Src/stm32f0xx_ll_tim.c **** 
 747:Drivers/STM32F0xx_HAL_Driver/Src/stm32f0xx_ll_tim.c ****   /* Reset Capture/Compare selection Bits */
 748:Drivers/STM32F0xx_HAL_Driver/Src/stm32f0xx_ll_tim.c ****   CLEAR_BIT(tmpccmr1, TIM_CCMR1_CC1S);
  65              		.loc 1 748 3 is_stmt 1 view .LVU18
 749:Drivers/STM32F0xx_HAL_Driver/Src/stm32f0xx_ll_tim.c **** 
 750:Drivers/STM32F0xx_HAL_Driver/Src/stm32f0xx_ll_tim.c ****   /* Set the Output Compare Mode */
 751:Drivers/STM32F0xx_HAL_Driver/Src/stm32f0xx_ll_tim.c ****   MODIFY_REG(tmpccmr1, TIM_CCMR1_OC1M, TIM_OCInitStruct->OCMode);
  66              		.loc 1 751 3 view .LVU19
  67 0010 7326     		movs	r6, #115
  68 0012 B443     		bics	r4, r6
  69              	.LVL4:
  70              		.loc 1 751 3 is_stmt 0 view .LVU20
  71 0014 0E68     		ldr	r6, [r1]
  72 0016 3443     		orrs	r4, r6
  73              	.LVL5:
 752:Drivers/STM32F0xx_HAL_Driver/Src/stm32f0xx_ll_tim.c **** 
 753:Drivers/STM32F0xx_HAL_Driver/Src/stm32f0xx_ll_tim.c ****   /* Set the Output Compare Polarity */
 754:Drivers/STM32F0xx_HAL_Driver/Src/stm32f0xx_ll_tim.c ****   MODIFY_REG(tmpccer, TIM_CCER_CC1P, TIM_OCInitStruct->OCPolarity);
  74              		.loc 1 754 3 is_stmt 1 view .LVU21
  75 0018 0226     		movs	r6, #2
  76 001a B343     		bics	r3, r6
  77              	.LVL6:
  78              		.loc 1 754 3 is_stmt 0 view .LVU22
  79 001c 0E69     		ldr	r6, [r1, #16]
  80 001e 3343     		orrs	r3, r6
  81              	.LVL7:
 755:Drivers/STM32F0xx_HAL_Driver/Src/stm32f0xx_ll_tim.c **** 
 756:Drivers/STM32F0xx_HAL_Driver/Src/stm32f0xx_ll_tim.c ****   /* Set the Output State */
 757:Drivers/STM32F0xx_HAL_Driver/Src/stm32f0xx_ll_tim.c ****   MODIFY_REG(tmpccer, TIM_CCER_CC1E, TIM_OCInitStruct->OCState);
  82              		.loc 1 757 3 is_stmt 1 view .LVU23
  83 0020 9343     		bics	r3, r2
  84              	.LVL8:
  85              		.loc 1 757 3 is_stmt 0 view .LVU24
  86 0022 4A68     		ldr	r2, [r1, #4]
  87 0024 1343     		orrs	r3, r2
  88              	.LVL9:
 758:Drivers/STM32F0xx_HAL_Driver/Src/stm32f0xx_ll_tim.c **** 
 759:Drivers/STM32F0xx_HAL_Driver/Src/stm32f0xx_ll_tim.c ****   if (IS_TIM_BREAK_INSTANCE(TIMx))
  89              		.loc 1 759 3 is_stmt 1 view .LVU25
  90              		.loc 1 759 6 is_stmt 0 view .LVU26
  91 0026 114A     		ldr	r2, .L4
  92 0028 9042     		cmp	r0, r2
  93 002a 05D0     		beq	.L2
  94              		.loc 1 759 7 discriminator 1 view .LVU27
  95 002c 104A     		ldr	r2, .L4+4
  96 002e 9042     		cmp	r0, r2
  97 0030 02D0     		beq	.L2
ARM GAS  C:\Users\ADMINI~1\AppData\Local\Temp\cc3oB4jI.s 			page 16


  98              		.loc 1 759 7 discriminator 2 view .LVU28
  99 0032 104A     		ldr	r2, .L4+8
 100 0034 9042     		cmp	r0, r2
 101 0036 12D1     		bne	.L3
 102              	.L2:
 760:Drivers/STM32F0xx_HAL_Driver/Src/stm32f0xx_ll_tim.c ****   {
 761:Drivers/STM32F0xx_HAL_Driver/Src/stm32f0xx_ll_tim.c ****     assert_param(IS_LL_TIM_OCIDLESTATE(TIM_OCInitStruct->OCNIdleState));
 103              		.loc 1 761 5 is_stmt 1 view .LVU29
 762:Drivers/STM32F0xx_HAL_Driver/Src/stm32f0xx_ll_tim.c ****     assert_param(IS_LL_TIM_OCIDLESTATE(TIM_OCInitStruct->OCIdleState));
 104              		.loc 1 762 5 view .LVU30
 763:Drivers/STM32F0xx_HAL_Driver/Src/stm32f0xx_ll_tim.c **** 
 764:Drivers/STM32F0xx_HAL_Driver/Src/stm32f0xx_ll_tim.c ****     /* Set the complementary output Polarity */
 765:Drivers/STM32F0xx_HAL_Driver/Src/stm32f0xx_ll_tim.c ****     MODIFY_REG(tmpccer, TIM_CCER_CC1NP, TIM_OCInitStruct->OCNPolarity << 2U);
 105              		.loc 1 765 5 view .LVU31
 106 0038 0822     		movs	r2, #8
 107 003a 9343     		bics	r3, r2
 108              	.LVL10:
 109              		.loc 1 765 5 is_stmt 0 view .LVU32
 110 003c 4A69     		ldr	r2, [r1, #20]
 111 003e 9200     		lsls	r2, r2, #2
 112 0040 1343     		orrs	r3, r2
 113              	.LVL11:
 766:Drivers/STM32F0xx_HAL_Driver/Src/stm32f0xx_ll_tim.c **** 
 767:Drivers/STM32F0xx_HAL_Driver/Src/stm32f0xx_ll_tim.c ****     /* Set the complementary output State */
 768:Drivers/STM32F0xx_HAL_Driver/Src/stm32f0xx_ll_tim.c ****     MODIFY_REG(tmpccer, TIM_CCER_CC1NE, TIM_OCInitStruct->OCNState << 2U);
 114              		.loc 1 768 5 is_stmt 1 view .LVU33
 115 0042 0422     		movs	r2, #4
 116 0044 9343     		bics	r3, r2
 117              	.LVL12:
 118              		.loc 1 768 5 is_stmt 0 view .LVU34
 119 0046 8A68     		ldr	r2, [r1, #8]
 120 0048 9200     		lsls	r2, r2, #2
 121 004a 1343     		orrs	r3, r2
 122              	.LVL13:
 769:Drivers/STM32F0xx_HAL_Driver/Src/stm32f0xx_ll_tim.c **** 
 770:Drivers/STM32F0xx_HAL_Driver/Src/stm32f0xx_ll_tim.c ****     /* Set the Output Idle state */
 771:Drivers/STM32F0xx_HAL_Driver/Src/stm32f0xx_ll_tim.c ****     MODIFY_REG(tmpcr2, TIM_CR2_OIS1, TIM_OCInitStruct->OCIdleState);
 123              		.loc 1 771 5 is_stmt 1 view .LVU35
 124 004c 0A4A     		ldr	r2, .L4+12
 125 004e 2A40     		ands	r2, r5
 126 0050 8D69     		ldr	r5, [r1, #24]
 127              	.LVL14:
 128              		.loc 1 771 5 is_stmt 0 view .LVU36
 129 0052 2A43     		orrs	r2, r5
 130              	.LVL15:
 772:Drivers/STM32F0xx_HAL_Driver/Src/stm32f0xx_ll_tim.c **** 
 773:Drivers/STM32F0xx_HAL_Driver/Src/stm32f0xx_ll_tim.c ****     /* Set the complementary output Idle state */
 774:Drivers/STM32F0xx_HAL_Driver/Src/stm32f0xx_ll_tim.c ****     MODIFY_REG(tmpcr2, TIM_CR2_OIS1N, TIM_OCInitStruct->OCNIdleState << 1U);
 131              		.loc 1 774 5 is_stmt 1 view .LVU37
 132 0054 094D     		ldr	r5, .L4+16
 133 0056 2A40     		ands	r2, r5
 134              	.LVL16:
 135              		.loc 1 774 5 is_stmt 0 view .LVU38
 136 0058 CD69     		ldr	r5, [r1, #28]
 137 005a 6D00     		lsls	r5, r5, #1
 138 005c 1543     		orrs	r5, r2
 139              	.LVL17:
ARM GAS  C:\Users\ADMINI~1\AppData\Local\Temp\cc3oB4jI.s 			page 17


 140              	.L3:
 775:Drivers/STM32F0xx_HAL_Driver/Src/stm32f0xx_ll_tim.c ****   }
 776:Drivers/STM32F0xx_HAL_Driver/Src/stm32f0xx_ll_tim.c **** 
 777:Drivers/STM32F0xx_HAL_Driver/Src/stm32f0xx_ll_tim.c ****   /* Write to TIMx CR2 */
 778:Drivers/STM32F0xx_HAL_Driver/Src/stm32f0xx_ll_tim.c ****   LL_TIM_WriteReg(TIMx, CR2, tmpcr2);
 141              		.loc 1 778 3 is_stmt 1 view .LVU39
 142 005e 4560     		str	r5, [r0, #4]
 779:Drivers/STM32F0xx_HAL_Driver/Src/stm32f0xx_ll_tim.c **** 
 780:Drivers/STM32F0xx_HAL_Driver/Src/stm32f0xx_ll_tim.c ****   /* Write to TIMx CCMR1 */
 781:Drivers/STM32F0xx_HAL_Driver/Src/stm32f0xx_ll_tim.c ****   LL_TIM_WriteReg(TIMx, CCMR1, tmpccmr1);
 143              		.loc 1 781 3 view .LVU40
 144 0060 8461     		str	r4, [r0, #24]
 782:Drivers/STM32F0xx_HAL_Driver/Src/stm32f0xx_ll_tim.c **** 
 783:Drivers/STM32F0xx_HAL_Driver/Src/stm32f0xx_ll_tim.c ****   /* Set the Capture Compare Register value */
 784:Drivers/STM32F0xx_HAL_Driver/Src/stm32f0xx_ll_tim.c ****   LL_TIM_OC_SetCompareCH1(TIMx, TIM_OCInitStruct->CompareValue);
 145              		.loc 1 784 3 view .LVU41
 146 0062 CA68     		ldr	r2, [r1, #12]
 147              	.LVL18:
 148              	.LBB42:
 149              	.LBI42:
 150              		.file 2 "Drivers/STM32F0xx_HAL_Driver/Inc/stm32f0xx_ll_tim.h"
   1:Drivers/STM32F0xx_HAL_Driver/Inc/stm32f0xx_ll_tim.h **** /**
   2:Drivers/STM32F0xx_HAL_Driver/Inc/stm32f0xx_ll_tim.h ****   ******************************************************************************
   3:Drivers/STM32F0xx_HAL_Driver/Inc/stm32f0xx_ll_tim.h ****   * @file    stm32f0xx_ll_tim.h
   4:Drivers/STM32F0xx_HAL_Driver/Inc/stm32f0xx_ll_tim.h ****   * @author  MCD Application Team
   5:Drivers/STM32F0xx_HAL_Driver/Inc/stm32f0xx_ll_tim.h ****   * @brief   Header file of TIM LL module.
   6:Drivers/STM32F0xx_HAL_Driver/Inc/stm32f0xx_ll_tim.h ****   ******************************************************************************
   7:Drivers/STM32F0xx_HAL_Driver/Inc/stm32f0xx_ll_tim.h ****   * @attention
   8:Drivers/STM32F0xx_HAL_Driver/Inc/stm32f0xx_ll_tim.h ****   *
   9:Drivers/STM32F0xx_HAL_Driver/Inc/stm32f0xx_ll_tim.h ****   * <h2><center>&copy; Copyright (c) 2016 STMicroelectronics.
  10:Drivers/STM32F0xx_HAL_Driver/Inc/stm32f0xx_ll_tim.h ****   * All rights reserved.</center></h2>
  11:Drivers/STM32F0xx_HAL_Driver/Inc/stm32f0xx_ll_tim.h ****   *
  12:Drivers/STM32F0xx_HAL_Driver/Inc/stm32f0xx_ll_tim.h ****   * This software component is licensed by ST under BSD 3-Clause license,
  13:Drivers/STM32F0xx_HAL_Driver/Inc/stm32f0xx_ll_tim.h ****   * the "License"; You may not use this file except in compliance with the
  14:Drivers/STM32F0xx_HAL_Driver/Inc/stm32f0xx_ll_tim.h ****   * License. You may obtain a copy of the License at:
  15:Drivers/STM32F0xx_HAL_Driver/Inc/stm32f0xx_ll_tim.h ****   *                        opensource.org/licenses/BSD-3-Clause
  16:Drivers/STM32F0xx_HAL_Driver/Inc/stm32f0xx_ll_tim.h ****   *
  17:Drivers/STM32F0xx_HAL_Driver/Inc/stm32f0xx_ll_tim.h ****   ******************************************************************************
  18:Drivers/STM32F0xx_HAL_Driver/Inc/stm32f0xx_ll_tim.h ****   */
  19:Drivers/STM32F0xx_HAL_Driver/Inc/stm32f0xx_ll_tim.h **** 
  20:Drivers/STM32F0xx_HAL_Driver/Inc/stm32f0xx_ll_tim.h **** /* Define to prevent recursive inclusion -------------------------------------*/
  21:Drivers/STM32F0xx_HAL_Driver/Inc/stm32f0xx_ll_tim.h **** #ifndef __STM32F0xx_LL_TIM_H
  22:Drivers/STM32F0xx_HAL_Driver/Inc/stm32f0xx_ll_tim.h **** #define __STM32F0xx_LL_TIM_H
  23:Drivers/STM32F0xx_HAL_Driver/Inc/stm32f0xx_ll_tim.h **** 
  24:Drivers/STM32F0xx_HAL_Driver/Inc/stm32f0xx_ll_tim.h **** #ifdef __cplusplus
  25:Drivers/STM32F0xx_HAL_Driver/Inc/stm32f0xx_ll_tim.h **** extern "C" {
  26:Drivers/STM32F0xx_HAL_Driver/Inc/stm32f0xx_ll_tim.h **** #endif
  27:Drivers/STM32F0xx_HAL_Driver/Inc/stm32f0xx_ll_tim.h **** 
  28:Drivers/STM32F0xx_HAL_Driver/Inc/stm32f0xx_ll_tim.h **** /* Includes ------------------------------------------------------------------*/
  29:Drivers/STM32F0xx_HAL_Driver/Inc/stm32f0xx_ll_tim.h **** #include "stm32f0xx.h"
  30:Drivers/STM32F0xx_HAL_Driver/Inc/stm32f0xx_ll_tim.h **** 
  31:Drivers/STM32F0xx_HAL_Driver/Inc/stm32f0xx_ll_tim.h **** /** @addtogroup STM32F0xx_LL_Driver
  32:Drivers/STM32F0xx_HAL_Driver/Inc/stm32f0xx_ll_tim.h ****   * @{
  33:Drivers/STM32F0xx_HAL_Driver/Inc/stm32f0xx_ll_tim.h ****   */
  34:Drivers/STM32F0xx_HAL_Driver/Inc/stm32f0xx_ll_tim.h **** 
  35:Drivers/STM32F0xx_HAL_Driver/Inc/stm32f0xx_ll_tim.h **** #if defined (TIM1) || defined (TIM2) || defined (TIM3) || defined (TIM14) || defined (TIM15) || def
  36:Drivers/STM32F0xx_HAL_Driver/Inc/stm32f0xx_ll_tim.h **** 
ARM GAS  C:\Users\ADMINI~1\AppData\Local\Temp\cc3oB4jI.s 			page 18


  37:Drivers/STM32F0xx_HAL_Driver/Inc/stm32f0xx_ll_tim.h **** /** @defgroup TIM_LL TIM
  38:Drivers/STM32F0xx_HAL_Driver/Inc/stm32f0xx_ll_tim.h ****   * @{
  39:Drivers/STM32F0xx_HAL_Driver/Inc/stm32f0xx_ll_tim.h ****   */
  40:Drivers/STM32F0xx_HAL_Driver/Inc/stm32f0xx_ll_tim.h **** 
  41:Drivers/STM32F0xx_HAL_Driver/Inc/stm32f0xx_ll_tim.h **** /* Private types -------------------------------------------------------------*/
  42:Drivers/STM32F0xx_HAL_Driver/Inc/stm32f0xx_ll_tim.h **** /* Private variables ---------------------------------------------------------*/
  43:Drivers/STM32F0xx_HAL_Driver/Inc/stm32f0xx_ll_tim.h **** /** @defgroup TIM_LL_Private_Variables TIM Private Variables
  44:Drivers/STM32F0xx_HAL_Driver/Inc/stm32f0xx_ll_tim.h ****   * @{
  45:Drivers/STM32F0xx_HAL_Driver/Inc/stm32f0xx_ll_tim.h ****   */
  46:Drivers/STM32F0xx_HAL_Driver/Inc/stm32f0xx_ll_tim.h **** static const uint8_t OFFSET_TAB_CCMRx[] =
  47:Drivers/STM32F0xx_HAL_Driver/Inc/stm32f0xx_ll_tim.h **** {
  48:Drivers/STM32F0xx_HAL_Driver/Inc/stm32f0xx_ll_tim.h ****   0x00U,   /* 0: TIMx_CH1  */
  49:Drivers/STM32F0xx_HAL_Driver/Inc/stm32f0xx_ll_tim.h ****   0x00U,   /* 1: TIMx_CH1N */
  50:Drivers/STM32F0xx_HAL_Driver/Inc/stm32f0xx_ll_tim.h ****   0x00U,   /* 2: TIMx_CH2  */
  51:Drivers/STM32F0xx_HAL_Driver/Inc/stm32f0xx_ll_tim.h ****   0x00U,   /* 3: TIMx_CH2N */
  52:Drivers/STM32F0xx_HAL_Driver/Inc/stm32f0xx_ll_tim.h ****   0x04U,   /* 4: TIMx_CH3  */
  53:Drivers/STM32F0xx_HAL_Driver/Inc/stm32f0xx_ll_tim.h ****   0x04U,   /* 5: TIMx_CH3N */
  54:Drivers/STM32F0xx_HAL_Driver/Inc/stm32f0xx_ll_tim.h ****   0x04U    /* 6: TIMx_CH4  */
  55:Drivers/STM32F0xx_HAL_Driver/Inc/stm32f0xx_ll_tim.h **** };
  56:Drivers/STM32F0xx_HAL_Driver/Inc/stm32f0xx_ll_tim.h **** 
  57:Drivers/STM32F0xx_HAL_Driver/Inc/stm32f0xx_ll_tim.h **** static const uint8_t SHIFT_TAB_OCxx[] =
  58:Drivers/STM32F0xx_HAL_Driver/Inc/stm32f0xx_ll_tim.h **** {
  59:Drivers/STM32F0xx_HAL_Driver/Inc/stm32f0xx_ll_tim.h ****   0U,            /* 0: OC1M, OC1FE, OC1PE */
  60:Drivers/STM32F0xx_HAL_Driver/Inc/stm32f0xx_ll_tim.h ****   0U,            /* 1: - NA */
  61:Drivers/STM32F0xx_HAL_Driver/Inc/stm32f0xx_ll_tim.h ****   8U,            /* 2: OC2M, OC2FE, OC2PE */
  62:Drivers/STM32F0xx_HAL_Driver/Inc/stm32f0xx_ll_tim.h ****   0U,            /* 3: - NA */
  63:Drivers/STM32F0xx_HAL_Driver/Inc/stm32f0xx_ll_tim.h ****   0U,            /* 4: OC3M, OC3FE, OC3PE */
  64:Drivers/STM32F0xx_HAL_Driver/Inc/stm32f0xx_ll_tim.h ****   0U,            /* 5: - NA */
  65:Drivers/STM32F0xx_HAL_Driver/Inc/stm32f0xx_ll_tim.h ****   8U             /* 6: OC4M, OC4FE, OC4PE */
  66:Drivers/STM32F0xx_HAL_Driver/Inc/stm32f0xx_ll_tim.h **** };
  67:Drivers/STM32F0xx_HAL_Driver/Inc/stm32f0xx_ll_tim.h **** 
  68:Drivers/STM32F0xx_HAL_Driver/Inc/stm32f0xx_ll_tim.h **** static const uint8_t SHIFT_TAB_ICxx[] =
  69:Drivers/STM32F0xx_HAL_Driver/Inc/stm32f0xx_ll_tim.h **** {
  70:Drivers/STM32F0xx_HAL_Driver/Inc/stm32f0xx_ll_tim.h ****   0U,            /* 0: CC1S, IC1PSC, IC1F */
  71:Drivers/STM32F0xx_HAL_Driver/Inc/stm32f0xx_ll_tim.h ****   0U,            /* 1: - NA */
  72:Drivers/STM32F0xx_HAL_Driver/Inc/stm32f0xx_ll_tim.h ****   8U,            /* 2: CC2S, IC2PSC, IC2F */
  73:Drivers/STM32F0xx_HAL_Driver/Inc/stm32f0xx_ll_tim.h ****   0U,            /* 3: - NA */
  74:Drivers/STM32F0xx_HAL_Driver/Inc/stm32f0xx_ll_tim.h ****   0U,            /* 4: CC3S, IC3PSC, IC3F */
  75:Drivers/STM32F0xx_HAL_Driver/Inc/stm32f0xx_ll_tim.h ****   0U,            /* 5: - NA */
  76:Drivers/STM32F0xx_HAL_Driver/Inc/stm32f0xx_ll_tim.h ****   8U             /* 6: CC4S, IC4PSC, IC4F */
  77:Drivers/STM32F0xx_HAL_Driver/Inc/stm32f0xx_ll_tim.h **** };
  78:Drivers/STM32F0xx_HAL_Driver/Inc/stm32f0xx_ll_tim.h **** 
  79:Drivers/STM32F0xx_HAL_Driver/Inc/stm32f0xx_ll_tim.h **** static const uint8_t SHIFT_TAB_CCxP[] =
  80:Drivers/STM32F0xx_HAL_Driver/Inc/stm32f0xx_ll_tim.h **** {
  81:Drivers/STM32F0xx_HAL_Driver/Inc/stm32f0xx_ll_tim.h ****   0U,            /* 0: CC1P */
  82:Drivers/STM32F0xx_HAL_Driver/Inc/stm32f0xx_ll_tim.h ****   2U,            /* 1: CC1NP */
  83:Drivers/STM32F0xx_HAL_Driver/Inc/stm32f0xx_ll_tim.h ****   4U,            /* 2: CC2P */
  84:Drivers/STM32F0xx_HAL_Driver/Inc/stm32f0xx_ll_tim.h ****   6U,            /* 3: CC2NP */
  85:Drivers/STM32F0xx_HAL_Driver/Inc/stm32f0xx_ll_tim.h ****   8U,            /* 4: CC3P */
  86:Drivers/STM32F0xx_HAL_Driver/Inc/stm32f0xx_ll_tim.h ****   10U,           /* 5: CC3NP */
  87:Drivers/STM32F0xx_HAL_Driver/Inc/stm32f0xx_ll_tim.h ****   12U            /* 6: CC4P */
  88:Drivers/STM32F0xx_HAL_Driver/Inc/stm32f0xx_ll_tim.h **** };
  89:Drivers/STM32F0xx_HAL_Driver/Inc/stm32f0xx_ll_tim.h **** 
  90:Drivers/STM32F0xx_HAL_Driver/Inc/stm32f0xx_ll_tim.h **** static const uint8_t SHIFT_TAB_OISx[] =
  91:Drivers/STM32F0xx_HAL_Driver/Inc/stm32f0xx_ll_tim.h **** {
  92:Drivers/STM32F0xx_HAL_Driver/Inc/stm32f0xx_ll_tim.h ****   0U,            /* 0: OIS1 */
  93:Drivers/STM32F0xx_HAL_Driver/Inc/stm32f0xx_ll_tim.h ****   1U,            /* 1: OIS1N */
ARM GAS  C:\Users\ADMINI~1\AppData\Local\Temp\cc3oB4jI.s 			page 19


  94:Drivers/STM32F0xx_HAL_Driver/Inc/stm32f0xx_ll_tim.h ****   2U,            /* 2: OIS2 */
  95:Drivers/STM32F0xx_HAL_Driver/Inc/stm32f0xx_ll_tim.h ****   3U,            /* 3: OIS2N */
  96:Drivers/STM32F0xx_HAL_Driver/Inc/stm32f0xx_ll_tim.h ****   4U,            /* 4: OIS3 */
  97:Drivers/STM32F0xx_HAL_Driver/Inc/stm32f0xx_ll_tim.h ****   5U,            /* 5: OIS3N */
  98:Drivers/STM32F0xx_HAL_Driver/Inc/stm32f0xx_ll_tim.h ****   6U             /* 6: OIS4 */
  99:Drivers/STM32F0xx_HAL_Driver/Inc/stm32f0xx_ll_tim.h **** };
 100:Drivers/STM32F0xx_HAL_Driver/Inc/stm32f0xx_ll_tim.h **** /**
 101:Drivers/STM32F0xx_HAL_Driver/Inc/stm32f0xx_ll_tim.h ****   * @}
 102:Drivers/STM32F0xx_HAL_Driver/Inc/stm32f0xx_ll_tim.h ****   */
 103:Drivers/STM32F0xx_HAL_Driver/Inc/stm32f0xx_ll_tim.h **** 
 104:Drivers/STM32F0xx_HAL_Driver/Inc/stm32f0xx_ll_tim.h **** /* Private constants ---------------------------------------------------------*/
 105:Drivers/STM32F0xx_HAL_Driver/Inc/stm32f0xx_ll_tim.h **** /** @defgroup TIM_LL_Private_Constants TIM Private Constants
 106:Drivers/STM32F0xx_HAL_Driver/Inc/stm32f0xx_ll_tim.h ****   * @{
 107:Drivers/STM32F0xx_HAL_Driver/Inc/stm32f0xx_ll_tim.h ****   */
 108:Drivers/STM32F0xx_HAL_Driver/Inc/stm32f0xx_ll_tim.h **** 
 109:Drivers/STM32F0xx_HAL_Driver/Inc/stm32f0xx_ll_tim.h **** 
 110:Drivers/STM32F0xx_HAL_Driver/Inc/stm32f0xx_ll_tim.h **** #define TIMx_OR_RMP_SHIFT  16U
 111:Drivers/STM32F0xx_HAL_Driver/Inc/stm32f0xx_ll_tim.h **** #define TIMx_OR_RMP_MASK   0x0000FFFFU
 112:Drivers/STM32F0xx_HAL_Driver/Inc/stm32f0xx_ll_tim.h **** #define TIM14_OR_RMP_MASK  (TIM14_OR_TI1_RMP << TIMx_OR_RMP_SHIFT)
 113:Drivers/STM32F0xx_HAL_Driver/Inc/stm32f0xx_ll_tim.h **** 
 114:Drivers/STM32F0xx_HAL_Driver/Inc/stm32f0xx_ll_tim.h **** /* Mask used to set the TDG[x:0] of the DTG bits of the TIMx_BDTR register */
 115:Drivers/STM32F0xx_HAL_Driver/Inc/stm32f0xx_ll_tim.h **** #define DT_DELAY_1 ((uint8_t)0x7F)
 116:Drivers/STM32F0xx_HAL_Driver/Inc/stm32f0xx_ll_tim.h **** #define DT_DELAY_2 ((uint8_t)0x3F)
 117:Drivers/STM32F0xx_HAL_Driver/Inc/stm32f0xx_ll_tim.h **** #define DT_DELAY_3 ((uint8_t)0x1F)
 118:Drivers/STM32F0xx_HAL_Driver/Inc/stm32f0xx_ll_tim.h **** #define DT_DELAY_4 ((uint8_t)0x1F)
 119:Drivers/STM32F0xx_HAL_Driver/Inc/stm32f0xx_ll_tim.h **** 
 120:Drivers/STM32F0xx_HAL_Driver/Inc/stm32f0xx_ll_tim.h **** /* Mask used to set the DTG[7:5] bits of the DTG bits of the TIMx_BDTR register */
 121:Drivers/STM32F0xx_HAL_Driver/Inc/stm32f0xx_ll_tim.h **** #define DT_RANGE_1 ((uint8_t)0x00)
 122:Drivers/STM32F0xx_HAL_Driver/Inc/stm32f0xx_ll_tim.h **** #define DT_RANGE_2 ((uint8_t)0x80)
 123:Drivers/STM32F0xx_HAL_Driver/Inc/stm32f0xx_ll_tim.h **** #define DT_RANGE_3 ((uint8_t)0xC0)
 124:Drivers/STM32F0xx_HAL_Driver/Inc/stm32f0xx_ll_tim.h **** #define DT_RANGE_4 ((uint8_t)0xE0)
 125:Drivers/STM32F0xx_HAL_Driver/Inc/stm32f0xx_ll_tim.h **** 
 126:Drivers/STM32F0xx_HAL_Driver/Inc/stm32f0xx_ll_tim.h **** 
 127:Drivers/STM32F0xx_HAL_Driver/Inc/stm32f0xx_ll_tim.h **** /**
 128:Drivers/STM32F0xx_HAL_Driver/Inc/stm32f0xx_ll_tim.h ****   * @}
 129:Drivers/STM32F0xx_HAL_Driver/Inc/stm32f0xx_ll_tim.h ****   */
 130:Drivers/STM32F0xx_HAL_Driver/Inc/stm32f0xx_ll_tim.h **** 
 131:Drivers/STM32F0xx_HAL_Driver/Inc/stm32f0xx_ll_tim.h **** /* Private macros ------------------------------------------------------------*/
 132:Drivers/STM32F0xx_HAL_Driver/Inc/stm32f0xx_ll_tim.h **** /** @defgroup TIM_LL_Private_Macros TIM Private Macros
 133:Drivers/STM32F0xx_HAL_Driver/Inc/stm32f0xx_ll_tim.h ****   * @{
 134:Drivers/STM32F0xx_HAL_Driver/Inc/stm32f0xx_ll_tim.h ****   */
 135:Drivers/STM32F0xx_HAL_Driver/Inc/stm32f0xx_ll_tim.h **** /** @brief  Convert channel id into channel index.
 136:Drivers/STM32F0xx_HAL_Driver/Inc/stm32f0xx_ll_tim.h ****   * @param  __CHANNEL__ This parameter can be one of the following values:
 137:Drivers/STM32F0xx_HAL_Driver/Inc/stm32f0xx_ll_tim.h ****   *         @arg @ref LL_TIM_CHANNEL_CH1
 138:Drivers/STM32F0xx_HAL_Driver/Inc/stm32f0xx_ll_tim.h ****   *         @arg @ref LL_TIM_CHANNEL_CH1N
 139:Drivers/STM32F0xx_HAL_Driver/Inc/stm32f0xx_ll_tim.h ****   *         @arg @ref LL_TIM_CHANNEL_CH2
 140:Drivers/STM32F0xx_HAL_Driver/Inc/stm32f0xx_ll_tim.h ****   *         @arg @ref LL_TIM_CHANNEL_CH2N
 141:Drivers/STM32F0xx_HAL_Driver/Inc/stm32f0xx_ll_tim.h ****   *         @arg @ref LL_TIM_CHANNEL_CH3
 142:Drivers/STM32F0xx_HAL_Driver/Inc/stm32f0xx_ll_tim.h ****   *         @arg @ref LL_TIM_CHANNEL_CH3N
 143:Drivers/STM32F0xx_HAL_Driver/Inc/stm32f0xx_ll_tim.h ****   *         @arg @ref LL_TIM_CHANNEL_CH4
 144:Drivers/STM32F0xx_HAL_Driver/Inc/stm32f0xx_ll_tim.h ****   * @retval none
 145:Drivers/STM32F0xx_HAL_Driver/Inc/stm32f0xx_ll_tim.h ****   */
 146:Drivers/STM32F0xx_HAL_Driver/Inc/stm32f0xx_ll_tim.h **** #define TIM_GET_CHANNEL_INDEX( __CHANNEL__) \
 147:Drivers/STM32F0xx_HAL_Driver/Inc/stm32f0xx_ll_tim.h ****   (((__CHANNEL__) == LL_TIM_CHANNEL_CH1) ? 0U :\
 148:Drivers/STM32F0xx_HAL_Driver/Inc/stm32f0xx_ll_tim.h ****    ((__CHANNEL__) == LL_TIM_CHANNEL_CH1N) ? 1U :\
 149:Drivers/STM32F0xx_HAL_Driver/Inc/stm32f0xx_ll_tim.h ****    ((__CHANNEL__) == LL_TIM_CHANNEL_CH2) ? 2U :\
 150:Drivers/STM32F0xx_HAL_Driver/Inc/stm32f0xx_ll_tim.h ****    ((__CHANNEL__) == LL_TIM_CHANNEL_CH2N) ? 3U :\
ARM GAS  C:\Users\ADMINI~1\AppData\Local\Temp\cc3oB4jI.s 			page 20


 151:Drivers/STM32F0xx_HAL_Driver/Inc/stm32f0xx_ll_tim.h ****    ((__CHANNEL__) == LL_TIM_CHANNEL_CH3) ? 4U :\
 152:Drivers/STM32F0xx_HAL_Driver/Inc/stm32f0xx_ll_tim.h ****    ((__CHANNEL__) == LL_TIM_CHANNEL_CH3N) ? 5U : 6U)
 153:Drivers/STM32F0xx_HAL_Driver/Inc/stm32f0xx_ll_tim.h **** 
 154:Drivers/STM32F0xx_HAL_Driver/Inc/stm32f0xx_ll_tim.h **** /** @brief  Calculate the deadtime sampling period(in ps).
 155:Drivers/STM32F0xx_HAL_Driver/Inc/stm32f0xx_ll_tim.h ****   * @param  __TIMCLK__ timer input clock frequency (in Hz).
 156:Drivers/STM32F0xx_HAL_Driver/Inc/stm32f0xx_ll_tim.h ****   * @param  __CKD__ This parameter can be one of the following values:
 157:Drivers/STM32F0xx_HAL_Driver/Inc/stm32f0xx_ll_tim.h ****   *         @arg @ref LL_TIM_CLOCKDIVISION_DIV1
 158:Drivers/STM32F0xx_HAL_Driver/Inc/stm32f0xx_ll_tim.h ****   *         @arg @ref LL_TIM_CLOCKDIVISION_DIV2
 159:Drivers/STM32F0xx_HAL_Driver/Inc/stm32f0xx_ll_tim.h ****   *         @arg @ref LL_TIM_CLOCKDIVISION_DIV4
 160:Drivers/STM32F0xx_HAL_Driver/Inc/stm32f0xx_ll_tim.h ****   * @retval none
 161:Drivers/STM32F0xx_HAL_Driver/Inc/stm32f0xx_ll_tim.h ****   */
 162:Drivers/STM32F0xx_HAL_Driver/Inc/stm32f0xx_ll_tim.h **** #define TIM_CALC_DTS(__TIMCLK__, __CKD__)                                                        \
 163:Drivers/STM32F0xx_HAL_Driver/Inc/stm32f0xx_ll_tim.h ****   (((__CKD__) == LL_TIM_CLOCKDIVISION_DIV1) ? ((uint64_t)1000000000000U/(__TIMCLK__))         : \
 164:Drivers/STM32F0xx_HAL_Driver/Inc/stm32f0xx_ll_tim.h ****    ((__CKD__) == LL_TIM_CLOCKDIVISION_DIV2) ? ((uint64_t)1000000000000U/((__TIMCLK__) >> 1U)) : \
 165:Drivers/STM32F0xx_HAL_Driver/Inc/stm32f0xx_ll_tim.h ****    ((uint64_t)1000000000000U/((__TIMCLK__) >> 2U)))
 166:Drivers/STM32F0xx_HAL_Driver/Inc/stm32f0xx_ll_tim.h **** /**
 167:Drivers/STM32F0xx_HAL_Driver/Inc/stm32f0xx_ll_tim.h ****   * @}
 168:Drivers/STM32F0xx_HAL_Driver/Inc/stm32f0xx_ll_tim.h ****   */
 169:Drivers/STM32F0xx_HAL_Driver/Inc/stm32f0xx_ll_tim.h **** 
 170:Drivers/STM32F0xx_HAL_Driver/Inc/stm32f0xx_ll_tim.h **** 
 171:Drivers/STM32F0xx_HAL_Driver/Inc/stm32f0xx_ll_tim.h **** /* Exported types ------------------------------------------------------------*/
 172:Drivers/STM32F0xx_HAL_Driver/Inc/stm32f0xx_ll_tim.h **** #if defined(USE_FULL_LL_DRIVER)
 173:Drivers/STM32F0xx_HAL_Driver/Inc/stm32f0xx_ll_tim.h **** /** @defgroup TIM_LL_ES_INIT TIM Exported Init structure
 174:Drivers/STM32F0xx_HAL_Driver/Inc/stm32f0xx_ll_tim.h ****   * @{
 175:Drivers/STM32F0xx_HAL_Driver/Inc/stm32f0xx_ll_tim.h ****   */
 176:Drivers/STM32F0xx_HAL_Driver/Inc/stm32f0xx_ll_tim.h **** 
 177:Drivers/STM32F0xx_HAL_Driver/Inc/stm32f0xx_ll_tim.h **** /**
 178:Drivers/STM32F0xx_HAL_Driver/Inc/stm32f0xx_ll_tim.h ****   * @brief  TIM Time Base configuration structure definition.
 179:Drivers/STM32F0xx_HAL_Driver/Inc/stm32f0xx_ll_tim.h ****   */
 180:Drivers/STM32F0xx_HAL_Driver/Inc/stm32f0xx_ll_tim.h **** typedef struct
 181:Drivers/STM32F0xx_HAL_Driver/Inc/stm32f0xx_ll_tim.h **** {
 182:Drivers/STM32F0xx_HAL_Driver/Inc/stm32f0xx_ll_tim.h ****   uint16_t Prescaler;         /*!< Specifies the prescaler value used to divide the TIM clock.
 183:Drivers/STM32F0xx_HAL_Driver/Inc/stm32f0xx_ll_tim.h ****                                    This parameter can be a number between Min_Data=0x0000 and Max_D
 184:Drivers/STM32F0xx_HAL_Driver/Inc/stm32f0xx_ll_tim.h **** 
 185:Drivers/STM32F0xx_HAL_Driver/Inc/stm32f0xx_ll_tim.h ****                                    This feature can be modified afterwards using unitary function
 186:Drivers/STM32F0xx_HAL_Driver/Inc/stm32f0xx_ll_tim.h ****                                    @ref LL_TIM_SetPrescaler().*/
 187:Drivers/STM32F0xx_HAL_Driver/Inc/stm32f0xx_ll_tim.h **** 
 188:Drivers/STM32F0xx_HAL_Driver/Inc/stm32f0xx_ll_tim.h ****   uint32_t CounterMode;       /*!< Specifies the counter mode.
 189:Drivers/STM32F0xx_HAL_Driver/Inc/stm32f0xx_ll_tim.h ****                                    This parameter can be a value of @ref TIM_LL_EC_COUNTERMODE.
 190:Drivers/STM32F0xx_HAL_Driver/Inc/stm32f0xx_ll_tim.h **** 
 191:Drivers/STM32F0xx_HAL_Driver/Inc/stm32f0xx_ll_tim.h ****                                    This feature can be modified afterwards using unitary function
 192:Drivers/STM32F0xx_HAL_Driver/Inc/stm32f0xx_ll_tim.h ****                                    @ref LL_TIM_SetCounterMode().*/
 193:Drivers/STM32F0xx_HAL_Driver/Inc/stm32f0xx_ll_tim.h **** 
 194:Drivers/STM32F0xx_HAL_Driver/Inc/stm32f0xx_ll_tim.h ****   uint32_t Autoreload;        /*!< Specifies the auto reload value to be loaded into the active
 195:Drivers/STM32F0xx_HAL_Driver/Inc/stm32f0xx_ll_tim.h ****                                    Auto-Reload Register at the next update event.
 196:Drivers/STM32F0xx_HAL_Driver/Inc/stm32f0xx_ll_tim.h ****                                    This parameter must be a number between Min_Data=0x0000 and Max_
 197:Drivers/STM32F0xx_HAL_Driver/Inc/stm32f0xx_ll_tim.h ****                                    Some timer instances may support 32 bits counters. In that case 
 198:Drivers/STM32F0xx_HAL_Driver/Inc/stm32f0xx_ll_tim.h ****                                    be a number between 0x0000 and 0xFFFFFFFF.
 199:Drivers/STM32F0xx_HAL_Driver/Inc/stm32f0xx_ll_tim.h **** 
 200:Drivers/STM32F0xx_HAL_Driver/Inc/stm32f0xx_ll_tim.h ****                                    This feature can be modified afterwards using unitary function
 201:Drivers/STM32F0xx_HAL_Driver/Inc/stm32f0xx_ll_tim.h ****                                    @ref LL_TIM_SetAutoReload().*/
 202:Drivers/STM32F0xx_HAL_Driver/Inc/stm32f0xx_ll_tim.h **** 
 203:Drivers/STM32F0xx_HAL_Driver/Inc/stm32f0xx_ll_tim.h ****   uint32_t ClockDivision;     /*!< Specifies the clock division.
 204:Drivers/STM32F0xx_HAL_Driver/Inc/stm32f0xx_ll_tim.h ****                                    This parameter can be a value of @ref TIM_LL_EC_CLOCKDIVISION.
 205:Drivers/STM32F0xx_HAL_Driver/Inc/stm32f0xx_ll_tim.h **** 
 206:Drivers/STM32F0xx_HAL_Driver/Inc/stm32f0xx_ll_tim.h ****                                    This feature can be modified afterwards using unitary function
 207:Drivers/STM32F0xx_HAL_Driver/Inc/stm32f0xx_ll_tim.h ****                                    @ref LL_TIM_SetClockDivision().*/
ARM GAS  C:\Users\ADMINI~1\AppData\Local\Temp\cc3oB4jI.s 			page 21


 208:Drivers/STM32F0xx_HAL_Driver/Inc/stm32f0xx_ll_tim.h **** 
 209:Drivers/STM32F0xx_HAL_Driver/Inc/stm32f0xx_ll_tim.h ****   uint32_t RepetitionCounter;  /*!< Specifies the repetition counter value. Each time the RCR downc
 210:Drivers/STM32F0xx_HAL_Driver/Inc/stm32f0xx_ll_tim.h ****                                    reaches zero, an update event is generated and counting restarts
 211:Drivers/STM32F0xx_HAL_Driver/Inc/stm32f0xx_ll_tim.h ****                                    from the RCR value (N).
 212:Drivers/STM32F0xx_HAL_Driver/Inc/stm32f0xx_ll_tim.h ****                                    This means in PWM mode that (N+1) corresponds to:
 213:Drivers/STM32F0xx_HAL_Driver/Inc/stm32f0xx_ll_tim.h ****                                       - the number of PWM periods in edge-aligned mode
 214:Drivers/STM32F0xx_HAL_Driver/Inc/stm32f0xx_ll_tim.h ****                                       - the number of half PWM period in center-aligned mode
 215:Drivers/STM32F0xx_HAL_Driver/Inc/stm32f0xx_ll_tim.h ****                                    GP timers: this parameter must be a number between Min_Data = 0x
 216:Drivers/STM32F0xx_HAL_Driver/Inc/stm32f0xx_ll_tim.h ****                                    Max_Data = 0xFF.
 217:Drivers/STM32F0xx_HAL_Driver/Inc/stm32f0xx_ll_tim.h ****                                    Advanced timers: this parameter must be a number between Min_Dat
 218:Drivers/STM32F0xx_HAL_Driver/Inc/stm32f0xx_ll_tim.h ****                                    Max_Data = 0xFFFF.
 219:Drivers/STM32F0xx_HAL_Driver/Inc/stm32f0xx_ll_tim.h **** 
 220:Drivers/STM32F0xx_HAL_Driver/Inc/stm32f0xx_ll_tim.h ****                                    This feature can be modified afterwards using unitary function
 221:Drivers/STM32F0xx_HAL_Driver/Inc/stm32f0xx_ll_tim.h ****                                    @ref LL_TIM_SetRepetitionCounter().*/
 222:Drivers/STM32F0xx_HAL_Driver/Inc/stm32f0xx_ll_tim.h **** } LL_TIM_InitTypeDef;
 223:Drivers/STM32F0xx_HAL_Driver/Inc/stm32f0xx_ll_tim.h **** 
 224:Drivers/STM32F0xx_HAL_Driver/Inc/stm32f0xx_ll_tim.h **** /**
 225:Drivers/STM32F0xx_HAL_Driver/Inc/stm32f0xx_ll_tim.h ****   * @brief  TIM Output Compare configuration structure definition.
 226:Drivers/STM32F0xx_HAL_Driver/Inc/stm32f0xx_ll_tim.h ****   */
 227:Drivers/STM32F0xx_HAL_Driver/Inc/stm32f0xx_ll_tim.h **** typedef struct
 228:Drivers/STM32F0xx_HAL_Driver/Inc/stm32f0xx_ll_tim.h **** {
 229:Drivers/STM32F0xx_HAL_Driver/Inc/stm32f0xx_ll_tim.h ****   uint32_t OCMode;        /*!< Specifies the output mode.
 230:Drivers/STM32F0xx_HAL_Driver/Inc/stm32f0xx_ll_tim.h ****                                This parameter can be a value of @ref TIM_LL_EC_OCMODE.
 231:Drivers/STM32F0xx_HAL_Driver/Inc/stm32f0xx_ll_tim.h **** 
 232:Drivers/STM32F0xx_HAL_Driver/Inc/stm32f0xx_ll_tim.h ****                                This feature can be modified afterwards using unitary function
 233:Drivers/STM32F0xx_HAL_Driver/Inc/stm32f0xx_ll_tim.h ****                                @ref LL_TIM_OC_SetMode().*/
 234:Drivers/STM32F0xx_HAL_Driver/Inc/stm32f0xx_ll_tim.h **** 
 235:Drivers/STM32F0xx_HAL_Driver/Inc/stm32f0xx_ll_tim.h ****   uint32_t OCState;       /*!< Specifies the TIM Output Compare state.
 236:Drivers/STM32F0xx_HAL_Driver/Inc/stm32f0xx_ll_tim.h ****                                This parameter can be a value of @ref TIM_LL_EC_OCSTATE.
 237:Drivers/STM32F0xx_HAL_Driver/Inc/stm32f0xx_ll_tim.h **** 
 238:Drivers/STM32F0xx_HAL_Driver/Inc/stm32f0xx_ll_tim.h ****                                This feature can be modified afterwards using unitary functions
 239:Drivers/STM32F0xx_HAL_Driver/Inc/stm32f0xx_ll_tim.h ****                                @ref LL_TIM_CC_EnableChannel() or @ref LL_TIM_CC_DisableChannel().*/
 240:Drivers/STM32F0xx_HAL_Driver/Inc/stm32f0xx_ll_tim.h **** 
 241:Drivers/STM32F0xx_HAL_Driver/Inc/stm32f0xx_ll_tim.h ****   uint32_t OCNState;      /*!< Specifies the TIM complementary Output Compare state.
 242:Drivers/STM32F0xx_HAL_Driver/Inc/stm32f0xx_ll_tim.h ****                                This parameter can be a value of @ref TIM_LL_EC_OCSTATE.
 243:Drivers/STM32F0xx_HAL_Driver/Inc/stm32f0xx_ll_tim.h **** 
 244:Drivers/STM32F0xx_HAL_Driver/Inc/stm32f0xx_ll_tim.h ****                                This feature can be modified afterwards using unitary functions
 245:Drivers/STM32F0xx_HAL_Driver/Inc/stm32f0xx_ll_tim.h ****                                @ref LL_TIM_CC_EnableChannel() or @ref LL_TIM_CC_DisableChannel().*/
 246:Drivers/STM32F0xx_HAL_Driver/Inc/stm32f0xx_ll_tim.h **** 
 247:Drivers/STM32F0xx_HAL_Driver/Inc/stm32f0xx_ll_tim.h ****   uint32_t CompareValue;  /*!< Specifies the Compare value to be loaded into the Capture Compare Re
 248:Drivers/STM32F0xx_HAL_Driver/Inc/stm32f0xx_ll_tim.h ****                                This parameter can be a number between Min_Data=0x0000 and Max_Data=
 249:Drivers/STM32F0xx_HAL_Driver/Inc/stm32f0xx_ll_tim.h **** 
 250:Drivers/STM32F0xx_HAL_Driver/Inc/stm32f0xx_ll_tim.h ****                                This feature can be modified afterwards using unitary function
 251:Drivers/STM32F0xx_HAL_Driver/Inc/stm32f0xx_ll_tim.h ****                                LL_TIM_OC_SetCompareCHx (x=1..6).*/
 252:Drivers/STM32F0xx_HAL_Driver/Inc/stm32f0xx_ll_tim.h **** 
 253:Drivers/STM32F0xx_HAL_Driver/Inc/stm32f0xx_ll_tim.h ****   uint32_t OCPolarity;    /*!< Specifies the output polarity.
 254:Drivers/STM32F0xx_HAL_Driver/Inc/stm32f0xx_ll_tim.h ****                                This parameter can be a value of @ref TIM_LL_EC_OCPOLARITY.
 255:Drivers/STM32F0xx_HAL_Driver/Inc/stm32f0xx_ll_tim.h **** 
 256:Drivers/STM32F0xx_HAL_Driver/Inc/stm32f0xx_ll_tim.h ****                                This feature can be modified afterwards using unitary function
 257:Drivers/STM32F0xx_HAL_Driver/Inc/stm32f0xx_ll_tim.h ****                                @ref LL_TIM_OC_SetPolarity().*/
 258:Drivers/STM32F0xx_HAL_Driver/Inc/stm32f0xx_ll_tim.h **** 
 259:Drivers/STM32F0xx_HAL_Driver/Inc/stm32f0xx_ll_tim.h ****   uint32_t OCNPolarity;   /*!< Specifies the complementary output polarity.
 260:Drivers/STM32F0xx_HAL_Driver/Inc/stm32f0xx_ll_tim.h ****                                This parameter can be a value of @ref TIM_LL_EC_OCPOLARITY.
 261:Drivers/STM32F0xx_HAL_Driver/Inc/stm32f0xx_ll_tim.h **** 
 262:Drivers/STM32F0xx_HAL_Driver/Inc/stm32f0xx_ll_tim.h ****                                This feature can be modified afterwards using unitary function
 263:Drivers/STM32F0xx_HAL_Driver/Inc/stm32f0xx_ll_tim.h ****                                @ref LL_TIM_OC_SetPolarity().*/
 264:Drivers/STM32F0xx_HAL_Driver/Inc/stm32f0xx_ll_tim.h **** 
ARM GAS  C:\Users\ADMINI~1\AppData\Local\Temp\cc3oB4jI.s 			page 22


 265:Drivers/STM32F0xx_HAL_Driver/Inc/stm32f0xx_ll_tim.h **** 
 266:Drivers/STM32F0xx_HAL_Driver/Inc/stm32f0xx_ll_tim.h ****   uint32_t OCIdleState;   /*!< Specifies the TIM Output Compare pin state during Idle state.
 267:Drivers/STM32F0xx_HAL_Driver/Inc/stm32f0xx_ll_tim.h ****                                This parameter can be a value of @ref TIM_LL_EC_OCIDLESTATE.
 268:Drivers/STM32F0xx_HAL_Driver/Inc/stm32f0xx_ll_tim.h **** 
 269:Drivers/STM32F0xx_HAL_Driver/Inc/stm32f0xx_ll_tim.h ****                                This feature can be modified afterwards using unitary function
 270:Drivers/STM32F0xx_HAL_Driver/Inc/stm32f0xx_ll_tim.h ****                                @ref LL_TIM_OC_SetIdleState().*/
 271:Drivers/STM32F0xx_HAL_Driver/Inc/stm32f0xx_ll_tim.h **** 
 272:Drivers/STM32F0xx_HAL_Driver/Inc/stm32f0xx_ll_tim.h ****   uint32_t OCNIdleState;  /*!< Specifies the TIM Output Compare pin state during Idle state.
 273:Drivers/STM32F0xx_HAL_Driver/Inc/stm32f0xx_ll_tim.h ****                                This parameter can be a value of @ref TIM_LL_EC_OCIDLESTATE.
 274:Drivers/STM32F0xx_HAL_Driver/Inc/stm32f0xx_ll_tim.h **** 
 275:Drivers/STM32F0xx_HAL_Driver/Inc/stm32f0xx_ll_tim.h ****                                This feature can be modified afterwards using unitary function
 276:Drivers/STM32F0xx_HAL_Driver/Inc/stm32f0xx_ll_tim.h ****                                @ref LL_TIM_OC_SetIdleState().*/
 277:Drivers/STM32F0xx_HAL_Driver/Inc/stm32f0xx_ll_tim.h **** } LL_TIM_OC_InitTypeDef;
 278:Drivers/STM32F0xx_HAL_Driver/Inc/stm32f0xx_ll_tim.h **** 
 279:Drivers/STM32F0xx_HAL_Driver/Inc/stm32f0xx_ll_tim.h **** /**
 280:Drivers/STM32F0xx_HAL_Driver/Inc/stm32f0xx_ll_tim.h ****   * @brief  TIM Input Capture configuration structure definition.
 281:Drivers/STM32F0xx_HAL_Driver/Inc/stm32f0xx_ll_tim.h ****   */
 282:Drivers/STM32F0xx_HAL_Driver/Inc/stm32f0xx_ll_tim.h **** 
 283:Drivers/STM32F0xx_HAL_Driver/Inc/stm32f0xx_ll_tim.h **** typedef struct
 284:Drivers/STM32F0xx_HAL_Driver/Inc/stm32f0xx_ll_tim.h **** {
 285:Drivers/STM32F0xx_HAL_Driver/Inc/stm32f0xx_ll_tim.h **** 
 286:Drivers/STM32F0xx_HAL_Driver/Inc/stm32f0xx_ll_tim.h ****   uint32_t ICPolarity;    /*!< Specifies the active edge of the input signal.
 287:Drivers/STM32F0xx_HAL_Driver/Inc/stm32f0xx_ll_tim.h ****                                This parameter can be a value of @ref TIM_LL_EC_IC_POLARITY.
 288:Drivers/STM32F0xx_HAL_Driver/Inc/stm32f0xx_ll_tim.h **** 
 289:Drivers/STM32F0xx_HAL_Driver/Inc/stm32f0xx_ll_tim.h ****                                This feature can be modified afterwards using unitary function
 290:Drivers/STM32F0xx_HAL_Driver/Inc/stm32f0xx_ll_tim.h ****                                @ref LL_TIM_IC_SetPolarity().*/
 291:Drivers/STM32F0xx_HAL_Driver/Inc/stm32f0xx_ll_tim.h **** 
 292:Drivers/STM32F0xx_HAL_Driver/Inc/stm32f0xx_ll_tim.h ****   uint32_t ICActiveInput; /*!< Specifies the input.
 293:Drivers/STM32F0xx_HAL_Driver/Inc/stm32f0xx_ll_tim.h ****                                This parameter can be a value of @ref TIM_LL_EC_ACTIVEINPUT.
 294:Drivers/STM32F0xx_HAL_Driver/Inc/stm32f0xx_ll_tim.h **** 
 295:Drivers/STM32F0xx_HAL_Driver/Inc/stm32f0xx_ll_tim.h ****                                This feature can be modified afterwards using unitary function
 296:Drivers/STM32F0xx_HAL_Driver/Inc/stm32f0xx_ll_tim.h ****                                @ref LL_TIM_IC_SetActiveInput().*/
 297:Drivers/STM32F0xx_HAL_Driver/Inc/stm32f0xx_ll_tim.h **** 
 298:Drivers/STM32F0xx_HAL_Driver/Inc/stm32f0xx_ll_tim.h ****   uint32_t ICPrescaler;   /*!< Specifies the Input Capture Prescaler.
 299:Drivers/STM32F0xx_HAL_Driver/Inc/stm32f0xx_ll_tim.h ****                                This parameter can be a value of @ref TIM_LL_EC_ICPSC.
 300:Drivers/STM32F0xx_HAL_Driver/Inc/stm32f0xx_ll_tim.h **** 
 301:Drivers/STM32F0xx_HAL_Driver/Inc/stm32f0xx_ll_tim.h ****                                This feature can be modified afterwards using unitary function
 302:Drivers/STM32F0xx_HAL_Driver/Inc/stm32f0xx_ll_tim.h ****                                @ref LL_TIM_IC_SetPrescaler().*/
 303:Drivers/STM32F0xx_HAL_Driver/Inc/stm32f0xx_ll_tim.h **** 
 304:Drivers/STM32F0xx_HAL_Driver/Inc/stm32f0xx_ll_tim.h ****   uint32_t ICFilter;      /*!< Specifies the input capture filter.
 305:Drivers/STM32F0xx_HAL_Driver/Inc/stm32f0xx_ll_tim.h ****                                This parameter can be a value of @ref TIM_LL_EC_IC_FILTER.
 306:Drivers/STM32F0xx_HAL_Driver/Inc/stm32f0xx_ll_tim.h **** 
 307:Drivers/STM32F0xx_HAL_Driver/Inc/stm32f0xx_ll_tim.h ****                                This feature can be modified afterwards using unitary function
 308:Drivers/STM32F0xx_HAL_Driver/Inc/stm32f0xx_ll_tim.h ****                                @ref LL_TIM_IC_SetFilter().*/
 309:Drivers/STM32F0xx_HAL_Driver/Inc/stm32f0xx_ll_tim.h **** } LL_TIM_IC_InitTypeDef;
 310:Drivers/STM32F0xx_HAL_Driver/Inc/stm32f0xx_ll_tim.h **** 
 311:Drivers/STM32F0xx_HAL_Driver/Inc/stm32f0xx_ll_tim.h **** 
 312:Drivers/STM32F0xx_HAL_Driver/Inc/stm32f0xx_ll_tim.h **** /**
 313:Drivers/STM32F0xx_HAL_Driver/Inc/stm32f0xx_ll_tim.h ****   * @brief  TIM Encoder interface configuration structure definition.
 314:Drivers/STM32F0xx_HAL_Driver/Inc/stm32f0xx_ll_tim.h ****   */
 315:Drivers/STM32F0xx_HAL_Driver/Inc/stm32f0xx_ll_tim.h **** typedef struct
 316:Drivers/STM32F0xx_HAL_Driver/Inc/stm32f0xx_ll_tim.h **** {
 317:Drivers/STM32F0xx_HAL_Driver/Inc/stm32f0xx_ll_tim.h ****   uint32_t EncoderMode;     /*!< Specifies the encoder resolution (x2 or x4).
 318:Drivers/STM32F0xx_HAL_Driver/Inc/stm32f0xx_ll_tim.h ****                                  This parameter can be a value of @ref TIM_LL_EC_ENCODERMODE.
 319:Drivers/STM32F0xx_HAL_Driver/Inc/stm32f0xx_ll_tim.h **** 
 320:Drivers/STM32F0xx_HAL_Driver/Inc/stm32f0xx_ll_tim.h ****                                  This feature can be modified afterwards using unitary function
 321:Drivers/STM32F0xx_HAL_Driver/Inc/stm32f0xx_ll_tim.h ****                                  @ref LL_TIM_SetEncoderMode().*/
ARM GAS  C:\Users\ADMINI~1\AppData\Local\Temp\cc3oB4jI.s 			page 23


 322:Drivers/STM32F0xx_HAL_Driver/Inc/stm32f0xx_ll_tim.h **** 
 323:Drivers/STM32F0xx_HAL_Driver/Inc/stm32f0xx_ll_tim.h ****   uint32_t IC1Polarity;     /*!< Specifies the active edge of TI1 input.
 324:Drivers/STM32F0xx_HAL_Driver/Inc/stm32f0xx_ll_tim.h ****                                  This parameter can be a value of @ref TIM_LL_EC_IC_POLARITY.
 325:Drivers/STM32F0xx_HAL_Driver/Inc/stm32f0xx_ll_tim.h **** 
 326:Drivers/STM32F0xx_HAL_Driver/Inc/stm32f0xx_ll_tim.h ****                                  This feature can be modified afterwards using unitary function
 327:Drivers/STM32F0xx_HAL_Driver/Inc/stm32f0xx_ll_tim.h ****                                  @ref LL_TIM_IC_SetPolarity().*/
 328:Drivers/STM32F0xx_HAL_Driver/Inc/stm32f0xx_ll_tim.h **** 
 329:Drivers/STM32F0xx_HAL_Driver/Inc/stm32f0xx_ll_tim.h ****   uint32_t IC1ActiveInput;  /*!< Specifies the TI1 input source
 330:Drivers/STM32F0xx_HAL_Driver/Inc/stm32f0xx_ll_tim.h ****                                  This parameter can be a value of @ref TIM_LL_EC_ACTIVEINPUT.
 331:Drivers/STM32F0xx_HAL_Driver/Inc/stm32f0xx_ll_tim.h **** 
 332:Drivers/STM32F0xx_HAL_Driver/Inc/stm32f0xx_ll_tim.h ****                                  This feature can be modified afterwards using unitary function
 333:Drivers/STM32F0xx_HAL_Driver/Inc/stm32f0xx_ll_tim.h ****                                  @ref LL_TIM_IC_SetActiveInput().*/
 334:Drivers/STM32F0xx_HAL_Driver/Inc/stm32f0xx_ll_tim.h **** 
 335:Drivers/STM32F0xx_HAL_Driver/Inc/stm32f0xx_ll_tim.h ****   uint32_t IC1Prescaler;    /*!< Specifies the TI1 input prescaler value.
 336:Drivers/STM32F0xx_HAL_Driver/Inc/stm32f0xx_ll_tim.h ****                                  This parameter can be a value of @ref TIM_LL_EC_ICPSC.
 337:Drivers/STM32F0xx_HAL_Driver/Inc/stm32f0xx_ll_tim.h **** 
 338:Drivers/STM32F0xx_HAL_Driver/Inc/stm32f0xx_ll_tim.h ****                                  This feature can be modified afterwards using unitary function
 339:Drivers/STM32F0xx_HAL_Driver/Inc/stm32f0xx_ll_tim.h ****                                  @ref LL_TIM_IC_SetPrescaler().*/
 340:Drivers/STM32F0xx_HAL_Driver/Inc/stm32f0xx_ll_tim.h **** 
 341:Drivers/STM32F0xx_HAL_Driver/Inc/stm32f0xx_ll_tim.h ****   uint32_t IC1Filter;       /*!< Specifies the TI1 input filter.
 342:Drivers/STM32F0xx_HAL_Driver/Inc/stm32f0xx_ll_tim.h ****                                  This parameter can be a value of @ref TIM_LL_EC_IC_FILTER.
 343:Drivers/STM32F0xx_HAL_Driver/Inc/stm32f0xx_ll_tim.h **** 
 344:Drivers/STM32F0xx_HAL_Driver/Inc/stm32f0xx_ll_tim.h ****                                  This feature can be modified afterwards using unitary function
 345:Drivers/STM32F0xx_HAL_Driver/Inc/stm32f0xx_ll_tim.h ****                                  @ref LL_TIM_IC_SetFilter().*/
 346:Drivers/STM32F0xx_HAL_Driver/Inc/stm32f0xx_ll_tim.h **** 
 347:Drivers/STM32F0xx_HAL_Driver/Inc/stm32f0xx_ll_tim.h ****   uint32_t IC2Polarity;      /*!< Specifies the active edge of TI2 input.
 348:Drivers/STM32F0xx_HAL_Driver/Inc/stm32f0xx_ll_tim.h ****                                  This parameter can be a value of @ref TIM_LL_EC_IC_POLARITY.
 349:Drivers/STM32F0xx_HAL_Driver/Inc/stm32f0xx_ll_tim.h **** 
 350:Drivers/STM32F0xx_HAL_Driver/Inc/stm32f0xx_ll_tim.h ****                                  This feature can be modified afterwards using unitary function
 351:Drivers/STM32F0xx_HAL_Driver/Inc/stm32f0xx_ll_tim.h ****                                  @ref LL_TIM_IC_SetPolarity().*/
 352:Drivers/STM32F0xx_HAL_Driver/Inc/stm32f0xx_ll_tim.h **** 
 353:Drivers/STM32F0xx_HAL_Driver/Inc/stm32f0xx_ll_tim.h ****   uint32_t IC2ActiveInput;  /*!< Specifies the TI2 input source
 354:Drivers/STM32F0xx_HAL_Driver/Inc/stm32f0xx_ll_tim.h ****                                  This parameter can be a value of @ref TIM_LL_EC_ACTIVEINPUT.
 355:Drivers/STM32F0xx_HAL_Driver/Inc/stm32f0xx_ll_tim.h **** 
 356:Drivers/STM32F0xx_HAL_Driver/Inc/stm32f0xx_ll_tim.h ****                                  This feature can be modified afterwards using unitary function
 357:Drivers/STM32F0xx_HAL_Driver/Inc/stm32f0xx_ll_tim.h ****                                  @ref LL_TIM_IC_SetActiveInput().*/
 358:Drivers/STM32F0xx_HAL_Driver/Inc/stm32f0xx_ll_tim.h **** 
 359:Drivers/STM32F0xx_HAL_Driver/Inc/stm32f0xx_ll_tim.h ****   uint32_t IC2Prescaler;    /*!< Specifies the TI2 input prescaler value.
 360:Drivers/STM32F0xx_HAL_Driver/Inc/stm32f0xx_ll_tim.h ****                                  This parameter can be a value of @ref TIM_LL_EC_ICPSC.
 361:Drivers/STM32F0xx_HAL_Driver/Inc/stm32f0xx_ll_tim.h **** 
 362:Drivers/STM32F0xx_HAL_Driver/Inc/stm32f0xx_ll_tim.h ****                                  This feature can be modified afterwards using unitary function
 363:Drivers/STM32F0xx_HAL_Driver/Inc/stm32f0xx_ll_tim.h ****                                  @ref LL_TIM_IC_SetPrescaler().*/
 364:Drivers/STM32F0xx_HAL_Driver/Inc/stm32f0xx_ll_tim.h **** 
 365:Drivers/STM32F0xx_HAL_Driver/Inc/stm32f0xx_ll_tim.h ****   uint32_t IC2Filter;       /*!< Specifies the TI2 input filter.
 366:Drivers/STM32F0xx_HAL_Driver/Inc/stm32f0xx_ll_tim.h ****                                  This parameter can be a value of @ref TIM_LL_EC_IC_FILTER.
 367:Drivers/STM32F0xx_HAL_Driver/Inc/stm32f0xx_ll_tim.h **** 
 368:Drivers/STM32F0xx_HAL_Driver/Inc/stm32f0xx_ll_tim.h ****                                  This feature can be modified afterwards using unitary function
 369:Drivers/STM32F0xx_HAL_Driver/Inc/stm32f0xx_ll_tim.h ****                                  @ref LL_TIM_IC_SetFilter().*/
 370:Drivers/STM32F0xx_HAL_Driver/Inc/stm32f0xx_ll_tim.h **** 
 371:Drivers/STM32F0xx_HAL_Driver/Inc/stm32f0xx_ll_tim.h **** } LL_TIM_ENCODER_InitTypeDef;
 372:Drivers/STM32F0xx_HAL_Driver/Inc/stm32f0xx_ll_tim.h **** 
 373:Drivers/STM32F0xx_HAL_Driver/Inc/stm32f0xx_ll_tim.h **** /**
 374:Drivers/STM32F0xx_HAL_Driver/Inc/stm32f0xx_ll_tim.h ****   * @brief  TIM Hall sensor interface configuration structure definition.
 375:Drivers/STM32F0xx_HAL_Driver/Inc/stm32f0xx_ll_tim.h ****   */
 376:Drivers/STM32F0xx_HAL_Driver/Inc/stm32f0xx_ll_tim.h **** typedef struct
 377:Drivers/STM32F0xx_HAL_Driver/Inc/stm32f0xx_ll_tim.h **** {
 378:Drivers/STM32F0xx_HAL_Driver/Inc/stm32f0xx_ll_tim.h **** 
ARM GAS  C:\Users\ADMINI~1\AppData\Local\Temp\cc3oB4jI.s 			page 24


 379:Drivers/STM32F0xx_HAL_Driver/Inc/stm32f0xx_ll_tim.h ****   uint32_t IC1Polarity;        /*!< Specifies the active edge of TI1 input.
 380:Drivers/STM32F0xx_HAL_Driver/Inc/stm32f0xx_ll_tim.h ****                                     This parameter can be a value of @ref TIM_LL_EC_IC_POLARITY.
 381:Drivers/STM32F0xx_HAL_Driver/Inc/stm32f0xx_ll_tim.h **** 
 382:Drivers/STM32F0xx_HAL_Driver/Inc/stm32f0xx_ll_tim.h ****                                     This feature can be modified afterwards using unitary function
 383:Drivers/STM32F0xx_HAL_Driver/Inc/stm32f0xx_ll_tim.h ****                                     @ref LL_TIM_IC_SetPolarity().*/
 384:Drivers/STM32F0xx_HAL_Driver/Inc/stm32f0xx_ll_tim.h **** 
 385:Drivers/STM32F0xx_HAL_Driver/Inc/stm32f0xx_ll_tim.h ****   uint32_t IC1Prescaler;       /*!< Specifies the TI1 input prescaler value.
 386:Drivers/STM32F0xx_HAL_Driver/Inc/stm32f0xx_ll_tim.h ****                                     Prescaler must be set to get a maximum counter period longer th
 387:Drivers/STM32F0xx_HAL_Driver/Inc/stm32f0xx_ll_tim.h ****                                     time interval between 2 consecutive changes on the Hall inputs.
 388:Drivers/STM32F0xx_HAL_Driver/Inc/stm32f0xx_ll_tim.h ****                                     This parameter can be a value of @ref TIM_LL_EC_ICPSC.
 389:Drivers/STM32F0xx_HAL_Driver/Inc/stm32f0xx_ll_tim.h **** 
 390:Drivers/STM32F0xx_HAL_Driver/Inc/stm32f0xx_ll_tim.h ****                                     This feature can be modified afterwards using unitary function
 391:Drivers/STM32F0xx_HAL_Driver/Inc/stm32f0xx_ll_tim.h ****                                     @ref LL_TIM_IC_SetPrescaler().*/
 392:Drivers/STM32F0xx_HAL_Driver/Inc/stm32f0xx_ll_tim.h **** 
 393:Drivers/STM32F0xx_HAL_Driver/Inc/stm32f0xx_ll_tim.h ****   uint32_t IC1Filter;          /*!< Specifies the TI1 input filter.
 394:Drivers/STM32F0xx_HAL_Driver/Inc/stm32f0xx_ll_tim.h ****                                     This parameter can be a value of
 395:Drivers/STM32F0xx_HAL_Driver/Inc/stm32f0xx_ll_tim.h ****                                     @ref TIM_LL_EC_IC_FILTER.
 396:Drivers/STM32F0xx_HAL_Driver/Inc/stm32f0xx_ll_tim.h **** 
 397:Drivers/STM32F0xx_HAL_Driver/Inc/stm32f0xx_ll_tim.h ****                                     This feature can be modified afterwards using unitary function
 398:Drivers/STM32F0xx_HAL_Driver/Inc/stm32f0xx_ll_tim.h ****                                     @ref LL_TIM_IC_SetFilter().*/
 399:Drivers/STM32F0xx_HAL_Driver/Inc/stm32f0xx_ll_tim.h **** 
 400:Drivers/STM32F0xx_HAL_Driver/Inc/stm32f0xx_ll_tim.h ****   uint32_t CommutationDelay;   /*!< Specifies the compare value to be loaded into the Capture Compa
 401:Drivers/STM32F0xx_HAL_Driver/Inc/stm32f0xx_ll_tim.h ****                                     A positive pulse (TRGO event) is generated with a programmable 
 402:Drivers/STM32F0xx_HAL_Driver/Inc/stm32f0xx_ll_tim.h ****                                     a change occurs on the Hall inputs.
 403:Drivers/STM32F0xx_HAL_Driver/Inc/stm32f0xx_ll_tim.h ****                                     This parameter can be a number between Min_Data = 0x0000 and Ma
 404:Drivers/STM32F0xx_HAL_Driver/Inc/stm32f0xx_ll_tim.h **** 
 405:Drivers/STM32F0xx_HAL_Driver/Inc/stm32f0xx_ll_tim.h ****                                     This feature can be modified afterwards using unitary function
 406:Drivers/STM32F0xx_HAL_Driver/Inc/stm32f0xx_ll_tim.h ****                                     @ref LL_TIM_OC_SetCompareCH2().*/
 407:Drivers/STM32F0xx_HAL_Driver/Inc/stm32f0xx_ll_tim.h **** } LL_TIM_HALLSENSOR_InitTypeDef;
 408:Drivers/STM32F0xx_HAL_Driver/Inc/stm32f0xx_ll_tim.h **** 
 409:Drivers/STM32F0xx_HAL_Driver/Inc/stm32f0xx_ll_tim.h **** /**
 410:Drivers/STM32F0xx_HAL_Driver/Inc/stm32f0xx_ll_tim.h ****   * @brief  BDTR (Break and Dead Time) structure definition
 411:Drivers/STM32F0xx_HAL_Driver/Inc/stm32f0xx_ll_tim.h ****   */
 412:Drivers/STM32F0xx_HAL_Driver/Inc/stm32f0xx_ll_tim.h **** typedef struct
 413:Drivers/STM32F0xx_HAL_Driver/Inc/stm32f0xx_ll_tim.h **** {
 414:Drivers/STM32F0xx_HAL_Driver/Inc/stm32f0xx_ll_tim.h ****   uint32_t OSSRState;            /*!< Specifies the Off-State selection used in Run mode.
 415:Drivers/STM32F0xx_HAL_Driver/Inc/stm32f0xx_ll_tim.h ****                                       This parameter can be a value of @ref TIM_LL_EC_OSSR
 416:Drivers/STM32F0xx_HAL_Driver/Inc/stm32f0xx_ll_tim.h **** 
 417:Drivers/STM32F0xx_HAL_Driver/Inc/stm32f0xx_ll_tim.h ****                                       This feature can be modified afterwards using unitary functio
 418:Drivers/STM32F0xx_HAL_Driver/Inc/stm32f0xx_ll_tim.h ****                                       @ref LL_TIM_SetOffStates()
 419:Drivers/STM32F0xx_HAL_Driver/Inc/stm32f0xx_ll_tim.h **** 
 420:Drivers/STM32F0xx_HAL_Driver/Inc/stm32f0xx_ll_tim.h ****                                       @note This bit-field cannot be modified as long as LOCK level
 421:Drivers/STM32F0xx_HAL_Driver/Inc/stm32f0xx_ll_tim.h ****                                        programmed. */
 422:Drivers/STM32F0xx_HAL_Driver/Inc/stm32f0xx_ll_tim.h **** 
 423:Drivers/STM32F0xx_HAL_Driver/Inc/stm32f0xx_ll_tim.h ****   uint32_t OSSIState;            /*!< Specifies the Off-State used in Idle state.
 424:Drivers/STM32F0xx_HAL_Driver/Inc/stm32f0xx_ll_tim.h ****                                       This parameter can be a value of @ref TIM_LL_EC_OSSI
 425:Drivers/STM32F0xx_HAL_Driver/Inc/stm32f0xx_ll_tim.h **** 
 426:Drivers/STM32F0xx_HAL_Driver/Inc/stm32f0xx_ll_tim.h ****                                       This feature can be modified afterwards using unitary functio
 427:Drivers/STM32F0xx_HAL_Driver/Inc/stm32f0xx_ll_tim.h ****                                       @ref LL_TIM_SetOffStates()
 428:Drivers/STM32F0xx_HAL_Driver/Inc/stm32f0xx_ll_tim.h **** 
 429:Drivers/STM32F0xx_HAL_Driver/Inc/stm32f0xx_ll_tim.h ****                                       @note This bit-field cannot be modified as long as LOCK level
 430:Drivers/STM32F0xx_HAL_Driver/Inc/stm32f0xx_ll_tim.h ****                                       programmed. */
 431:Drivers/STM32F0xx_HAL_Driver/Inc/stm32f0xx_ll_tim.h **** 
 432:Drivers/STM32F0xx_HAL_Driver/Inc/stm32f0xx_ll_tim.h ****   uint32_t LockLevel;            /*!< Specifies the LOCK level parameters.
 433:Drivers/STM32F0xx_HAL_Driver/Inc/stm32f0xx_ll_tim.h ****                                       This parameter can be a value of @ref TIM_LL_EC_LOCKLEVEL
 434:Drivers/STM32F0xx_HAL_Driver/Inc/stm32f0xx_ll_tim.h **** 
 435:Drivers/STM32F0xx_HAL_Driver/Inc/stm32f0xx_ll_tim.h ****                                       @note The LOCK bits can be written only once after the reset.
ARM GAS  C:\Users\ADMINI~1\AppData\Local\Temp\cc3oB4jI.s 			page 25


 436:Drivers/STM32F0xx_HAL_Driver/Inc/stm32f0xx_ll_tim.h ****                                       register has been written, their content is frozen until the 
 437:Drivers/STM32F0xx_HAL_Driver/Inc/stm32f0xx_ll_tim.h **** 
 438:Drivers/STM32F0xx_HAL_Driver/Inc/stm32f0xx_ll_tim.h ****   uint8_t DeadTime;              /*!< Specifies the delay time between the switching-off and the
 439:Drivers/STM32F0xx_HAL_Driver/Inc/stm32f0xx_ll_tim.h ****                                       switching-on of the outputs.
 440:Drivers/STM32F0xx_HAL_Driver/Inc/stm32f0xx_ll_tim.h ****                                       This parameter can be a number between Min_Data = 0x00 and Ma
 441:Drivers/STM32F0xx_HAL_Driver/Inc/stm32f0xx_ll_tim.h **** 
 442:Drivers/STM32F0xx_HAL_Driver/Inc/stm32f0xx_ll_tim.h ****                                       This feature can be modified afterwards using unitary functio
 443:Drivers/STM32F0xx_HAL_Driver/Inc/stm32f0xx_ll_tim.h ****                                       @ref LL_TIM_OC_SetDeadTime()
 444:Drivers/STM32F0xx_HAL_Driver/Inc/stm32f0xx_ll_tim.h **** 
 445:Drivers/STM32F0xx_HAL_Driver/Inc/stm32f0xx_ll_tim.h ****                                       @note This bit-field can not be modified as long as LOCK leve
 446:Drivers/STM32F0xx_HAL_Driver/Inc/stm32f0xx_ll_tim.h ****                                        programmed. */
 447:Drivers/STM32F0xx_HAL_Driver/Inc/stm32f0xx_ll_tim.h **** 
 448:Drivers/STM32F0xx_HAL_Driver/Inc/stm32f0xx_ll_tim.h ****   uint16_t BreakState;           /*!< Specifies whether the TIM Break input is enabled or not.
 449:Drivers/STM32F0xx_HAL_Driver/Inc/stm32f0xx_ll_tim.h ****                                       This parameter can be a value of @ref TIM_LL_EC_BREAK_ENABLE
 450:Drivers/STM32F0xx_HAL_Driver/Inc/stm32f0xx_ll_tim.h **** 
 451:Drivers/STM32F0xx_HAL_Driver/Inc/stm32f0xx_ll_tim.h ****                                       This feature can be modified afterwards using unitary functio
 452:Drivers/STM32F0xx_HAL_Driver/Inc/stm32f0xx_ll_tim.h ****                                       @ref LL_TIM_EnableBRK() or @ref LL_TIM_DisableBRK()
 453:Drivers/STM32F0xx_HAL_Driver/Inc/stm32f0xx_ll_tim.h **** 
 454:Drivers/STM32F0xx_HAL_Driver/Inc/stm32f0xx_ll_tim.h ****                                       @note This bit-field can not be modified as long as LOCK leve
 455:Drivers/STM32F0xx_HAL_Driver/Inc/stm32f0xx_ll_tim.h ****                                       programmed. */
 456:Drivers/STM32F0xx_HAL_Driver/Inc/stm32f0xx_ll_tim.h **** 
 457:Drivers/STM32F0xx_HAL_Driver/Inc/stm32f0xx_ll_tim.h ****   uint32_t BreakPolarity;        /*!< Specifies the TIM Break Input pin polarity.
 458:Drivers/STM32F0xx_HAL_Driver/Inc/stm32f0xx_ll_tim.h ****                                       This parameter can be a value of @ref TIM_LL_EC_BREAK_POLARIT
 459:Drivers/STM32F0xx_HAL_Driver/Inc/stm32f0xx_ll_tim.h **** 
 460:Drivers/STM32F0xx_HAL_Driver/Inc/stm32f0xx_ll_tim.h ****                                       This feature can be modified afterwards using unitary functio
 461:Drivers/STM32F0xx_HAL_Driver/Inc/stm32f0xx_ll_tim.h ****                                       @ref LL_TIM_ConfigBRK()
 462:Drivers/STM32F0xx_HAL_Driver/Inc/stm32f0xx_ll_tim.h **** 
 463:Drivers/STM32F0xx_HAL_Driver/Inc/stm32f0xx_ll_tim.h ****                                       @note This bit-field can not be modified as long as LOCK leve
 464:Drivers/STM32F0xx_HAL_Driver/Inc/stm32f0xx_ll_tim.h ****                                       programmed. */
 465:Drivers/STM32F0xx_HAL_Driver/Inc/stm32f0xx_ll_tim.h **** 
 466:Drivers/STM32F0xx_HAL_Driver/Inc/stm32f0xx_ll_tim.h ****   uint32_t AutomaticOutput;      /*!< Specifies whether the TIM Automatic Output feature is enabled
 467:Drivers/STM32F0xx_HAL_Driver/Inc/stm32f0xx_ll_tim.h ****                                       This parameter can be a value of @ref TIM_LL_EC_AUTOMATICOUTP
 468:Drivers/STM32F0xx_HAL_Driver/Inc/stm32f0xx_ll_tim.h **** 
 469:Drivers/STM32F0xx_HAL_Driver/Inc/stm32f0xx_ll_tim.h ****                                       This feature can be modified afterwards using unitary functio
 470:Drivers/STM32F0xx_HAL_Driver/Inc/stm32f0xx_ll_tim.h ****                                       @ref LL_TIM_EnableAutomaticOutput() or @ref LL_TIM_DisableAut
 471:Drivers/STM32F0xx_HAL_Driver/Inc/stm32f0xx_ll_tim.h **** 
 472:Drivers/STM32F0xx_HAL_Driver/Inc/stm32f0xx_ll_tim.h ****                                       @note This bit-field can not be modified as long as LOCK leve
 473:Drivers/STM32F0xx_HAL_Driver/Inc/stm32f0xx_ll_tim.h ****                                       programmed. */
 474:Drivers/STM32F0xx_HAL_Driver/Inc/stm32f0xx_ll_tim.h **** } LL_TIM_BDTR_InitTypeDef;
 475:Drivers/STM32F0xx_HAL_Driver/Inc/stm32f0xx_ll_tim.h **** 
 476:Drivers/STM32F0xx_HAL_Driver/Inc/stm32f0xx_ll_tim.h **** /**
 477:Drivers/STM32F0xx_HAL_Driver/Inc/stm32f0xx_ll_tim.h ****   * @}
 478:Drivers/STM32F0xx_HAL_Driver/Inc/stm32f0xx_ll_tim.h ****   */
 479:Drivers/STM32F0xx_HAL_Driver/Inc/stm32f0xx_ll_tim.h **** #endif /* USE_FULL_LL_DRIVER */
 480:Drivers/STM32F0xx_HAL_Driver/Inc/stm32f0xx_ll_tim.h **** 
 481:Drivers/STM32F0xx_HAL_Driver/Inc/stm32f0xx_ll_tim.h **** /* Exported constants --------------------------------------------------------*/
 482:Drivers/STM32F0xx_HAL_Driver/Inc/stm32f0xx_ll_tim.h **** /** @defgroup TIM_LL_Exported_Constants TIM Exported Constants
 483:Drivers/STM32F0xx_HAL_Driver/Inc/stm32f0xx_ll_tim.h ****   * @{
 484:Drivers/STM32F0xx_HAL_Driver/Inc/stm32f0xx_ll_tim.h ****   */
 485:Drivers/STM32F0xx_HAL_Driver/Inc/stm32f0xx_ll_tim.h **** 
 486:Drivers/STM32F0xx_HAL_Driver/Inc/stm32f0xx_ll_tim.h **** /** @defgroup TIM_LL_EC_GET_FLAG Get Flags Defines
 487:Drivers/STM32F0xx_HAL_Driver/Inc/stm32f0xx_ll_tim.h ****   * @brief    Flags defines which can be used with LL_TIM_ReadReg function.
 488:Drivers/STM32F0xx_HAL_Driver/Inc/stm32f0xx_ll_tim.h ****   * @{
 489:Drivers/STM32F0xx_HAL_Driver/Inc/stm32f0xx_ll_tim.h ****   */
 490:Drivers/STM32F0xx_HAL_Driver/Inc/stm32f0xx_ll_tim.h **** #define LL_TIM_SR_UIF                          TIM_SR_UIF           /*!< Update interrupt flag */
 491:Drivers/STM32F0xx_HAL_Driver/Inc/stm32f0xx_ll_tim.h **** #define LL_TIM_SR_CC1IF                        TIM_SR_CC1IF         /*!< Capture/compare 1 interrup
 492:Drivers/STM32F0xx_HAL_Driver/Inc/stm32f0xx_ll_tim.h **** #define LL_TIM_SR_CC2IF                        TIM_SR_CC2IF         /*!< Capture/compare 2 interrup
ARM GAS  C:\Users\ADMINI~1\AppData\Local\Temp\cc3oB4jI.s 			page 26


 493:Drivers/STM32F0xx_HAL_Driver/Inc/stm32f0xx_ll_tim.h **** #define LL_TIM_SR_CC3IF                        TIM_SR_CC3IF         /*!< Capture/compare 3 interrup
 494:Drivers/STM32F0xx_HAL_Driver/Inc/stm32f0xx_ll_tim.h **** #define LL_TIM_SR_CC4IF                        TIM_SR_CC4IF         /*!< Capture/compare 4 interrup
 495:Drivers/STM32F0xx_HAL_Driver/Inc/stm32f0xx_ll_tim.h **** #define LL_TIM_SR_COMIF                        TIM_SR_COMIF         /*!< COM interrupt flag */
 496:Drivers/STM32F0xx_HAL_Driver/Inc/stm32f0xx_ll_tim.h **** #define LL_TIM_SR_TIF                          TIM_SR_TIF           /*!< Trigger interrupt flag */
 497:Drivers/STM32F0xx_HAL_Driver/Inc/stm32f0xx_ll_tim.h **** #define LL_TIM_SR_BIF                          TIM_SR_BIF           /*!< Break interrupt flag */
 498:Drivers/STM32F0xx_HAL_Driver/Inc/stm32f0xx_ll_tim.h **** #define LL_TIM_SR_CC1OF                        TIM_SR_CC1OF         /*!< Capture/Compare 1 overcapt
 499:Drivers/STM32F0xx_HAL_Driver/Inc/stm32f0xx_ll_tim.h **** #define LL_TIM_SR_CC2OF                        TIM_SR_CC2OF         /*!< Capture/Compare 2 overcapt
 500:Drivers/STM32F0xx_HAL_Driver/Inc/stm32f0xx_ll_tim.h **** #define LL_TIM_SR_CC3OF                        TIM_SR_CC3OF         /*!< Capture/Compare 3 overcapt
 501:Drivers/STM32F0xx_HAL_Driver/Inc/stm32f0xx_ll_tim.h **** #define LL_TIM_SR_CC4OF                        TIM_SR_CC4OF         /*!< Capture/Compare 4 overcapt
 502:Drivers/STM32F0xx_HAL_Driver/Inc/stm32f0xx_ll_tim.h **** /**
 503:Drivers/STM32F0xx_HAL_Driver/Inc/stm32f0xx_ll_tim.h ****   * @}
 504:Drivers/STM32F0xx_HAL_Driver/Inc/stm32f0xx_ll_tim.h ****   */
 505:Drivers/STM32F0xx_HAL_Driver/Inc/stm32f0xx_ll_tim.h **** 
 506:Drivers/STM32F0xx_HAL_Driver/Inc/stm32f0xx_ll_tim.h **** #if defined(USE_FULL_LL_DRIVER)
 507:Drivers/STM32F0xx_HAL_Driver/Inc/stm32f0xx_ll_tim.h **** /** @defgroup TIM_LL_EC_BREAK_ENABLE Break Enable
 508:Drivers/STM32F0xx_HAL_Driver/Inc/stm32f0xx_ll_tim.h ****   * @{
 509:Drivers/STM32F0xx_HAL_Driver/Inc/stm32f0xx_ll_tim.h ****   */
 510:Drivers/STM32F0xx_HAL_Driver/Inc/stm32f0xx_ll_tim.h **** #define LL_TIM_BREAK_DISABLE            0x00000000U             /*!< Break function disabled */
 511:Drivers/STM32F0xx_HAL_Driver/Inc/stm32f0xx_ll_tim.h **** #define LL_TIM_BREAK_ENABLE             TIM_BDTR_BKE            /*!< Break function enabled */
 512:Drivers/STM32F0xx_HAL_Driver/Inc/stm32f0xx_ll_tim.h **** /**
 513:Drivers/STM32F0xx_HAL_Driver/Inc/stm32f0xx_ll_tim.h ****   * @}
 514:Drivers/STM32F0xx_HAL_Driver/Inc/stm32f0xx_ll_tim.h ****   */
 515:Drivers/STM32F0xx_HAL_Driver/Inc/stm32f0xx_ll_tim.h **** 
 516:Drivers/STM32F0xx_HAL_Driver/Inc/stm32f0xx_ll_tim.h **** /** @defgroup TIM_LL_EC_AUTOMATICOUTPUT_ENABLE Automatic output enable
 517:Drivers/STM32F0xx_HAL_Driver/Inc/stm32f0xx_ll_tim.h ****   * @{
 518:Drivers/STM32F0xx_HAL_Driver/Inc/stm32f0xx_ll_tim.h ****   */
 519:Drivers/STM32F0xx_HAL_Driver/Inc/stm32f0xx_ll_tim.h **** #define LL_TIM_AUTOMATICOUTPUT_DISABLE         0x00000000U             /*!< MOE can be set only by 
 520:Drivers/STM32F0xx_HAL_Driver/Inc/stm32f0xx_ll_tim.h **** #define LL_TIM_AUTOMATICOUTPUT_ENABLE          TIM_BDTR_AOE            /*!< MOE can be set by softw
 521:Drivers/STM32F0xx_HAL_Driver/Inc/stm32f0xx_ll_tim.h **** /**
 522:Drivers/STM32F0xx_HAL_Driver/Inc/stm32f0xx_ll_tim.h ****   * @}
 523:Drivers/STM32F0xx_HAL_Driver/Inc/stm32f0xx_ll_tim.h ****   */
 524:Drivers/STM32F0xx_HAL_Driver/Inc/stm32f0xx_ll_tim.h **** #endif /* USE_FULL_LL_DRIVER */
 525:Drivers/STM32F0xx_HAL_Driver/Inc/stm32f0xx_ll_tim.h **** 
 526:Drivers/STM32F0xx_HAL_Driver/Inc/stm32f0xx_ll_tim.h **** /** @defgroup TIM_LL_EC_IT IT Defines
 527:Drivers/STM32F0xx_HAL_Driver/Inc/stm32f0xx_ll_tim.h ****   * @brief    IT defines which can be used with LL_TIM_ReadReg and  LL_TIM_WriteReg functions.
 528:Drivers/STM32F0xx_HAL_Driver/Inc/stm32f0xx_ll_tim.h ****   * @{
 529:Drivers/STM32F0xx_HAL_Driver/Inc/stm32f0xx_ll_tim.h ****   */
 530:Drivers/STM32F0xx_HAL_Driver/Inc/stm32f0xx_ll_tim.h **** #define LL_TIM_DIER_UIE                        TIM_DIER_UIE         /*!< Update interrupt enable */
 531:Drivers/STM32F0xx_HAL_Driver/Inc/stm32f0xx_ll_tim.h **** #define LL_TIM_DIER_CC1IE                      TIM_DIER_CC1IE       /*!< Capture/compare 1 interrup
 532:Drivers/STM32F0xx_HAL_Driver/Inc/stm32f0xx_ll_tim.h **** #define LL_TIM_DIER_CC2IE                      TIM_DIER_CC2IE       /*!< Capture/compare 2 interrup
 533:Drivers/STM32F0xx_HAL_Driver/Inc/stm32f0xx_ll_tim.h **** #define LL_TIM_DIER_CC3IE                      TIM_DIER_CC3IE       /*!< Capture/compare 3 interrup
 534:Drivers/STM32F0xx_HAL_Driver/Inc/stm32f0xx_ll_tim.h **** #define LL_TIM_DIER_CC4IE                      TIM_DIER_CC4IE       /*!< Capture/compare 4 interrup
 535:Drivers/STM32F0xx_HAL_Driver/Inc/stm32f0xx_ll_tim.h **** #define LL_TIM_DIER_COMIE                      TIM_DIER_COMIE       /*!< COM interrupt enable */
 536:Drivers/STM32F0xx_HAL_Driver/Inc/stm32f0xx_ll_tim.h **** #define LL_TIM_DIER_TIE                        TIM_DIER_TIE         /*!< Trigger interrupt enable *
 537:Drivers/STM32F0xx_HAL_Driver/Inc/stm32f0xx_ll_tim.h **** #define LL_TIM_DIER_BIE                        TIM_DIER_BIE         /*!< Break interrupt enable */
 538:Drivers/STM32F0xx_HAL_Driver/Inc/stm32f0xx_ll_tim.h **** /**
 539:Drivers/STM32F0xx_HAL_Driver/Inc/stm32f0xx_ll_tim.h ****   * @}
 540:Drivers/STM32F0xx_HAL_Driver/Inc/stm32f0xx_ll_tim.h ****   */
 541:Drivers/STM32F0xx_HAL_Driver/Inc/stm32f0xx_ll_tim.h **** 
 542:Drivers/STM32F0xx_HAL_Driver/Inc/stm32f0xx_ll_tim.h **** /** @defgroup TIM_LL_EC_UPDATESOURCE Update Source
 543:Drivers/STM32F0xx_HAL_Driver/Inc/stm32f0xx_ll_tim.h ****   * @{
 544:Drivers/STM32F0xx_HAL_Driver/Inc/stm32f0xx_ll_tim.h ****   */
 545:Drivers/STM32F0xx_HAL_Driver/Inc/stm32f0xx_ll_tim.h **** #define LL_TIM_UPDATESOURCE_REGULAR            0x00000000U          /*!< Counter overflow/underflow
 546:Drivers/STM32F0xx_HAL_Driver/Inc/stm32f0xx_ll_tim.h **** #define LL_TIM_UPDATESOURCE_COUNTER            TIM_CR1_URS          /*!< Only counter overflow/unde
 547:Drivers/STM32F0xx_HAL_Driver/Inc/stm32f0xx_ll_tim.h **** /**
 548:Drivers/STM32F0xx_HAL_Driver/Inc/stm32f0xx_ll_tim.h ****   * @}
 549:Drivers/STM32F0xx_HAL_Driver/Inc/stm32f0xx_ll_tim.h ****   */
ARM GAS  C:\Users\ADMINI~1\AppData\Local\Temp\cc3oB4jI.s 			page 27


 550:Drivers/STM32F0xx_HAL_Driver/Inc/stm32f0xx_ll_tim.h **** 
 551:Drivers/STM32F0xx_HAL_Driver/Inc/stm32f0xx_ll_tim.h **** /** @defgroup TIM_LL_EC_ONEPULSEMODE One Pulse Mode
 552:Drivers/STM32F0xx_HAL_Driver/Inc/stm32f0xx_ll_tim.h ****   * @{
 553:Drivers/STM32F0xx_HAL_Driver/Inc/stm32f0xx_ll_tim.h ****   */
 554:Drivers/STM32F0xx_HAL_Driver/Inc/stm32f0xx_ll_tim.h **** #define LL_TIM_ONEPULSEMODE_SINGLE             TIM_CR1_OPM          /*!< Counter stops counting at 
 555:Drivers/STM32F0xx_HAL_Driver/Inc/stm32f0xx_ll_tim.h **** #define LL_TIM_ONEPULSEMODE_REPETITIVE         0x00000000U          /*!< Counter is not stopped at 
 556:Drivers/STM32F0xx_HAL_Driver/Inc/stm32f0xx_ll_tim.h **** /**
 557:Drivers/STM32F0xx_HAL_Driver/Inc/stm32f0xx_ll_tim.h ****   * @}
 558:Drivers/STM32F0xx_HAL_Driver/Inc/stm32f0xx_ll_tim.h ****   */
 559:Drivers/STM32F0xx_HAL_Driver/Inc/stm32f0xx_ll_tim.h **** 
 560:Drivers/STM32F0xx_HAL_Driver/Inc/stm32f0xx_ll_tim.h **** /** @defgroup TIM_LL_EC_COUNTERMODE Counter Mode
 561:Drivers/STM32F0xx_HAL_Driver/Inc/stm32f0xx_ll_tim.h ****   * @{
 562:Drivers/STM32F0xx_HAL_Driver/Inc/stm32f0xx_ll_tim.h ****   */
 563:Drivers/STM32F0xx_HAL_Driver/Inc/stm32f0xx_ll_tim.h **** #define LL_TIM_COUNTERMODE_UP                  0x00000000U          /*!<Counter used as upcounter *
 564:Drivers/STM32F0xx_HAL_Driver/Inc/stm32f0xx_ll_tim.h **** #define LL_TIM_COUNTERMODE_DOWN                TIM_CR1_DIR          /*!< Counter used as downcounte
 565:Drivers/STM32F0xx_HAL_Driver/Inc/stm32f0xx_ll_tim.h **** #define LL_TIM_COUNTERMODE_CENTER_DOWN         TIM_CR1_CMS_0        /*!< The counter counts up and 
 566:Drivers/STM32F0xx_HAL_Driver/Inc/stm32f0xx_ll_tim.h **** #define LL_TIM_COUNTERMODE_CENTER_UP           TIM_CR1_CMS_1        /*!<The counter counts up and d
 567:Drivers/STM32F0xx_HAL_Driver/Inc/stm32f0xx_ll_tim.h **** #define LL_TIM_COUNTERMODE_CENTER_UP_DOWN      TIM_CR1_CMS          /*!< The counter counts up and 
 568:Drivers/STM32F0xx_HAL_Driver/Inc/stm32f0xx_ll_tim.h **** /**
 569:Drivers/STM32F0xx_HAL_Driver/Inc/stm32f0xx_ll_tim.h ****   * @}
 570:Drivers/STM32F0xx_HAL_Driver/Inc/stm32f0xx_ll_tim.h ****   */
 571:Drivers/STM32F0xx_HAL_Driver/Inc/stm32f0xx_ll_tim.h **** 
 572:Drivers/STM32F0xx_HAL_Driver/Inc/stm32f0xx_ll_tim.h **** /** @defgroup TIM_LL_EC_CLOCKDIVISION Clock Division
 573:Drivers/STM32F0xx_HAL_Driver/Inc/stm32f0xx_ll_tim.h ****   * @{
 574:Drivers/STM32F0xx_HAL_Driver/Inc/stm32f0xx_ll_tim.h ****   */
 575:Drivers/STM32F0xx_HAL_Driver/Inc/stm32f0xx_ll_tim.h **** #define LL_TIM_CLOCKDIVISION_DIV1              0x00000000U          /*!< tDTS=tCK_INT */
 576:Drivers/STM32F0xx_HAL_Driver/Inc/stm32f0xx_ll_tim.h **** #define LL_TIM_CLOCKDIVISION_DIV2              TIM_CR1_CKD_0        /*!< tDTS=2*tCK_INT */
 577:Drivers/STM32F0xx_HAL_Driver/Inc/stm32f0xx_ll_tim.h **** #define LL_TIM_CLOCKDIVISION_DIV4              TIM_CR1_CKD_1        /*!< tDTS=4*tCK_INT */
 578:Drivers/STM32F0xx_HAL_Driver/Inc/stm32f0xx_ll_tim.h **** /**
 579:Drivers/STM32F0xx_HAL_Driver/Inc/stm32f0xx_ll_tim.h ****   * @}
 580:Drivers/STM32F0xx_HAL_Driver/Inc/stm32f0xx_ll_tim.h ****   */
 581:Drivers/STM32F0xx_HAL_Driver/Inc/stm32f0xx_ll_tim.h **** 
 582:Drivers/STM32F0xx_HAL_Driver/Inc/stm32f0xx_ll_tim.h **** /** @defgroup TIM_LL_EC_COUNTERDIRECTION Counter Direction
 583:Drivers/STM32F0xx_HAL_Driver/Inc/stm32f0xx_ll_tim.h ****   * @{
 584:Drivers/STM32F0xx_HAL_Driver/Inc/stm32f0xx_ll_tim.h ****   */
 585:Drivers/STM32F0xx_HAL_Driver/Inc/stm32f0xx_ll_tim.h **** #define LL_TIM_COUNTERDIRECTION_UP             0x00000000U          /*!< Timer counter counts up */
 586:Drivers/STM32F0xx_HAL_Driver/Inc/stm32f0xx_ll_tim.h **** #define LL_TIM_COUNTERDIRECTION_DOWN           TIM_CR1_DIR          /*!< Timer counter counts down 
 587:Drivers/STM32F0xx_HAL_Driver/Inc/stm32f0xx_ll_tim.h **** /**
 588:Drivers/STM32F0xx_HAL_Driver/Inc/stm32f0xx_ll_tim.h ****   * @}
 589:Drivers/STM32F0xx_HAL_Driver/Inc/stm32f0xx_ll_tim.h ****   */
 590:Drivers/STM32F0xx_HAL_Driver/Inc/stm32f0xx_ll_tim.h **** 
 591:Drivers/STM32F0xx_HAL_Driver/Inc/stm32f0xx_ll_tim.h **** /** @defgroup TIM_LL_EC_CCUPDATESOURCE Capture Compare  Update Source
 592:Drivers/STM32F0xx_HAL_Driver/Inc/stm32f0xx_ll_tim.h ****   * @{
 593:Drivers/STM32F0xx_HAL_Driver/Inc/stm32f0xx_ll_tim.h ****   */
 594:Drivers/STM32F0xx_HAL_Driver/Inc/stm32f0xx_ll_tim.h **** #define LL_TIM_CCUPDATESOURCE_COMG_ONLY        0x00000000U          /*!< Capture/compare control bi
 595:Drivers/STM32F0xx_HAL_Driver/Inc/stm32f0xx_ll_tim.h **** #define LL_TIM_CCUPDATESOURCE_COMG_AND_TRGI    TIM_CR2_CCUS         /*!< Capture/compare control bi
 596:Drivers/STM32F0xx_HAL_Driver/Inc/stm32f0xx_ll_tim.h **** /**
 597:Drivers/STM32F0xx_HAL_Driver/Inc/stm32f0xx_ll_tim.h ****   * @}
 598:Drivers/STM32F0xx_HAL_Driver/Inc/stm32f0xx_ll_tim.h ****   */
 599:Drivers/STM32F0xx_HAL_Driver/Inc/stm32f0xx_ll_tim.h **** 
 600:Drivers/STM32F0xx_HAL_Driver/Inc/stm32f0xx_ll_tim.h **** /** @defgroup TIM_LL_EC_CCDMAREQUEST Capture Compare DMA Request
 601:Drivers/STM32F0xx_HAL_Driver/Inc/stm32f0xx_ll_tim.h ****   * @{
 602:Drivers/STM32F0xx_HAL_Driver/Inc/stm32f0xx_ll_tim.h ****   */
 603:Drivers/STM32F0xx_HAL_Driver/Inc/stm32f0xx_ll_tim.h **** #define LL_TIM_CCDMAREQUEST_CC                 0x00000000U          /*!< CCx DMA request sent when 
 604:Drivers/STM32F0xx_HAL_Driver/Inc/stm32f0xx_ll_tim.h **** #define LL_TIM_CCDMAREQUEST_UPDATE             TIM_CR2_CCDS         /*!< CCx DMA requests sent when
 605:Drivers/STM32F0xx_HAL_Driver/Inc/stm32f0xx_ll_tim.h **** /**
 606:Drivers/STM32F0xx_HAL_Driver/Inc/stm32f0xx_ll_tim.h ****   * @}
ARM GAS  C:\Users\ADMINI~1\AppData\Local\Temp\cc3oB4jI.s 			page 28


 607:Drivers/STM32F0xx_HAL_Driver/Inc/stm32f0xx_ll_tim.h ****   */
 608:Drivers/STM32F0xx_HAL_Driver/Inc/stm32f0xx_ll_tim.h **** 
 609:Drivers/STM32F0xx_HAL_Driver/Inc/stm32f0xx_ll_tim.h **** /** @defgroup TIM_LL_EC_LOCKLEVEL Lock Level
 610:Drivers/STM32F0xx_HAL_Driver/Inc/stm32f0xx_ll_tim.h ****   * @{
 611:Drivers/STM32F0xx_HAL_Driver/Inc/stm32f0xx_ll_tim.h ****   */
 612:Drivers/STM32F0xx_HAL_Driver/Inc/stm32f0xx_ll_tim.h **** #define LL_TIM_LOCKLEVEL_OFF                   0x00000000U          /*!< LOCK OFF - No bit is write
 613:Drivers/STM32F0xx_HAL_Driver/Inc/stm32f0xx_ll_tim.h **** #define LL_TIM_LOCKLEVEL_1                     TIM_BDTR_LOCK_0      /*!< LOCK Level 1 */
 614:Drivers/STM32F0xx_HAL_Driver/Inc/stm32f0xx_ll_tim.h **** #define LL_TIM_LOCKLEVEL_2                     TIM_BDTR_LOCK_1      /*!< LOCK Level 2 */
 615:Drivers/STM32F0xx_HAL_Driver/Inc/stm32f0xx_ll_tim.h **** #define LL_TIM_LOCKLEVEL_3                     TIM_BDTR_LOCK        /*!< LOCK Level 3 */
 616:Drivers/STM32F0xx_HAL_Driver/Inc/stm32f0xx_ll_tim.h **** /**
 617:Drivers/STM32F0xx_HAL_Driver/Inc/stm32f0xx_ll_tim.h ****   * @}
 618:Drivers/STM32F0xx_HAL_Driver/Inc/stm32f0xx_ll_tim.h ****   */
 619:Drivers/STM32F0xx_HAL_Driver/Inc/stm32f0xx_ll_tim.h **** 
 620:Drivers/STM32F0xx_HAL_Driver/Inc/stm32f0xx_ll_tim.h **** /** @defgroup TIM_LL_EC_CHANNEL Channel
 621:Drivers/STM32F0xx_HAL_Driver/Inc/stm32f0xx_ll_tim.h ****   * @{
 622:Drivers/STM32F0xx_HAL_Driver/Inc/stm32f0xx_ll_tim.h ****   */
 623:Drivers/STM32F0xx_HAL_Driver/Inc/stm32f0xx_ll_tim.h **** #define LL_TIM_CHANNEL_CH1                     TIM_CCER_CC1E     /*!< Timer input/output channel 1 
 624:Drivers/STM32F0xx_HAL_Driver/Inc/stm32f0xx_ll_tim.h **** #define LL_TIM_CHANNEL_CH1N                    TIM_CCER_CC1NE    /*!< Timer complementary output ch
 625:Drivers/STM32F0xx_HAL_Driver/Inc/stm32f0xx_ll_tim.h **** #define LL_TIM_CHANNEL_CH2                     TIM_CCER_CC2E     /*!< Timer input/output channel 2 
 626:Drivers/STM32F0xx_HAL_Driver/Inc/stm32f0xx_ll_tim.h **** #define LL_TIM_CHANNEL_CH2N                    TIM_CCER_CC2NE    /*!< Timer complementary output ch
 627:Drivers/STM32F0xx_HAL_Driver/Inc/stm32f0xx_ll_tim.h **** #define LL_TIM_CHANNEL_CH3                     TIM_CCER_CC3E     /*!< Timer input/output channel 3 
 628:Drivers/STM32F0xx_HAL_Driver/Inc/stm32f0xx_ll_tim.h **** #define LL_TIM_CHANNEL_CH3N                    TIM_CCER_CC3NE    /*!< Timer complementary output ch
 629:Drivers/STM32F0xx_HAL_Driver/Inc/stm32f0xx_ll_tim.h **** #define LL_TIM_CHANNEL_CH4                     TIM_CCER_CC4E     /*!< Timer input/output channel 4 
 630:Drivers/STM32F0xx_HAL_Driver/Inc/stm32f0xx_ll_tim.h **** /**
 631:Drivers/STM32F0xx_HAL_Driver/Inc/stm32f0xx_ll_tim.h ****   * @}
 632:Drivers/STM32F0xx_HAL_Driver/Inc/stm32f0xx_ll_tim.h ****   */
 633:Drivers/STM32F0xx_HAL_Driver/Inc/stm32f0xx_ll_tim.h **** 
 634:Drivers/STM32F0xx_HAL_Driver/Inc/stm32f0xx_ll_tim.h **** #if defined(USE_FULL_LL_DRIVER)
 635:Drivers/STM32F0xx_HAL_Driver/Inc/stm32f0xx_ll_tim.h **** /** @defgroup TIM_LL_EC_OCSTATE Output Configuration State
 636:Drivers/STM32F0xx_HAL_Driver/Inc/stm32f0xx_ll_tim.h ****   * @{
 637:Drivers/STM32F0xx_HAL_Driver/Inc/stm32f0xx_ll_tim.h ****   */
 638:Drivers/STM32F0xx_HAL_Driver/Inc/stm32f0xx_ll_tim.h **** #define LL_TIM_OCSTATE_DISABLE                 0x00000000U             /*!< OCx is not active */
 639:Drivers/STM32F0xx_HAL_Driver/Inc/stm32f0xx_ll_tim.h **** #define LL_TIM_OCSTATE_ENABLE                  TIM_CCER_CC1E           /*!< OCx signal is output on
 640:Drivers/STM32F0xx_HAL_Driver/Inc/stm32f0xx_ll_tim.h **** /**
 641:Drivers/STM32F0xx_HAL_Driver/Inc/stm32f0xx_ll_tim.h ****   * @}
 642:Drivers/STM32F0xx_HAL_Driver/Inc/stm32f0xx_ll_tim.h ****   */
 643:Drivers/STM32F0xx_HAL_Driver/Inc/stm32f0xx_ll_tim.h **** #endif /* USE_FULL_LL_DRIVER */
 644:Drivers/STM32F0xx_HAL_Driver/Inc/stm32f0xx_ll_tim.h **** 
 645:Drivers/STM32F0xx_HAL_Driver/Inc/stm32f0xx_ll_tim.h **** /** @defgroup TIM_LL_EC_OCMODE Output Configuration Mode
 646:Drivers/STM32F0xx_HAL_Driver/Inc/stm32f0xx_ll_tim.h ****   * @{
 647:Drivers/STM32F0xx_HAL_Driver/Inc/stm32f0xx_ll_tim.h ****   */
 648:Drivers/STM32F0xx_HAL_Driver/Inc/stm32f0xx_ll_tim.h **** #define LL_TIM_OCMODE_FROZEN                   0x00000000U                                         
 649:Drivers/STM32F0xx_HAL_Driver/Inc/stm32f0xx_ll_tim.h **** #define LL_TIM_OCMODE_ACTIVE                   TIM_CCMR1_OC1M_0                                    
 650:Drivers/STM32F0xx_HAL_Driver/Inc/stm32f0xx_ll_tim.h **** #define LL_TIM_OCMODE_INACTIVE                 TIM_CCMR1_OC1M_1                                    
 651:Drivers/STM32F0xx_HAL_Driver/Inc/stm32f0xx_ll_tim.h **** #define LL_TIM_OCMODE_TOGGLE                   (TIM_CCMR1_OC1M_1 | TIM_CCMR1_OC1M_0)               
 652:Drivers/STM32F0xx_HAL_Driver/Inc/stm32f0xx_ll_tim.h **** #define LL_TIM_OCMODE_FORCED_INACTIVE          TIM_CCMR1_OC1M_2                                    
 653:Drivers/STM32F0xx_HAL_Driver/Inc/stm32f0xx_ll_tim.h **** #define LL_TIM_OCMODE_FORCED_ACTIVE            (TIM_CCMR1_OC1M_2 | TIM_CCMR1_OC1M_0)               
 654:Drivers/STM32F0xx_HAL_Driver/Inc/stm32f0xx_ll_tim.h **** #define LL_TIM_OCMODE_PWM1                     (TIM_CCMR1_OC1M_2 | TIM_CCMR1_OC1M_1)               
 655:Drivers/STM32F0xx_HAL_Driver/Inc/stm32f0xx_ll_tim.h **** #define LL_TIM_OCMODE_PWM2                     (TIM_CCMR1_OC1M_2 | TIM_CCMR1_OC1M_1 | TIM_CCMR1_OC1
 656:Drivers/STM32F0xx_HAL_Driver/Inc/stm32f0xx_ll_tim.h **** /**
 657:Drivers/STM32F0xx_HAL_Driver/Inc/stm32f0xx_ll_tim.h ****   * @}
 658:Drivers/STM32F0xx_HAL_Driver/Inc/stm32f0xx_ll_tim.h ****   */
 659:Drivers/STM32F0xx_HAL_Driver/Inc/stm32f0xx_ll_tim.h **** 
 660:Drivers/STM32F0xx_HAL_Driver/Inc/stm32f0xx_ll_tim.h **** /** @defgroup TIM_LL_EC_OCPOLARITY Output Configuration Polarity
 661:Drivers/STM32F0xx_HAL_Driver/Inc/stm32f0xx_ll_tim.h ****   * @{
 662:Drivers/STM32F0xx_HAL_Driver/Inc/stm32f0xx_ll_tim.h ****   */
 663:Drivers/STM32F0xx_HAL_Driver/Inc/stm32f0xx_ll_tim.h **** #define LL_TIM_OCPOLARITY_HIGH                 0x00000000U                 /*!< OCxactive high*/
ARM GAS  C:\Users\ADMINI~1\AppData\Local\Temp\cc3oB4jI.s 			page 29


 664:Drivers/STM32F0xx_HAL_Driver/Inc/stm32f0xx_ll_tim.h **** #define LL_TIM_OCPOLARITY_LOW                  TIM_CCER_CC1P               /*!< OCxactive low*/
 665:Drivers/STM32F0xx_HAL_Driver/Inc/stm32f0xx_ll_tim.h **** /**
 666:Drivers/STM32F0xx_HAL_Driver/Inc/stm32f0xx_ll_tim.h ****   * @}
 667:Drivers/STM32F0xx_HAL_Driver/Inc/stm32f0xx_ll_tim.h ****   */
 668:Drivers/STM32F0xx_HAL_Driver/Inc/stm32f0xx_ll_tim.h **** 
 669:Drivers/STM32F0xx_HAL_Driver/Inc/stm32f0xx_ll_tim.h **** /** @defgroup TIM_LL_EC_OCIDLESTATE Output Configuration Idle State
 670:Drivers/STM32F0xx_HAL_Driver/Inc/stm32f0xx_ll_tim.h ****   * @{
 671:Drivers/STM32F0xx_HAL_Driver/Inc/stm32f0xx_ll_tim.h ****   */
 672:Drivers/STM32F0xx_HAL_Driver/Inc/stm32f0xx_ll_tim.h **** #define LL_TIM_OCIDLESTATE_LOW                 0x00000000U             /*!<OCx=0 (after a dead-time
 673:Drivers/STM32F0xx_HAL_Driver/Inc/stm32f0xx_ll_tim.h **** #define LL_TIM_OCIDLESTATE_HIGH                TIM_CR2_OIS1            /*!<OCx=1 (after a dead-time
 674:Drivers/STM32F0xx_HAL_Driver/Inc/stm32f0xx_ll_tim.h **** /**
 675:Drivers/STM32F0xx_HAL_Driver/Inc/stm32f0xx_ll_tim.h ****   * @}
 676:Drivers/STM32F0xx_HAL_Driver/Inc/stm32f0xx_ll_tim.h ****   */
 677:Drivers/STM32F0xx_HAL_Driver/Inc/stm32f0xx_ll_tim.h **** 
 678:Drivers/STM32F0xx_HAL_Driver/Inc/stm32f0xx_ll_tim.h **** 
 679:Drivers/STM32F0xx_HAL_Driver/Inc/stm32f0xx_ll_tim.h **** /** @defgroup TIM_LL_EC_ACTIVEINPUT Active Input Selection
 680:Drivers/STM32F0xx_HAL_Driver/Inc/stm32f0xx_ll_tim.h ****   * @{
 681:Drivers/STM32F0xx_HAL_Driver/Inc/stm32f0xx_ll_tim.h ****   */
 682:Drivers/STM32F0xx_HAL_Driver/Inc/stm32f0xx_ll_tim.h **** #define LL_TIM_ACTIVEINPUT_DIRECTTI            (TIM_CCMR1_CC1S_0 << 16U) /*!< ICx is mapped on TIx 
 683:Drivers/STM32F0xx_HAL_Driver/Inc/stm32f0xx_ll_tim.h **** #define LL_TIM_ACTIVEINPUT_INDIRECTTI          (TIM_CCMR1_CC1S_1 << 16U) /*!< ICx is mapped on TIy 
 684:Drivers/STM32F0xx_HAL_Driver/Inc/stm32f0xx_ll_tim.h **** #define LL_TIM_ACTIVEINPUT_TRC                 (TIM_CCMR1_CC1S << 16U)   /*!< ICx is mapped on TRC 
 685:Drivers/STM32F0xx_HAL_Driver/Inc/stm32f0xx_ll_tim.h **** /**
 686:Drivers/STM32F0xx_HAL_Driver/Inc/stm32f0xx_ll_tim.h ****   * @}
 687:Drivers/STM32F0xx_HAL_Driver/Inc/stm32f0xx_ll_tim.h ****   */
 688:Drivers/STM32F0xx_HAL_Driver/Inc/stm32f0xx_ll_tim.h **** 
 689:Drivers/STM32F0xx_HAL_Driver/Inc/stm32f0xx_ll_tim.h **** /** @defgroup TIM_LL_EC_ICPSC Input Configuration Prescaler
 690:Drivers/STM32F0xx_HAL_Driver/Inc/stm32f0xx_ll_tim.h ****   * @{
 691:Drivers/STM32F0xx_HAL_Driver/Inc/stm32f0xx_ll_tim.h ****   */
 692:Drivers/STM32F0xx_HAL_Driver/Inc/stm32f0xx_ll_tim.h **** #define LL_TIM_ICPSC_DIV1                      0x00000000U                    /*!< No prescaler, ca
 693:Drivers/STM32F0xx_HAL_Driver/Inc/stm32f0xx_ll_tim.h **** #define LL_TIM_ICPSC_DIV2                      (TIM_CCMR1_IC1PSC_0 << 16U)    /*!< Capture is done 
 694:Drivers/STM32F0xx_HAL_Driver/Inc/stm32f0xx_ll_tim.h **** #define LL_TIM_ICPSC_DIV4                      (TIM_CCMR1_IC1PSC_1 << 16U)    /*!< Capture is done 
 695:Drivers/STM32F0xx_HAL_Driver/Inc/stm32f0xx_ll_tim.h **** #define LL_TIM_ICPSC_DIV8                      (TIM_CCMR1_IC1PSC << 16U)      /*!< Capture is done 
 696:Drivers/STM32F0xx_HAL_Driver/Inc/stm32f0xx_ll_tim.h **** /**
 697:Drivers/STM32F0xx_HAL_Driver/Inc/stm32f0xx_ll_tim.h ****   * @}
 698:Drivers/STM32F0xx_HAL_Driver/Inc/stm32f0xx_ll_tim.h ****   */
 699:Drivers/STM32F0xx_HAL_Driver/Inc/stm32f0xx_ll_tim.h **** 
 700:Drivers/STM32F0xx_HAL_Driver/Inc/stm32f0xx_ll_tim.h **** /** @defgroup TIM_LL_EC_IC_FILTER Input Configuration Filter
 701:Drivers/STM32F0xx_HAL_Driver/Inc/stm32f0xx_ll_tim.h ****   * @{
 702:Drivers/STM32F0xx_HAL_Driver/Inc/stm32f0xx_ll_tim.h ****   */
 703:Drivers/STM32F0xx_HAL_Driver/Inc/stm32f0xx_ll_tim.h **** #define LL_TIM_IC_FILTER_FDIV1                 0x00000000U                                         
 704:Drivers/STM32F0xx_HAL_Driver/Inc/stm32f0xx_ll_tim.h **** #define LL_TIM_IC_FILTER_FDIV1_N2              (TIM_CCMR1_IC1F_0 << 16U)                           
 705:Drivers/STM32F0xx_HAL_Driver/Inc/stm32f0xx_ll_tim.h **** #define LL_TIM_IC_FILTER_FDIV1_N4              (TIM_CCMR1_IC1F_1 << 16U)                           
 706:Drivers/STM32F0xx_HAL_Driver/Inc/stm32f0xx_ll_tim.h **** #define LL_TIM_IC_FILTER_FDIV1_N8              ((TIM_CCMR1_IC1F_1 | TIM_CCMR1_IC1F_0) << 16U)      
 707:Drivers/STM32F0xx_HAL_Driver/Inc/stm32f0xx_ll_tim.h **** #define LL_TIM_IC_FILTER_FDIV2_N6              (TIM_CCMR1_IC1F_2 << 16U)                           
 708:Drivers/STM32F0xx_HAL_Driver/Inc/stm32f0xx_ll_tim.h **** #define LL_TIM_IC_FILTER_FDIV2_N8              ((TIM_CCMR1_IC1F_2 | TIM_CCMR1_IC1F_0) << 16U)      
 709:Drivers/STM32F0xx_HAL_Driver/Inc/stm32f0xx_ll_tim.h **** #define LL_TIM_IC_FILTER_FDIV4_N6              ((TIM_CCMR1_IC1F_2 | TIM_CCMR1_IC1F_1) << 16U)      
 710:Drivers/STM32F0xx_HAL_Driver/Inc/stm32f0xx_ll_tim.h **** #define LL_TIM_IC_FILTER_FDIV4_N8              ((TIM_CCMR1_IC1F_2 | TIM_CCMR1_IC1F_1 | TIM_CCMR1_IC
 711:Drivers/STM32F0xx_HAL_Driver/Inc/stm32f0xx_ll_tim.h **** #define LL_TIM_IC_FILTER_FDIV8_N6              (TIM_CCMR1_IC1F_3 << 16U)                           
 712:Drivers/STM32F0xx_HAL_Driver/Inc/stm32f0xx_ll_tim.h **** #define LL_TIM_IC_FILTER_FDIV8_N8              ((TIM_CCMR1_IC1F_3 | TIM_CCMR1_IC1F_0) << 16U)      
 713:Drivers/STM32F0xx_HAL_Driver/Inc/stm32f0xx_ll_tim.h **** #define LL_TIM_IC_FILTER_FDIV16_N5             ((TIM_CCMR1_IC1F_3 | TIM_CCMR1_IC1F_1) << 16U)      
 714:Drivers/STM32F0xx_HAL_Driver/Inc/stm32f0xx_ll_tim.h **** #define LL_TIM_IC_FILTER_FDIV16_N6             ((TIM_CCMR1_IC1F_3 | TIM_CCMR1_IC1F_1 | TIM_CCMR1_IC
 715:Drivers/STM32F0xx_HAL_Driver/Inc/stm32f0xx_ll_tim.h **** #define LL_TIM_IC_FILTER_FDIV16_N8             ((TIM_CCMR1_IC1F_3 | TIM_CCMR1_IC1F_2) << 16U)      
 716:Drivers/STM32F0xx_HAL_Driver/Inc/stm32f0xx_ll_tim.h **** #define LL_TIM_IC_FILTER_FDIV32_N5             ((TIM_CCMR1_IC1F_3 | TIM_CCMR1_IC1F_2 | TIM_CCMR1_IC
 717:Drivers/STM32F0xx_HAL_Driver/Inc/stm32f0xx_ll_tim.h **** #define LL_TIM_IC_FILTER_FDIV32_N6             ((TIM_CCMR1_IC1F_3 | TIM_CCMR1_IC1F_2 | TIM_CCMR1_IC
 718:Drivers/STM32F0xx_HAL_Driver/Inc/stm32f0xx_ll_tim.h **** #define LL_TIM_IC_FILTER_FDIV32_N8             (TIM_CCMR1_IC1F << 16U)                             
 719:Drivers/STM32F0xx_HAL_Driver/Inc/stm32f0xx_ll_tim.h **** /**
 720:Drivers/STM32F0xx_HAL_Driver/Inc/stm32f0xx_ll_tim.h ****   * @}
ARM GAS  C:\Users\ADMINI~1\AppData\Local\Temp\cc3oB4jI.s 			page 30


 721:Drivers/STM32F0xx_HAL_Driver/Inc/stm32f0xx_ll_tim.h ****   */
 722:Drivers/STM32F0xx_HAL_Driver/Inc/stm32f0xx_ll_tim.h **** 
 723:Drivers/STM32F0xx_HAL_Driver/Inc/stm32f0xx_ll_tim.h **** /** @defgroup TIM_LL_EC_IC_POLARITY Input Configuration Polarity
 724:Drivers/STM32F0xx_HAL_Driver/Inc/stm32f0xx_ll_tim.h ****   * @{
 725:Drivers/STM32F0xx_HAL_Driver/Inc/stm32f0xx_ll_tim.h ****   */
 726:Drivers/STM32F0xx_HAL_Driver/Inc/stm32f0xx_ll_tim.h **** #define LL_TIM_IC_POLARITY_RISING              0x00000000U                      /*!< The circuit is
 727:Drivers/STM32F0xx_HAL_Driver/Inc/stm32f0xx_ll_tim.h **** #define LL_TIM_IC_POLARITY_FALLING             TIM_CCER_CC1P                    /*!< The circuit is
 728:Drivers/STM32F0xx_HAL_Driver/Inc/stm32f0xx_ll_tim.h **** #define LL_TIM_IC_POLARITY_BOTHEDGE            (TIM_CCER_CC1P | TIM_CCER_CC1NP) /*!< The circuit is
 729:Drivers/STM32F0xx_HAL_Driver/Inc/stm32f0xx_ll_tim.h **** /**
 730:Drivers/STM32F0xx_HAL_Driver/Inc/stm32f0xx_ll_tim.h ****   * @}
 731:Drivers/STM32F0xx_HAL_Driver/Inc/stm32f0xx_ll_tim.h ****   */
 732:Drivers/STM32F0xx_HAL_Driver/Inc/stm32f0xx_ll_tim.h **** 
 733:Drivers/STM32F0xx_HAL_Driver/Inc/stm32f0xx_ll_tim.h **** /** @defgroup TIM_LL_EC_CLOCKSOURCE Clock Source
 734:Drivers/STM32F0xx_HAL_Driver/Inc/stm32f0xx_ll_tim.h ****   * @{
 735:Drivers/STM32F0xx_HAL_Driver/Inc/stm32f0xx_ll_tim.h ****   */
 736:Drivers/STM32F0xx_HAL_Driver/Inc/stm32f0xx_ll_tim.h **** #define LL_TIM_CLOCKSOURCE_INTERNAL            0x00000000U                                         
 737:Drivers/STM32F0xx_HAL_Driver/Inc/stm32f0xx_ll_tim.h **** #define LL_TIM_CLOCKSOURCE_EXT_MODE1           (TIM_SMCR_SMS_2 | TIM_SMCR_SMS_1 | TIM_SMCR_SMS_0)  
 738:Drivers/STM32F0xx_HAL_Driver/Inc/stm32f0xx_ll_tim.h **** #define LL_TIM_CLOCKSOURCE_EXT_MODE2           TIM_SMCR_ECE                                        
 739:Drivers/STM32F0xx_HAL_Driver/Inc/stm32f0xx_ll_tim.h **** /**
 740:Drivers/STM32F0xx_HAL_Driver/Inc/stm32f0xx_ll_tim.h ****   * @}
 741:Drivers/STM32F0xx_HAL_Driver/Inc/stm32f0xx_ll_tim.h ****   */
 742:Drivers/STM32F0xx_HAL_Driver/Inc/stm32f0xx_ll_tim.h **** 
 743:Drivers/STM32F0xx_HAL_Driver/Inc/stm32f0xx_ll_tim.h **** /** @defgroup TIM_LL_EC_ENCODERMODE Encoder Mode
 744:Drivers/STM32F0xx_HAL_Driver/Inc/stm32f0xx_ll_tim.h ****   * @{
 745:Drivers/STM32F0xx_HAL_Driver/Inc/stm32f0xx_ll_tim.h ****   */
 746:Drivers/STM32F0xx_HAL_Driver/Inc/stm32f0xx_ll_tim.h **** #define LL_TIM_ENCODERMODE_X2_TI1                     TIM_SMCR_SMS_0                               
 747:Drivers/STM32F0xx_HAL_Driver/Inc/stm32f0xx_ll_tim.h **** #define LL_TIM_ENCODERMODE_X2_TI2                     TIM_SMCR_SMS_1                               
 748:Drivers/STM32F0xx_HAL_Driver/Inc/stm32f0xx_ll_tim.h **** #define LL_TIM_ENCODERMODE_X4_TI12                   (TIM_SMCR_SMS_1 | TIM_SMCR_SMS_0)             
 749:Drivers/STM32F0xx_HAL_Driver/Inc/stm32f0xx_ll_tim.h **** /**
 750:Drivers/STM32F0xx_HAL_Driver/Inc/stm32f0xx_ll_tim.h ****   * @}
 751:Drivers/STM32F0xx_HAL_Driver/Inc/stm32f0xx_ll_tim.h ****   */
 752:Drivers/STM32F0xx_HAL_Driver/Inc/stm32f0xx_ll_tim.h **** 
 753:Drivers/STM32F0xx_HAL_Driver/Inc/stm32f0xx_ll_tim.h **** /** @defgroup TIM_LL_EC_TRGO Trigger Output
 754:Drivers/STM32F0xx_HAL_Driver/Inc/stm32f0xx_ll_tim.h ****   * @{
 755:Drivers/STM32F0xx_HAL_Driver/Inc/stm32f0xx_ll_tim.h ****   */
 756:Drivers/STM32F0xx_HAL_Driver/Inc/stm32f0xx_ll_tim.h **** #define LL_TIM_TRGO_RESET                      0x00000000U                                     /*!<
 757:Drivers/STM32F0xx_HAL_Driver/Inc/stm32f0xx_ll_tim.h **** #define LL_TIM_TRGO_ENABLE                     TIM_CR2_MMS_0                                   /*!<
 758:Drivers/STM32F0xx_HAL_Driver/Inc/stm32f0xx_ll_tim.h **** #define LL_TIM_TRGO_UPDATE                     TIM_CR2_MMS_1                                   /*!<
 759:Drivers/STM32F0xx_HAL_Driver/Inc/stm32f0xx_ll_tim.h **** #define LL_TIM_TRGO_CC1IF                      (TIM_CR2_MMS_1 | TIM_CR2_MMS_0)                 /*!<
 760:Drivers/STM32F0xx_HAL_Driver/Inc/stm32f0xx_ll_tim.h **** #define LL_TIM_TRGO_OC1REF                     TIM_CR2_MMS_2                                   /*!<
 761:Drivers/STM32F0xx_HAL_Driver/Inc/stm32f0xx_ll_tim.h **** #define LL_TIM_TRGO_OC2REF                     (TIM_CR2_MMS_2 | TIM_CR2_MMS_0)                 /*!<
 762:Drivers/STM32F0xx_HAL_Driver/Inc/stm32f0xx_ll_tim.h **** #define LL_TIM_TRGO_OC3REF                     (TIM_CR2_MMS_2 | TIM_CR2_MMS_1)                 /*!<
 763:Drivers/STM32F0xx_HAL_Driver/Inc/stm32f0xx_ll_tim.h **** #define LL_TIM_TRGO_OC4REF                     (TIM_CR2_MMS_2 | TIM_CR2_MMS_1 | TIM_CR2_MMS_0) /*!<
 764:Drivers/STM32F0xx_HAL_Driver/Inc/stm32f0xx_ll_tim.h **** /**
 765:Drivers/STM32F0xx_HAL_Driver/Inc/stm32f0xx_ll_tim.h ****   * @}
 766:Drivers/STM32F0xx_HAL_Driver/Inc/stm32f0xx_ll_tim.h ****   */
 767:Drivers/STM32F0xx_HAL_Driver/Inc/stm32f0xx_ll_tim.h **** 
 768:Drivers/STM32F0xx_HAL_Driver/Inc/stm32f0xx_ll_tim.h **** 
 769:Drivers/STM32F0xx_HAL_Driver/Inc/stm32f0xx_ll_tim.h **** /** @defgroup TIM_LL_EC_SLAVEMODE Slave Mode
 770:Drivers/STM32F0xx_HAL_Driver/Inc/stm32f0xx_ll_tim.h ****   * @{
 771:Drivers/STM32F0xx_HAL_Driver/Inc/stm32f0xx_ll_tim.h ****   */
 772:Drivers/STM32F0xx_HAL_Driver/Inc/stm32f0xx_ll_tim.h **** #define LL_TIM_SLAVEMODE_DISABLED              0x00000000U                         /*!< Slave mode 
 773:Drivers/STM32F0xx_HAL_Driver/Inc/stm32f0xx_ll_tim.h **** #define LL_TIM_SLAVEMODE_RESET                 TIM_SMCR_SMS_2                      /*!< Reset Mode 
 774:Drivers/STM32F0xx_HAL_Driver/Inc/stm32f0xx_ll_tim.h **** #define LL_TIM_SLAVEMODE_GATED                 (TIM_SMCR_SMS_2 | TIM_SMCR_SMS_0)   /*!< Gated Mode 
 775:Drivers/STM32F0xx_HAL_Driver/Inc/stm32f0xx_ll_tim.h **** #define LL_TIM_SLAVEMODE_TRIGGER               (TIM_SMCR_SMS_2 | TIM_SMCR_SMS_1)   /*!< Trigger Mod
 776:Drivers/STM32F0xx_HAL_Driver/Inc/stm32f0xx_ll_tim.h **** /**
 777:Drivers/STM32F0xx_HAL_Driver/Inc/stm32f0xx_ll_tim.h ****   * @}
ARM GAS  C:\Users\ADMINI~1\AppData\Local\Temp\cc3oB4jI.s 			page 31


 778:Drivers/STM32F0xx_HAL_Driver/Inc/stm32f0xx_ll_tim.h ****   */
 779:Drivers/STM32F0xx_HAL_Driver/Inc/stm32f0xx_ll_tim.h **** 
 780:Drivers/STM32F0xx_HAL_Driver/Inc/stm32f0xx_ll_tim.h **** /** @defgroup TIM_LL_EC_TS Trigger Selection
 781:Drivers/STM32F0xx_HAL_Driver/Inc/stm32f0xx_ll_tim.h ****   * @{
 782:Drivers/STM32F0xx_HAL_Driver/Inc/stm32f0xx_ll_tim.h ****   */
 783:Drivers/STM32F0xx_HAL_Driver/Inc/stm32f0xx_ll_tim.h **** #define LL_TIM_TS_ITR0                         0x00000000U                                         
 784:Drivers/STM32F0xx_HAL_Driver/Inc/stm32f0xx_ll_tim.h **** #define LL_TIM_TS_ITR1                         TIM_SMCR_TS_0                                       
 785:Drivers/STM32F0xx_HAL_Driver/Inc/stm32f0xx_ll_tim.h **** #define LL_TIM_TS_ITR2                         TIM_SMCR_TS_1                                       
 786:Drivers/STM32F0xx_HAL_Driver/Inc/stm32f0xx_ll_tim.h **** #define LL_TIM_TS_ITR3                         (TIM_SMCR_TS_0 | TIM_SMCR_TS_1)                     
 787:Drivers/STM32F0xx_HAL_Driver/Inc/stm32f0xx_ll_tim.h **** #define LL_TIM_TS_TI1F_ED                      TIM_SMCR_TS_2                                       
 788:Drivers/STM32F0xx_HAL_Driver/Inc/stm32f0xx_ll_tim.h **** #define LL_TIM_TS_TI1FP1                       (TIM_SMCR_TS_2 | TIM_SMCR_TS_0)                     
 789:Drivers/STM32F0xx_HAL_Driver/Inc/stm32f0xx_ll_tim.h **** #define LL_TIM_TS_TI2FP2                       (TIM_SMCR_TS_2 | TIM_SMCR_TS_1)                     
 790:Drivers/STM32F0xx_HAL_Driver/Inc/stm32f0xx_ll_tim.h **** #define LL_TIM_TS_ETRF                         (TIM_SMCR_TS_2 | TIM_SMCR_TS_1 | TIM_SMCR_TS_0)     
 791:Drivers/STM32F0xx_HAL_Driver/Inc/stm32f0xx_ll_tim.h **** /**
 792:Drivers/STM32F0xx_HAL_Driver/Inc/stm32f0xx_ll_tim.h ****   * @}
 793:Drivers/STM32F0xx_HAL_Driver/Inc/stm32f0xx_ll_tim.h ****   */
 794:Drivers/STM32F0xx_HAL_Driver/Inc/stm32f0xx_ll_tim.h **** 
 795:Drivers/STM32F0xx_HAL_Driver/Inc/stm32f0xx_ll_tim.h **** /** @defgroup TIM_LL_EC_ETR_POLARITY External Trigger Polarity
 796:Drivers/STM32F0xx_HAL_Driver/Inc/stm32f0xx_ll_tim.h ****   * @{
 797:Drivers/STM32F0xx_HAL_Driver/Inc/stm32f0xx_ll_tim.h ****   */
 798:Drivers/STM32F0xx_HAL_Driver/Inc/stm32f0xx_ll_tim.h **** #define LL_TIM_ETR_POLARITY_NONINVERTED        0x00000000U             /*!< ETR is non-inverted, ac
 799:Drivers/STM32F0xx_HAL_Driver/Inc/stm32f0xx_ll_tim.h **** #define LL_TIM_ETR_POLARITY_INVERTED           TIM_SMCR_ETP            /*!< ETR is inverted, active
 800:Drivers/STM32F0xx_HAL_Driver/Inc/stm32f0xx_ll_tim.h **** /**
 801:Drivers/STM32F0xx_HAL_Driver/Inc/stm32f0xx_ll_tim.h ****   * @}
 802:Drivers/STM32F0xx_HAL_Driver/Inc/stm32f0xx_ll_tim.h ****   */
 803:Drivers/STM32F0xx_HAL_Driver/Inc/stm32f0xx_ll_tim.h **** 
 804:Drivers/STM32F0xx_HAL_Driver/Inc/stm32f0xx_ll_tim.h **** /** @defgroup TIM_LL_EC_ETR_PRESCALER External Trigger Prescaler
 805:Drivers/STM32F0xx_HAL_Driver/Inc/stm32f0xx_ll_tim.h ****   * @{
 806:Drivers/STM32F0xx_HAL_Driver/Inc/stm32f0xx_ll_tim.h ****   */
 807:Drivers/STM32F0xx_HAL_Driver/Inc/stm32f0xx_ll_tim.h **** #define LL_TIM_ETR_PRESCALER_DIV1              0x00000000U             /*!< ETR prescaler OFF */
 808:Drivers/STM32F0xx_HAL_Driver/Inc/stm32f0xx_ll_tim.h **** #define LL_TIM_ETR_PRESCALER_DIV2              TIM_SMCR_ETPS_0         /*!< ETR frequency is divide
 809:Drivers/STM32F0xx_HAL_Driver/Inc/stm32f0xx_ll_tim.h **** #define LL_TIM_ETR_PRESCALER_DIV4              TIM_SMCR_ETPS_1         /*!< ETR frequency is divide
 810:Drivers/STM32F0xx_HAL_Driver/Inc/stm32f0xx_ll_tim.h **** #define LL_TIM_ETR_PRESCALER_DIV8              TIM_SMCR_ETPS           /*!< ETR frequency is divide
 811:Drivers/STM32F0xx_HAL_Driver/Inc/stm32f0xx_ll_tim.h **** /**
 812:Drivers/STM32F0xx_HAL_Driver/Inc/stm32f0xx_ll_tim.h ****   * @}
 813:Drivers/STM32F0xx_HAL_Driver/Inc/stm32f0xx_ll_tim.h ****   */
 814:Drivers/STM32F0xx_HAL_Driver/Inc/stm32f0xx_ll_tim.h **** 
 815:Drivers/STM32F0xx_HAL_Driver/Inc/stm32f0xx_ll_tim.h **** /** @defgroup TIM_LL_EC_ETR_FILTER External Trigger Filter
 816:Drivers/STM32F0xx_HAL_Driver/Inc/stm32f0xx_ll_tim.h ****   * @{
 817:Drivers/STM32F0xx_HAL_Driver/Inc/stm32f0xx_ll_tim.h ****   */
 818:Drivers/STM32F0xx_HAL_Driver/Inc/stm32f0xx_ll_tim.h **** #define LL_TIM_ETR_FILTER_FDIV1                0x00000000U                                         
 819:Drivers/STM32F0xx_HAL_Driver/Inc/stm32f0xx_ll_tim.h **** #define LL_TIM_ETR_FILTER_FDIV1_N2             TIM_SMCR_ETF_0                                      
 820:Drivers/STM32F0xx_HAL_Driver/Inc/stm32f0xx_ll_tim.h **** #define LL_TIM_ETR_FILTER_FDIV1_N4             TIM_SMCR_ETF_1                                      
 821:Drivers/STM32F0xx_HAL_Driver/Inc/stm32f0xx_ll_tim.h **** #define LL_TIM_ETR_FILTER_FDIV1_N8             (TIM_SMCR_ETF_1 | TIM_SMCR_ETF_0)                   
 822:Drivers/STM32F0xx_HAL_Driver/Inc/stm32f0xx_ll_tim.h **** #define LL_TIM_ETR_FILTER_FDIV2_N6             TIM_SMCR_ETF_2                                      
 823:Drivers/STM32F0xx_HAL_Driver/Inc/stm32f0xx_ll_tim.h **** #define LL_TIM_ETR_FILTER_FDIV2_N8             (TIM_SMCR_ETF_2 | TIM_SMCR_ETF_0)                   
 824:Drivers/STM32F0xx_HAL_Driver/Inc/stm32f0xx_ll_tim.h **** #define LL_TIM_ETR_FILTER_FDIV4_N6             (TIM_SMCR_ETF_2 | TIM_SMCR_ETF_1)                   
 825:Drivers/STM32F0xx_HAL_Driver/Inc/stm32f0xx_ll_tim.h **** #define LL_TIM_ETR_FILTER_FDIV4_N8             (TIM_SMCR_ETF_2 | TIM_SMCR_ETF_1 | TIM_SMCR_ETF_0)  
 826:Drivers/STM32F0xx_HAL_Driver/Inc/stm32f0xx_ll_tim.h **** #define LL_TIM_ETR_FILTER_FDIV8_N6             TIM_SMCR_ETF_3                                      
 827:Drivers/STM32F0xx_HAL_Driver/Inc/stm32f0xx_ll_tim.h **** #define LL_TIM_ETR_FILTER_FDIV8_N8             (TIM_SMCR_ETF_3 | TIM_SMCR_ETF_0)                   
 828:Drivers/STM32F0xx_HAL_Driver/Inc/stm32f0xx_ll_tim.h **** #define LL_TIM_ETR_FILTER_FDIV16_N5            (TIM_SMCR_ETF_3 | TIM_SMCR_ETF_1)                   
 829:Drivers/STM32F0xx_HAL_Driver/Inc/stm32f0xx_ll_tim.h **** #define LL_TIM_ETR_FILTER_FDIV16_N6            (TIM_SMCR_ETF_3 | TIM_SMCR_ETF_1 | TIM_SMCR_ETF_0)  
 830:Drivers/STM32F0xx_HAL_Driver/Inc/stm32f0xx_ll_tim.h **** #define LL_TIM_ETR_FILTER_FDIV16_N8            (TIM_SMCR_ETF_3 | TIM_SMCR_ETF_2)                   
 831:Drivers/STM32F0xx_HAL_Driver/Inc/stm32f0xx_ll_tim.h **** #define LL_TIM_ETR_FILTER_FDIV32_N5            (TIM_SMCR_ETF_3 | TIM_SMCR_ETF_2 | TIM_SMCR_ETF_0)  
 832:Drivers/STM32F0xx_HAL_Driver/Inc/stm32f0xx_ll_tim.h **** #define LL_TIM_ETR_FILTER_FDIV32_N6            (TIM_SMCR_ETF_3 | TIM_SMCR_ETF_2 | TIM_SMCR_ETF_1)  
 833:Drivers/STM32F0xx_HAL_Driver/Inc/stm32f0xx_ll_tim.h **** #define LL_TIM_ETR_FILTER_FDIV32_N8            TIM_SMCR_ETF                                        
 834:Drivers/STM32F0xx_HAL_Driver/Inc/stm32f0xx_ll_tim.h **** /**
ARM GAS  C:\Users\ADMINI~1\AppData\Local\Temp\cc3oB4jI.s 			page 32


 835:Drivers/STM32F0xx_HAL_Driver/Inc/stm32f0xx_ll_tim.h ****   * @}
 836:Drivers/STM32F0xx_HAL_Driver/Inc/stm32f0xx_ll_tim.h ****   */
 837:Drivers/STM32F0xx_HAL_Driver/Inc/stm32f0xx_ll_tim.h **** 
 838:Drivers/STM32F0xx_HAL_Driver/Inc/stm32f0xx_ll_tim.h **** 
 839:Drivers/STM32F0xx_HAL_Driver/Inc/stm32f0xx_ll_tim.h **** /** @defgroup TIM_LL_EC_BREAK_POLARITY break polarity
 840:Drivers/STM32F0xx_HAL_Driver/Inc/stm32f0xx_ll_tim.h ****   * @{
 841:Drivers/STM32F0xx_HAL_Driver/Inc/stm32f0xx_ll_tim.h ****   */
 842:Drivers/STM32F0xx_HAL_Driver/Inc/stm32f0xx_ll_tim.h **** #define LL_TIM_BREAK_POLARITY_LOW              0x00000000U               /*!< Break input BRK is ac
 843:Drivers/STM32F0xx_HAL_Driver/Inc/stm32f0xx_ll_tim.h **** #define LL_TIM_BREAK_POLARITY_HIGH             TIM_BDTR_BKP              /*!< Break input BRK is ac
 844:Drivers/STM32F0xx_HAL_Driver/Inc/stm32f0xx_ll_tim.h **** /**
 845:Drivers/STM32F0xx_HAL_Driver/Inc/stm32f0xx_ll_tim.h ****   * @}
 846:Drivers/STM32F0xx_HAL_Driver/Inc/stm32f0xx_ll_tim.h ****   */
 847:Drivers/STM32F0xx_HAL_Driver/Inc/stm32f0xx_ll_tim.h **** 
 848:Drivers/STM32F0xx_HAL_Driver/Inc/stm32f0xx_ll_tim.h **** 
 849:Drivers/STM32F0xx_HAL_Driver/Inc/stm32f0xx_ll_tim.h **** 
 850:Drivers/STM32F0xx_HAL_Driver/Inc/stm32f0xx_ll_tim.h **** 
 851:Drivers/STM32F0xx_HAL_Driver/Inc/stm32f0xx_ll_tim.h **** /** @defgroup TIM_LL_EC_OSSI OSSI
 852:Drivers/STM32F0xx_HAL_Driver/Inc/stm32f0xx_ll_tim.h ****   * @{
 853:Drivers/STM32F0xx_HAL_Driver/Inc/stm32f0xx_ll_tim.h ****   */
 854:Drivers/STM32F0xx_HAL_Driver/Inc/stm32f0xx_ll_tim.h **** #define LL_TIM_OSSI_DISABLE                    0x00000000U             /*!< When inactive, OCx/OCxN
 855:Drivers/STM32F0xx_HAL_Driver/Inc/stm32f0xx_ll_tim.h **** #define LL_TIM_OSSI_ENABLE                     TIM_BDTR_OSSI           /*!< When inactive, OxC/OCxN
 856:Drivers/STM32F0xx_HAL_Driver/Inc/stm32f0xx_ll_tim.h **** /**
 857:Drivers/STM32F0xx_HAL_Driver/Inc/stm32f0xx_ll_tim.h ****   * @}
 858:Drivers/STM32F0xx_HAL_Driver/Inc/stm32f0xx_ll_tim.h ****   */
 859:Drivers/STM32F0xx_HAL_Driver/Inc/stm32f0xx_ll_tim.h **** 
 860:Drivers/STM32F0xx_HAL_Driver/Inc/stm32f0xx_ll_tim.h **** /** @defgroup TIM_LL_EC_OSSR OSSR
 861:Drivers/STM32F0xx_HAL_Driver/Inc/stm32f0xx_ll_tim.h ****   * @{
 862:Drivers/STM32F0xx_HAL_Driver/Inc/stm32f0xx_ll_tim.h ****   */
 863:Drivers/STM32F0xx_HAL_Driver/Inc/stm32f0xx_ll_tim.h **** #define LL_TIM_OSSR_DISABLE                    0x00000000U             /*!< When inactive, OCx/OCxN
 864:Drivers/STM32F0xx_HAL_Driver/Inc/stm32f0xx_ll_tim.h **** #define LL_TIM_OSSR_ENABLE                     TIM_BDTR_OSSR           /*!< When inactive, OC/OCN o
 865:Drivers/STM32F0xx_HAL_Driver/Inc/stm32f0xx_ll_tim.h **** /**
 866:Drivers/STM32F0xx_HAL_Driver/Inc/stm32f0xx_ll_tim.h ****   * @}
 867:Drivers/STM32F0xx_HAL_Driver/Inc/stm32f0xx_ll_tim.h ****   */
 868:Drivers/STM32F0xx_HAL_Driver/Inc/stm32f0xx_ll_tim.h **** 
 869:Drivers/STM32F0xx_HAL_Driver/Inc/stm32f0xx_ll_tim.h **** 
 870:Drivers/STM32F0xx_HAL_Driver/Inc/stm32f0xx_ll_tim.h **** /** @defgroup TIM_LL_EC_DMABURST_BASEADDR DMA Burst Base Address
 871:Drivers/STM32F0xx_HAL_Driver/Inc/stm32f0xx_ll_tim.h ****   * @{
 872:Drivers/STM32F0xx_HAL_Driver/Inc/stm32f0xx_ll_tim.h ****   */
 873:Drivers/STM32F0xx_HAL_Driver/Inc/stm32f0xx_ll_tim.h **** #define LL_TIM_DMABURST_BASEADDR_CR1           0x00000000U                                         
 874:Drivers/STM32F0xx_HAL_Driver/Inc/stm32f0xx_ll_tim.h **** #define LL_TIM_DMABURST_BASEADDR_CR2           TIM_DCR_DBA_0                                       
 875:Drivers/STM32F0xx_HAL_Driver/Inc/stm32f0xx_ll_tim.h **** #define LL_TIM_DMABURST_BASEADDR_SMCR          TIM_DCR_DBA_1                                       
 876:Drivers/STM32F0xx_HAL_Driver/Inc/stm32f0xx_ll_tim.h **** #define LL_TIM_DMABURST_BASEADDR_DIER          (TIM_DCR_DBA_1 |  TIM_DCR_DBA_0)                    
 877:Drivers/STM32F0xx_HAL_Driver/Inc/stm32f0xx_ll_tim.h **** #define LL_TIM_DMABURST_BASEADDR_SR            TIM_DCR_DBA_2                                       
 878:Drivers/STM32F0xx_HAL_Driver/Inc/stm32f0xx_ll_tim.h **** #define LL_TIM_DMABURST_BASEADDR_EGR           (TIM_DCR_DBA_2 | TIM_DCR_DBA_0)                     
 879:Drivers/STM32F0xx_HAL_Driver/Inc/stm32f0xx_ll_tim.h **** #define LL_TIM_DMABURST_BASEADDR_CCMR1         (TIM_DCR_DBA_2 | TIM_DCR_DBA_1)                     
 880:Drivers/STM32F0xx_HAL_Driver/Inc/stm32f0xx_ll_tim.h **** #define LL_TIM_DMABURST_BASEADDR_CCMR2         (TIM_DCR_DBA_2 | TIM_DCR_DBA_1 | TIM_DCR_DBA_0)     
 881:Drivers/STM32F0xx_HAL_Driver/Inc/stm32f0xx_ll_tim.h **** #define LL_TIM_DMABURST_BASEADDR_CCER          TIM_DCR_DBA_3                                       
 882:Drivers/STM32F0xx_HAL_Driver/Inc/stm32f0xx_ll_tim.h **** #define LL_TIM_DMABURST_BASEADDR_CNT           (TIM_DCR_DBA_3 | TIM_DCR_DBA_0)                     
 883:Drivers/STM32F0xx_HAL_Driver/Inc/stm32f0xx_ll_tim.h **** #define LL_TIM_DMABURST_BASEADDR_PSC           (TIM_DCR_DBA_3 | TIM_DCR_DBA_1)                     
 884:Drivers/STM32F0xx_HAL_Driver/Inc/stm32f0xx_ll_tim.h **** #define LL_TIM_DMABURST_BASEADDR_ARR           (TIM_DCR_DBA_3 | TIM_DCR_DBA_1 | TIM_DCR_DBA_0)     
 885:Drivers/STM32F0xx_HAL_Driver/Inc/stm32f0xx_ll_tim.h **** #define LL_TIM_DMABURST_BASEADDR_RCR           (TIM_DCR_DBA_3 | TIM_DCR_DBA_2)                     
 886:Drivers/STM32F0xx_HAL_Driver/Inc/stm32f0xx_ll_tim.h **** #define LL_TIM_DMABURST_BASEADDR_CCR1          (TIM_DCR_DBA_3 | TIM_DCR_DBA_2 | TIM_DCR_DBA_0)     
 887:Drivers/STM32F0xx_HAL_Driver/Inc/stm32f0xx_ll_tim.h **** #define LL_TIM_DMABURST_BASEADDR_CCR2          (TIM_DCR_DBA_3 | TIM_DCR_DBA_2 | TIM_DCR_DBA_1)     
 888:Drivers/STM32F0xx_HAL_Driver/Inc/stm32f0xx_ll_tim.h **** #define LL_TIM_DMABURST_BASEADDR_CCR3          (TIM_DCR_DBA_3 | TIM_DCR_DBA_2 | TIM_DCR_DBA_1 | TIM
 889:Drivers/STM32F0xx_HAL_Driver/Inc/stm32f0xx_ll_tim.h **** #define LL_TIM_DMABURST_BASEADDR_CCR4          TIM_DCR_DBA_4                                       
 890:Drivers/STM32F0xx_HAL_Driver/Inc/stm32f0xx_ll_tim.h **** #define LL_TIM_DMABURST_BASEADDR_BDTR          (TIM_DCR_DBA_4 | TIM_DCR_DBA_0)                     
 891:Drivers/STM32F0xx_HAL_Driver/Inc/stm32f0xx_ll_tim.h **** /**
ARM GAS  C:\Users\ADMINI~1\AppData\Local\Temp\cc3oB4jI.s 			page 33


 892:Drivers/STM32F0xx_HAL_Driver/Inc/stm32f0xx_ll_tim.h ****   * @}
 893:Drivers/STM32F0xx_HAL_Driver/Inc/stm32f0xx_ll_tim.h ****   */
 894:Drivers/STM32F0xx_HAL_Driver/Inc/stm32f0xx_ll_tim.h **** 
 895:Drivers/STM32F0xx_HAL_Driver/Inc/stm32f0xx_ll_tim.h **** /** @defgroup TIM_LL_EC_DMABURST_LENGTH DMA Burst Length
 896:Drivers/STM32F0xx_HAL_Driver/Inc/stm32f0xx_ll_tim.h ****   * @{
 897:Drivers/STM32F0xx_HAL_Driver/Inc/stm32f0xx_ll_tim.h ****   */
 898:Drivers/STM32F0xx_HAL_Driver/Inc/stm32f0xx_ll_tim.h **** #define LL_TIM_DMABURST_LENGTH_1TRANSFER       0x00000000U                                         
 899:Drivers/STM32F0xx_HAL_Driver/Inc/stm32f0xx_ll_tim.h **** #define LL_TIM_DMABURST_LENGTH_2TRANSFERS      TIM_DCR_DBL_0                                       
 900:Drivers/STM32F0xx_HAL_Driver/Inc/stm32f0xx_ll_tim.h **** #define LL_TIM_DMABURST_LENGTH_3TRANSFERS      TIM_DCR_DBL_1                                       
 901:Drivers/STM32F0xx_HAL_Driver/Inc/stm32f0xx_ll_tim.h **** #define LL_TIM_DMABURST_LENGTH_4TRANSFERS      (TIM_DCR_DBL_1 |  TIM_DCR_DBL_0)                    
 902:Drivers/STM32F0xx_HAL_Driver/Inc/stm32f0xx_ll_tim.h **** #define LL_TIM_DMABURST_LENGTH_5TRANSFERS      TIM_DCR_DBL_2                                       
 903:Drivers/STM32F0xx_HAL_Driver/Inc/stm32f0xx_ll_tim.h **** #define LL_TIM_DMABURST_LENGTH_6TRANSFERS      (TIM_DCR_DBL_2 | TIM_DCR_DBL_0)                     
 904:Drivers/STM32F0xx_HAL_Driver/Inc/stm32f0xx_ll_tim.h **** #define LL_TIM_DMABURST_LENGTH_7TRANSFERS      (TIM_DCR_DBL_2 | TIM_DCR_DBL_1)                     
 905:Drivers/STM32F0xx_HAL_Driver/Inc/stm32f0xx_ll_tim.h **** #define LL_TIM_DMABURST_LENGTH_8TRANSFERS      (TIM_DCR_DBL_2 | TIM_DCR_DBL_1 | TIM_DCR_DBL_0)     
 906:Drivers/STM32F0xx_HAL_Driver/Inc/stm32f0xx_ll_tim.h **** #define LL_TIM_DMABURST_LENGTH_9TRANSFERS      TIM_DCR_DBL_3                                       
 907:Drivers/STM32F0xx_HAL_Driver/Inc/stm32f0xx_ll_tim.h **** #define LL_TIM_DMABURST_LENGTH_10TRANSFERS     (TIM_DCR_DBL_3 | TIM_DCR_DBL_0)                     
 908:Drivers/STM32F0xx_HAL_Driver/Inc/stm32f0xx_ll_tim.h **** #define LL_TIM_DMABURST_LENGTH_11TRANSFERS     (TIM_DCR_DBL_3 | TIM_DCR_DBL_1)                     
 909:Drivers/STM32F0xx_HAL_Driver/Inc/stm32f0xx_ll_tim.h **** #define LL_TIM_DMABURST_LENGTH_12TRANSFERS     (TIM_DCR_DBL_3 | TIM_DCR_DBL_1 | TIM_DCR_DBL_0)     
 910:Drivers/STM32F0xx_HAL_Driver/Inc/stm32f0xx_ll_tim.h **** #define LL_TIM_DMABURST_LENGTH_13TRANSFERS     (TIM_DCR_DBL_3 | TIM_DCR_DBL_2)                     
 911:Drivers/STM32F0xx_HAL_Driver/Inc/stm32f0xx_ll_tim.h **** #define LL_TIM_DMABURST_LENGTH_14TRANSFERS     (TIM_DCR_DBL_3 | TIM_DCR_DBL_2 | TIM_DCR_DBL_0)     
 912:Drivers/STM32F0xx_HAL_Driver/Inc/stm32f0xx_ll_tim.h **** #define LL_TIM_DMABURST_LENGTH_15TRANSFERS     (TIM_DCR_DBL_3 | TIM_DCR_DBL_2 | TIM_DCR_DBL_1)     
 913:Drivers/STM32F0xx_HAL_Driver/Inc/stm32f0xx_ll_tim.h **** #define LL_TIM_DMABURST_LENGTH_16TRANSFERS     (TIM_DCR_DBL_3 | TIM_DCR_DBL_2 | TIM_DCR_DBL_1 | TIM
 914:Drivers/STM32F0xx_HAL_Driver/Inc/stm32f0xx_ll_tim.h **** #define LL_TIM_DMABURST_LENGTH_17TRANSFERS     TIM_DCR_DBL_4                                       
 915:Drivers/STM32F0xx_HAL_Driver/Inc/stm32f0xx_ll_tim.h **** #define LL_TIM_DMABURST_LENGTH_18TRANSFERS     (TIM_DCR_DBL_4 |  TIM_DCR_DBL_0)                    
 916:Drivers/STM32F0xx_HAL_Driver/Inc/stm32f0xx_ll_tim.h **** /**
 917:Drivers/STM32F0xx_HAL_Driver/Inc/stm32f0xx_ll_tim.h ****   * @}
 918:Drivers/STM32F0xx_HAL_Driver/Inc/stm32f0xx_ll_tim.h ****   */
 919:Drivers/STM32F0xx_HAL_Driver/Inc/stm32f0xx_ll_tim.h **** 
 920:Drivers/STM32F0xx_HAL_Driver/Inc/stm32f0xx_ll_tim.h **** 
 921:Drivers/STM32F0xx_HAL_Driver/Inc/stm32f0xx_ll_tim.h **** #define LL_TIM_TIM14_TI1_RMP_GPIO     TIM14_OR_RMP_MASK                                            
 922:Drivers/STM32F0xx_HAL_Driver/Inc/stm32f0xx_ll_tim.h **** #define LL_TIM_TIM14_TI1_RMP_RTC_CLK  (TIM14_OR_TI1_RMP_0  | TIM14_OR_RMP_MASK)                    
 923:Drivers/STM32F0xx_HAL_Driver/Inc/stm32f0xx_ll_tim.h **** #define LL_TIM_TIM14_TI1_RMP_HSE      (TIM14_OR_TI1_RMP_1  | TIM14_OR_RMP_MASK)                    
 924:Drivers/STM32F0xx_HAL_Driver/Inc/stm32f0xx_ll_tim.h **** #define LL_TIM_TIM14_TI1_RMP_MCO      (TIM14_OR_TI1_RMP_0  | TIM14_OR_TI1_RMP_1  | TIM14_OR_RMP_MAS
 925:Drivers/STM32F0xx_HAL_Driver/Inc/stm32f0xx_ll_tim.h **** 
 926:Drivers/STM32F0xx_HAL_Driver/Inc/stm32f0xx_ll_tim.h **** 
 927:Drivers/STM32F0xx_HAL_Driver/Inc/stm32f0xx_ll_tim.h **** /** @defgroup TIM_LL_EC_OCREF_CLR_INT OCREF clear input selection
 928:Drivers/STM32F0xx_HAL_Driver/Inc/stm32f0xx_ll_tim.h ****   * @{
 929:Drivers/STM32F0xx_HAL_Driver/Inc/stm32f0xx_ll_tim.h ****   */
 930:Drivers/STM32F0xx_HAL_Driver/Inc/stm32f0xx_ll_tim.h **** #define LL_TIM_OCREF_CLR_INT_OCREF_CLR     0x00000000U         /*!< OCREF_CLR_INT is connected to t
 931:Drivers/STM32F0xx_HAL_Driver/Inc/stm32f0xx_ll_tim.h **** #define LL_TIM_OCREF_CLR_INT_ETR           TIM_SMCR_OCCS       /*!< OCREF_CLR_INT is connected to E
 932:Drivers/STM32F0xx_HAL_Driver/Inc/stm32f0xx_ll_tim.h **** /**
 933:Drivers/STM32F0xx_HAL_Driver/Inc/stm32f0xx_ll_tim.h ****   * @}
 934:Drivers/STM32F0xx_HAL_Driver/Inc/stm32f0xx_ll_tim.h ****   */
 935:Drivers/STM32F0xx_HAL_Driver/Inc/stm32f0xx_ll_tim.h **** 
 936:Drivers/STM32F0xx_HAL_Driver/Inc/stm32f0xx_ll_tim.h **** /**
 937:Drivers/STM32F0xx_HAL_Driver/Inc/stm32f0xx_ll_tim.h ****   * @}
 938:Drivers/STM32F0xx_HAL_Driver/Inc/stm32f0xx_ll_tim.h ****   */
 939:Drivers/STM32F0xx_HAL_Driver/Inc/stm32f0xx_ll_tim.h **** 
 940:Drivers/STM32F0xx_HAL_Driver/Inc/stm32f0xx_ll_tim.h **** /* Exported macro ------------------------------------------------------------*/
 941:Drivers/STM32F0xx_HAL_Driver/Inc/stm32f0xx_ll_tim.h **** /** @defgroup TIM_LL_Exported_Macros TIM Exported Macros
 942:Drivers/STM32F0xx_HAL_Driver/Inc/stm32f0xx_ll_tim.h ****   * @{
 943:Drivers/STM32F0xx_HAL_Driver/Inc/stm32f0xx_ll_tim.h ****   */
 944:Drivers/STM32F0xx_HAL_Driver/Inc/stm32f0xx_ll_tim.h **** 
 945:Drivers/STM32F0xx_HAL_Driver/Inc/stm32f0xx_ll_tim.h **** /** @defgroup TIM_LL_EM_WRITE_READ Common Write and read registers Macros
 946:Drivers/STM32F0xx_HAL_Driver/Inc/stm32f0xx_ll_tim.h ****   * @{
 947:Drivers/STM32F0xx_HAL_Driver/Inc/stm32f0xx_ll_tim.h ****   */
 948:Drivers/STM32F0xx_HAL_Driver/Inc/stm32f0xx_ll_tim.h **** /**
ARM GAS  C:\Users\ADMINI~1\AppData\Local\Temp\cc3oB4jI.s 			page 34


 949:Drivers/STM32F0xx_HAL_Driver/Inc/stm32f0xx_ll_tim.h ****   * @brief  Write a value in TIM register.
 950:Drivers/STM32F0xx_HAL_Driver/Inc/stm32f0xx_ll_tim.h ****   * @param  __INSTANCE__ TIM Instance
 951:Drivers/STM32F0xx_HAL_Driver/Inc/stm32f0xx_ll_tim.h ****   * @param  __REG__ Register to be written
 952:Drivers/STM32F0xx_HAL_Driver/Inc/stm32f0xx_ll_tim.h ****   * @param  __VALUE__ Value to be written in the register
 953:Drivers/STM32F0xx_HAL_Driver/Inc/stm32f0xx_ll_tim.h ****   * @retval None
 954:Drivers/STM32F0xx_HAL_Driver/Inc/stm32f0xx_ll_tim.h ****   */
 955:Drivers/STM32F0xx_HAL_Driver/Inc/stm32f0xx_ll_tim.h **** #define LL_TIM_WriteReg(__INSTANCE__, __REG__, __VALUE__) WRITE_REG((__INSTANCE__)->__REG__, (__VAL
 956:Drivers/STM32F0xx_HAL_Driver/Inc/stm32f0xx_ll_tim.h **** 
 957:Drivers/STM32F0xx_HAL_Driver/Inc/stm32f0xx_ll_tim.h **** /**
 958:Drivers/STM32F0xx_HAL_Driver/Inc/stm32f0xx_ll_tim.h ****   * @brief  Read a value in TIM register.
 959:Drivers/STM32F0xx_HAL_Driver/Inc/stm32f0xx_ll_tim.h ****   * @param  __INSTANCE__ TIM Instance
 960:Drivers/STM32F0xx_HAL_Driver/Inc/stm32f0xx_ll_tim.h ****   * @param  __REG__ Register to be read
 961:Drivers/STM32F0xx_HAL_Driver/Inc/stm32f0xx_ll_tim.h ****   * @retval Register value
 962:Drivers/STM32F0xx_HAL_Driver/Inc/stm32f0xx_ll_tim.h ****   */
 963:Drivers/STM32F0xx_HAL_Driver/Inc/stm32f0xx_ll_tim.h **** #define LL_TIM_ReadReg(__INSTANCE__, __REG__) READ_REG((__INSTANCE__)->__REG__)
 964:Drivers/STM32F0xx_HAL_Driver/Inc/stm32f0xx_ll_tim.h **** /**
 965:Drivers/STM32F0xx_HAL_Driver/Inc/stm32f0xx_ll_tim.h ****   * @}
 966:Drivers/STM32F0xx_HAL_Driver/Inc/stm32f0xx_ll_tim.h ****   */
 967:Drivers/STM32F0xx_HAL_Driver/Inc/stm32f0xx_ll_tim.h **** 
 968:Drivers/STM32F0xx_HAL_Driver/Inc/stm32f0xx_ll_tim.h **** /** @defgroup TIM_LL_EM_Exported_Macros Exported_Macros
 969:Drivers/STM32F0xx_HAL_Driver/Inc/stm32f0xx_ll_tim.h ****   * @{
 970:Drivers/STM32F0xx_HAL_Driver/Inc/stm32f0xx_ll_tim.h ****   */
 971:Drivers/STM32F0xx_HAL_Driver/Inc/stm32f0xx_ll_tim.h **** 
 972:Drivers/STM32F0xx_HAL_Driver/Inc/stm32f0xx_ll_tim.h **** /**
 973:Drivers/STM32F0xx_HAL_Driver/Inc/stm32f0xx_ll_tim.h ****   * @brief  HELPER macro calculating DTG[0:7] in the TIMx_BDTR register to achieve the requested de
 974:Drivers/STM32F0xx_HAL_Driver/Inc/stm32f0xx_ll_tim.h ****   * @note ex: @ref __LL_TIM_CALC_DEADTIME (80000000, @ref LL_TIM_GetClockDivision (), 120);
 975:Drivers/STM32F0xx_HAL_Driver/Inc/stm32f0xx_ll_tim.h ****   * @param  __TIMCLK__ timer input clock frequency (in Hz)
 976:Drivers/STM32F0xx_HAL_Driver/Inc/stm32f0xx_ll_tim.h ****   * @param  __CKD__ This parameter can be one of the following values:
 977:Drivers/STM32F0xx_HAL_Driver/Inc/stm32f0xx_ll_tim.h ****   *         @arg @ref LL_TIM_CLOCKDIVISION_DIV1
 978:Drivers/STM32F0xx_HAL_Driver/Inc/stm32f0xx_ll_tim.h ****   *         @arg @ref LL_TIM_CLOCKDIVISION_DIV2
 979:Drivers/STM32F0xx_HAL_Driver/Inc/stm32f0xx_ll_tim.h ****   *         @arg @ref LL_TIM_CLOCKDIVISION_DIV4
 980:Drivers/STM32F0xx_HAL_Driver/Inc/stm32f0xx_ll_tim.h ****   * @param  __DT__ deadtime duration (in ns)
 981:Drivers/STM32F0xx_HAL_Driver/Inc/stm32f0xx_ll_tim.h ****   * @retval DTG[0:7]
 982:Drivers/STM32F0xx_HAL_Driver/Inc/stm32f0xx_ll_tim.h ****   */
 983:Drivers/STM32F0xx_HAL_Driver/Inc/stm32f0xx_ll_tim.h **** #define __LL_TIM_CALC_DEADTIME(__TIMCLK__, __CKD__, __DT__)  \
 984:Drivers/STM32F0xx_HAL_Driver/Inc/stm32f0xx_ll_tim.h ****   ( (((uint64_t)((__DT__)*1000U)) < ((DT_DELAY_1+1U) * TIM_CALC_DTS((__TIMCLK__), (__CKD__))))    ?
 985:Drivers/STM32F0xx_HAL_Driver/Inc/stm32f0xx_ll_tim.h ****     (uint8_t)(((uint64_t)((__DT__)*1000U) / TIM_CALC_DTS((__TIMCLK__), (__CKD__)))  & DT_DELAY_1) :
 986:Drivers/STM32F0xx_HAL_Driver/Inc/stm32f0xx_ll_tim.h ****     (((uint64_t)((__DT__)*1000U)) < ((64U + (DT_DELAY_2+1U)) * 2U * TIM_CALC_DTS((__TIMCLK__), (__C
 987:Drivers/STM32F0xx_HAL_Driver/Inc/stm32f0xx_ll_tim.h ****     (uint8_t)(DT_RANGE_2 | ((uint8_t)((uint8_t)((((uint64_t)((__DT__)*1000U))/ TIM_CALC_DTS((__TIMC
 988:Drivers/STM32F0xx_HAL_Driver/Inc/stm32f0xx_ll_tim.h ****                                                  (__CKD__))) >> 1U) - (uint8_t) 64) & DT_DELAY_2)) 
 989:Drivers/STM32F0xx_HAL_Driver/Inc/stm32f0xx_ll_tim.h ****     (((uint64_t)((__DT__)*1000U)) < ((32U + (DT_DELAY_3+1U)) * 8U * TIM_CALC_DTS((__TIMCLK__), (__C
 990:Drivers/STM32F0xx_HAL_Driver/Inc/stm32f0xx_ll_tim.h ****     (uint8_t)(DT_RANGE_3 | ((uint8_t)((uint8_t)(((((uint64_t)(__DT__)*1000U))/ TIM_CALC_DTS((__TIMC
 991:Drivers/STM32F0xx_HAL_Driver/Inc/stm32f0xx_ll_tim.h ****                                                  (__CKD__))) >> 3U) - (uint8_t) 32) & DT_DELAY_3)) 
 992:Drivers/STM32F0xx_HAL_Driver/Inc/stm32f0xx_ll_tim.h ****     (((uint64_t)((__DT__)*1000U)) < ((32U + (DT_DELAY_4+1U)) * 16U * TIM_CALC_DTS((__TIMCLK__), (__
 993:Drivers/STM32F0xx_HAL_Driver/Inc/stm32f0xx_ll_tim.h ****     (uint8_t)(DT_RANGE_4 | ((uint8_t)((uint8_t)(((((uint64_t)(__DT__)*1000U))/ TIM_CALC_DTS((__TIMC
 994:Drivers/STM32F0xx_HAL_Driver/Inc/stm32f0xx_ll_tim.h ****                                                  (__CKD__))) >> 4U) - (uint8_t) 32) & DT_DELAY_4)) 
 995:Drivers/STM32F0xx_HAL_Driver/Inc/stm32f0xx_ll_tim.h ****     0U)
 996:Drivers/STM32F0xx_HAL_Driver/Inc/stm32f0xx_ll_tim.h **** 
 997:Drivers/STM32F0xx_HAL_Driver/Inc/stm32f0xx_ll_tim.h **** /**
 998:Drivers/STM32F0xx_HAL_Driver/Inc/stm32f0xx_ll_tim.h ****   * @brief  HELPER macro calculating the prescaler value to achieve the required counter clock freq
 999:Drivers/STM32F0xx_HAL_Driver/Inc/stm32f0xx_ll_tim.h ****   * @note ex: @ref __LL_TIM_CALC_PSC (80000000, 1000000);
1000:Drivers/STM32F0xx_HAL_Driver/Inc/stm32f0xx_ll_tim.h ****   * @param  __TIMCLK__ timer input clock frequency (in Hz)
1001:Drivers/STM32F0xx_HAL_Driver/Inc/stm32f0xx_ll_tim.h ****   * @param  __CNTCLK__ counter clock frequency (in Hz)
1002:Drivers/STM32F0xx_HAL_Driver/Inc/stm32f0xx_ll_tim.h ****   * @retval Prescaler value  (between Min_Data=0 and Max_Data=65535)
1003:Drivers/STM32F0xx_HAL_Driver/Inc/stm32f0xx_ll_tim.h ****   */
1004:Drivers/STM32F0xx_HAL_Driver/Inc/stm32f0xx_ll_tim.h **** #define __LL_TIM_CALC_PSC(__TIMCLK__, __CNTCLK__)   \
1005:Drivers/STM32F0xx_HAL_Driver/Inc/stm32f0xx_ll_tim.h ****   (((__TIMCLK__) >= (__CNTCLK__)) ? (uint32_t)(((__TIMCLK__)/(__CNTCLK__)) - 1U) : 0U)
ARM GAS  C:\Users\ADMINI~1\AppData\Local\Temp\cc3oB4jI.s 			page 35


1006:Drivers/STM32F0xx_HAL_Driver/Inc/stm32f0xx_ll_tim.h **** 
1007:Drivers/STM32F0xx_HAL_Driver/Inc/stm32f0xx_ll_tim.h **** /**
1008:Drivers/STM32F0xx_HAL_Driver/Inc/stm32f0xx_ll_tim.h ****   * @brief  HELPER macro calculating the auto-reload value to achieve the required output signal fr
1009:Drivers/STM32F0xx_HAL_Driver/Inc/stm32f0xx_ll_tim.h ****   * @note ex: @ref __LL_TIM_CALC_ARR (1000000, @ref LL_TIM_GetPrescaler (), 10000);
1010:Drivers/STM32F0xx_HAL_Driver/Inc/stm32f0xx_ll_tim.h ****   * @param  __TIMCLK__ timer input clock frequency (in Hz)
1011:Drivers/STM32F0xx_HAL_Driver/Inc/stm32f0xx_ll_tim.h ****   * @param  __PSC__ prescaler
1012:Drivers/STM32F0xx_HAL_Driver/Inc/stm32f0xx_ll_tim.h ****   * @param  __FREQ__ output signal frequency (in Hz)
1013:Drivers/STM32F0xx_HAL_Driver/Inc/stm32f0xx_ll_tim.h ****   * @retval  Auto-reload value  (between Min_Data=0 and Max_Data=65535)
1014:Drivers/STM32F0xx_HAL_Driver/Inc/stm32f0xx_ll_tim.h ****   */
1015:Drivers/STM32F0xx_HAL_Driver/Inc/stm32f0xx_ll_tim.h **** #define __LL_TIM_CALC_ARR(__TIMCLK__, __PSC__, __FREQ__) \
1016:Drivers/STM32F0xx_HAL_Driver/Inc/stm32f0xx_ll_tim.h ****   ((((__TIMCLK__)/((__PSC__) + 1U)) >= (__FREQ__)) ? (((__TIMCLK__)/((__FREQ__) * ((__PSC__) + 1U))
1017:Drivers/STM32F0xx_HAL_Driver/Inc/stm32f0xx_ll_tim.h **** 
1018:Drivers/STM32F0xx_HAL_Driver/Inc/stm32f0xx_ll_tim.h **** /**
1019:Drivers/STM32F0xx_HAL_Driver/Inc/stm32f0xx_ll_tim.h ****   * @brief  HELPER macro calculating the compare value required to achieve the required timer outpu
1020:Drivers/STM32F0xx_HAL_Driver/Inc/stm32f0xx_ll_tim.h ****   *         active/inactive delay.
1021:Drivers/STM32F0xx_HAL_Driver/Inc/stm32f0xx_ll_tim.h ****   * @note ex: @ref __LL_TIM_CALC_DELAY (1000000, @ref LL_TIM_GetPrescaler (), 10);
1022:Drivers/STM32F0xx_HAL_Driver/Inc/stm32f0xx_ll_tim.h ****   * @param  __TIMCLK__ timer input clock frequency (in Hz)
1023:Drivers/STM32F0xx_HAL_Driver/Inc/stm32f0xx_ll_tim.h ****   * @param  __PSC__ prescaler
1024:Drivers/STM32F0xx_HAL_Driver/Inc/stm32f0xx_ll_tim.h ****   * @param  __DELAY__ timer output compare active/inactive delay (in us)
1025:Drivers/STM32F0xx_HAL_Driver/Inc/stm32f0xx_ll_tim.h ****   * @retval Compare value  (between Min_Data=0 and Max_Data=65535)
1026:Drivers/STM32F0xx_HAL_Driver/Inc/stm32f0xx_ll_tim.h ****   */
1027:Drivers/STM32F0xx_HAL_Driver/Inc/stm32f0xx_ll_tim.h **** #define __LL_TIM_CALC_DELAY(__TIMCLK__, __PSC__, __DELAY__)  \
1028:Drivers/STM32F0xx_HAL_Driver/Inc/stm32f0xx_ll_tim.h ****   ((uint32_t)(((uint64_t)(__TIMCLK__) * (uint64_t)(__DELAY__)) \
1029:Drivers/STM32F0xx_HAL_Driver/Inc/stm32f0xx_ll_tim.h ****               / ((uint64_t)1000000U * (uint64_t)((__PSC__) + 1U))))
1030:Drivers/STM32F0xx_HAL_Driver/Inc/stm32f0xx_ll_tim.h **** 
1031:Drivers/STM32F0xx_HAL_Driver/Inc/stm32f0xx_ll_tim.h **** /**
1032:Drivers/STM32F0xx_HAL_Driver/Inc/stm32f0xx_ll_tim.h ****   * @brief  HELPER macro calculating the auto-reload value to achieve the required pulse duration
1033:Drivers/STM32F0xx_HAL_Driver/Inc/stm32f0xx_ll_tim.h ****   *         (when the timer operates in one pulse mode).
1034:Drivers/STM32F0xx_HAL_Driver/Inc/stm32f0xx_ll_tim.h ****   * @note ex: @ref __LL_TIM_CALC_PULSE (1000000, @ref LL_TIM_GetPrescaler (), 10, 20);
1035:Drivers/STM32F0xx_HAL_Driver/Inc/stm32f0xx_ll_tim.h ****   * @param  __TIMCLK__ timer input clock frequency (in Hz)
1036:Drivers/STM32F0xx_HAL_Driver/Inc/stm32f0xx_ll_tim.h ****   * @param  __PSC__ prescaler
1037:Drivers/STM32F0xx_HAL_Driver/Inc/stm32f0xx_ll_tim.h ****   * @param  __DELAY__ timer output compare active/inactive delay (in us)
1038:Drivers/STM32F0xx_HAL_Driver/Inc/stm32f0xx_ll_tim.h ****   * @param  __PULSE__ pulse duration (in us)
1039:Drivers/STM32F0xx_HAL_Driver/Inc/stm32f0xx_ll_tim.h ****   * @retval Auto-reload value  (between Min_Data=0 and Max_Data=65535)
1040:Drivers/STM32F0xx_HAL_Driver/Inc/stm32f0xx_ll_tim.h ****   */
1041:Drivers/STM32F0xx_HAL_Driver/Inc/stm32f0xx_ll_tim.h **** #define __LL_TIM_CALC_PULSE(__TIMCLK__, __PSC__, __DELAY__, __PULSE__)  \
1042:Drivers/STM32F0xx_HAL_Driver/Inc/stm32f0xx_ll_tim.h ****   ((uint32_t)(__LL_TIM_CALC_DELAY((__TIMCLK__), (__PSC__), (__PULSE__)) \
1043:Drivers/STM32F0xx_HAL_Driver/Inc/stm32f0xx_ll_tim.h ****               + __LL_TIM_CALC_DELAY((__TIMCLK__), (__PSC__), (__DELAY__))))
1044:Drivers/STM32F0xx_HAL_Driver/Inc/stm32f0xx_ll_tim.h **** 
1045:Drivers/STM32F0xx_HAL_Driver/Inc/stm32f0xx_ll_tim.h **** /**
1046:Drivers/STM32F0xx_HAL_Driver/Inc/stm32f0xx_ll_tim.h ****   * @brief  HELPER macro retrieving the ratio of the input capture prescaler
1047:Drivers/STM32F0xx_HAL_Driver/Inc/stm32f0xx_ll_tim.h ****   * @note ex: @ref __LL_TIM_GET_ICPSC_RATIO (@ref LL_TIM_IC_GetPrescaler ());
1048:Drivers/STM32F0xx_HAL_Driver/Inc/stm32f0xx_ll_tim.h ****   * @param  __ICPSC__ This parameter can be one of the following values:
1049:Drivers/STM32F0xx_HAL_Driver/Inc/stm32f0xx_ll_tim.h ****   *         @arg @ref LL_TIM_ICPSC_DIV1
1050:Drivers/STM32F0xx_HAL_Driver/Inc/stm32f0xx_ll_tim.h ****   *         @arg @ref LL_TIM_ICPSC_DIV2
1051:Drivers/STM32F0xx_HAL_Driver/Inc/stm32f0xx_ll_tim.h ****   *         @arg @ref LL_TIM_ICPSC_DIV4
1052:Drivers/STM32F0xx_HAL_Driver/Inc/stm32f0xx_ll_tim.h ****   *         @arg @ref LL_TIM_ICPSC_DIV8
1053:Drivers/STM32F0xx_HAL_Driver/Inc/stm32f0xx_ll_tim.h ****   * @retval Input capture prescaler ratio (1, 2, 4 or 8)
1054:Drivers/STM32F0xx_HAL_Driver/Inc/stm32f0xx_ll_tim.h ****   */
1055:Drivers/STM32F0xx_HAL_Driver/Inc/stm32f0xx_ll_tim.h **** #define __LL_TIM_GET_ICPSC_RATIO(__ICPSC__)  \
1056:Drivers/STM32F0xx_HAL_Driver/Inc/stm32f0xx_ll_tim.h ****   ((uint32_t)(0x01U << (((__ICPSC__) >> 16U) >> TIM_CCMR1_IC1PSC_Pos)))
1057:Drivers/STM32F0xx_HAL_Driver/Inc/stm32f0xx_ll_tim.h **** 
1058:Drivers/STM32F0xx_HAL_Driver/Inc/stm32f0xx_ll_tim.h **** 
1059:Drivers/STM32F0xx_HAL_Driver/Inc/stm32f0xx_ll_tim.h **** /**
1060:Drivers/STM32F0xx_HAL_Driver/Inc/stm32f0xx_ll_tim.h ****   * @}
1061:Drivers/STM32F0xx_HAL_Driver/Inc/stm32f0xx_ll_tim.h ****   */
1062:Drivers/STM32F0xx_HAL_Driver/Inc/stm32f0xx_ll_tim.h **** 
ARM GAS  C:\Users\ADMINI~1\AppData\Local\Temp\cc3oB4jI.s 			page 36


1063:Drivers/STM32F0xx_HAL_Driver/Inc/stm32f0xx_ll_tim.h **** 
1064:Drivers/STM32F0xx_HAL_Driver/Inc/stm32f0xx_ll_tim.h **** /**
1065:Drivers/STM32F0xx_HAL_Driver/Inc/stm32f0xx_ll_tim.h ****   * @}
1066:Drivers/STM32F0xx_HAL_Driver/Inc/stm32f0xx_ll_tim.h ****   */
1067:Drivers/STM32F0xx_HAL_Driver/Inc/stm32f0xx_ll_tim.h **** 
1068:Drivers/STM32F0xx_HAL_Driver/Inc/stm32f0xx_ll_tim.h **** /* Exported functions --------------------------------------------------------*/
1069:Drivers/STM32F0xx_HAL_Driver/Inc/stm32f0xx_ll_tim.h **** /** @defgroup TIM_LL_Exported_Functions TIM Exported Functions
1070:Drivers/STM32F0xx_HAL_Driver/Inc/stm32f0xx_ll_tim.h ****   * @{
1071:Drivers/STM32F0xx_HAL_Driver/Inc/stm32f0xx_ll_tim.h ****   */
1072:Drivers/STM32F0xx_HAL_Driver/Inc/stm32f0xx_ll_tim.h **** 
1073:Drivers/STM32F0xx_HAL_Driver/Inc/stm32f0xx_ll_tim.h **** /** @defgroup TIM_LL_EF_Time_Base Time Base configuration
1074:Drivers/STM32F0xx_HAL_Driver/Inc/stm32f0xx_ll_tim.h ****   * @{
1075:Drivers/STM32F0xx_HAL_Driver/Inc/stm32f0xx_ll_tim.h ****   */
1076:Drivers/STM32F0xx_HAL_Driver/Inc/stm32f0xx_ll_tim.h **** /**
1077:Drivers/STM32F0xx_HAL_Driver/Inc/stm32f0xx_ll_tim.h ****   * @brief  Enable timer counter.
1078:Drivers/STM32F0xx_HAL_Driver/Inc/stm32f0xx_ll_tim.h ****   * @rmtoll CR1          CEN           LL_TIM_EnableCounter
1079:Drivers/STM32F0xx_HAL_Driver/Inc/stm32f0xx_ll_tim.h ****   * @param  TIMx Timer instance
1080:Drivers/STM32F0xx_HAL_Driver/Inc/stm32f0xx_ll_tim.h ****   * @retval None
1081:Drivers/STM32F0xx_HAL_Driver/Inc/stm32f0xx_ll_tim.h ****   */
1082:Drivers/STM32F0xx_HAL_Driver/Inc/stm32f0xx_ll_tim.h **** __STATIC_INLINE void LL_TIM_EnableCounter(TIM_TypeDef *TIMx)
1083:Drivers/STM32F0xx_HAL_Driver/Inc/stm32f0xx_ll_tim.h **** {
1084:Drivers/STM32F0xx_HAL_Driver/Inc/stm32f0xx_ll_tim.h ****   SET_BIT(TIMx->CR1, TIM_CR1_CEN);
1085:Drivers/STM32F0xx_HAL_Driver/Inc/stm32f0xx_ll_tim.h **** }
1086:Drivers/STM32F0xx_HAL_Driver/Inc/stm32f0xx_ll_tim.h **** 
1087:Drivers/STM32F0xx_HAL_Driver/Inc/stm32f0xx_ll_tim.h **** /**
1088:Drivers/STM32F0xx_HAL_Driver/Inc/stm32f0xx_ll_tim.h ****   * @brief  Disable timer counter.
1089:Drivers/STM32F0xx_HAL_Driver/Inc/stm32f0xx_ll_tim.h ****   * @rmtoll CR1          CEN           LL_TIM_DisableCounter
1090:Drivers/STM32F0xx_HAL_Driver/Inc/stm32f0xx_ll_tim.h ****   * @param  TIMx Timer instance
1091:Drivers/STM32F0xx_HAL_Driver/Inc/stm32f0xx_ll_tim.h ****   * @retval None
1092:Drivers/STM32F0xx_HAL_Driver/Inc/stm32f0xx_ll_tim.h ****   */
1093:Drivers/STM32F0xx_HAL_Driver/Inc/stm32f0xx_ll_tim.h **** __STATIC_INLINE void LL_TIM_DisableCounter(TIM_TypeDef *TIMx)
1094:Drivers/STM32F0xx_HAL_Driver/Inc/stm32f0xx_ll_tim.h **** {
1095:Drivers/STM32F0xx_HAL_Driver/Inc/stm32f0xx_ll_tim.h ****   CLEAR_BIT(TIMx->CR1, TIM_CR1_CEN);
1096:Drivers/STM32F0xx_HAL_Driver/Inc/stm32f0xx_ll_tim.h **** }
1097:Drivers/STM32F0xx_HAL_Driver/Inc/stm32f0xx_ll_tim.h **** 
1098:Drivers/STM32F0xx_HAL_Driver/Inc/stm32f0xx_ll_tim.h **** /**
1099:Drivers/STM32F0xx_HAL_Driver/Inc/stm32f0xx_ll_tim.h ****   * @brief  Indicates whether the timer counter is enabled.
1100:Drivers/STM32F0xx_HAL_Driver/Inc/stm32f0xx_ll_tim.h ****   * @rmtoll CR1          CEN           LL_TIM_IsEnabledCounter
1101:Drivers/STM32F0xx_HAL_Driver/Inc/stm32f0xx_ll_tim.h ****   * @param  TIMx Timer instance
1102:Drivers/STM32F0xx_HAL_Driver/Inc/stm32f0xx_ll_tim.h ****   * @retval State of bit (1 or 0).
1103:Drivers/STM32F0xx_HAL_Driver/Inc/stm32f0xx_ll_tim.h ****   */
1104:Drivers/STM32F0xx_HAL_Driver/Inc/stm32f0xx_ll_tim.h **** __STATIC_INLINE uint32_t LL_TIM_IsEnabledCounter(TIM_TypeDef *TIMx)
1105:Drivers/STM32F0xx_HAL_Driver/Inc/stm32f0xx_ll_tim.h **** {
1106:Drivers/STM32F0xx_HAL_Driver/Inc/stm32f0xx_ll_tim.h ****   return ((READ_BIT(TIMx->CR1, TIM_CR1_CEN) == (TIM_CR1_CEN)) ? 1UL : 0UL);
1107:Drivers/STM32F0xx_HAL_Driver/Inc/stm32f0xx_ll_tim.h **** }
1108:Drivers/STM32F0xx_HAL_Driver/Inc/stm32f0xx_ll_tim.h **** 
1109:Drivers/STM32F0xx_HAL_Driver/Inc/stm32f0xx_ll_tim.h **** /**
1110:Drivers/STM32F0xx_HAL_Driver/Inc/stm32f0xx_ll_tim.h ****   * @brief  Enable update event generation.
1111:Drivers/STM32F0xx_HAL_Driver/Inc/stm32f0xx_ll_tim.h ****   * @rmtoll CR1          UDIS          LL_TIM_EnableUpdateEvent
1112:Drivers/STM32F0xx_HAL_Driver/Inc/stm32f0xx_ll_tim.h ****   * @param  TIMx Timer instance
1113:Drivers/STM32F0xx_HAL_Driver/Inc/stm32f0xx_ll_tim.h ****   * @retval None
1114:Drivers/STM32F0xx_HAL_Driver/Inc/stm32f0xx_ll_tim.h ****   */
1115:Drivers/STM32F0xx_HAL_Driver/Inc/stm32f0xx_ll_tim.h **** __STATIC_INLINE void LL_TIM_EnableUpdateEvent(TIM_TypeDef *TIMx)
1116:Drivers/STM32F0xx_HAL_Driver/Inc/stm32f0xx_ll_tim.h **** {
1117:Drivers/STM32F0xx_HAL_Driver/Inc/stm32f0xx_ll_tim.h ****   CLEAR_BIT(TIMx->CR1, TIM_CR1_UDIS);
1118:Drivers/STM32F0xx_HAL_Driver/Inc/stm32f0xx_ll_tim.h **** }
1119:Drivers/STM32F0xx_HAL_Driver/Inc/stm32f0xx_ll_tim.h **** 
ARM GAS  C:\Users\ADMINI~1\AppData\Local\Temp\cc3oB4jI.s 			page 37


1120:Drivers/STM32F0xx_HAL_Driver/Inc/stm32f0xx_ll_tim.h **** /**
1121:Drivers/STM32F0xx_HAL_Driver/Inc/stm32f0xx_ll_tim.h ****   * @brief  Disable update event generation.
1122:Drivers/STM32F0xx_HAL_Driver/Inc/stm32f0xx_ll_tim.h ****   * @rmtoll CR1          UDIS          LL_TIM_DisableUpdateEvent
1123:Drivers/STM32F0xx_HAL_Driver/Inc/stm32f0xx_ll_tim.h ****   * @param  TIMx Timer instance
1124:Drivers/STM32F0xx_HAL_Driver/Inc/stm32f0xx_ll_tim.h ****   * @retval None
1125:Drivers/STM32F0xx_HAL_Driver/Inc/stm32f0xx_ll_tim.h ****   */
1126:Drivers/STM32F0xx_HAL_Driver/Inc/stm32f0xx_ll_tim.h **** __STATIC_INLINE void LL_TIM_DisableUpdateEvent(TIM_TypeDef *TIMx)
1127:Drivers/STM32F0xx_HAL_Driver/Inc/stm32f0xx_ll_tim.h **** {
1128:Drivers/STM32F0xx_HAL_Driver/Inc/stm32f0xx_ll_tim.h ****   SET_BIT(TIMx->CR1, TIM_CR1_UDIS);
1129:Drivers/STM32F0xx_HAL_Driver/Inc/stm32f0xx_ll_tim.h **** }
1130:Drivers/STM32F0xx_HAL_Driver/Inc/stm32f0xx_ll_tim.h **** 
1131:Drivers/STM32F0xx_HAL_Driver/Inc/stm32f0xx_ll_tim.h **** /**
1132:Drivers/STM32F0xx_HAL_Driver/Inc/stm32f0xx_ll_tim.h ****   * @brief  Indicates whether update event generation is enabled.
1133:Drivers/STM32F0xx_HAL_Driver/Inc/stm32f0xx_ll_tim.h ****   * @rmtoll CR1          UDIS          LL_TIM_IsEnabledUpdateEvent
1134:Drivers/STM32F0xx_HAL_Driver/Inc/stm32f0xx_ll_tim.h ****   * @param  TIMx Timer instance
1135:Drivers/STM32F0xx_HAL_Driver/Inc/stm32f0xx_ll_tim.h ****   * @retval Inverted state of bit (0 or 1).
1136:Drivers/STM32F0xx_HAL_Driver/Inc/stm32f0xx_ll_tim.h ****   */
1137:Drivers/STM32F0xx_HAL_Driver/Inc/stm32f0xx_ll_tim.h **** __STATIC_INLINE uint32_t LL_TIM_IsEnabledUpdateEvent(TIM_TypeDef *TIMx)
1138:Drivers/STM32F0xx_HAL_Driver/Inc/stm32f0xx_ll_tim.h **** {
1139:Drivers/STM32F0xx_HAL_Driver/Inc/stm32f0xx_ll_tim.h ****   return ((READ_BIT(TIMx->CR1, TIM_CR1_UDIS) == (uint32_t)RESET) ? 1UL : 0UL);
1140:Drivers/STM32F0xx_HAL_Driver/Inc/stm32f0xx_ll_tim.h **** }
1141:Drivers/STM32F0xx_HAL_Driver/Inc/stm32f0xx_ll_tim.h **** 
1142:Drivers/STM32F0xx_HAL_Driver/Inc/stm32f0xx_ll_tim.h **** /**
1143:Drivers/STM32F0xx_HAL_Driver/Inc/stm32f0xx_ll_tim.h ****   * @brief  Set update event source
1144:Drivers/STM32F0xx_HAL_Driver/Inc/stm32f0xx_ll_tim.h ****   * @note Update event source set to LL_TIM_UPDATESOURCE_REGULAR: any of the following events
1145:Drivers/STM32F0xx_HAL_Driver/Inc/stm32f0xx_ll_tim.h ****   *       generate an update interrupt or DMA request if enabled:
1146:Drivers/STM32F0xx_HAL_Driver/Inc/stm32f0xx_ll_tim.h ****   *        - Counter overflow/underflow
1147:Drivers/STM32F0xx_HAL_Driver/Inc/stm32f0xx_ll_tim.h ****   *        - Setting the UG bit
1148:Drivers/STM32F0xx_HAL_Driver/Inc/stm32f0xx_ll_tim.h ****   *        - Update generation through the slave mode controller
1149:Drivers/STM32F0xx_HAL_Driver/Inc/stm32f0xx_ll_tim.h ****   * @note Update event source set to LL_TIM_UPDATESOURCE_COUNTER: only counter
1150:Drivers/STM32F0xx_HAL_Driver/Inc/stm32f0xx_ll_tim.h ****   *       overflow/underflow generates an update interrupt or DMA request if enabled.
1151:Drivers/STM32F0xx_HAL_Driver/Inc/stm32f0xx_ll_tim.h ****   * @rmtoll CR1          URS           LL_TIM_SetUpdateSource
1152:Drivers/STM32F0xx_HAL_Driver/Inc/stm32f0xx_ll_tim.h ****   * @param  TIMx Timer instance
1153:Drivers/STM32F0xx_HAL_Driver/Inc/stm32f0xx_ll_tim.h ****   * @param  UpdateSource This parameter can be one of the following values:
1154:Drivers/STM32F0xx_HAL_Driver/Inc/stm32f0xx_ll_tim.h ****   *         @arg @ref LL_TIM_UPDATESOURCE_REGULAR
1155:Drivers/STM32F0xx_HAL_Driver/Inc/stm32f0xx_ll_tim.h ****   *         @arg @ref LL_TIM_UPDATESOURCE_COUNTER
1156:Drivers/STM32F0xx_HAL_Driver/Inc/stm32f0xx_ll_tim.h ****   * @retval None
1157:Drivers/STM32F0xx_HAL_Driver/Inc/stm32f0xx_ll_tim.h ****   */
1158:Drivers/STM32F0xx_HAL_Driver/Inc/stm32f0xx_ll_tim.h **** __STATIC_INLINE void LL_TIM_SetUpdateSource(TIM_TypeDef *TIMx, uint32_t UpdateSource)
1159:Drivers/STM32F0xx_HAL_Driver/Inc/stm32f0xx_ll_tim.h **** {
1160:Drivers/STM32F0xx_HAL_Driver/Inc/stm32f0xx_ll_tim.h ****   MODIFY_REG(TIMx->CR1, TIM_CR1_URS, UpdateSource);
1161:Drivers/STM32F0xx_HAL_Driver/Inc/stm32f0xx_ll_tim.h **** }
1162:Drivers/STM32F0xx_HAL_Driver/Inc/stm32f0xx_ll_tim.h **** 
1163:Drivers/STM32F0xx_HAL_Driver/Inc/stm32f0xx_ll_tim.h **** /**
1164:Drivers/STM32F0xx_HAL_Driver/Inc/stm32f0xx_ll_tim.h ****   * @brief  Get actual event update source
1165:Drivers/STM32F0xx_HAL_Driver/Inc/stm32f0xx_ll_tim.h ****   * @rmtoll CR1          URS           LL_TIM_GetUpdateSource
1166:Drivers/STM32F0xx_HAL_Driver/Inc/stm32f0xx_ll_tim.h ****   * @param  TIMx Timer instance
1167:Drivers/STM32F0xx_HAL_Driver/Inc/stm32f0xx_ll_tim.h ****   * @retval Returned value can be one of the following values:
1168:Drivers/STM32F0xx_HAL_Driver/Inc/stm32f0xx_ll_tim.h ****   *         @arg @ref LL_TIM_UPDATESOURCE_REGULAR
1169:Drivers/STM32F0xx_HAL_Driver/Inc/stm32f0xx_ll_tim.h ****   *         @arg @ref LL_TIM_UPDATESOURCE_COUNTER
1170:Drivers/STM32F0xx_HAL_Driver/Inc/stm32f0xx_ll_tim.h ****   */
1171:Drivers/STM32F0xx_HAL_Driver/Inc/stm32f0xx_ll_tim.h **** __STATIC_INLINE uint32_t LL_TIM_GetUpdateSource(TIM_TypeDef *TIMx)
1172:Drivers/STM32F0xx_HAL_Driver/Inc/stm32f0xx_ll_tim.h **** {
1173:Drivers/STM32F0xx_HAL_Driver/Inc/stm32f0xx_ll_tim.h ****   return (uint32_t)(READ_BIT(TIMx->CR1, TIM_CR1_URS));
1174:Drivers/STM32F0xx_HAL_Driver/Inc/stm32f0xx_ll_tim.h **** }
1175:Drivers/STM32F0xx_HAL_Driver/Inc/stm32f0xx_ll_tim.h **** 
1176:Drivers/STM32F0xx_HAL_Driver/Inc/stm32f0xx_ll_tim.h **** /**
ARM GAS  C:\Users\ADMINI~1\AppData\Local\Temp\cc3oB4jI.s 			page 38


1177:Drivers/STM32F0xx_HAL_Driver/Inc/stm32f0xx_ll_tim.h ****   * @brief  Set one pulse mode (one shot v.s. repetitive).
1178:Drivers/STM32F0xx_HAL_Driver/Inc/stm32f0xx_ll_tim.h ****   * @rmtoll CR1          OPM           LL_TIM_SetOnePulseMode
1179:Drivers/STM32F0xx_HAL_Driver/Inc/stm32f0xx_ll_tim.h ****   * @param  TIMx Timer instance
1180:Drivers/STM32F0xx_HAL_Driver/Inc/stm32f0xx_ll_tim.h ****   * @param  OnePulseMode This parameter can be one of the following values:
1181:Drivers/STM32F0xx_HAL_Driver/Inc/stm32f0xx_ll_tim.h ****   *         @arg @ref LL_TIM_ONEPULSEMODE_SINGLE
1182:Drivers/STM32F0xx_HAL_Driver/Inc/stm32f0xx_ll_tim.h ****   *         @arg @ref LL_TIM_ONEPULSEMODE_REPETITIVE
1183:Drivers/STM32F0xx_HAL_Driver/Inc/stm32f0xx_ll_tim.h ****   * @retval None
1184:Drivers/STM32F0xx_HAL_Driver/Inc/stm32f0xx_ll_tim.h ****   */
1185:Drivers/STM32F0xx_HAL_Driver/Inc/stm32f0xx_ll_tim.h **** __STATIC_INLINE void LL_TIM_SetOnePulseMode(TIM_TypeDef *TIMx, uint32_t OnePulseMode)
1186:Drivers/STM32F0xx_HAL_Driver/Inc/stm32f0xx_ll_tim.h **** {
1187:Drivers/STM32F0xx_HAL_Driver/Inc/stm32f0xx_ll_tim.h ****   MODIFY_REG(TIMx->CR1, TIM_CR1_OPM, OnePulseMode);
1188:Drivers/STM32F0xx_HAL_Driver/Inc/stm32f0xx_ll_tim.h **** }
1189:Drivers/STM32F0xx_HAL_Driver/Inc/stm32f0xx_ll_tim.h **** 
1190:Drivers/STM32F0xx_HAL_Driver/Inc/stm32f0xx_ll_tim.h **** /**
1191:Drivers/STM32F0xx_HAL_Driver/Inc/stm32f0xx_ll_tim.h ****   * @brief  Get actual one pulse mode.
1192:Drivers/STM32F0xx_HAL_Driver/Inc/stm32f0xx_ll_tim.h ****   * @rmtoll CR1          OPM           LL_TIM_GetOnePulseMode
1193:Drivers/STM32F0xx_HAL_Driver/Inc/stm32f0xx_ll_tim.h ****   * @param  TIMx Timer instance
1194:Drivers/STM32F0xx_HAL_Driver/Inc/stm32f0xx_ll_tim.h ****   * @retval Returned value can be one of the following values:
1195:Drivers/STM32F0xx_HAL_Driver/Inc/stm32f0xx_ll_tim.h ****   *         @arg @ref LL_TIM_ONEPULSEMODE_SINGLE
1196:Drivers/STM32F0xx_HAL_Driver/Inc/stm32f0xx_ll_tim.h ****   *         @arg @ref LL_TIM_ONEPULSEMODE_REPETITIVE
1197:Drivers/STM32F0xx_HAL_Driver/Inc/stm32f0xx_ll_tim.h ****   */
1198:Drivers/STM32F0xx_HAL_Driver/Inc/stm32f0xx_ll_tim.h **** __STATIC_INLINE uint32_t LL_TIM_GetOnePulseMode(TIM_TypeDef *TIMx)
1199:Drivers/STM32F0xx_HAL_Driver/Inc/stm32f0xx_ll_tim.h **** {
1200:Drivers/STM32F0xx_HAL_Driver/Inc/stm32f0xx_ll_tim.h ****   return (uint32_t)(READ_BIT(TIMx->CR1, TIM_CR1_OPM));
1201:Drivers/STM32F0xx_HAL_Driver/Inc/stm32f0xx_ll_tim.h **** }
1202:Drivers/STM32F0xx_HAL_Driver/Inc/stm32f0xx_ll_tim.h **** 
1203:Drivers/STM32F0xx_HAL_Driver/Inc/stm32f0xx_ll_tim.h **** /**
1204:Drivers/STM32F0xx_HAL_Driver/Inc/stm32f0xx_ll_tim.h ****   * @brief  Set the timer counter counting mode.
1205:Drivers/STM32F0xx_HAL_Driver/Inc/stm32f0xx_ll_tim.h ****   * @note Macro IS_TIM_COUNTER_MODE_SELECT_INSTANCE(TIMx) can be used to
1206:Drivers/STM32F0xx_HAL_Driver/Inc/stm32f0xx_ll_tim.h ****   *       check whether or not the counter mode selection feature is supported
1207:Drivers/STM32F0xx_HAL_Driver/Inc/stm32f0xx_ll_tim.h ****   *       by a timer instance.
1208:Drivers/STM32F0xx_HAL_Driver/Inc/stm32f0xx_ll_tim.h ****   * @note Switching from Center Aligned counter mode to Edge counter mode (or reverse)
1209:Drivers/STM32F0xx_HAL_Driver/Inc/stm32f0xx_ll_tim.h ****   *       requires a timer reset to avoid unexpected direction
1210:Drivers/STM32F0xx_HAL_Driver/Inc/stm32f0xx_ll_tim.h ****   *       due to DIR bit readonly in center aligned mode.
1211:Drivers/STM32F0xx_HAL_Driver/Inc/stm32f0xx_ll_tim.h ****   * @rmtoll CR1          DIR           LL_TIM_SetCounterMode\n
1212:Drivers/STM32F0xx_HAL_Driver/Inc/stm32f0xx_ll_tim.h ****   *         CR1          CMS           LL_TIM_SetCounterMode
1213:Drivers/STM32F0xx_HAL_Driver/Inc/stm32f0xx_ll_tim.h ****   * @param  TIMx Timer instance
1214:Drivers/STM32F0xx_HAL_Driver/Inc/stm32f0xx_ll_tim.h ****   * @param  CounterMode This parameter can be one of the following values:
1215:Drivers/STM32F0xx_HAL_Driver/Inc/stm32f0xx_ll_tim.h ****   *         @arg @ref LL_TIM_COUNTERMODE_UP
1216:Drivers/STM32F0xx_HAL_Driver/Inc/stm32f0xx_ll_tim.h ****   *         @arg @ref LL_TIM_COUNTERMODE_DOWN
1217:Drivers/STM32F0xx_HAL_Driver/Inc/stm32f0xx_ll_tim.h ****   *         @arg @ref LL_TIM_COUNTERMODE_CENTER_UP
1218:Drivers/STM32F0xx_HAL_Driver/Inc/stm32f0xx_ll_tim.h ****   *         @arg @ref LL_TIM_COUNTERMODE_CENTER_DOWN
1219:Drivers/STM32F0xx_HAL_Driver/Inc/stm32f0xx_ll_tim.h ****   *         @arg @ref LL_TIM_COUNTERMODE_CENTER_UP_DOWN
1220:Drivers/STM32F0xx_HAL_Driver/Inc/stm32f0xx_ll_tim.h ****   * @retval None
1221:Drivers/STM32F0xx_HAL_Driver/Inc/stm32f0xx_ll_tim.h ****   */
1222:Drivers/STM32F0xx_HAL_Driver/Inc/stm32f0xx_ll_tim.h **** __STATIC_INLINE void LL_TIM_SetCounterMode(TIM_TypeDef *TIMx, uint32_t CounterMode)
1223:Drivers/STM32F0xx_HAL_Driver/Inc/stm32f0xx_ll_tim.h **** {
1224:Drivers/STM32F0xx_HAL_Driver/Inc/stm32f0xx_ll_tim.h ****   MODIFY_REG(TIMx->CR1, (TIM_CR1_DIR | TIM_CR1_CMS), CounterMode);
1225:Drivers/STM32F0xx_HAL_Driver/Inc/stm32f0xx_ll_tim.h **** }
1226:Drivers/STM32F0xx_HAL_Driver/Inc/stm32f0xx_ll_tim.h **** 
1227:Drivers/STM32F0xx_HAL_Driver/Inc/stm32f0xx_ll_tim.h **** /**
1228:Drivers/STM32F0xx_HAL_Driver/Inc/stm32f0xx_ll_tim.h ****   * @brief  Get actual counter mode.
1229:Drivers/STM32F0xx_HAL_Driver/Inc/stm32f0xx_ll_tim.h ****   * @note Macro IS_TIM_COUNTER_MODE_SELECT_INSTANCE(TIMx) can be used to
1230:Drivers/STM32F0xx_HAL_Driver/Inc/stm32f0xx_ll_tim.h ****   *       check whether or not the counter mode selection feature is supported
1231:Drivers/STM32F0xx_HAL_Driver/Inc/stm32f0xx_ll_tim.h ****   *       by a timer instance.
1232:Drivers/STM32F0xx_HAL_Driver/Inc/stm32f0xx_ll_tim.h ****   * @rmtoll CR1          DIR           LL_TIM_GetCounterMode\n
1233:Drivers/STM32F0xx_HAL_Driver/Inc/stm32f0xx_ll_tim.h ****   *         CR1          CMS           LL_TIM_GetCounterMode
ARM GAS  C:\Users\ADMINI~1\AppData\Local\Temp\cc3oB4jI.s 			page 39


1234:Drivers/STM32F0xx_HAL_Driver/Inc/stm32f0xx_ll_tim.h ****   * @param  TIMx Timer instance
1235:Drivers/STM32F0xx_HAL_Driver/Inc/stm32f0xx_ll_tim.h ****   * @retval Returned value can be one of the following values:
1236:Drivers/STM32F0xx_HAL_Driver/Inc/stm32f0xx_ll_tim.h ****   *         @arg @ref LL_TIM_COUNTERMODE_UP
1237:Drivers/STM32F0xx_HAL_Driver/Inc/stm32f0xx_ll_tim.h ****   *         @arg @ref LL_TIM_COUNTERMODE_DOWN
1238:Drivers/STM32F0xx_HAL_Driver/Inc/stm32f0xx_ll_tim.h ****   *         @arg @ref LL_TIM_COUNTERMODE_CENTER_UP
1239:Drivers/STM32F0xx_HAL_Driver/Inc/stm32f0xx_ll_tim.h ****   *         @arg @ref LL_TIM_COUNTERMODE_CENTER_DOWN
1240:Drivers/STM32F0xx_HAL_Driver/Inc/stm32f0xx_ll_tim.h ****   *         @arg @ref LL_TIM_COUNTERMODE_CENTER_UP_DOWN
1241:Drivers/STM32F0xx_HAL_Driver/Inc/stm32f0xx_ll_tim.h ****   */
1242:Drivers/STM32F0xx_HAL_Driver/Inc/stm32f0xx_ll_tim.h **** __STATIC_INLINE uint32_t LL_TIM_GetCounterMode(TIM_TypeDef *TIMx)
1243:Drivers/STM32F0xx_HAL_Driver/Inc/stm32f0xx_ll_tim.h **** {
1244:Drivers/STM32F0xx_HAL_Driver/Inc/stm32f0xx_ll_tim.h ****   uint32_t counter_mode;
1245:Drivers/STM32F0xx_HAL_Driver/Inc/stm32f0xx_ll_tim.h **** 
1246:Drivers/STM32F0xx_HAL_Driver/Inc/stm32f0xx_ll_tim.h ****   counter_mode = (uint32_t)(READ_BIT(TIMx->CR1, TIM_CR1_CMS));
1247:Drivers/STM32F0xx_HAL_Driver/Inc/stm32f0xx_ll_tim.h **** 
1248:Drivers/STM32F0xx_HAL_Driver/Inc/stm32f0xx_ll_tim.h ****   if (counter_mode == 0U)
1249:Drivers/STM32F0xx_HAL_Driver/Inc/stm32f0xx_ll_tim.h ****   {
1250:Drivers/STM32F0xx_HAL_Driver/Inc/stm32f0xx_ll_tim.h ****     counter_mode = (uint32_t)(READ_BIT(TIMx->CR1, TIM_CR1_DIR));
1251:Drivers/STM32F0xx_HAL_Driver/Inc/stm32f0xx_ll_tim.h ****   }
1252:Drivers/STM32F0xx_HAL_Driver/Inc/stm32f0xx_ll_tim.h **** 
1253:Drivers/STM32F0xx_HAL_Driver/Inc/stm32f0xx_ll_tim.h ****   return counter_mode;
1254:Drivers/STM32F0xx_HAL_Driver/Inc/stm32f0xx_ll_tim.h **** }
1255:Drivers/STM32F0xx_HAL_Driver/Inc/stm32f0xx_ll_tim.h **** 
1256:Drivers/STM32F0xx_HAL_Driver/Inc/stm32f0xx_ll_tim.h **** /**
1257:Drivers/STM32F0xx_HAL_Driver/Inc/stm32f0xx_ll_tim.h ****   * @brief  Enable auto-reload (ARR) preload.
1258:Drivers/STM32F0xx_HAL_Driver/Inc/stm32f0xx_ll_tim.h ****   * @rmtoll CR1          ARPE          LL_TIM_EnableARRPreload
1259:Drivers/STM32F0xx_HAL_Driver/Inc/stm32f0xx_ll_tim.h ****   * @param  TIMx Timer instance
1260:Drivers/STM32F0xx_HAL_Driver/Inc/stm32f0xx_ll_tim.h ****   * @retval None
1261:Drivers/STM32F0xx_HAL_Driver/Inc/stm32f0xx_ll_tim.h ****   */
1262:Drivers/STM32F0xx_HAL_Driver/Inc/stm32f0xx_ll_tim.h **** __STATIC_INLINE void LL_TIM_EnableARRPreload(TIM_TypeDef *TIMx)
1263:Drivers/STM32F0xx_HAL_Driver/Inc/stm32f0xx_ll_tim.h **** {
1264:Drivers/STM32F0xx_HAL_Driver/Inc/stm32f0xx_ll_tim.h ****   SET_BIT(TIMx->CR1, TIM_CR1_ARPE);
1265:Drivers/STM32F0xx_HAL_Driver/Inc/stm32f0xx_ll_tim.h **** }
1266:Drivers/STM32F0xx_HAL_Driver/Inc/stm32f0xx_ll_tim.h **** 
1267:Drivers/STM32F0xx_HAL_Driver/Inc/stm32f0xx_ll_tim.h **** /**
1268:Drivers/STM32F0xx_HAL_Driver/Inc/stm32f0xx_ll_tim.h ****   * @brief  Disable auto-reload (ARR) preload.
1269:Drivers/STM32F0xx_HAL_Driver/Inc/stm32f0xx_ll_tim.h ****   * @rmtoll CR1          ARPE          LL_TIM_DisableARRPreload
1270:Drivers/STM32F0xx_HAL_Driver/Inc/stm32f0xx_ll_tim.h ****   * @param  TIMx Timer instance
1271:Drivers/STM32F0xx_HAL_Driver/Inc/stm32f0xx_ll_tim.h ****   * @retval None
1272:Drivers/STM32F0xx_HAL_Driver/Inc/stm32f0xx_ll_tim.h ****   */
1273:Drivers/STM32F0xx_HAL_Driver/Inc/stm32f0xx_ll_tim.h **** __STATIC_INLINE void LL_TIM_DisableARRPreload(TIM_TypeDef *TIMx)
1274:Drivers/STM32F0xx_HAL_Driver/Inc/stm32f0xx_ll_tim.h **** {
1275:Drivers/STM32F0xx_HAL_Driver/Inc/stm32f0xx_ll_tim.h ****   CLEAR_BIT(TIMx->CR1, TIM_CR1_ARPE);
1276:Drivers/STM32F0xx_HAL_Driver/Inc/stm32f0xx_ll_tim.h **** }
1277:Drivers/STM32F0xx_HAL_Driver/Inc/stm32f0xx_ll_tim.h **** 
1278:Drivers/STM32F0xx_HAL_Driver/Inc/stm32f0xx_ll_tim.h **** /**
1279:Drivers/STM32F0xx_HAL_Driver/Inc/stm32f0xx_ll_tim.h ****   * @brief  Indicates whether auto-reload (ARR) preload is enabled.
1280:Drivers/STM32F0xx_HAL_Driver/Inc/stm32f0xx_ll_tim.h ****   * @rmtoll CR1          ARPE          LL_TIM_IsEnabledARRPreload
1281:Drivers/STM32F0xx_HAL_Driver/Inc/stm32f0xx_ll_tim.h ****   * @param  TIMx Timer instance
1282:Drivers/STM32F0xx_HAL_Driver/Inc/stm32f0xx_ll_tim.h ****   * @retval State of bit (1 or 0).
1283:Drivers/STM32F0xx_HAL_Driver/Inc/stm32f0xx_ll_tim.h ****   */
1284:Drivers/STM32F0xx_HAL_Driver/Inc/stm32f0xx_ll_tim.h **** __STATIC_INLINE uint32_t LL_TIM_IsEnabledARRPreload(TIM_TypeDef *TIMx)
1285:Drivers/STM32F0xx_HAL_Driver/Inc/stm32f0xx_ll_tim.h **** {
1286:Drivers/STM32F0xx_HAL_Driver/Inc/stm32f0xx_ll_tim.h ****   return ((READ_BIT(TIMx->CR1, TIM_CR1_ARPE) == (TIM_CR1_ARPE)) ? 1UL : 0UL);
1287:Drivers/STM32F0xx_HAL_Driver/Inc/stm32f0xx_ll_tim.h **** }
1288:Drivers/STM32F0xx_HAL_Driver/Inc/stm32f0xx_ll_tim.h **** 
1289:Drivers/STM32F0xx_HAL_Driver/Inc/stm32f0xx_ll_tim.h **** /**
1290:Drivers/STM32F0xx_HAL_Driver/Inc/stm32f0xx_ll_tim.h ****   * @brief  Set the division ratio between the timer clock  and the sampling clock used by the dead
ARM GAS  C:\Users\ADMINI~1\AppData\Local\Temp\cc3oB4jI.s 			page 40


1291:Drivers/STM32F0xx_HAL_Driver/Inc/stm32f0xx_ll_tim.h ****   *         (when supported) and the digital filters.
1292:Drivers/STM32F0xx_HAL_Driver/Inc/stm32f0xx_ll_tim.h ****   * @note Macro IS_TIM_CLOCK_DIVISION_INSTANCE(TIMx) can be used to check
1293:Drivers/STM32F0xx_HAL_Driver/Inc/stm32f0xx_ll_tim.h ****   *       whether or not the clock division feature is supported by the timer
1294:Drivers/STM32F0xx_HAL_Driver/Inc/stm32f0xx_ll_tim.h ****   *       instance.
1295:Drivers/STM32F0xx_HAL_Driver/Inc/stm32f0xx_ll_tim.h ****   * @rmtoll CR1          CKD           LL_TIM_SetClockDivision
1296:Drivers/STM32F0xx_HAL_Driver/Inc/stm32f0xx_ll_tim.h ****   * @param  TIMx Timer instance
1297:Drivers/STM32F0xx_HAL_Driver/Inc/stm32f0xx_ll_tim.h ****   * @param  ClockDivision This parameter can be one of the following values:
1298:Drivers/STM32F0xx_HAL_Driver/Inc/stm32f0xx_ll_tim.h ****   *         @arg @ref LL_TIM_CLOCKDIVISION_DIV1
1299:Drivers/STM32F0xx_HAL_Driver/Inc/stm32f0xx_ll_tim.h ****   *         @arg @ref LL_TIM_CLOCKDIVISION_DIV2
1300:Drivers/STM32F0xx_HAL_Driver/Inc/stm32f0xx_ll_tim.h ****   *         @arg @ref LL_TIM_CLOCKDIVISION_DIV4
1301:Drivers/STM32F0xx_HAL_Driver/Inc/stm32f0xx_ll_tim.h ****   * @retval None
1302:Drivers/STM32F0xx_HAL_Driver/Inc/stm32f0xx_ll_tim.h ****   */
1303:Drivers/STM32F0xx_HAL_Driver/Inc/stm32f0xx_ll_tim.h **** __STATIC_INLINE void LL_TIM_SetClockDivision(TIM_TypeDef *TIMx, uint32_t ClockDivision)
1304:Drivers/STM32F0xx_HAL_Driver/Inc/stm32f0xx_ll_tim.h **** {
1305:Drivers/STM32F0xx_HAL_Driver/Inc/stm32f0xx_ll_tim.h ****   MODIFY_REG(TIMx->CR1, TIM_CR1_CKD, ClockDivision);
1306:Drivers/STM32F0xx_HAL_Driver/Inc/stm32f0xx_ll_tim.h **** }
1307:Drivers/STM32F0xx_HAL_Driver/Inc/stm32f0xx_ll_tim.h **** 
1308:Drivers/STM32F0xx_HAL_Driver/Inc/stm32f0xx_ll_tim.h **** /**
1309:Drivers/STM32F0xx_HAL_Driver/Inc/stm32f0xx_ll_tim.h ****   * @brief  Get the actual division ratio between the timer clock  and the sampling clock used by t
1310:Drivers/STM32F0xx_HAL_Driver/Inc/stm32f0xx_ll_tim.h ****   *         generators (when supported) and the digital filters.
1311:Drivers/STM32F0xx_HAL_Driver/Inc/stm32f0xx_ll_tim.h ****   * @note Macro IS_TIM_CLOCK_DIVISION_INSTANCE(TIMx) can be used to check
1312:Drivers/STM32F0xx_HAL_Driver/Inc/stm32f0xx_ll_tim.h ****   *       whether or not the clock division feature is supported by the timer
1313:Drivers/STM32F0xx_HAL_Driver/Inc/stm32f0xx_ll_tim.h ****   *       instance.
1314:Drivers/STM32F0xx_HAL_Driver/Inc/stm32f0xx_ll_tim.h ****   * @rmtoll CR1          CKD           LL_TIM_GetClockDivision
1315:Drivers/STM32F0xx_HAL_Driver/Inc/stm32f0xx_ll_tim.h ****   * @param  TIMx Timer instance
1316:Drivers/STM32F0xx_HAL_Driver/Inc/stm32f0xx_ll_tim.h ****   * @retval Returned value can be one of the following values:
1317:Drivers/STM32F0xx_HAL_Driver/Inc/stm32f0xx_ll_tim.h ****   *         @arg @ref LL_TIM_CLOCKDIVISION_DIV1
1318:Drivers/STM32F0xx_HAL_Driver/Inc/stm32f0xx_ll_tim.h ****   *         @arg @ref LL_TIM_CLOCKDIVISION_DIV2
1319:Drivers/STM32F0xx_HAL_Driver/Inc/stm32f0xx_ll_tim.h ****   *         @arg @ref LL_TIM_CLOCKDIVISION_DIV4
1320:Drivers/STM32F0xx_HAL_Driver/Inc/stm32f0xx_ll_tim.h ****   */
1321:Drivers/STM32F0xx_HAL_Driver/Inc/stm32f0xx_ll_tim.h **** __STATIC_INLINE uint32_t LL_TIM_GetClockDivision(TIM_TypeDef *TIMx)
1322:Drivers/STM32F0xx_HAL_Driver/Inc/stm32f0xx_ll_tim.h **** {
1323:Drivers/STM32F0xx_HAL_Driver/Inc/stm32f0xx_ll_tim.h ****   return (uint32_t)(READ_BIT(TIMx->CR1, TIM_CR1_CKD));
1324:Drivers/STM32F0xx_HAL_Driver/Inc/stm32f0xx_ll_tim.h **** }
1325:Drivers/STM32F0xx_HAL_Driver/Inc/stm32f0xx_ll_tim.h **** 
1326:Drivers/STM32F0xx_HAL_Driver/Inc/stm32f0xx_ll_tim.h **** /**
1327:Drivers/STM32F0xx_HAL_Driver/Inc/stm32f0xx_ll_tim.h ****   * @brief  Set the counter value.
1328:Drivers/STM32F0xx_HAL_Driver/Inc/stm32f0xx_ll_tim.h ****   * @note Macro IS_TIM_32B_COUNTER_INSTANCE(TIMx) can be used to check
1329:Drivers/STM32F0xx_HAL_Driver/Inc/stm32f0xx_ll_tim.h ****   *       whether or not a timer instance supports a 32 bits counter.
1330:Drivers/STM32F0xx_HAL_Driver/Inc/stm32f0xx_ll_tim.h ****   * @rmtoll CNT          CNT           LL_TIM_SetCounter
1331:Drivers/STM32F0xx_HAL_Driver/Inc/stm32f0xx_ll_tim.h ****   * @param  TIMx Timer instance
1332:Drivers/STM32F0xx_HAL_Driver/Inc/stm32f0xx_ll_tim.h ****   * @param  Counter Counter value (between Min_Data=0 and Max_Data=0xFFFF or 0xFFFFFFFF)
1333:Drivers/STM32F0xx_HAL_Driver/Inc/stm32f0xx_ll_tim.h ****   * @retval None
1334:Drivers/STM32F0xx_HAL_Driver/Inc/stm32f0xx_ll_tim.h ****   */
1335:Drivers/STM32F0xx_HAL_Driver/Inc/stm32f0xx_ll_tim.h **** __STATIC_INLINE void LL_TIM_SetCounter(TIM_TypeDef *TIMx, uint32_t Counter)
1336:Drivers/STM32F0xx_HAL_Driver/Inc/stm32f0xx_ll_tim.h **** {
1337:Drivers/STM32F0xx_HAL_Driver/Inc/stm32f0xx_ll_tim.h ****   WRITE_REG(TIMx->CNT, Counter);
1338:Drivers/STM32F0xx_HAL_Driver/Inc/stm32f0xx_ll_tim.h **** }
1339:Drivers/STM32F0xx_HAL_Driver/Inc/stm32f0xx_ll_tim.h **** 
1340:Drivers/STM32F0xx_HAL_Driver/Inc/stm32f0xx_ll_tim.h **** /**
1341:Drivers/STM32F0xx_HAL_Driver/Inc/stm32f0xx_ll_tim.h ****   * @brief  Get the counter value.
1342:Drivers/STM32F0xx_HAL_Driver/Inc/stm32f0xx_ll_tim.h ****   * @note Macro IS_TIM_32B_COUNTER_INSTANCE(TIMx) can be used to check
1343:Drivers/STM32F0xx_HAL_Driver/Inc/stm32f0xx_ll_tim.h ****   *       whether or not a timer instance supports a 32 bits counter.
1344:Drivers/STM32F0xx_HAL_Driver/Inc/stm32f0xx_ll_tim.h ****   * @rmtoll CNT          CNT           LL_TIM_GetCounter
1345:Drivers/STM32F0xx_HAL_Driver/Inc/stm32f0xx_ll_tim.h ****   * @param  TIMx Timer instance
1346:Drivers/STM32F0xx_HAL_Driver/Inc/stm32f0xx_ll_tim.h ****   * @retval Counter value (between Min_Data=0 and Max_Data=0xFFFF or 0xFFFFFFFF)
1347:Drivers/STM32F0xx_HAL_Driver/Inc/stm32f0xx_ll_tim.h ****   */
ARM GAS  C:\Users\ADMINI~1\AppData\Local\Temp\cc3oB4jI.s 			page 41


1348:Drivers/STM32F0xx_HAL_Driver/Inc/stm32f0xx_ll_tim.h **** __STATIC_INLINE uint32_t LL_TIM_GetCounter(TIM_TypeDef *TIMx)
1349:Drivers/STM32F0xx_HAL_Driver/Inc/stm32f0xx_ll_tim.h **** {
1350:Drivers/STM32F0xx_HAL_Driver/Inc/stm32f0xx_ll_tim.h ****   return (uint32_t)(READ_REG(TIMx->CNT));
1351:Drivers/STM32F0xx_HAL_Driver/Inc/stm32f0xx_ll_tim.h **** }
1352:Drivers/STM32F0xx_HAL_Driver/Inc/stm32f0xx_ll_tim.h **** 
1353:Drivers/STM32F0xx_HAL_Driver/Inc/stm32f0xx_ll_tim.h **** /**
1354:Drivers/STM32F0xx_HAL_Driver/Inc/stm32f0xx_ll_tim.h ****   * @brief  Get the current direction of the counter
1355:Drivers/STM32F0xx_HAL_Driver/Inc/stm32f0xx_ll_tim.h ****   * @rmtoll CR1          DIR           LL_TIM_GetDirection
1356:Drivers/STM32F0xx_HAL_Driver/Inc/stm32f0xx_ll_tim.h ****   * @param  TIMx Timer instance
1357:Drivers/STM32F0xx_HAL_Driver/Inc/stm32f0xx_ll_tim.h ****   * @retval Returned value can be one of the following values:
1358:Drivers/STM32F0xx_HAL_Driver/Inc/stm32f0xx_ll_tim.h ****   *         @arg @ref LL_TIM_COUNTERDIRECTION_UP
1359:Drivers/STM32F0xx_HAL_Driver/Inc/stm32f0xx_ll_tim.h ****   *         @arg @ref LL_TIM_COUNTERDIRECTION_DOWN
1360:Drivers/STM32F0xx_HAL_Driver/Inc/stm32f0xx_ll_tim.h ****   */
1361:Drivers/STM32F0xx_HAL_Driver/Inc/stm32f0xx_ll_tim.h **** __STATIC_INLINE uint32_t LL_TIM_GetDirection(TIM_TypeDef *TIMx)
1362:Drivers/STM32F0xx_HAL_Driver/Inc/stm32f0xx_ll_tim.h **** {
1363:Drivers/STM32F0xx_HAL_Driver/Inc/stm32f0xx_ll_tim.h ****   return (uint32_t)(READ_BIT(TIMx->CR1, TIM_CR1_DIR));
1364:Drivers/STM32F0xx_HAL_Driver/Inc/stm32f0xx_ll_tim.h **** }
1365:Drivers/STM32F0xx_HAL_Driver/Inc/stm32f0xx_ll_tim.h **** 
1366:Drivers/STM32F0xx_HAL_Driver/Inc/stm32f0xx_ll_tim.h **** /**
1367:Drivers/STM32F0xx_HAL_Driver/Inc/stm32f0xx_ll_tim.h ****   * @brief  Set the prescaler value.
1368:Drivers/STM32F0xx_HAL_Driver/Inc/stm32f0xx_ll_tim.h ****   * @note The counter clock frequency CK_CNT is equal to fCK_PSC / (PSC[15:0] + 1).
1369:Drivers/STM32F0xx_HAL_Driver/Inc/stm32f0xx_ll_tim.h ****   * @note The prescaler can be changed on the fly as this control register is buffered. The new
1370:Drivers/STM32F0xx_HAL_Driver/Inc/stm32f0xx_ll_tim.h ****   *       prescaler ratio is taken into account at the next update event.
1371:Drivers/STM32F0xx_HAL_Driver/Inc/stm32f0xx_ll_tim.h ****   * @note Helper macro @ref __LL_TIM_CALC_PSC can be used to calculate the Prescaler parameter
1372:Drivers/STM32F0xx_HAL_Driver/Inc/stm32f0xx_ll_tim.h ****   * @rmtoll PSC          PSC           LL_TIM_SetPrescaler
1373:Drivers/STM32F0xx_HAL_Driver/Inc/stm32f0xx_ll_tim.h ****   * @param  TIMx Timer instance
1374:Drivers/STM32F0xx_HAL_Driver/Inc/stm32f0xx_ll_tim.h ****   * @param  Prescaler between Min_Data=0 and Max_Data=65535
1375:Drivers/STM32F0xx_HAL_Driver/Inc/stm32f0xx_ll_tim.h ****   * @retval None
1376:Drivers/STM32F0xx_HAL_Driver/Inc/stm32f0xx_ll_tim.h ****   */
1377:Drivers/STM32F0xx_HAL_Driver/Inc/stm32f0xx_ll_tim.h **** __STATIC_INLINE void LL_TIM_SetPrescaler(TIM_TypeDef *TIMx, uint32_t Prescaler)
1378:Drivers/STM32F0xx_HAL_Driver/Inc/stm32f0xx_ll_tim.h **** {
1379:Drivers/STM32F0xx_HAL_Driver/Inc/stm32f0xx_ll_tim.h ****   WRITE_REG(TIMx->PSC, Prescaler);
1380:Drivers/STM32F0xx_HAL_Driver/Inc/stm32f0xx_ll_tim.h **** }
1381:Drivers/STM32F0xx_HAL_Driver/Inc/stm32f0xx_ll_tim.h **** 
1382:Drivers/STM32F0xx_HAL_Driver/Inc/stm32f0xx_ll_tim.h **** /**
1383:Drivers/STM32F0xx_HAL_Driver/Inc/stm32f0xx_ll_tim.h ****   * @brief  Get the prescaler value.
1384:Drivers/STM32F0xx_HAL_Driver/Inc/stm32f0xx_ll_tim.h ****   * @rmtoll PSC          PSC           LL_TIM_GetPrescaler
1385:Drivers/STM32F0xx_HAL_Driver/Inc/stm32f0xx_ll_tim.h ****   * @param  TIMx Timer instance
1386:Drivers/STM32F0xx_HAL_Driver/Inc/stm32f0xx_ll_tim.h ****   * @retval  Prescaler value between Min_Data=0 and Max_Data=65535
1387:Drivers/STM32F0xx_HAL_Driver/Inc/stm32f0xx_ll_tim.h ****   */
1388:Drivers/STM32F0xx_HAL_Driver/Inc/stm32f0xx_ll_tim.h **** __STATIC_INLINE uint32_t LL_TIM_GetPrescaler(TIM_TypeDef *TIMx)
1389:Drivers/STM32F0xx_HAL_Driver/Inc/stm32f0xx_ll_tim.h **** {
1390:Drivers/STM32F0xx_HAL_Driver/Inc/stm32f0xx_ll_tim.h ****   return (uint32_t)(READ_REG(TIMx->PSC));
1391:Drivers/STM32F0xx_HAL_Driver/Inc/stm32f0xx_ll_tim.h **** }
1392:Drivers/STM32F0xx_HAL_Driver/Inc/stm32f0xx_ll_tim.h **** 
1393:Drivers/STM32F0xx_HAL_Driver/Inc/stm32f0xx_ll_tim.h **** /**
1394:Drivers/STM32F0xx_HAL_Driver/Inc/stm32f0xx_ll_tim.h ****   * @brief  Set the auto-reload value.
1395:Drivers/STM32F0xx_HAL_Driver/Inc/stm32f0xx_ll_tim.h ****   * @note The counter is blocked while the auto-reload value is null.
1396:Drivers/STM32F0xx_HAL_Driver/Inc/stm32f0xx_ll_tim.h ****   * @note Macro IS_TIM_32B_COUNTER_INSTANCE(TIMx) can be used to check
1397:Drivers/STM32F0xx_HAL_Driver/Inc/stm32f0xx_ll_tim.h ****   *       whether or not a timer instance supports a 32 bits counter.
1398:Drivers/STM32F0xx_HAL_Driver/Inc/stm32f0xx_ll_tim.h ****   * @note Helper macro @ref __LL_TIM_CALC_ARR can be used to calculate the AutoReload parameter
1399:Drivers/STM32F0xx_HAL_Driver/Inc/stm32f0xx_ll_tim.h ****   * @rmtoll ARR          ARR           LL_TIM_SetAutoReload
1400:Drivers/STM32F0xx_HAL_Driver/Inc/stm32f0xx_ll_tim.h ****   * @param  TIMx Timer instance
1401:Drivers/STM32F0xx_HAL_Driver/Inc/stm32f0xx_ll_tim.h ****   * @param  AutoReload between Min_Data=0 and Max_Data=65535
1402:Drivers/STM32F0xx_HAL_Driver/Inc/stm32f0xx_ll_tim.h ****   * @retval None
1403:Drivers/STM32F0xx_HAL_Driver/Inc/stm32f0xx_ll_tim.h ****   */
1404:Drivers/STM32F0xx_HAL_Driver/Inc/stm32f0xx_ll_tim.h **** __STATIC_INLINE void LL_TIM_SetAutoReload(TIM_TypeDef *TIMx, uint32_t AutoReload)
ARM GAS  C:\Users\ADMINI~1\AppData\Local\Temp\cc3oB4jI.s 			page 42


1405:Drivers/STM32F0xx_HAL_Driver/Inc/stm32f0xx_ll_tim.h **** {
1406:Drivers/STM32F0xx_HAL_Driver/Inc/stm32f0xx_ll_tim.h ****   WRITE_REG(TIMx->ARR, AutoReload);
1407:Drivers/STM32F0xx_HAL_Driver/Inc/stm32f0xx_ll_tim.h **** }
1408:Drivers/STM32F0xx_HAL_Driver/Inc/stm32f0xx_ll_tim.h **** 
1409:Drivers/STM32F0xx_HAL_Driver/Inc/stm32f0xx_ll_tim.h **** /**
1410:Drivers/STM32F0xx_HAL_Driver/Inc/stm32f0xx_ll_tim.h ****   * @brief  Get the auto-reload value.
1411:Drivers/STM32F0xx_HAL_Driver/Inc/stm32f0xx_ll_tim.h ****   * @rmtoll ARR          ARR           LL_TIM_GetAutoReload
1412:Drivers/STM32F0xx_HAL_Driver/Inc/stm32f0xx_ll_tim.h ****   * @note Macro IS_TIM_32B_COUNTER_INSTANCE(TIMx) can be used to check
1413:Drivers/STM32F0xx_HAL_Driver/Inc/stm32f0xx_ll_tim.h ****   *       whether or not a timer instance supports a 32 bits counter.
1414:Drivers/STM32F0xx_HAL_Driver/Inc/stm32f0xx_ll_tim.h ****   * @param  TIMx Timer instance
1415:Drivers/STM32F0xx_HAL_Driver/Inc/stm32f0xx_ll_tim.h ****   * @retval Auto-reload value
1416:Drivers/STM32F0xx_HAL_Driver/Inc/stm32f0xx_ll_tim.h ****   */
1417:Drivers/STM32F0xx_HAL_Driver/Inc/stm32f0xx_ll_tim.h **** __STATIC_INLINE uint32_t LL_TIM_GetAutoReload(TIM_TypeDef *TIMx)
1418:Drivers/STM32F0xx_HAL_Driver/Inc/stm32f0xx_ll_tim.h **** {
1419:Drivers/STM32F0xx_HAL_Driver/Inc/stm32f0xx_ll_tim.h ****   return (uint32_t)(READ_REG(TIMx->ARR));
1420:Drivers/STM32F0xx_HAL_Driver/Inc/stm32f0xx_ll_tim.h **** }
1421:Drivers/STM32F0xx_HAL_Driver/Inc/stm32f0xx_ll_tim.h **** 
1422:Drivers/STM32F0xx_HAL_Driver/Inc/stm32f0xx_ll_tim.h **** /**
1423:Drivers/STM32F0xx_HAL_Driver/Inc/stm32f0xx_ll_tim.h ****   * @brief  Set the repetition counter value.
1424:Drivers/STM32F0xx_HAL_Driver/Inc/stm32f0xx_ll_tim.h ****   * @note Macro IS_TIM_REPETITION_COUNTER_INSTANCE(TIMx) can be used to check
1425:Drivers/STM32F0xx_HAL_Driver/Inc/stm32f0xx_ll_tim.h ****   *       whether or not a timer instance supports a repetition counter.
1426:Drivers/STM32F0xx_HAL_Driver/Inc/stm32f0xx_ll_tim.h ****   * @rmtoll RCR          REP           LL_TIM_SetRepetitionCounter
1427:Drivers/STM32F0xx_HAL_Driver/Inc/stm32f0xx_ll_tim.h ****   * @param  TIMx Timer instance
1428:Drivers/STM32F0xx_HAL_Driver/Inc/stm32f0xx_ll_tim.h ****   * @param  RepetitionCounter between Min_Data=0 and Max_Data=255 or 65535 for advanced timer.
1429:Drivers/STM32F0xx_HAL_Driver/Inc/stm32f0xx_ll_tim.h ****   * @retval None
1430:Drivers/STM32F0xx_HAL_Driver/Inc/stm32f0xx_ll_tim.h ****   */
1431:Drivers/STM32F0xx_HAL_Driver/Inc/stm32f0xx_ll_tim.h **** __STATIC_INLINE void LL_TIM_SetRepetitionCounter(TIM_TypeDef *TIMx, uint32_t RepetitionCounter)
1432:Drivers/STM32F0xx_HAL_Driver/Inc/stm32f0xx_ll_tim.h **** {
1433:Drivers/STM32F0xx_HAL_Driver/Inc/stm32f0xx_ll_tim.h ****   WRITE_REG(TIMx->RCR, RepetitionCounter);
1434:Drivers/STM32F0xx_HAL_Driver/Inc/stm32f0xx_ll_tim.h **** }
1435:Drivers/STM32F0xx_HAL_Driver/Inc/stm32f0xx_ll_tim.h **** 
1436:Drivers/STM32F0xx_HAL_Driver/Inc/stm32f0xx_ll_tim.h **** /**
1437:Drivers/STM32F0xx_HAL_Driver/Inc/stm32f0xx_ll_tim.h ****   * @brief  Get the repetition counter value.
1438:Drivers/STM32F0xx_HAL_Driver/Inc/stm32f0xx_ll_tim.h ****   * @note Macro IS_TIM_REPETITION_COUNTER_INSTANCE(TIMx) can be used to check
1439:Drivers/STM32F0xx_HAL_Driver/Inc/stm32f0xx_ll_tim.h ****   *       whether or not a timer instance supports a repetition counter.
1440:Drivers/STM32F0xx_HAL_Driver/Inc/stm32f0xx_ll_tim.h ****   * @rmtoll RCR          REP           LL_TIM_GetRepetitionCounter
1441:Drivers/STM32F0xx_HAL_Driver/Inc/stm32f0xx_ll_tim.h ****   * @param  TIMx Timer instance
1442:Drivers/STM32F0xx_HAL_Driver/Inc/stm32f0xx_ll_tim.h ****   * @retval Repetition counter value
1443:Drivers/STM32F0xx_HAL_Driver/Inc/stm32f0xx_ll_tim.h ****   */
1444:Drivers/STM32F0xx_HAL_Driver/Inc/stm32f0xx_ll_tim.h **** __STATIC_INLINE uint32_t LL_TIM_GetRepetitionCounter(TIM_TypeDef *TIMx)
1445:Drivers/STM32F0xx_HAL_Driver/Inc/stm32f0xx_ll_tim.h **** {
1446:Drivers/STM32F0xx_HAL_Driver/Inc/stm32f0xx_ll_tim.h ****   return (uint32_t)(READ_REG(TIMx->RCR));
1447:Drivers/STM32F0xx_HAL_Driver/Inc/stm32f0xx_ll_tim.h **** }
1448:Drivers/STM32F0xx_HAL_Driver/Inc/stm32f0xx_ll_tim.h **** 
1449:Drivers/STM32F0xx_HAL_Driver/Inc/stm32f0xx_ll_tim.h **** /**
1450:Drivers/STM32F0xx_HAL_Driver/Inc/stm32f0xx_ll_tim.h ****   * @}
1451:Drivers/STM32F0xx_HAL_Driver/Inc/stm32f0xx_ll_tim.h ****   */
1452:Drivers/STM32F0xx_HAL_Driver/Inc/stm32f0xx_ll_tim.h **** 
1453:Drivers/STM32F0xx_HAL_Driver/Inc/stm32f0xx_ll_tim.h **** /** @defgroup TIM_LL_EF_Capture_Compare Capture Compare configuration
1454:Drivers/STM32F0xx_HAL_Driver/Inc/stm32f0xx_ll_tim.h ****   * @{
1455:Drivers/STM32F0xx_HAL_Driver/Inc/stm32f0xx_ll_tim.h ****   */
1456:Drivers/STM32F0xx_HAL_Driver/Inc/stm32f0xx_ll_tim.h **** /**
1457:Drivers/STM32F0xx_HAL_Driver/Inc/stm32f0xx_ll_tim.h ****   * @brief  Enable  the capture/compare control bits (CCxE, CCxNE and OCxM) preload.
1458:Drivers/STM32F0xx_HAL_Driver/Inc/stm32f0xx_ll_tim.h ****   * @note CCxE, CCxNE and OCxM bits are preloaded, after having been written,
1459:Drivers/STM32F0xx_HAL_Driver/Inc/stm32f0xx_ll_tim.h ****   *       they are updated only when a commutation event (COM) occurs.
1460:Drivers/STM32F0xx_HAL_Driver/Inc/stm32f0xx_ll_tim.h ****   * @note Only on channels that have a complementary output.
1461:Drivers/STM32F0xx_HAL_Driver/Inc/stm32f0xx_ll_tim.h ****   * @note Macro IS_TIM_COMMUTATION_EVENT_INSTANCE(TIMx) can be used to check
ARM GAS  C:\Users\ADMINI~1\AppData\Local\Temp\cc3oB4jI.s 			page 43


1462:Drivers/STM32F0xx_HAL_Driver/Inc/stm32f0xx_ll_tim.h ****   *       whether or not a timer instance is able to generate a commutation event.
1463:Drivers/STM32F0xx_HAL_Driver/Inc/stm32f0xx_ll_tim.h ****   * @rmtoll CR2          CCPC          LL_TIM_CC_EnablePreload
1464:Drivers/STM32F0xx_HAL_Driver/Inc/stm32f0xx_ll_tim.h ****   * @param  TIMx Timer instance
1465:Drivers/STM32F0xx_HAL_Driver/Inc/stm32f0xx_ll_tim.h ****   * @retval None
1466:Drivers/STM32F0xx_HAL_Driver/Inc/stm32f0xx_ll_tim.h ****   */
1467:Drivers/STM32F0xx_HAL_Driver/Inc/stm32f0xx_ll_tim.h **** __STATIC_INLINE void LL_TIM_CC_EnablePreload(TIM_TypeDef *TIMx)
1468:Drivers/STM32F0xx_HAL_Driver/Inc/stm32f0xx_ll_tim.h **** {
1469:Drivers/STM32F0xx_HAL_Driver/Inc/stm32f0xx_ll_tim.h ****   SET_BIT(TIMx->CR2, TIM_CR2_CCPC);
1470:Drivers/STM32F0xx_HAL_Driver/Inc/stm32f0xx_ll_tim.h **** }
1471:Drivers/STM32F0xx_HAL_Driver/Inc/stm32f0xx_ll_tim.h **** 
1472:Drivers/STM32F0xx_HAL_Driver/Inc/stm32f0xx_ll_tim.h **** /**
1473:Drivers/STM32F0xx_HAL_Driver/Inc/stm32f0xx_ll_tim.h ****   * @brief  Disable  the capture/compare control bits (CCxE, CCxNE and OCxM) preload.
1474:Drivers/STM32F0xx_HAL_Driver/Inc/stm32f0xx_ll_tim.h ****   * @note Macro IS_TIM_COMMUTATION_EVENT_INSTANCE(TIMx) can be used to check
1475:Drivers/STM32F0xx_HAL_Driver/Inc/stm32f0xx_ll_tim.h ****   *       whether or not a timer instance is able to generate a commutation event.
1476:Drivers/STM32F0xx_HAL_Driver/Inc/stm32f0xx_ll_tim.h ****   * @rmtoll CR2          CCPC          LL_TIM_CC_DisablePreload
1477:Drivers/STM32F0xx_HAL_Driver/Inc/stm32f0xx_ll_tim.h ****   * @param  TIMx Timer instance
1478:Drivers/STM32F0xx_HAL_Driver/Inc/stm32f0xx_ll_tim.h ****   * @retval None
1479:Drivers/STM32F0xx_HAL_Driver/Inc/stm32f0xx_ll_tim.h ****   */
1480:Drivers/STM32F0xx_HAL_Driver/Inc/stm32f0xx_ll_tim.h **** __STATIC_INLINE void LL_TIM_CC_DisablePreload(TIM_TypeDef *TIMx)
1481:Drivers/STM32F0xx_HAL_Driver/Inc/stm32f0xx_ll_tim.h **** {
1482:Drivers/STM32F0xx_HAL_Driver/Inc/stm32f0xx_ll_tim.h ****   CLEAR_BIT(TIMx->CR2, TIM_CR2_CCPC);
1483:Drivers/STM32F0xx_HAL_Driver/Inc/stm32f0xx_ll_tim.h **** }
1484:Drivers/STM32F0xx_HAL_Driver/Inc/stm32f0xx_ll_tim.h **** 
1485:Drivers/STM32F0xx_HAL_Driver/Inc/stm32f0xx_ll_tim.h **** /**
1486:Drivers/STM32F0xx_HAL_Driver/Inc/stm32f0xx_ll_tim.h ****   * @brief  Set the updated source of the capture/compare control bits (CCxE, CCxNE and OCxM).
1487:Drivers/STM32F0xx_HAL_Driver/Inc/stm32f0xx_ll_tim.h ****   * @note Macro IS_TIM_COMMUTATION_EVENT_INSTANCE(TIMx) can be used to check
1488:Drivers/STM32F0xx_HAL_Driver/Inc/stm32f0xx_ll_tim.h ****   *       whether or not a timer instance is able to generate a commutation event.
1489:Drivers/STM32F0xx_HAL_Driver/Inc/stm32f0xx_ll_tim.h ****   * @rmtoll CR2          CCUS          LL_TIM_CC_SetUpdate
1490:Drivers/STM32F0xx_HAL_Driver/Inc/stm32f0xx_ll_tim.h ****   * @param  TIMx Timer instance
1491:Drivers/STM32F0xx_HAL_Driver/Inc/stm32f0xx_ll_tim.h ****   * @param  CCUpdateSource This parameter can be one of the following values:
1492:Drivers/STM32F0xx_HAL_Driver/Inc/stm32f0xx_ll_tim.h ****   *         @arg @ref LL_TIM_CCUPDATESOURCE_COMG_ONLY
1493:Drivers/STM32F0xx_HAL_Driver/Inc/stm32f0xx_ll_tim.h ****   *         @arg @ref LL_TIM_CCUPDATESOURCE_COMG_AND_TRGI
1494:Drivers/STM32F0xx_HAL_Driver/Inc/stm32f0xx_ll_tim.h ****   * @retval None
1495:Drivers/STM32F0xx_HAL_Driver/Inc/stm32f0xx_ll_tim.h ****   */
1496:Drivers/STM32F0xx_HAL_Driver/Inc/stm32f0xx_ll_tim.h **** __STATIC_INLINE void LL_TIM_CC_SetUpdate(TIM_TypeDef *TIMx, uint32_t CCUpdateSource)
1497:Drivers/STM32F0xx_HAL_Driver/Inc/stm32f0xx_ll_tim.h **** {
1498:Drivers/STM32F0xx_HAL_Driver/Inc/stm32f0xx_ll_tim.h ****   MODIFY_REG(TIMx->CR2, TIM_CR2_CCUS, CCUpdateSource);
1499:Drivers/STM32F0xx_HAL_Driver/Inc/stm32f0xx_ll_tim.h **** }
1500:Drivers/STM32F0xx_HAL_Driver/Inc/stm32f0xx_ll_tim.h **** 
1501:Drivers/STM32F0xx_HAL_Driver/Inc/stm32f0xx_ll_tim.h **** /**
1502:Drivers/STM32F0xx_HAL_Driver/Inc/stm32f0xx_ll_tim.h ****   * @brief  Set the trigger of the capture/compare DMA request.
1503:Drivers/STM32F0xx_HAL_Driver/Inc/stm32f0xx_ll_tim.h ****   * @rmtoll CR2          CCDS          LL_TIM_CC_SetDMAReqTrigger
1504:Drivers/STM32F0xx_HAL_Driver/Inc/stm32f0xx_ll_tim.h ****   * @param  TIMx Timer instance
1505:Drivers/STM32F0xx_HAL_Driver/Inc/stm32f0xx_ll_tim.h ****   * @param  DMAReqTrigger This parameter can be one of the following values:
1506:Drivers/STM32F0xx_HAL_Driver/Inc/stm32f0xx_ll_tim.h ****   *         @arg @ref LL_TIM_CCDMAREQUEST_CC
1507:Drivers/STM32F0xx_HAL_Driver/Inc/stm32f0xx_ll_tim.h ****   *         @arg @ref LL_TIM_CCDMAREQUEST_UPDATE
1508:Drivers/STM32F0xx_HAL_Driver/Inc/stm32f0xx_ll_tim.h ****   * @retval None
1509:Drivers/STM32F0xx_HAL_Driver/Inc/stm32f0xx_ll_tim.h ****   */
1510:Drivers/STM32F0xx_HAL_Driver/Inc/stm32f0xx_ll_tim.h **** __STATIC_INLINE void LL_TIM_CC_SetDMAReqTrigger(TIM_TypeDef *TIMx, uint32_t DMAReqTrigger)
1511:Drivers/STM32F0xx_HAL_Driver/Inc/stm32f0xx_ll_tim.h **** {
1512:Drivers/STM32F0xx_HAL_Driver/Inc/stm32f0xx_ll_tim.h ****   MODIFY_REG(TIMx->CR2, TIM_CR2_CCDS, DMAReqTrigger);
1513:Drivers/STM32F0xx_HAL_Driver/Inc/stm32f0xx_ll_tim.h **** }
1514:Drivers/STM32F0xx_HAL_Driver/Inc/stm32f0xx_ll_tim.h **** 
1515:Drivers/STM32F0xx_HAL_Driver/Inc/stm32f0xx_ll_tim.h **** /**
1516:Drivers/STM32F0xx_HAL_Driver/Inc/stm32f0xx_ll_tim.h ****   * @brief  Get actual trigger of the capture/compare DMA request.
1517:Drivers/STM32F0xx_HAL_Driver/Inc/stm32f0xx_ll_tim.h ****   * @rmtoll CR2          CCDS          LL_TIM_CC_GetDMAReqTrigger
1518:Drivers/STM32F0xx_HAL_Driver/Inc/stm32f0xx_ll_tim.h ****   * @param  TIMx Timer instance
ARM GAS  C:\Users\ADMINI~1\AppData\Local\Temp\cc3oB4jI.s 			page 44


1519:Drivers/STM32F0xx_HAL_Driver/Inc/stm32f0xx_ll_tim.h ****   * @retval Returned value can be one of the following values:
1520:Drivers/STM32F0xx_HAL_Driver/Inc/stm32f0xx_ll_tim.h ****   *         @arg @ref LL_TIM_CCDMAREQUEST_CC
1521:Drivers/STM32F0xx_HAL_Driver/Inc/stm32f0xx_ll_tim.h ****   *         @arg @ref LL_TIM_CCDMAREQUEST_UPDATE
1522:Drivers/STM32F0xx_HAL_Driver/Inc/stm32f0xx_ll_tim.h ****   */
1523:Drivers/STM32F0xx_HAL_Driver/Inc/stm32f0xx_ll_tim.h **** __STATIC_INLINE uint32_t LL_TIM_CC_GetDMAReqTrigger(TIM_TypeDef *TIMx)
1524:Drivers/STM32F0xx_HAL_Driver/Inc/stm32f0xx_ll_tim.h **** {
1525:Drivers/STM32F0xx_HAL_Driver/Inc/stm32f0xx_ll_tim.h ****   return (uint32_t)(READ_BIT(TIMx->CR2, TIM_CR2_CCDS));
1526:Drivers/STM32F0xx_HAL_Driver/Inc/stm32f0xx_ll_tim.h **** }
1527:Drivers/STM32F0xx_HAL_Driver/Inc/stm32f0xx_ll_tim.h **** 
1528:Drivers/STM32F0xx_HAL_Driver/Inc/stm32f0xx_ll_tim.h **** /**
1529:Drivers/STM32F0xx_HAL_Driver/Inc/stm32f0xx_ll_tim.h ****   * @brief  Set the lock level to freeze the
1530:Drivers/STM32F0xx_HAL_Driver/Inc/stm32f0xx_ll_tim.h ****   *         configuration of several capture/compare parameters.
1531:Drivers/STM32F0xx_HAL_Driver/Inc/stm32f0xx_ll_tim.h ****   * @note Macro IS_TIM_BREAK_INSTANCE(TIMx) can be used to check whether or not
1532:Drivers/STM32F0xx_HAL_Driver/Inc/stm32f0xx_ll_tim.h ****   *       the lock mechanism is supported by a timer instance.
1533:Drivers/STM32F0xx_HAL_Driver/Inc/stm32f0xx_ll_tim.h ****   * @rmtoll BDTR         LOCK          LL_TIM_CC_SetLockLevel
1534:Drivers/STM32F0xx_HAL_Driver/Inc/stm32f0xx_ll_tim.h ****   * @param  TIMx Timer instance
1535:Drivers/STM32F0xx_HAL_Driver/Inc/stm32f0xx_ll_tim.h ****   * @param  LockLevel This parameter can be one of the following values:
1536:Drivers/STM32F0xx_HAL_Driver/Inc/stm32f0xx_ll_tim.h ****   *         @arg @ref LL_TIM_LOCKLEVEL_OFF
1537:Drivers/STM32F0xx_HAL_Driver/Inc/stm32f0xx_ll_tim.h ****   *         @arg @ref LL_TIM_LOCKLEVEL_1
1538:Drivers/STM32F0xx_HAL_Driver/Inc/stm32f0xx_ll_tim.h ****   *         @arg @ref LL_TIM_LOCKLEVEL_2
1539:Drivers/STM32F0xx_HAL_Driver/Inc/stm32f0xx_ll_tim.h ****   *         @arg @ref LL_TIM_LOCKLEVEL_3
