ARM GAS  C:\Users\ADMINI~1\AppData\Local\Temp\ccAToabd.s 			page 1


   1              		.cpu cortex-m0
   2              		.arch armv6s-m
   3              		.fpu softvfp
   4              		.eabi_attribute 20, 1
   5              		.eabi_attribute 21, 1
   6              		.eabi_attribute 23, 3
   7              		.eabi_attribute 24, 1
   8              		.eabi_attribute 25, 1
   9              		.eabi_attribute 26, 1
  10              		.eabi_attribute 30, 1
  11              		.eabi_attribute 34, 0
  12              		.eabi_attribute 18, 4
  13              		.file	"syscalls.c"
  14              		.text
  15              	.Ltext0:
  16              		.cfi_sections	.debug_frame
  17              		.section	.text.initialise_monitor_handles,"ax",%progbits
  18              		.align	1
  19              		.global	initialise_monitor_handles
  20              		.syntax unified
  21              		.code	16
  22              		.thumb_func
  24              	initialise_monitor_handles:
  25              	.LFB25:
  26              		.file 1 "Src/syscalls.c"
   1:Src/syscalls.c **** /**
   2:Src/syscalls.c **** *****************************************************************************
   3:Src/syscalls.c **** **
   4:Src/syscalls.c **** **  File        : syscalls.c
   5:Src/syscalls.c **** **
   6:Src/syscalls.c **** **  Author		: Auto-generated by System workbench for STM32
   7:Src/syscalls.c **** **
   8:Src/syscalls.c **** **  Abstract    : System Workbench Minimal System calls file
   9:Src/syscalls.c **** **
  10:Src/syscalls.c **** ** 		          For more information about which c-functions
  11:Src/syscalls.c **** **                need which of these lowlevel functions
  12:Src/syscalls.c **** **                please consult the Newlib libc-manual
  13:Src/syscalls.c **** **
  14:Src/syscalls.c **** **  Target      : STMicroelectronics STM32
  15:Src/syscalls.c **** **
  16:Src/syscalls.c **** **  Distribution: The file is distributed ??as is,?? without any warranty
  17:Src/syscalls.c **** **                of any kind.
  18:Src/syscalls.c **** **
  19:Src/syscalls.c **** *****************************************************************************
  20:Src/syscalls.c **** ** @attention
  21:Src/syscalls.c **** **
  22:Src/syscalls.c **** ** <h2><center>&copy; COPYRIGHT(c) 2019 STMicroelectronics</center></h2>
  23:Src/syscalls.c **** **
  24:Src/syscalls.c **** ** Redistribution and use in source and binary forms, with or without modification,
  25:Src/syscalls.c **** ** are permitted provided that the following conditions are met:
  26:Src/syscalls.c **** **   1. Redistributions of source code must retain the above copyright notice,
  27:Src/syscalls.c **** **      this list of conditions and the following disclaimer.
  28:Src/syscalls.c **** **   2. Redistributions in binary form must reproduce the above copyright notice,
  29:Src/syscalls.c **** **      this list of conditions and the following disclaimer in the documentation
  30:Src/syscalls.c **** **      and/or other materials provided with the distribution.
  31:Src/syscalls.c **** **   3. Neither the name of STMicroelectronics nor the names of its contributors
  32:Src/syscalls.c **** **      may be used to endorse or promote products derived from this software
ARM GAS  C:\Users\ADMINI~1\AppData\Local\Temp\ccAToabd.s 			page 2


  33:Src/syscalls.c **** **      without specific prior written permission.
  34:Src/syscalls.c **** **
  35:Src/syscalls.c **** ** THIS SOFTWARE IS PROVIDED BY THE COPYRIGHT HOLDERS AND CONTRIBUTORS "AS IS"
  36:Src/syscalls.c **** ** AND ANY EXPRESS OR IMPLIED WARRANTIES, INCLUDING, BUT NOT LIMITED TO, THE
  37:Src/syscalls.c **** ** IMPLIED WARRANTIES OF MERCHANTABILITY AND FITNESS FOR A PARTICULAR PURPOSE ARE
  38:Src/syscalls.c **** ** DISCLAIMED. IN NO EVENT SHALL THE COPYRIGHT HOLDER OR CONTRIBUTORS BE LIABLE
  39:Src/syscalls.c **** ** FOR ANY DIRECT, INDIRECT, INCIDENTAL, SPECIAL, EXEMPLARY, OR CONSEQUENTIAL
  40:Src/syscalls.c **** ** DAMAGES (INCLUDING, BUT NOT LIMITED TO, PROCUREMENT OF SUBSTITUTE GOODS OR
  41:Src/syscalls.c **** ** SERVICES; LOSS OF USE, DATA, OR PROFITS; OR BUSINESS INTERRUPTION) HOWEVER
  42:Src/syscalls.c **** ** CAUSED AND ON ANY THEORY OF LIABILITY, WHETHER IN CONTRACT, STRICT LIABILITY,
  43:Src/syscalls.c **** ** OR TORT (INCLUDING NEGLIGENCE OR OTHERWISE) ARISING IN ANY WAY OUT OF THE USE
  44:Src/syscalls.c **** ** OF THIS SOFTWARE, EVEN IF ADVISED OF THE POSSIBILITY OF SUCH DAMAGE.
  45:Src/syscalls.c **** **
  46:Src/syscalls.c **** *****************************************************************************
  47:Src/syscalls.c **** */
  48:Src/syscalls.c **** 
  49:Src/syscalls.c **** /* Includes */
  50:Src/syscalls.c **** #include <sys/stat.h>
  51:Src/syscalls.c **** #include <stdlib.h>
  52:Src/syscalls.c **** #include <errno.h>
  53:Src/syscalls.c **** #include <stdio.h>
  54:Src/syscalls.c **** #include <signal.h>
  55:Src/syscalls.c **** #include <time.h>
  56:Src/syscalls.c **** #include <sys/time.h>
  57:Src/syscalls.c **** #include <sys/times.h>
  58:Src/syscalls.c **** 
  59:Src/syscalls.c **** 
  60:Src/syscalls.c **** /* Variables */
  61:Src/syscalls.c **** //#undef errno
  62:Src/syscalls.c **** extern int errno;
  63:Src/syscalls.c **** extern int __io_putchar(int ch) __attribute__((weak));
  64:Src/syscalls.c **** extern int __io_getchar(void) __attribute__((weak));
  65:Src/syscalls.c **** 
  66:Src/syscalls.c **** register char * stack_ptr asm("sp");
  67:Src/syscalls.c **** 
  68:Src/syscalls.c **** char *__env[1] = { 0 };
  69:Src/syscalls.c **** char **environ = __env;
  70:Src/syscalls.c **** 
  71:Src/syscalls.c **** 
  72:Src/syscalls.c **** /* Functions */
  73:Src/syscalls.c **** void initialise_monitor_handles()
  74:Src/syscalls.c **** {
  27              		.loc 1 74 1 view -0
  28              		.cfi_startproc
  29              		@ args = 0, pretend = 0, frame = 0
  30              		@ frame_needed = 0, uses_anonymous_args = 0
  31              		@ link register save eliminated.
  75:Src/syscalls.c **** }
  32              		.loc 1 75 1 view .LVU1
  33              		@ sp needed
  34 0000 7047     		bx	lr
  35              		.cfi_endproc
  36              	.LFE25:
  38              		.section	.text._getpid,"ax",%progbits
  39              		.align	1
  40              		.global	_getpid
  41              		.syntax unified
ARM GAS  C:\Users\ADMINI~1\AppData\Local\Temp\ccAToabd.s 			page 3


  42              		.code	16
  43              		.thumb_func
  45              	_getpid:
  46              	.LFB26:
  76:Src/syscalls.c **** 
  77:Src/syscalls.c **** int _getpid(void)
  78:Src/syscalls.c **** {
  47              		.loc 1 78 1 view -0
  48              		.cfi_startproc
  49              		@ args = 0, pretend = 0, frame = 0
  50              		@ frame_needed = 0, uses_anonymous_args = 0
  51              		@ link register save eliminated.
  79:Src/syscalls.c ****     return 1;
  52              		.loc 1 79 5 view .LVU3
  80:Src/syscalls.c **** }
  53              		.loc 1 80 1 is_stmt 0 view .LVU4
  54 0000 0120     		movs	r0, #1
  55              		@ sp needed
  56 0002 7047     		bx	lr
  57              		.cfi_endproc
  58              	.LFE26:
  60              		.section	.text._kill,"ax",%progbits
  61              		.align	1
  62              		.global	_kill
  63              		.syntax unified
  64              		.code	16
  65              		.thumb_func
  67              	_kill:
  68              	.LVL0:
  69              	.LFB27:
  81:Src/syscalls.c **** 
  82:Src/syscalls.c **** int _kill(int pid, int sig)
  83:Src/syscalls.c **** {
  70              		.loc 1 83 1 is_stmt 1 view -0
  71              		.cfi_startproc
  72              		@ args = 0, pretend = 0, frame = 0
  73              		@ frame_needed = 0, uses_anonymous_args = 0
  74              		.loc 1 83 1 is_stmt 0 view .LVU6
  75 0000 10B5     		push	{r4, lr}
  76              	.LCFI0:
  77              		.cfi_def_cfa_offset 8
  78              		.cfi_offset 4, -8
  79              		.cfi_offset 14, -4
  84:Src/syscalls.c ****     errno = EINVAL;
  80              		.loc 1 84 5 is_stmt 1 view .LVU7
  81 0002 FFF7FEFF 		bl	__errno
  82              	.LVL1:
  83              		.loc 1 84 11 is_stmt 0 view .LVU8
  84 0006 1623     		movs	r3, #22
  85 0008 0360     		str	r3, [r0]
  85:Src/syscalls.c ****     return -1;
  86              		.loc 1 85 5 is_stmt 1 view .LVU9
  87              		.loc 1 85 12 is_stmt 0 view .LVU10
  88 000a 0120     		movs	r0, #1
  86:Src/syscalls.c **** }
  89              		.loc 1 86 1 view .LVU11
  90 000c 4042     		rsbs	r0, r0, #0
ARM GAS  C:\Users\ADMINI~1\AppData\Local\Temp\ccAToabd.s 			page 4


  91              		@ sp needed
  92 000e 10BD     		pop	{r4, pc}
  93              		.cfi_endproc
  94              	.LFE27:
  96              		.section	.text._exit,"ax",%progbits
  97              		.align	1
  98              		.global	_exit
  99              		.syntax unified
 100              		.code	16
 101              		.thumb_func
 103              	_exit:
 104              	.LVL2:
 105              	.LFB28:
  87:Src/syscalls.c **** 
  88:Src/syscalls.c **** void _exit (int status)
  89:Src/syscalls.c **** {
 106              		.loc 1 89 1 is_stmt 1 view -0
 107              		.cfi_startproc
 108              		@ Volatile: function does not return.
 109              		@ args = 0, pretend = 0, frame = 0
 110              		@ frame_needed = 0, uses_anonymous_args = 0
 111              		.loc 1 89 1 is_stmt 0 view .LVU13
 112 0000 10B5     		push	{r4, lr}
 113              	.LCFI1:
 114              		.cfi_def_cfa_offset 8
 115              		.cfi_offset 4, -8
 116              		.cfi_offset 14, -4
  90:Src/syscalls.c ****     _kill(status, -1);
 117              		.loc 1 90 5 is_stmt 1 view .LVU14
 118 0002 0121     		movs	r1, #1
 119 0004 4942     		rsbs	r1, r1, #0
 120 0006 FFF7FEFF 		bl	_kill
 121              	.LVL3:
 122              	.L5:
  91:Src/syscalls.c ****     while (1) {}		/* Make sure we hang here */
 123              		.loc 1 91 5 discriminator 1 view .LVU15
 124              		.loc 1 91 16 discriminator 1 view .LVU16
 125              		.loc 1 91 11 discriminator 1 view .LVU17
 126 000a FEE7     		b	.L5
 127              		.cfi_endproc
 128              	.LFE28:
 130              		.section	.text._read,"ax",%progbits
 131              		.align	1
 132              		.weak	_read
 133              		.syntax unified
 134              		.code	16
 135              		.thumb_func
 137              	_read:
 138              	.LVL4:
 139              	.LFB29:
  92:Src/syscalls.c **** }
  93:Src/syscalls.c **** 
  94:Src/syscalls.c **** __attribute__((weak)) int _read(int file, char *ptr, int len)
  95:Src/syscalls.c **** {
 140              		.loc 1 95 1 view -0
 141              		.cfi_startproc
 142              		@ args = 0, pretend = 0, frame = 0
ARM GAS  C:\Users\ADMINI~1\AppData\Local\Temp\ccAToabd.s 			page 5


 143              		@ frame_needed = 0, uses_anonymous_args = 0
 144              		.loc 1 95 1 is_stmt 0 view .LVU19
 145 0000 70B5     		push	{r4, r5, r6, lr}
 146              	.LCFI2:
 147              		.cfi_def_cfa_offset 16
 148              		.cfi_offset 4, -16
 149              		.cfi_offset 5, -12
 150              		.cfi_offset 6, -8
 151              		.cfi_offset 14, -4
 152 0002 0C00     		movs	r4, r1
 153 0004 1600     		movs	r6, r2
  96:Src/syscalls.c ****     int DataIdx;
 154              		.loc 1 96 5 is_stmt 1 view .LVU20
  97:Src/syscalls.c **** 
  98:Src/syscalls.c ****     for (DataIdx = 0; DataIdx < len; DataIdx++)
 155              		.loc 1 98 5 view .LVU21
 156              	.LVL5:
 157              		.loc 1 98 18 is_stmt 0 view .LVU22
 158 0006 0025     		movs	r5, #0
 159              		.loc 1 98 5 view .LVU23
 160 0008 04E0     		b	.L7
 161              	.LVL6:
 162              	.L8:
  99:Src/syscalls.c ****     {
 100:Src/syscalls.c ****         *ptr++ = __io_getchar();
 163              		.loc 1 100 9 is_stmt 1 discriminator 3 view .LVU24
 164              		.loc 1 100 18 is_stmt 0 discriminator 3 view .LVU25
 165 000a FFF7FEFF 		bl	__io_getchar
 166              	.LVL7:
 167              		.loc 1 100 16 discriminator 3 view .LVU26
 168 000e 2070     		strb	r0, [r4]
  98:Src/syscalls.c ****     {
 169              		.loc 1 98 38 is_stmt 1 discriminator 3 view .LVU27
  98:Src/syscalls.c ****     {
 170              		.loc 1 98 45 is_stmt 0 discriminator 3 view .LVU28
 171 0010 0135     		adds	r5, r5, #1
 172              	.LVL8:
 173              		.loc 1 100 13 discriminator 3 view .LVU29
 174 0012 0134     		adds	r4, r4, #1
 175              	.LVL9:
 176              	.L7:
  98:Src/syscalls.c ****     {
 177              		.loc 1 98 23 is_stmt 1 discriminator 1 view .LVU30
  98:Src/syscalls.c ****     {
 178              		.loc 1 98 5 is_stmt 0 discriminator 1 view .LVU31
 179 0014 B542     		cmp	r5, r6
 180 0016 F8DB     		blt	.L8
 101:Src/syscalls.c ****     }
 102:Src/syscalls.c **** 
 103:Src/syscalls.c ****     return len;
 181              		.loc 1 103 5 is_stmt 1 view .LVU32
 104:Src/syscalls.c **** }
 182              		.loc 1 104 1 is_stmt 0 view .LVU33
 183 0018 3000     		movs	r0, r6
 184              		@ sp needed
 185              	.LVL10:
 186              	.LVL11:
ARM GAS  C:\Users\ADMINI~1\AppData\Local\Temp\ccAToabd.s 			page 6


 187              	.LVL12:
 188              		.loc 1 104 1 view .LVU34
 189 001a 70BD     		pop	{r4, r5, r6, pc}
 190              		.cfi_endproc
 191              	.LFE29:
 193              		.section	.text._write,"ax",%progbits
 194              		.align	1
 195              		.weak	_write
 196              		.syntax unified
 197              		.code	16
 198              		.thumb_func
 200              	_write:
 201              	.LVL13:
 202              	.LFB30:
 105:Src/syscalls.c **** 
 106:Src/syscalls.c **** __attribute__((weak)) int _write(int file, char *ptr, int len)
 107:Src/syscalls.c **** {
 203              		.loc 1 107 1 is_stmt 1 view -0
 204              		.cfi_startproc
 205              		@ args = 0, pretend = 0, frame = 0
 206              		@ frame_needed = 0, uses_anonymous_args = 0
 207              		.loc 1 107 1 is_stmt 0 view .LVU36
 208 0000 70B5     		push	{r4, r5, r6, lr}
 209              	.LCFI3:
 210              		.cfi_def_cfa_offset 16
 211              		.cfi_offset 4, -16
 212              		.cfi_offset 5, -12
 213              		.cfi_offset 6, -8
 214              		.cfi_offset 14, -4
 215 0002 1600     		movs	r6, r2
 108:Src/syscalls.c ****     int DataIdx;
 216              		.loc 1 108 5 is_stmt 1 view .LVU37
 109:Src/syscalls.c **** 
 110:Src/syscalls.c ****     for (DataIdx = 0; DataIdx < len; DataIdx++)
 217              		.loc 1 110 5 view .LVU38
 218              	.LVL14:
 219              		.loc 1 110 18 is_stmt 0 view .LVU39
 220 0004 0024     		movs	r4, #0
 221              		.loc 1 110 5 view .LVU40
 222 0006 05E0     		b	.L10
 223              	.LVL15:
 224              	.L11:
 111:Src/syscalls.c ****     {
 112:Src/syscalls.c ****         __io_putchar(*ptr++);
 225              		.loc 1 112 9 is_stmt 1 discriminator 3 view .LVU41
 226              		.loc 1 112 26 is_stmt 0 discriminator 3 view .LVU42
 227 0008 4D1C     		adds	r5, r1, #1
 228              	.LVL16:
 229              		.loc 1 112 22 discriminator 3 view .LVU43
 230 000a 0878     		ldrb	r0, [r1]
 231              		.loc 1 112 9 discriminator 3 view .LVU44
 232 000c FFF7FEFF 		bl	__io_putchar
 233              	.LVL17:
 110:Src/syscalls.c ****     {
 234              		.loc 1 110 38 is_stmt 1 discriminator 3 view .LVU45
 110:Src/syscalls.c ****     {
 235              		.loc 1 110 45 is_stmt 0 discriminator 3 view .LVU46
ARM GAS  C:\Users\ADMINI~1\AppData\Local\Temp\ccAToabd.s 			page 7


 236 0010 0134     		adds	r4, r4, #1
 237              	.LVL18:
 238              		.loc 1 112 26 discriminator 3 view .LVU47
 239 0012 2900     		movs	r1, r5
 240              	.LVL19:
 241              	.L10:
 110:Src/syscalls.c ****     {
 242              		.loc 1 110 23 is_stmt 1 discriminator 1 view .LVU48
 110:Src/syscalls.c ****     {
 243              		.loc 1 110 5 is_stmt 0 discriminator 1 view .LVU49
 244 0014 B442     		cmp	r4, r6
 245 0016 F7DB     		blt	.L11
 113:Src/syscalls.c ****     }
 114:Src/syscalls.c ****     return len;
 246              		.loc 1 114 5 is_stmt 1 view .LVU50
 115:Src/syscalls.c **** }
 247              		.loc 1 115 1 is_stmt 0 view .LVU51
 248 0018 3000     		movs	r0, r6
 249              		@ sp needed
 250              	.LVL20:
 251              	.LVL21:
 252              		.loc 1 115 1 view .LVU52
 253 001a 70BD     		pop	{r4, r5, r6, pc}
 254              		.cfi_endproc
 255              	.LFE30:
 257              		.section	.text._sbrk,"ax",%progbits
 258              		.align	1
 259              		.global	_sbrk
 260              		.syntax unified
 261              		.code	16
 262              		.thumb_func
 264              	_sbrk:
 265              	.LVL22:
 266              	.LFB31:
 116:Src/syscalls.c **** 
 117:Src/syscalls.c **** caddr_t _sbrk(int incr)
 118:Src/syscalls.c **** {
 267              		.loc 1 118 1 is_stmt 1 view -0
 268              		.cfi_startproc
 269              		@ args = 0, pretend = 0, frame = 0
 270              		@ frame_needed = 0, uses_anonymous_args = 0
 271              		.loc 1 118 1 is_stmt 0 view .LVU54
 272 0000 10B5     		push	{r4, lr}
 273              	.LCFI4:
 274              		.cfi_def_cfa_offset 8
 275              		.cfi_offset 4, -8
 276              		.cfi_offset 14, -4
 277 0002 0300     		movs	r3, r0
 119:Src/syscalls.c ****     extern char end asm("end");
 278              		.loc 1 119 5 is_stmt 1 view .LVU55
 120:Src/syscalls.c ****     static char *heap_end;
 279              		.loc 1 120 5 view .LVU56
 121:Src/syscalls.c ****     char *prev_heap_end;
 280              		.loc 1 121 5 view .LVU57
 122:Src/syscalls.c **** 
 123:Src/syscalls.c ****     if (heap_end == 0)
 281              		.loc 1 123 5 view .LVU58
ARM GAS  C:\Users\ADMINI~1\AppData\Local\Temp\ccAToabd.s 			page 8


 282              		.loc 1 123 18 is_stmt 0 view .LVU59
 283 0004 0B4A     		ldr	r2, .L18
 284 0006 1268     		ldr	r2, [r2]
 285              		.loc 1 123 8 view .LVU60
 286 0008 002A     		cmp	r2, #0
 287 000a 08D0     		beq	.L16
 288              	.L13:
 124:Src/syscalls.c ****         heap_end = &end;
 125:Src/syscalls.c **** 
 126:Src/syscalls.c ****     prev_heap_end = heap_end;
 289              		.loc 1 126 5 is_stmt 1 view .LVU61
 290              		.loc 1 126 19 is_stmt 0 view .LVU62
 291 000c 094A     		ldr	r2, .L18
 292 000e 1068     		ldr	r0, [r2]
 293              	.LVL23:
 127:Src/syscalls.c ****     if (heap_end + incr > stack_ptr)
 294              		.loc 1 127 5 is_stmt 1 view .LVU63
 295              		.loc 1 127 18 is_stmt 0 view .LVU64
 296 0010 C318     		adds	r3, r0, r3
 297              	.LVL24:
 298              		.loc 1 127 8 view .LVU65
 299 0012 6A46     		mov	r2, sp
 300 0014 9342     		cmp	r3, r2
 301 0016 06D8     		bhi	.L17
 128:Src/syscalls.c ****     {
 129:Src/syscalls.c **** //		write(1, "Heap and stack collision\n", 25);
 130:Src/syscalls.c **** //		abort();
 131:Src/syscalls.c ****         errno = ENOMEM;
 132:Src/syscalls.c ****         return (caddr_t) -1;
 133:Src/syscalls.c ****     }
 134:Src/syscalls.c **** 
 135:Src/syscalls.c ****     heap_end += incr;
 302              		.loc 1 135 5 is_stmt 1 view .LVU66
 303              		.loc 1 135 14 is_stmt 0 view .LVU67
 304 0018 064A     		ldr	r2, .L18
 305 001a 1360     		str	r3, [r2]
 136:Src/syscalls.c **** 
 137:Src/syscalls.c ****     return (caddr_t) prev_heap_end;
 306              		.loc 1 137 5 is_stmt 1 view .LVU68
 307              	.LVL25:
 308              	.L12:
 138:Src/syscalls.c **** }
 309              		.loc 1 138 1 is_stmt 0 view .LVU69
 310              		@ sp needed
 311 001c 10BD     		pop	{r4, pc}
 312              	.LVL26:
 313              	.L16:
 124:Src/syscalls.c **** 
 314              		.loc 1 124 9 is_stmt 1 view .LVU70
 124:Src/syscalls.c **** 
 315              		.loc 1 124 18 is_stmt 0 view .LVU71
 316 001e 054A     		ldr	r2, .L18
 317 0020 0549     		ldr	r1, .L18+4
 318 0022 1160     		str	r1, [r2]
 319 0024 F2E7     		b	.L13
 320              	.LVL27:
 321              	.L17:
ARM GAS  C:\Users\ADMINI~1\AppData\Local\Temp\ccAToabd.s 			page 9


 131:Src/syscalls.c ****         return (caddr_t) -1;
 322              		.loc 1 131 9 is_stmt 1 view .LVU72
 323 0026 FFF7FEFF 		bl	__errno
 324              	.LVL28:
 131:Src/syscalls.c ****         return (caddr_t) -1;
 325              		.loc 1 131 15 is_stmt 0 view .LVU73
 326 002a 0C23     		movs	r3, #12
 327 002c 0360     		str	r3, [r0]
 132:Src/syscalls.c ****     }
 328              		.loc 1 132 9 is_stmt 1 view .LVU74
 132:Src/syscalls.c ****     }
 329              		.loc 1 132 16 is_stmt 0 view .LVU75
 330 002e 0120     		movs	r0, #1
 331 0030 4042     		rsbs	r0, r0, #0
 332 0032 F3E7     		b	.L12
 333              	.L19:
 334              		.align	2
 335              	.L18:
 336 0034 00000000 		.word	.LANCHOR0
 337 0038 00000000 		.word	end
 338              		.cfi_endproc
 339              	.LFE31:
 341              		.section	.text._open,"ax",%progbits
 342              		.align	1
 343              		.global	_open
 344              		.syntax unified
 345              		.code	16
 346              		.thumb_func
 348              	_open:
 349              	.LVL29:
 350              	.LFB32:
 139:Src/syscalls.c **** 
 140:Src/syscalls.c **** 
 141:Src/syscalls.c **** 
 142:Src/syscalls.c **** int _open(char *path, int flags, ...)
 143:Src/syscalls.c **** {
 351              		.loc 1 143 1 is_stmt 1 view -0
 352              		.cfi_startproc
 353              		@ args = 4, pretend = 12, frame = 0
 354              		@ frame_needed = 0, uses_anonymous_args = 1
 355              		@ link register save eliminated.
 356              		.loc 1 143 1 is_stmt 0 view .LVU77
 357 0000 0EB4     		push	{r1, r2, r3}
 358              	.LCFI5:
 359              		.cfi_def_cfa_offset 12
 144:Src/syscalls.c ****     /* Pretend like we always fail */
 145:Src/syscalls.c ****     return -1;
 360              		.loc 1 145 5 is_stmt 1 view .LVU78
 361              		.loc 1 145 12 is_stmt 0 view .LVU79
 362 0002 0120     		movs	r0, #1
 363              	.LVL30:
 146:Src/syscalls.c **** }
 364              		.loc 1 146 1 view .LVU80
 365 0004 4042     		rsbs	r0, r0, #0
 366              		@ sp needed
 367 0006 03B0     		add	sp, sp, #12
 368 0008 7047     		bx	lr
ARM GAS  C:\Users\ADMINI~1\AppData\Local\Temp\ccAToabd.s 			page 10


 369              		.cfi_endproc
 370              	.LFE32:
 372              		.section	.text._wait,"ax",%progbits
 373              		.align	1
 374              		.global	_wait
 375              		.syntax unified
 376              		.code	16
 377              		.thumb_func
 379              	_wait:
 380              	.LVL31:
 381              	.LFB33:
 147:Src/syscalls.c **** 
 148:Src/syscalls.c **** int _wait(int *status)
 149:Src/syscalls.c **** {
 382              		.loc 1 149 1 is_stmt 1 view -0
 383              		.cfi_startproc
 384              		@ args = 0, pretend = 0, frame = 0
 385              		@ frame_needed = 0, uses_anonymous_args = 0
 386              		.loc 1 149 1 is_stmt 0 view .LVU82
 387 0000 10B5     		push	{r4, lr}
 388              	.LCFI6:
 389              		.cfi_def_cfa_offset 8
 390              		.cfi_offset 4, -8
 391              		.cfi_offset 14, -4
 150:Src/syscalls.c ****     errno = ECHILD;
 392              		.loc 1 150 5 is_stmt 1 view .LVU83
 393 0002 FFF7FEFF 		bl	__errno
 394              	.LVL32:
 395              		.loc 1 150 11 is_stmt 0 view .LVU84
 396 0006 0A23     		movs	r3, #10
 397 0008 0360     		str	r3, [r0]
 151:Src/syscalls.c ****     return -1;
 398              		.loc 1 151 5 is_stmt 1 view .LVU85
 399              		.loc 1 151 12 is_stmt 0 view .LVU86
 400 000a 0120     		movs	r0, #1
 152:Src/syscalls.c **** }
 401              		.loc 1 152 1 view .LVU87
 402 000c 4042     		rsbs	r0, r0, #0
 403              		@ sp needed
 404 000e 10BD     		pop	{r4, pc}
 405              		.cfi_endproc
 406              	.LFE33:
 408              		.section	.text._unlink,"ax",%progbits
 409              		.align	1
 410              		.global	_unlink
 411              		.syntax unified
 412              		.code	16
 413              		.thumb_func
 415              	_unlink:
 416              	.LVL33:
 417              	.LFB34:
 153:Src/syscalls.c **** 
 154:Src/syscalls.c **** int _unlink(char *name)
 155:Src/syscalls.c **** {
 418              		.loc 1 155 1 is_stmt 1 view -0
 419              		.cfi_startproc
 420              		@ args = 0, pretend = 0, frame = 0
ARM GAS  C:\Users\ADMINI~1\AppData\Local\Temp\ccAToabd.s 			page 11


 421              		@ frame_needed = 0, uses_anonymous_args = 0
 422              		.loc 1 155 1 is_stmt 0 view .LVU89
 423 0000 10B5     		push	{r4, lr}
 424              	.LCFI7:
 425              		.cfi_def_cfa_offset 8
 426              		.cfi_offset 4, -8
 427              		.cfi_offset 14, -4
 156:Src/syscalls.c ****     errno = ENOENT;
 428              		.loc 1 156 5 is_stmt 1 view .LVU90
 429 0002 FFF7FEFF 		bl	__errno
 430              	.LVL34:
 431              		.loc 1 156 11 is_stmt 0 view .LVU91
 432 0006 0223     		movs	r3, #2
 433 0008 0360     		str	r3, [r0]
 157:Src/syscalls.c ****     return -1;
 434              		.loc 1 157 5 is_stmt 1 view .LVU92
 435              		.loc 1 157 12 is_stmt 0 view .LVU93
 436 000a 0120     		movs	r0, #1
 158:Src/syscalls.c **** }
 437              		.loc 1 158 1 view .LVU94
 438 000c 4042     		rsbs	r0, r0, #0
 439              		@ sp needed
 440 000e 10BD     		pop	{r4, pc}
 441              		.cfi_endproc
 442              	.LFE34:
 444              		.section	.text._times,"ax",%progbits
 445              		.align	1
 446              		.global	_times
 447              		.syntax unified
 448              		.code	16
 449              		.thumb_func
 451              	_times:
 452              	.LVL35:
 453              	.LFB35:
 159:Src/syscalls.c **** 
 160:Src/syscalls.c **** int _times(struct tms *buf)
 161:Src/syscalls.c **** {
 454              		.loc 1 161 1 is_stmt 1 view -0
 455              		.cfi_startproc
 456              		@ args = 0, pretend = 0, frame = 0
 457              		@ frame_needed = 0, uses_anonymous_args = 0
 458              		@ link register save eliminated.
 162:Src/syscalls.c ****     return -1;
 459              		.loc 1 162 5 view .LVU96
 460              		.loc 1 162 12 is_stmt 0 view .LVU97
 461 0000 0120     		movs	r0, #1
 462              	.LVL36:
 163:Src/syscalls.c **** }
 463              		.loc 1 163 1 view .LVU98
 464 0002 4042     		rsbs	r0, r0, #0
 465              		@ sp needed
 466 0004 7047     		bx	lr
 467              		.cfi_endproc
 468              	.LFE35:
 470              		.section	.text._stat,"ax",%progbits
 471              		.align	1
 472              		.global	_stat
ARM GAS  C:\Users\ADMINI~1\AppData\Local\Temp\ccAToabd.s 			page 12


 473              		.syntax unified
 474              		.code	16
 475              		.thumb_func
 477              	_stat:
 478              	.LVL37:
 479              	.LFB36:
 164:Src/syscalls.c **** 
 165:Src/syscalls.c **** int _stat(char *file, struct stat *st)
 166:Src/syscalls.c **** {
 480              		.loc 1 166 1 is_stmt 1 view -0
 481              		.cfi_startproc
 482              		@ args = 0, pretend = 0, frame = 0
 483              		@ frame_needed = 0, uses_anonymous_args = 0
 484              		@ link register save eliminated.
 167:Src/syscalls.c ****     st->st_mode = S_IFCHR;
 485              		.loc 1 167 5 view .LVU100
 486              		.loc 1 167 17 is_stmt 0 view .LVU101
 487 0000 8023     		movs	r3, #128
 488 0002 9B01     		lsls	r3, r3, #6
 489 0004 4B60     		str	r3, [r1, #4]
 168:Src/syscalls.c ****     return 0;
 490              		.loc 1 168 5 is_stmt 1 view .LVU102
 169:Src/syscalls.c **** }
 491              		.loc 1 169 1 is_stmt 0 view .LVU103
 492 0006 0020     		movs	r0, #0
 493              	.LVL38:
 494              		.loc 1 169 1 view .LVU104
 495              		@ sp needed
 496 0008 7047     		bx	lr
 497              		.cfi_endproc
 498              	.LFE36:
 500              		.section	.text._link,"ax",%progbits
 501              		.align	1
 502              		.global	_link
 503              		.syntax unified
 504              		.code	16
 505              		.thumb_func
 507              	_link:
 508              	.LVL39:
 509              	.LFB37:
 170:Src/syscalls.c **** 
 171:Src/syscalls.c **** int _link(char *old, char *new)
 172:Src/syscalls.c **** {
 510              		.loc 1 172 1 is_stmt 1 view -0
 511              		.cfi_startproc
 512              		@ args = 0, pretend = 0, frame = 0
 513              		@ frame_needed = 0, uses_anonymous_args = 0
 514              		.loc 1 172 1 is_stmt 0 view .LVU106
 515 0000 10B5     		push	{r4, lr}
 516              	.LCFI8:
 517              		.cfi_def_cfa_offset 8
 518              		.cfi_offset 4, -8
 519              		.cfi_offset 14, -4
 173:Src/syscalls.c ****     errno = EMLINK;
 520              		.loc 1 173 5 is_stmt 1 view .LVU107
 521 0002 FFF7FEFF 		bl	__errno
 522              	.LVL40:
ARM GAS  C:\Users\ADMINI~1\AppData\Local\Temp\ccAToabd.s 			page 13


 523              		.loc 1 173 11 is_stmt 0 view .LVU108
 524 0006 1F23     		movs	r3, #31
 525 0008 0360     		str	r3, [r0]
 174:Src/syscalls.c ****     return -1;
 526              		.loc 1 174 5 is_stmt 1 view .LVU109
 527              		.loc 1 174 12 is_stmt 0 view .LVU110
 528 000a 0120     		movs	r0, #1
 175:Src/syscalls.c **** }
 529              		.loc 1 175 1 view .LVU111
 530 000c 4042     		rsbs	r0, r0, #0
 531              		@ sp needed
 532 000e 10BD     		pop	{r4, pc}
 533              		.cfi_endproc
 534              	.LFE37:
 536              		.section	.text._fork,"ax",%progbits
 537              		.align	1
 538              		.global	_fork
 539              		.syntax unified
 540              		.code	16
 541              		.thumb_func
 543              	_fork:
 544              	.LFB38:
 176:Src/syscalls.c **** 
 177:Src/syscalls.c **** int _fork(void)
 178:Src/syscalls.c **** {
 545              		.loc 1 178 1 is_stmt 1 view -0
 546              		.cfi_startproc
 547              		@ args = 0, pretend = 0, frame = 0
 548              		@ frame_needed = 0, uses_anonymous_args = 0
 549 0000 10B5     		push	{r4, lr}
 550              	.LCFI9:
 551              		.cfi_def_cfa_offset 8
 552              		.cfi_offset 4, -8
 553              		.cfi_offset 14, -4
 179:Src/syscalls.c ****     errno = EAGAIN;
 554              		.loc 1 179 5 view .LVU113
 555 0002 FFF7FEFF 		bl	__errno
 556              	.LVL41:
 557              		.loc 1 179 11 is_stmt 0 view .LVU114
 558 0006 0B23     		movs	r3, #11
 559 0008 0360     		str	r3, [r0]
 180:Src/syscalls.c ****     return -1;
 560              		.loc 1 180 5 is_stmt 1 view .LVU115
 561              		.loc 1 180 12 is_stmt 0 view .LVU116
 562 000a 0120     		movs	r0, #1
 181:Src/syscalls.c **** }
 563              		.loc 1 181 1 view .LVU117
 564 000c 4042     		rsbs	r0, r0, #0
 565              		@ sp needed
 566 000e 10BD     		pop	{r4, pc}
 567              		.cfi_endproc
 568              	.LFE38:
 570              		.section	.text._execve,"ax",%progbits
 571              		.align	1
 572              		.global	_execve
 573              		.syntax unified
 574              		.code	16
ARM GAS  C:\Users\ADMINI~1\AppData\Local\Temp\ccAToabd.s 			page 14


 575              		.thumb_func
 577              	_execve:
 578              	.LVL42:
 579              	.LFB39:
 182:Src/syscalls.c **** 
 183:Src/syscalls.c **** int _execve(char *name, char **argv, char **env)
 184:Src/syscalls.c **** {
 580              		.loc 1 184 1 is_stmt 1 view -0
 581              		.cfi_startproc
 582              		@ args = 0, pretend = 0, frame = 0
 583              		@ frame_needed = 0, uses_anonymous_args = 0
 584              		.loc 1 184 1 is_stmt 0 view .LVU119
 585 0000 10B5     		push	{r4, lr}
 586              	.LCFI10:
 587              		.cfi_def_cfa_offset 8
 588              		.cfi_offset 4, -8
 589              		.cfi_offset 14, -4
 185:Src/syscalls.c ****     errno = ENOMEM;
 590              		.loc 1 185 5 is_stmt 1 view .LVU120
 591 0002 FFF7FEFF 		bl	__errno
 592              	.LVL43:
 593              		.loc 1 185 11 is_stmt 0 view .LVU121
 594 0006 0C23     		movs	r3, #12
 595 0008 0360     		str	r3, [r0]
 186:Src/syscalls.c ****     return -1;
 596              		.loc 1 186 5 is_stmt 1 view .LVU122
 597              		.loc 1 186 12 is_stmt 0 view .LVU123
 598 000a 0120     		movs	r0, #1
 187:Src/syscalls.c **** }
 599              		.loc 1 187 1 view .LVU124
 600 000c 4042     		rsbs	r0, r0, #0
 601              		@ sp needed
 602 000e 10BD     		pop	{r4, pc}
 603              		.cfi_endproc
 604              	.LFE39:
 606              		.global	environ
 607              		.global	__env
 608              		.section	.bss.__env,"aw",%nobits
 609              		.align	2
 612              	__env:
 613 0000 00000000 		.space	4
 614              		.section	.bss.heap_end.0,"aw",%nobits
 615              		.align	2
 616              		.set	.LANCHOR0,. + 0
 619              	heap_end.0:
 620 0000 00000000 		.space	4
 621              		.section	.data.environ,"aw"
 622              		.align	2
 625              	environ:
 626 0000 00000000 		.word	__env
 627              		.weak	__io_putchar
 628              		.weak	__io_getchar
 629              		.text
 630              	.Letext0:
 631              		.file 2 "c:\\program files (x86)\\gnu arm embedded toolchain\\10 2021.10\\arm-none-eabi\\include\\
 632              		.file 3 "c:\\program files (x86)\\gnu arm embedded toolchain\\10 2021.10\\arm-none-eabi\\include\\
 633              		.file 4 "c:\\program files (x86)\\gnu arm embedded toolchain\\10 2021.10\\arm-none-eabi\\include\\
ARM GAS  C:\Users\ADMINI~1\AppData\Local\Temp\ccAToabd.s 			page 15


 634              		.file 5 "c:\\program files (x86)\\gnu arm embedded toolchain\\10 2021.10\\arm-none-eabi\\include\\
 635              		.file 6 "c:\\program files (x86)\\gnu arm embedded toolchain\\10 2021.10\\arm-none-eabi\\include\\
 636              		.file 7 "c:\\program files (x86)\\gnu arm embedded toolchain\\10 2021.10\\arm-none-eabi\\include\\
 637              		.file 8 "c:\\program files (x86)\\gnu arm embedded toolchain\\10 2021.10\\arm-none-eabi\\include\\
 638              		.file 9 "c:\\program files (x86)\\gnu arm embedded toolchain\\10 2021.10\\arm-none-eabi\\include\\
ARM GAS  C:\Users\ADMINI~1\AppData\Local\Temp\ccAToabd.s 			page 16

