ARM GAS  C:\Users\ADMINI~1\AppData\Local\Temp\cco9rtsT.s 			page 1


   1              		.cpu cortex-m0
   2              		.arch armv6s-m
   3              		.fpu softvfp
   4              		.eabi_attribute 20, 1
   5              		.eabi_attribute 21, 1
   6              		.eabi_attribute 23, 3
   7              		.eabi_attribute 24, 1
   8              		.eabi_attribute 25, 1
   9              		.eabi_attribute 26, 1
  10              		.eabi_attribute 30, 1
  11              		.eabi_attribute 34, 0
  12              		.eabi_attribute 18, 4
  13              		.file	"usart.c"
  14              		.text
  15              	.Ltext0:
  16              		.cfi_sections	.debug_frame
  17              		.section	.text.MX_USART1_UART_Init,"ax",%progbits
  18              		.align	1
  19              		.global	MX_USART1_UART_Init
  20              		.syntax unified
  21              		.code	16
  22              		.thumb_func
  24              	MX_USART1_UART_Init:
  25              	.LFB884:
  26              		.file 1 "Src/usart.c"
   1:Src/usart.c   **** /* USER CODE BEGIN Header */
   2:Src/usart.c   **** /**
   3:Src/usart.c   ****   ******************************************************************************
   4:Src/usart.c   ****   * @file    usart.c
   5:Src/usart.c   ****   * @brief   This file provides code for the configuration
   6:Src/usart.c   ****   *          of the USART instances.
   7:Src/usart.c   ****   ******************************************************************************
   8:Src/usart.c   ****   * @attention
   9:Src/usart.c   ****   *
  10:Src/usart.c   ****   * Copyright (c) 2022 STMicroelectronics.
  11:Src/usart.c   ****   * All rights reserved.
  12:Src/usart.c   ****   *
  13:Src/usart.c   ****   * This software is licensed under terms that can be found in the LICENSE file
  14:Src/usart.c   ****   * in the root directory of this software component.
  15:Src/usart.c   ****   * If no LICENSE file comes with this software, it is provided AS-IS.
  16:Src/usart.c   ****   *
  17:Src/usart.c   ****   ******************************************************************************
  18:Src/usart.c   ****   */
  19:Src/usart.c   **** /* USER CODE END Header */
  20:Src/usart.c   **** /* Includes ------------------------------------------------------------------*/
  21:Src/usart.c   **** #include "usart.h"
  22:Src/usart.c   **** 
  23:Src/usart.c   **** /* USER CODE BEGIN 0 */
  24:Src/usart.c   **** 
  25:Src/usart.c   **** /* USER CODE END 0 */
  26:Src/usart.c   **** 
  27:Src/usart.c   **** /* USART1 init function */
  28:Src/usart.c   **** 
  29:Src/usart.c   **** void MX_USART1_UART_Init(void)
  30:Src/usart.c   **** {
  27              		.loc 1 30 1 view -0
  28              		.cfi_startproc
ARM GAS  C:\Users\ADMINI~1\AppData\Local\Temp\cco9rtsT.s 			page 2


  29              		@ args = 0, pretend = 0, frame = 64
  30              		@ frame_needed = 0, uses_anonymous_args = 0
  31 0000 F0B5     		push	{r4, r5, r6, r7, lr}
  32              	.LCFI0:
  33              		.cfi_def_cfa_offset 20
  34              		.cfi_offset 4, -20
  35              		.cfi_offset 5, -16
  36              		.cfi_offset 6, -12
  37              		.cfi_offset 7, -8
  38              		.cfi_offset 14, -4
  39 0002 C646     		mov	lr, r8
  40 0004 00B5     		push	{lr}
  41              	.LCFI1:
  42              		.cfi_def_cfa_offset 24
  43              		.cfi_offset 8, -24
  44 0006 90B0     		sub	sp, sp, #64
  45              	.LCFI2:
  46              		.cfi_def_cfa_offset 88
  31:Src/usart.c   **** 
  32:Src/usart.c   ****   /* USER CODE BEGIN USART1_Init 0 */
  33:Src/usart.c   **** 
  34:Src/usart.c   ****   /* USER CODE END USART1_Init 0 */
  35:Src/usart.c   **** 
  36:Src/usart.c   ****   LL_USART_InitTypeDef USART_InitStruct = {0};
  47              		.loc 1 36 3 view .LVU1
  48              		.loc 1 36 24 is_stmt 0 view .LVU2
  49 0008 1C22     		movs	r2, #28
  50 000a 0021     		movs	r1, #0
  51 000c 09A8     		add	r0, sp, #36
  52 000e FFF7FEFF 		bl	memset
  53              	.LVL0:
  37:Src/usart.c   **** 
  38:Src/usart.c   ****   LL_GPIO_InitTypeDef GPIO_InitStruct = {0};
  54              		.loc 1 38 3 is_stmt 1 view .LVU3
  55              		.loc 1 38 23 is_stmt 0 view .LVU4
  56 0012 1822     		movs	r2, #24
  57 0014 0021     		movs	r1, #0
  58 0016 03A8     		add	r0, sp, #12
  59 0018 FFF7FEFF 		bl	memset
  60              	.LVL1:
  39:Src/usart.c   **** 
  40:Src/usart.c   ****   /* Peripheral clock enable */
  41:Src/usart.c   ****   LL_APB1_GRP2_EnableClock(LL_APB1_GRP2_PERIPH_USART1);
  61              		.loc 1 41 3 is_stmt 1 view .LVU5
  62              	.LBB26:
  63              	.LBI26:
  64              		.file 2 "Drivers/STM32F0xx_HAL_Driver/Inc/stm32f0xx_ll_bus.h"
   1:Drivers/STM32F0xx_HAL_Driver/Inc/stm32f0xx_ll_bus.h **** /**
   2:Drivers/STM32F0xx_HAL_Driver/Inc/stm32f0xx_ll_bus.h ****   ******************************************************************************
   3:Drivers/STM32F0xx_HAL_Driver/Inc/stm32f0xx_ll_bus.h ****   * @file    stm32f0xx_ll_bus.h
   4:Drivers/STM32F0xx_HAL_Driver/Inc/stm32f0xx_ll_bus.h ****   * @author  MCD Application Team
   5:Drivers/STM32F0xx_HAL_Driver/Inc/stm32f0xx_ll_bus.h ****   * @brief   Header file of BUS LL module.
   6:Drivers/STM32F0xx_HAL_Driver/Inc/stm32f0xx_ll_bus.h **** 
   7:Drivers/STM32F0xx_HAL_Driver/Inc/stm32f0xx_ll_bus.h ****   @verbatim                
   8:Drivers/STM32F0xx_HAL_Driver/Inc/stm32f0xx_ll_bus.h ****                       ##### RCC Limitations #####
   9:Drivers/STM32F0xx_HAL_Driver/Inc/stm32f0xx_ll_bus.h ****   ==============================================================================
  10:Drivers/STM32F0xx_HAL_Driver/Inc/stm32f0xx_ll_bus.h ****     [..]  
ARM GAS  C:\Users\ADMINI~1\AppData\Local\Temp\cco9rtsT.s 			page 3


  11:Drivers/STM32F0xx_HAL_Driver/Inc/stm32f0xx_ll_bus.h ****       A delay between an RCC peripheral clock enable and the effective peripheral 
  12:Drivers/STM32F0xx_HAL_Driver/Inc/stm32f0xx_ll_bus.h ****       enabling should be taken into account in order to manage the peripheral read/write 
  13:Drivers/STM32F0xx_HAL_Driver/Inc/stm32f0xx_ll_bus.h ****       from/to registers.
  14:Drivers/STM32F0xx_HAL_Driver/Inc/stm32f0xx_ll_bus.h ****       (+) This delay depends on the peripheral mapping.
  15:Drivers/STM32F0xx_HAL_Driver/Inc/stm32f0xx_ll_bus.h ****         (++) AHB & APB peripherals, 1 dummy read is necessary
  16:Drivers/STM32F0xx_HAL_Driver/Inc/stm32f0xx_ll_bus.h **** 
  17:Drivers/STM32F0xx_HAL_Driver/Inc/stm32f0xx_ll_bus.h ****     [..]  
  18:Drivers/STM32F0xx_HAL_Driver/Inc/stm32f0xx_ll_bus.h ****       Workarounds:
  19:Drivers/STM32F0xx_HAL_Driver/Inc/stm32f0xx_ll_bus.h ****       (#) For AHB & APB peripherals, a dummy read to the peripheral register has been
  20:Drivers/STM32F0xx_HAL_Driver/Inc/stm32f0xx_ll_bus.h ****           inserted in each LL_{BUS}_GRP{x}_EnableClock() function.
  21:Drivers/STM32F0xx_HAL_Driver/Inc/stm32f0xx_ll_bus.h **** 
  22:Drivers/STM32F0xx_HAL_Driver/Inc/stm32f0xx_ll_bus.h ****   @endverbatim
  23:Drivers/STM32F0xx_HAL_Driver/Inc/stm32f0xx_ll_bus.h ****   ******************************************************************************
  24:Drivers/STM32F0xx_HAL_Driver/Inc/stm32f0xx_ll_bus.h ****   * @attention
  25:Drivers/STM32F0xx_HAL_Driver/Inc/stm32f0xx_ll_bus.h ****   *
  26:Drivers/STM32F0xx_HAL_Driver/Inc/stm32f0xx_ll_bus.h ****   * <h2><center>&copy; Copyright (c) 2016 STMicroelectronics.
  27:Drivers/STM32F0xx_HAL_Driver/Inc/stm32f0xx_ll_bus.h ****   * All rights reserved.</center></h2>
  28:Drivers/STM32F0xx_HAL_Driver/Inc/stm32f0xx_ll_bus.h ****   *
  29:Drivers/STM32F0xx_HAL_Driver/Inc/stm32f0xx_ll_bus.h ****   * This software component is licensed by ST under BSD 3-Clause license,
  30:Drivers/STM32F0xx_HAL_Driver/Inc/stm32f0xx_ll_bus.h ****   * the "License"; You may not use this file except in compliance with the
  31:Drivers/STM32F0xx_HAL_Driver/Inc/stm32f0xx_ll_bus.h ****   * License. You may obtain a copy of the License at:
  32:Drivers/STM32F0xx_HAL_Driver/Inc/stm32f0xx_ll_bus.h ****   *                        opensource.org/licenses/BSD-3-Clause
  33:Drivers/STM32F0xx_HAL_Driver/Inc/stm32f0xx_ll_bus.h ****   *
  34:Drivers/STM32F0xx_HAL_Driver/Inc/stm32f0xx_ll_bus.h ****   ******************************************************************************
  35:Drivers/STM32F0xx_HAL_Driver/Inc/stm32f0xx_ll_bus.h ****   */
  36:Drivers/STM32F0xx_HAL_Driver/Inc/stm32f0xx_ll_bus.h **** 
  37:Drivers/STM32F0xx_HAL_Driver/Inc/stm32f0xx_ll_bus.h **** /* Define to prevent recursive inclusion -------------------------------------*/
  38:Drivers/STM32F0xx_HAL_Driver/Inc/stm32f0xx_ll_bus.h **** #ifndef __STM32F0xx_LL_BUS_H
  39:Drivers/STM32F0xx_HAL_Driver/Inc/stm32f0xx_ll_bus.h **** #define __STM32F0xx_LL_BUS_H
  40:Drivers/STM32F0xx_HAL_Driver/Inc/stm32f0xx_ll_bus.h **** 
  41:Drivers/STM32F0xx_HAL_Driver/Inc/stm32f0xx_ll_bus.h **** #ifdef __cplusplus
  42:Drivers/STM32F0xx_HAL_Driver/Inc/stm32f0xx_ll_bus.h **** extern "C" {
  43:Drivers/STM32F0xx_HAL_Driver/Inc/stm32f0xx_ll_bus.h **** #endif
  44:Drivers/STM32F0xx_HAL_Driver/Inc/stm32f0xx_ll_bus.h **** 
  45:Drivers/STM32F0xx_HAL_Driver/Inc/stm32f0xx_ll_bus.h **** /* Includes ------------------------------------------------------------------*/
  46:Drivers/STM32F0xx_HAL_Driver/Inc/stm32f0xx_ll_bus.h **** #include "stm32f0xx.h"
  47:Drivers/STM32F0xx_HAL_Driver/Inc/stm32f0xx_ll_bus.h **** 
  48:Drivers/STM32F0xx_HAL_Driver/Inc/stm32f0xx_ll_bus.h **** /** @addtogroup STM32F0xx_LL_Driver
  49:Drivers/STM32F0xx_HAL_Driver/Inc/stm32f0xx_ll_bus.h ****   * @{
  50:Drivers/STM32F0xx_HAL_Driver/Inc/stm32f0xx_ll_bus.h ****   */
  51:Drivers/STM32F0xx_HAL_Driver/Inc/stm32f0xx_ll_bus.h **** 
  52:Drivers/STM32F0xx_HAL_Driver/Inc/stm32f0xx_ll_bus.h **** #if defined(RCC)
  53:Drivers/STM32F0xx_HAL_Driver/Inc/stm32f0xx_ll_bus.h **** 
  54:Drivers/STM32F0xx_HAL_Driver/Inc/stm32f0xx_ll_bus.h **** /** @defgroup BUS_LL BUS
  55:Drivers/STM32F0xx_HAL_Driver/Inc/stm32f0xx_ll_bus.h ****   * @{
  56:Drivers/STM32F0xx_HAL_Driver/Inc/stm32f0xx_ll_bus.h ****   */
  57:Drivers/STM32F0xx_HAL_Driver/Inc/stm32f0xx_ll_bus.h **** 
  58:Drivers/STM32F0xx_HAL_Driver/Inc/stm32f0xx_ll_bus.h **** /* Private types -------------------------------------------------------------*/
  59:Drivers/STM32F0xx_HAL_Driver/Inc/stm32f0xx_ll_bus.h **** /* Private variables ---------------------------------------------------------*/
  60:Drivers/STM32F0xx_HAL_Driver/Inc/stm32f0xx_ll_bus.h **** 
  61:Drivers/STM32F0xx_HAL_Driver/Inc/stm32f0xx_ll_bus.h **** /* Private constants ---------------------------------------------------------*/
  62:Drivers/STM32F0xx_HAL_Driver/Inc/stm32f0xx_ll_bus.h **** 
  63:Drivers/STM32F0xx_HAL_Driver/Inc/stm32f0xx_ll_bus.h **** /* Private macros ------------------------------------------------------------*/
  64:Drivers/STM32F0xx_HAL_Driver/Inc/stm32f0xx_ll_bus.h **** 
  65:Drivers/STM32F0xx_HAL_Driver/Inc/stm32f0xx_ll_bus.h **** /* Exported types ------------------------------------------------------------*/
  66:Drivers/STM32F0xx_HAL_Driver/Inc/stm32f0xx_ll_bus.h **** /* Exported constants --------------------------------------------------------*/
  67:Drivers/STM32F0xx_HAL_Driver/Inc/stm32f0xx_ll_bus.h **** /** @defgroup BUS_LL_Exported_Constants BUS Exported Constants
ARM GAS  C:\Users\ADMINI~1\AppData\Local\Temp\cco9rtsT.s 			page 4


  68:Drivers/STM32F0xx_HAL_Driver/Inc/stm32f0xx_ll_bus.h ****   * @{
  69:Drivers/STM32F0xx_HAL_Driver/Inc/stm32f0xx_ll_bus.h ****   */
  70:Drivers/STM32F0xx_HAL_Driver/Inc/stm32f0xx_ll_bus.h **** 
  71:Drivers/STM32F0xx_HAL_Driver/Inc/stm32f0xx_ll_bus.h **** /** @defgroup BUS_LL_EC_AHB1_GRP1_PERIPH  AHB1 GRP1 PERIPH
  72:Drivers/STM32F0xx_HAL_Driver/Inc/stm32f0xx_ll_bus.h ****   * @{
  73:Drivers/STM32F0xx_HAL_Driver/Inc/stm32f0xx_ll_bus.h ****   */
  74:Drivers/STM32F0xx_HAL_Driver/Inc/stm32f0xx_ll_bus.h **** #define LL_AHB1_GRP1_PERIPH_ALL            (uint32_t)0xFFFFFFFFU
  75:Drivers/STM32F0xx_HAL_Driver/Inc/stm32f0xx_ll_bus.h **** #define LL_AHB1_GRP1_PERIPH_DMA1           RCC_AHBENR_DMA1EN
  76:Drivers/STM32F0xx_HAL_Driver/Inc/stm32f0xx_ll_bus.h **** #if defined(DMA2)
  77:Drivers/STM32F0xx_HAL_Driver/Inc/stm32f0xx_ll_bus.h **** #define LL_AHB1_GRP1_PERIPH_DMA2           RCC_AHBENR_DMA2EN
  78:Drivers/STM32F0xx_HAL_Driver/Inc/stm32f0xx_ll_bus.h **** #endif /*DMA2*/
  79:Drivers/STM32F0xx_HAL_Driver/Inc/stm32f0xx_ll_bus.h **** #define LL_AHB1_GRP1_PERIPH_SRAM           RCC_AHBENR_SRAMEN
  80:Drivers/STM32F0xx_HAL_Driver/Inc/stm32f0xx_ll_bus.h **** #define LL_AHB1_GRP1_PERIPH_FLASH          RCC_AHBENR_FLITFEN
  81:Drivers/STM32F0xx_HAL_Driver/Inc/stm32f0xx_ll_bus.h **** #define LL_AHB1_GRP1_PERIPH_CRC            RCC_AHBENR_CRCEN
  82:Drivers/STM32F0xx_HAL_Driver/Inc/stm32f0xx_ll_bus.h **** #define LL_AHB1_GRP1_PERIPH_GPIOA          RCC_AHBENR_GPIOAEN
  83:Drivers/STM32F0xx_HAL_Driver/Inc/stm32f0xx_ll_bus.h **** #define LL_AHB1_GRP1_PERIPH_GPIOB          RCC_AHBENR_GPIOBEN
  84:Drivers/STM32F0xx_HAL_Driver/Inc/stm32f0xx_ll_bus.h **** #define LL_AHB1_GRP1_PERIPH_GPIOC          RCC_AHBENR_GPIOCEN
  85:Drivers/STM32F0xx_HAL_Driver/Inc/stm32f0xx_ll_bus.h **** #if defined(GPIOD)
  86:Drivers/STM32F0xx_HAL_Driver/Inc/stm32f0xx_ll_bus.h **** #define LL_AHB1_GRP1_PERIPH_GPIOD          RCC_AHBENR_GPIODEN
  87:Drivers/STM32F0xx_HAL_Driver/Inc/stm32f0xx_ll_bus.h **** #endif /*GPIOD*/
  88:Drivers/STM32F0xx_HAL_Driver/Inc/stm32f0xx_ll_bus.h **** #if defined(GPIOE)
  89:Drivers/STM32F0xx_HAL_Driver/Inc/stm32f0xx_ll_bus.h **** #define LL_AHB1_GRP1_PERIPH_GPIOE          RCC_AHBENR_GPIOEEN
  90:Drivers/STM32F0xx_HAL_Driver/Inc/stm32f0xx_ll_bus.h **** #endif /*GPIOE*/
  91:Drivers/STM32F0xx_HAL_Driver/Inc/stm32f0xx_ll_bus.h **** #define LL_AHB1_GRP1_PERIPH_GPIOF          RCC_AHBENR_GPIOFEN
  92:Drivers/STM32F0xx_HAL_Driver/Inc/stm32f0xx_ll_bus.h **** #if defined(TSC)
  93:Drivers/STM32F0xx_HAL_Driver/Inc/stm32f0xx_ll_bus.h **** #define LL_AHB1_GRP1_PERIPH_TSC            RCC_AHBENR_TSCEN
  94:Drivers/STM32F0xx_HAL_Driver/Inc/stm32f0xx_ll_bus.h **** #endif /*TSC*/
  95:Drivers/STM32F0xx_HAL_Driver/Inc/stm32f0xx_ll_bus.h **** /**
  96:Drivers/STM32F0xx_HAL_Driver/Inc/stm32f0xx_ll_bus.h ****   * @}
  97:Drivers/STM32F0xx_HAL_Driver/Inc/stm32f0xx_ll_bus.h ****   */
  98:Drivers/STM32F0xx_HAL_Driver/Inc/stm32f0xx_ll_bus.h **** 
  99:Drivers/STM32F0xx_HAL_Driver/Inc/stm32f0xx_ll_bus.h **** /** @defgroup BUS_LL_EC_APB1_GRP1_PERIPH  APB1 GRP1 PERIPH
 100:Drivers/STM32F0xx_HAL_Driver/Inc/stm32f0xx_ll_bus.h ****   * @{
 101:Drivers/STM32F0xx_HAL_Driver/Inc/stm32f0xx_ll_bus.h ****   */
 102:Drivers/STM32F0xx_HAL_Driver/Inc/stm32f0xx_ll_bus.h **** #define LL_APB1_GRP1_PERIPH_ALL            (uint32_t)0xFFFFFFFFU
 103:Drivers/STM32F0xx_HAL_Driver/Inc/stm32f0xx_ll_bus.h **** #if defined(TIM2)
 104:Drivers/STM32F0xx_HAL_Driver/Inc/stm32f0xx_ll_bus.h **** #define LL_APB1_GRP1_PERIPH_TIM2           RCC_APB1ENR_TIM2EN
 105:Drivers/STM32F0xx_HAL_Driver/Inc/stm32f0xx_ll_bus.h **** #endif /*TIM2*/
 106:Drivers/STM32F0xx_HAL_Driver/Inc/stm32f0xx_ll_bus.h **** #define LL_APB1_GRP1_PERIPH_TIM3           RCC_APB1ENR_TIM3EN
 107:Drivers/STM32F0xx_HAL_Driver/Inc/stm32f0xx_ll_bus.h **** #if defined(TIM6)
 108:Drivers/STM32F0xx_HAL_Driver/Inc/stm32f0xx_ll_bus.h **** #define LL_APB1_GRP1_PERIPH_TIM6           RCC_APB1ENR_TIM6EN
 109:Drivers/STM32F0xx_HAL_Driver/Inc/stm32f0xx_ll_bus.h **** #endif /*TIM6*/
 110:Drivers/STM32F0xx_HAL_Driver/Inc/stm32f0xx_ll_bus.h **** #if defined(TIM7)
 111:Drivers/STM32F0xx_HAL_Driver/Inc/stm32f0xx_ll_bus.h **** #define LL_APB1_GRP1_PERIPH_TIM7           RCC_APB1ENR_TIM7EN
 112:Drivers/STM32F0xx_HAL_Driver/Inc/stm32f0xx_ll_bus.h **** #endif /*TIM7*/
 113:Drivers/STM32F0xx_HAL_Driver/Inc/stm32f0xx_ll_bus.h **** #define LL_APB1_GRP1_PERIPH_TIM14          RCC_APB1ENR_TIM14EN
 114:Drivers/STM32F0xx_HAL_Driver/Inc/stm32f0xx_ll_bus.h **** #define LL_APB1_GRP1_PERIPH_WWDG           RCC_APB1ENR_WWDGEN
 115:Drivers/STM32F0xx_HAL_Driver/Inc/stm32f0xx_ll_bus.h **** #if defined(SPI2)
 116:Drivers/STM32F0xx_HAL_Driver/Inc/stm32f0xx_ll_bus.h **** #define LL_APB1_GRP1_PERIPH_SPI2           RCC_APB1ENR_SPI2EN
 117:Drivers/STM32F0xx_HAL_Driver/Inc/stm32f0xx_ll_bus.h **** #endif /*SPI2*/
 118:Drivers/STM32F0xx_HAL_Driver/Inc/stm32f0xx_ll_bus.h **** #if defined(USART2)
 119:Drivers/STM32F0xx_HAL_Driver/Inc/stm32f0xx_ll_bus.h **** #define LL_APB1_GRP1_PERIPH_USART2         RCC_APB1ENR_USART2EN
 120:Drivers/STM32F0xx_HAL_Driver/Inc/stm32f0xx_ll_bus.h **** #endif /* USART2 */
 121:Drivers/STM32F0xx_HAL_Driver/Inc/stm32f0xx_ll_bus.h **** #if defined(USART3)
 122:Drivers/STM32F0xx_HAL_Driver/Inc/stm32f0xx_ll_bus.h **** #define LL_APB1_GRP1_PERIPH_USART3         RCC_APB1ENR_USART3EN
 123:Drivers/STM32F0xx_HAL_Driver/Inc/stm32f0xx_ll_bus.h **** #endif /* USART3 */
 124:Drivers/STM32F0xx_HAL_Driver/Inc/stm32f0xx_ll_bus.h **** #if defined(USART4)
ARM GAS  C:\Users\ADMINI~1\AppData\Local\Temp\cco9rtsT.s 			page 5


 125:Drivers/STM32F0xx_HAL_Driver/Inc/stm32f0xx_ll_bus.h **** #define LL_APB1_GRP1_PERIPH_USART4         RCC_APB1ENR_USART4EN
 126:Drivers/STM32F0xx_HAL_Driver/Inc/stm32f0xx_ll_bus.h **** #endif /* USART4 */
 127:Drivers/STM32F0xx_HAL_Driver/Inc/stm32f0xx_ll_bus.h **** #if defined(USART5)
 128:Drivers/STM32F0xx_HAL_Driver/Inc/stm32f0xx_ll_bus.h **** #define LL_APB1_GRP1_PERIPH_USART5         RCC_APB1ENR_USART5EN
 129:Drivers/STM32F0xx_HAL_Driver/Inc/stm32f0xx_ll_bus.h **** #endif /* USART5 */
 130:Drivers/STM32F0xx_HAL_Driver/Inc/stm32f0xx_ll_bus.h **** #define LL_APB1_GRP1_PERIPH_I2C1           RCC_APB1ENR_I2C1EN
 131:Drivers/STM32F0xx_HAL_Driver/Inc/stm32f0xx_ll_bus.h **** #if defined(I2C2)
 132:Drivers/STM32F0xx_HAL_Driver/Inc/stm32f0xx_ll_bus.h **** #define LL_APB1_GRP1_PERIPH_I2C2           RCC_APB1ENR_I2C2EN
 133:Drivers/STM32F0xx_HAL_Driver/Inc/stm32f0xx_ll_bus.h **** #endif /*I2C2*/
 134:Drivers/STM32F0xx_HAL_Driver/Inc/stm32f0xx_ll_bus.h **** #if defined(USB)
 135:Drivers/STM32F0xx_HAL_Driver/Inc/stm32f0xx_ll_bus.h **** #define LL_APB1_GRP1_PERIPH_USB            RCC_APB1ENR_USBEN
 136:Drivers/STM32F0xx_HAL_Driver/Inc/stm32f0xx_ll_bus.h **** #endif /* USB */
 137:Drivers/STM32F0xx_HAL_Driver/Inc/stm32f0xx_ll_bus.h **** #if defined(CAN)
 138:Drivers/STM32F0xx_HAL_Driver/Inc/stm32f0xx_ll_bus.h **** #define LL_APB1_GRP1_PERIPH_CAN            RCC_APB1ENR_CANEN
 139:Drivers/STM32F0xx_HAL_Driver/Inc/stm32f0xx_ll_bus.h **** #endif /*CAN*/
 140:Drivers/STM32F0xx_HAL_Driver/Inc/stm32f0xx_ll_bus.h **** #if defined(CRS)
 141:Drivers/STM32F0xx_HAL_Driver/Inc/stm32f0xx_ll_bus.h **** #define LL_APB1_GRP1_PERIPH_CRS            RCC_APB1ENR_CRSEN
 142:Drivers/STM32F0xx_HAL_Driver/Inc/stm32f0xx_ll_bus.h **** #endif /*CRS*/
 143:Drivers/STM32F0xx_HAL_Driver/Inc/stm32f0xx_ll_bus.h **** #define LL_APB1_GRP1_PERIPH_PWR            RCC_APB1ENR_PWREN
 144:Drivers/STM32F0xx_HAL_Driver/Inc/stm32f0xx_ll_bus.h **** #if defined(DAC)
 145:Drivers/STM32F0xx_HAL_Driver/Inc/stm32f0xx_ll_bus.h **** #define LL_APB1_GRP1_PERIPH_DAC1           RCC_APB1ENR_DACEN
 146:Drivers/STM32F0xx_HAL_Driver/Inc/stm32f0xx_ll_bus.h **** #endif /*DAC*/
 147:Drivers/STM32F0xx_HAL_Driver/Inc/stm32f0xx_ll_bus.h **** #if defined(CEC)
 148:Drivers/STM32F0xx_HAL_Driver/Inc/stm32f0xx_ll_bus.h **** #define LL_APB1_GRP1_PERIPH_CEC            RCC_APB1ENR_CECEN
 149:Drivers/STM32F0xx_HAL_Driver/Inc/stm32f0xx_ll_bus.h **** #endif /*CEC*/
 150:Drivers/STM32F0xx_HAL_Driver/Inc/stm32f0xx_ll_bus.h **** /**
 151:Drivers/STM32F0xx_HAL_Driver/Inc/stm32f0xx_ll_bus.h ****   * @}
 152:Drivers/STM32F0xx_HAL_Driver/Inc/stm32f0xx_ll_bus.h ****   */
 153:Drivers/STM32F0xx_HAL_Driver/Inc/stm32f0xx_ll_bus.h **** 
 154:Drivers/STM32F0xx_HAL_Driver/Inc/stm32f0xx_ll_bus.h **** /** @defgroup BUS_LL_EC_APB1_GRP2_PERIPH  APB1 GRP2 PERIPH
 155:Drivers/STM32F0xx_HAL_Driver/Inc/stm32f0xx_ll_bus.h ****   * @{
 156:Drivers/STM32F0xx_HAL_Driver/Inc/stm32f0xx_ll_bus.h ****   */
 157:Drivers/STM32F0xx_HAL_Driver/Inc/stm32f0xx_ll_bus.h **** #define LL_APB1_GRP2_PERIPH_ALL            (uint32_t)0xFFFFFFFFU
 158:Drivers/STM32F0xx_HAL_Driver/Inc/stm32f0xx_ll_bus.h **** #define LL_APB1_GRP2_PERIPH_SYSCFG         RCC_APB2ENR_SYSCFGEN
 159:Drivers/STM32F0xx_HAL_Driver/Inc/stm32f0xx_ll_bus.h **** #define LL_APB1_GRP2_PERIPH_ADC1           RCC_APB2ENR_ADC1EN
 160:Drivers/STM32F0xx_HAL_Driver/Inc/stm32f0xx_ll_bus.h **** #if defined(USART8)
 161:Drivers/STM32F0xx_HAL_Driver/Inc/stm32f0xx_ll_bus.h **** #define LL_APB1_GRP2_PERIPH_USART8         RCC_APB2ENR_USART8EN
 162:Drivers/STM32F0xx_HAL_Driver/Inc/stm32f0xx_ll_bus.h **** #endif /*USART8*/
 163:Drivers/STM32F0xx_HAL_Driver/Inc/stm32f0xx_ll_bus.h **** #if defined(USART7)
 164:Drivers/STM32F0xx_HAL_Driver/Inc/stm32f0xx_ll_bus.h **** #define LL_APB1_GRP2_PERIPH_USART7         RCC_APB2ENR_USART7EN
 165:Drivers/STM32F0xx_HAL_Driver/Inc/stm32f0xx_ll_bus.h **** #endif /*USART7*/
 166:Drivers/STM32F0xx_HAL_Driver/Inc/stm32f0xx_ll_bus.h **** #if defined(USART6)
 167:Drivers/STM32F0xx_HAL_Driver/Inc/stm32f0xx_ll_bus.h **** #define LL_APB1_GRP2_PERIPH_USART6         RCC_APB2ENR_USART6EN
 168:Drivers/STM32F0xx_HAL_Driver/Inc/stm32f0xx_ll_bus.h **** #endif /*USART6*/
 169:Drivers/STM32F0xx_HAL_Driver/Inc/stm32f0xx_ll_bus.h **** #define LL_APB1_GRP2_PERIPH_TIM1           RCC_APB2ENR_TIM1EN
 170:Drivers/STM32F0xx_HAL_Driver/Inc/stm32f0xx_ll_bus.h **** #define LL_APB1_GRP2_PERIPH_SPI1           RCC_APB2ENR_SPI1EN
 171:Drivers/STM32F0xx_HAL_Driver/Inc/stm32f0xx_ll_bus.h **** #define LL_APB1_GRP2_PERIPH_USART1         RCC_APB2ENR_USART1EN
 172:Drivers/STM32F0xx_HAL_Driver/Inc/stm32f0xx_ll_bus.h **** #if defined(TIM15)
 173:Drivers/STM32F0xx_HAL_Driver/Inc/stm32f0xx_ll_bus.h **** #define LL_APB1_GRP2_PERIPH_TIM15          RCC_APB2ENR_TIM15EN
 174:Drivers/STM32F0xx_HAL_Driver/Inc/stm32f0xx_ll_bus.h **** #endif /*TIM15*/
 175:Drivers/STM32F0xx_HAL_Driver/Inc/stm32f0xx_ll_bus.h **** #define LL_APB1_GRP2_PERIPH_TIM16          RCC_APB2ENR_TIM16EN
 176:Drivers/STM32F0xx_HAL_Driver/Inc/stm32f0xx_ll_bus.h **** #define LL_APB1_GRP2_PERIPH_TIM17          RCC_APB2ENR_TIM17EN
 177:Drivers/STM32F0xx_HAL_Driver/Inc/stm32f0xx_ll_bus.h **** #define LL_APB1_GRP2_PERIPH_DBGMCU         RCC_APB2ENR_DBGMCUEN
 178:Drivers/STM32F0xx_HAL_Driver/Inc/stm32f0xx_ll_bus.h **** /**
 179:Drivers/STM32F0xx_HAL_Driver/Inc/stm32f0xx_ll_bus.h ****   * @}
 180:Drivers/STM32F0xx_HAL_Driver/Inc/stm32f0xx_ll_bus.h ****   */
 181:Drivers/STM32F0xx_HAL_Driver/Inc/stm32f0xx_ll_bus.h **** 
ARM GAS  C:\Users\ADMINI~1\AppData\Local\Temp\cco9rtsT.s 			page 6


 182:Drivers/STM32F0xx_HAL_Driver/Inc/stm32f0xx_ll_bus.h **** /**
 183:Drivers/STM32F0xx_HAL_Driver/Inc/stm32f0xx_ll_bus.h ****   * @}
 184:Drivers/STM32F0xx_HAL_Driver/Inc/stm32f0xx_ll_bus.h ****   */
 185:Drivers/STM32F0xx_HAL_Driver/Inc/stm32f0xx_ll_bus.h **** 
 186:Drivers/STM32F0xx_HAL_Driver/Inc/stm32f0xx_ll_bus.h **** /* Exported macro ------------------------------------------------------------*/
 187:Drivers/STM32F0xx_HAL_Driver/Inc/stm32f0xx_ll_bus.h **** /* Exported functions --------------------------------------------------------*/
 188:Drivers/STM32F0xx_HAL_Driver/Inc/stm32f0xx_ll_bus.h **** /** @defgroup BUS_LL_Exported_Functions BUS Exported Functions
 189:Drivers/STM32F0xx_HAL_Driver/Inc/stm32f0xx_ll_bus.h ****   * @{
 190:Drivers/STM32F0xx_HAL_Driver/Inc/stm32f0xx_ll_bus.h ****   */
 191:Drivers/STM32F0xx_HAL_Driver/Inc/stm32f0xx_ll_bus.h **** 
 192:Drivers/STM32F0xx_HAL_Driver/Inc/stm32f0xx_ll_bus.h **** /** @defgroup BUS_LL_EF_AHB1 AHB1
 193:Drivers/STM32F0xx_HAL_Driver/Inc/stm32f0xx_ll_bus.h ****   * @{
 194:Drivers/STM32F0xx_HAL_Driver/Inc/stm32f0xx_ll_bus.h ****   */
 195:Drivers/STM32F0xx_HAL_Driver/Inc/stm32f0xx_ll_bus.h **** 
 196:Drivers/STM32F0xx_HAL_Driver/Inc/stm32f0xx_ll_bus.h **** /**
 197:Drivers/STM32F0xx_HAL_Driver/Inc/stm32f0xx_ll_bus.h ****   * @brief  Enable AHB1 peripherals clock.
 198:Drivers/STM32F0xx_HAL_Driver/Inc/stm32f0xx_ll_bus.h ****   * @rmtoll AHBENR       DMA1EN        LL_AHB1_GRP1_EnableClock\n
 199:Drivers/STM32F0xx_HAL_Driver/Inc/stm32f0xx_ll_bus.h ****   *         AHBENR       DMA2EN        LL_AHB1_GRP1_EnableClock\n
 200:Drivers/STM32F0xx_HAL_Driver/Inc/stm32f0xx_ll_bus.h ****   *         AHBENR       SRAMEN        LL_AHB1_GRP1_EnableClock\n
 201:Drivers/STM32F0xx_HAL_Driver/Inc/stm32f0xx_ll_bus.h ****   *         AHBENR       FLITFEN       LL_AHB1_GRP1_EnableClock\n
 202:Drivers/STM32F0xx_HAL_Driver/Inc/stm32f0xx_ll_bus.h ****   *         AHBENR       CRCEN         LL_AHB1_GRP1_EnableClock\n
 203:Drivers/STM32F0xx_HAL_Driver/Inc/stm32f0xx_ll_bus.h ****   *         AHBENR       GPIOAEN       LL_AHB1_GRP1_EnableClock\n
 204:Drivers/STM32F0xx_HAL_Driver/Inc/stm32f0xx_ll_bus.h ****   *         AHBENR       GPIOBEN       LL_AHB1_GRP1_EnableClock\n
 205:Drivers/STM32F0xx_HAL_Driver/Inc/stm32f0xx_ll_bus.h ****   *         AHBENR       GPIOCEN       LL_AHB1_GRP1_EnableClock\n
 206:Drivers/STM32F0xx_HAL_Driver/Inc/stm32f0xx_ll_bus.h ****   *         AHBENR       GPIODEN       LL_AHB1_GRP1_EnableClock\n
 207:Drivers/STM32F0xx_HAL_Driver/Inc/stm32f0xx_ll_bus.h ****   *         AHBENR       GPIOEEN       LL_AHB1_GRP1_EnableClock\n
 208:Drivers/STM32F0xx_HAL_Driver/Inc/stm32f0xx_ll_bus.h ****   *         AHBENR       GPIOFEN       LL_AHB1_GRP1_EnableClock\n
 209:Drivers/STM32F0xx_HAL_Driver/Inc/stm32f0xx_ll_bus.h ****   *         AHBENR       TSCEN         LL_AHB1_GRP1_EnableClock
 210:Drivers/STM32F0xx_HAL_Driver/Inc/stm32f0xx_ll_bus.h ****   * @param  Periphs This parameter can be a combination of the following values:
 211:Drivers/STM32F0xx_HAL_Driver/Inc/stm32f0xx_ll_bus.h ****   *         @arg @ref LL_AHB1_GRP1_PERIPH_DMA1
 212:Drivers/STM32F0xx_HAL_Driver/Inc/stm32f0xx_ll_bus.h ****   *         @arg @ref LL_AHB1_GRP1_PERIPH_DMA2 (*)
 213:Drivers/STM32F0xx_HAL_Driver/Inc/stm32f0xx_ll_bus.h ****   *         @arg @ref LL_AHB1_GRP1_PERIPH_SRAM
 214:Drivers/STM32F0xx_HAL_Driver/Inc/stm32f0xx_ll_bus.h ****   *         @arg @ref LL_AHB1_GRP1_PERIPH_FLASH
 215:Drivers/STM32F0xx_HAL_Driver/Inc/stm32f0xx_ll_bus.h ****   *         @arg @ref LL_AHB1_GRP1_PERIPH_CRC
 216:Drivers/STM32F0xx_HAL_Driver/Inc/stm32f0xx_ll_bus.h ****   *         @arg @ref LL_AHB1_GRP1_PERIPH_GPIOA
 217:Drivers/STM32F0xx_HAL_Driver/Inc/stm32f0xx_ll_bus.h ****   *         @arg @ref LL_AHB1_GRP1_PERIPH_GPIOB
 218:Drivers/STM32F0xx_HAL_Driver/Inc/stm32f0xx_ll_bus.h ****   *         @arg @ref LL_AHB1_GRP1_PERIPH_GPIOC
 219:Drivers/STM32F0xx_HAL_Driver/Inc/stm32f0xx_ll_bus.h ****   *         @arg @ref LL_AHB1_GRP1_PERIPH_GPIOD (*)
 220:Drivers/STM32F0xx_HAL_Driver/Inc/stm32f0xx_ll_bus.h ****   *         @arg @ref LL_AHB1_GRP1_PERIPH_GPIOE (*)
 221:Drivers/STM32F0xx_HAL_Driver/Inc/stm32f0xx_ll_bus.h ****   *         @arg @ref LL_AHB1_GRP1_PERIPH_GPIOF
 222:Drivers/STM32F0xx_HAL_Driver/Inc/stm32f0xx_ll_bus.h ****   *         @arg @ref LL_AHB1_GRP1_PERIPH_TSC (*)
 223:Drivers/STM32F0xx_HAL_Driver/Inc/stm32f0xx_ll_bus.h ****   *
 224:Drivers/STM32F0xx_HAL_Driver/Inc/stm32f0xx_ll_bus.h ****   *         (*) value not defined in all devices.
 225:Drivers/STM32F0xx_HAL_Driver/Inc/stm32f0xx_ll_bus.h ****   * @retval None
 226:Drivers/STM32F0xx_HAL_Driver/Inc/stm32f0xx_ll_bus.h **** */
 227:Drivers/STM32F0xx_HAL_Driver/Inc/stm32f0xx_ll_bus.h **** __STATIC_INLINE void LL_AHB1_GRP1_EnableClock(uint32_t Periphs)
 228:Drivers/STM32F0xx_HAL_Driver/Inc/stm32f0xx_ll_bus.h **** {
 229:Drivers/STM32F0xx_HAL_Driver/Inc/stm32f0xx_ll_bus.h ****   __IO uint32_t tmpreg;
 230:Drivers/STM32F0xx_HAL_Driver/Inc/stm32f0xx_ll_bus.h ****   SET_BIT(RCC->AHBENR, Periphs);
 231:Drivers/STM32F0xx_HAL_Driver/Inc/stm32f0xx_ll_bus.h ****   /* Delay after an RCC peripheral clock enabling */
 232:Drivers/STM32F0xx_HAL_Driver/Inc/stm32f0xx_ll_bus.h ****   tmpreg = READ_BIT(RCC->AHBENR, Periphs);
 233:Drivers/STM32F0xx_HAL_Driver/Inc/stm32f0xx_ll_bus.h ****   (void)tmpreg;
 234:Drivers/STM32F0xx_HAL_Driver/Inc/stm32f0xx_ll_bus.h **** }
 235:Drivers/STM32F0xx_HAL_Driver/Inc/stm32f0xx_ll_bus.h **** 
 236:Drivers/STM32F0xx_HAL_Driver/Inc/stm32f0xx_ll_bus.h **** /**
 237:Drivers/STM32F0xx_HAL_Driver/Inc/stm32f0xx_ll_bus.h ****   * @brief  Check if AHB1 peripheral clock is enabled or not
 238:Drivers/STM32F0xx_HAL_Driver/Inc/stm32f0xx_ll_bus.h ****   * @rmtoll AHBENR       DMA1EN        LL_AHB1_GRP1_IsEnabledClock\n
ARM GAS  C:\Users\ADMINI~1\AppData\Local\Temp\cco9rtsT.s 			page 7


 239:Drivers/STM32F0xx_HAL_Driver/Inc/stm32f0xx_ll_bus.h ****   *         AHBENR       DMA2EN        LL_AHB1_GRP1_IsEnabledClock\n
 240:Drivers/STM32F0xx_HAL_Driver/Inc/stm32f0xx_ll_bus.h ****   *         AHBENR       SRAMEN        LL_AHB1_GRP1_IsEnabledClock\n
 241:Drivers/STM32F0xx_HAL_Driver/Inc/stm32f0xx_ll_bus.h ****   *         AHBENR       FLITFEN       LL_AHB1_GRP1_IsEnabledClock\n
 242:Drivers/STM32F0xx_HAL_Driver/Inc/stm32f0xx_ll_bus.h ****   *         AHBENR       CRCEN         LL_AHB1_GRP1_IsEnabledClock\n
 243:Drivers/STM32F0xx_HAL_Driver/Inc/stm32f0xx_ll_bus.h ****   *         AHBENR       GPIOAEN       LL_AHB1_GRP1_IsEnabledClock\n
 244:Drivers/STM32F0xx_HAL_Driver/Inc/stm32f0xx_ll_bus.h ****   *         AHBENR       GPIOBEN       LL_AHB1_GRP1_IsEnabledClock\n
 245:Drivers/STM32F0xx_HAL_Driver/Inc/stm32f0xx_ll_bus.h ****   *         AHBENR       GPIOCEN       LL_AHB1_GRP1_IsEnabledClock\n
 246:Drivers/STM32F0xx_HAL_Driver/Inc/stm32f0xx_ll_bus.h ****   *         AHBENR       GPIODEN       LL_AHB1_GRP1_IsEnabledClock\n
 247:Drivers/STM32F0xx_HAL_Driver/Inc/stm32f0xx_ll_bus.h ****   *         AHBENR       GPIOEEN       LL_AHB1_GRP1_IsEnabledClock\n
 248:Drivers/STM32F0xx_HAL_Driver/Inc/stm32f0xx_ll_bus.h ****   *         AHBENR       GPIOFEN       LL_AHB1_GRP1_IsEnabledClock\n
 249:Drivers/STM32F0xx_HAL_Driver/Inc/stm32f0xx_ll_bus.h ****   *         AHBENR       TSCEN         LL_AHB1_GRP1_IsEnabledClock
 250:Drivers/STM32F0xx_HAL_Driver/Inc/stm32f0xx_ll_bus.h ****   * @param  Periphs This parameter can be a combination of the following values:
 251:Drivers/STM32F0xx_HAL_Driver/Inc/stm32f0xx_ll_bus.h ****   *         @arg @ref LL_AHB1_GRP1_PERIPH_DMA1
 252:Drivers/STM32F0xx_HAL_Driver/Inc/stm32f0xx_ll_bus.h ****   *         @arg @ref LL_AHB1_GRP1_PERIPH_DMA2 (*)
 253:Drivers/STM32F0xx_HAL_Driver/Inc/stm32f0xx_ll_bus.h ****   *         @arg @ref LL_AHB1_GRP1_PERIPH_SRAM
 254:Drivers/STM32F0xx_HAL_Driver/Inc/stm32f0xx_ll_bus.h ****   *         @arg @ref LL_AHB1_GRP1_PERIPH_FLASH
 255:Drivers/STM32F0xx_HAL_Driver/Inc/stm32f0xx_ll_bus.h ****   *         @arg @ref LL_AHB1_GRP1_PERIPH_CRC
 256:Drivers/STM32F0xx_HAL_Driver/Inc/stm32f0xx_ll_bus.h ****   *         @arg @ref LL_AHB1_GRP1_PERIPH_GPIOA
 257:Drivers/STM32F0xx_HAL_Driver/Inc/stm32f0xx_ll_bus.h ****   *         @arg @ref LL_AHB1_GRP1_PERIPH_GPIOB
 258:Drivers/STM32F0xx_HAL_Driver/Inc/stm32f0xx_ll_bus.h ****   *         @arg @ref LL_AHB1_GRP1_PERIPH_GPIOC
 259:Drivers/STM32F0xx_HAL_Driver/Inc/stm32f0xx_ll_bus.h ****   *         @arg @ref LL_AHB1_GRP1_PERIPH_GPIOD (*)
 260:Drivers/STM32F0xx_HAL_Driver/Inc/stm32f0xx_ll_bus.h ****   *         @arg @ref LL_AHB1_GRP1_PERIPH_GPIOE (*)
 261:Drivers/STM32F0xx_HAL_Driver/Inc/stm32f0xx_ll_bus.h ****   *         @arg @ref LL_AHB1_GRP1_PERIPH_GPIOF
 262:Drivers/STM32F0xx_HAL_Driver/Inc/stm32f0xx_ll_bus.h ****   *         @arg @ref LL_AHB1_GRP1_PERIPH_TSC (*)
 263:Drivers/STM32F0xx_HAL_Driver/Inc/stm32f0xx_ll_bus.h ****   *
 264:Drivers/STM32F0xx_HAL_Driver/Inc/stm32f0xx_ll_bus.h ****   *         (*) value not defined in all devices.
 265:Drivers/STM32F0xx_HAL_Driver/Inc/stm32f0xx_ll_bus.h ****   * @retval State of Periphs (1 or 0).
 266:Drivers/STM32F0xx_HAL_Driver/Inc/stm32f0xx_ll_bus.h **** */
 267:Drivers/STM32F0xx_HAL_Driver/Inc/stm32f0xx_ll_bus.h **** __STATIC_INLINE uint32_t LL_AHB1_GRP1_IsEnabledClock(uint32_t Periphs)
 268:Drivers/STM32F0xx_HAL_Driver/Inc/stm32f0xx_ll_bus.h **** {
 269:Drivers/STM32F0xx_HAL_Driver/Inc/stm32f0xx_ll_bus.h ****   return (READ_BIT(RCC->AHBENR, Periphs) == Periphs);
 270:Drivers/STM32F0xx_HAL_Driver/Inc/stm32f0xx_ll_bus.h **** }
 271:Drivers/STM32F0xx_HAL_Driver/Inc/stm32f0xx_ll_bus.h **** 
 272:Drivers/STM32F0xx_HAL_Driver/Inc/stm32f0xx_ll_bus.h **** /**
 273:Drivers/STM32F0xx_HAL_Driver/Inc/stm32f0xx_ll_bus.h ****   * @brief  Disable AHB1 peripherals clock.
 274:Drivers/STM32F0xx_HAL_Driver/Inc/stm32f0xx_ll_bus.h ****   * @rmtoll AHBENR       DMA1EN        LL_AHB1_GRP1_DisableClock\n
 275:Drivers/STM32F0xx_HAL_Driver/Inc/stm32f0xx_ll_bus.h ****   *         AHBENR       DMA2EN        LL_AHB1_GRP1_DisableClock\n
 276:Drivers/STM32F0xx_HAL_Driver/Inc/stm32f0xx_ll_bus.h ****   *         AHBENR       SRAMEN        LL_AHB1_GRP1_DisableClock\n
 277:Drivers/STM32F0xx_HAL_Driver/Inc/stm32f0xx_ll_bus.h ****   *         AHBENR       FLITFEN       LL_AHB1_GRP1_DisableClock\n
 278:Drivers/STM32F0xx_HAL_Driver/Inc/stm32f0xx_ll_bus.h ****   *         AHBENR       CRCEN         LL_AHB1_GRP1_DisableClock\n
 279:Drivers/STM32F0xx_HAL_Driver/Inc/stm32f0xx_ll_bus.h ****   *         AHBENR       GPIOAEN       LL_AHB1_GRP1_DisableClock\n
 280:Drivers/STM32F0xx_HAL_Driver/Inc/stm32f0xx_ll_bus.h ****   *         AHBENR       GPIOBEN       LL_AHB1_GRP1_DisableClock\n
 281:Drivers/STM32F0xx_HAL_Driver/Inc/stm32f0xx_ll_bus.h ****   *         AHBENR       GPIOCEN       LL_AHB1_GRP1_DisableClock\n
 282:Drivers/STM32F0xx_HAL_Driver/Inc/stm32f0xx_ll_bus.h ****   *         AHBENR       GPIODEN       LL_AHB1_GRP1_DisableClock\n
 283:Drivers/STM32F0xx_HAL_Driver/Inc/stm32f0xx_ll_bus.h ****   *         AHBENR       GPIOEEN       LL_AHB1_GRP1_DisableClock\n
 284:Drivers/STM32F0xx_HAL_Driver/Inc/stm32f0xx_ll_bus.h ****   *         AHBENR       GPIOFEN       LL_AHB1_GRP1_DisableClock\n
 285:Drivers/STM32F0xx_HAL_Driver/Inc/stm32f0xx_ll_bus.h ****   *         AHBENR       TSCEN         LL_AHB1_GRP1_DisableClock
 286:Drivers/STM32F0xx_HAL_Driver/Inc/stm32f0xx_ll_bus.h ****   * @param  Periphs This parameter can be a combination of the following values:
 287:Drivers/STM32F0xx_HAL_Driver/Inc/stm32f0xx_ll_bus.h ****   *         @arg @ref LL_AHB1_GRP1_PERIPH_DMA1
 288:Drivers/STM32F0xx_HAL_Driver/Inc/stm32f0xx_ll_bus.h ****   *         @arg @ref LL_AHB1_GRP1_PERIPH_DMA2 (*)
 289:Drivers/STM32F0xx_HAL_Driver/Inc/stm32f0xx_ll_bus.h ****   *         @arg @ref LL_AHB1_GRP1_PERIPH_SRAM
 290:Drivers/STM32F0xx_HAL_Driver/Inc/stm32f0xx_ll_bus.h ****   *         @arg @ref LL_AHB1_GRP1_PERIPH_FLASH
 291:Drivers/STM32F0xx_HAL_Driver/Inc/stm32f0xx_ll_bus.h ****   *         @arg @ref LL_AHB1_GRP1_PERIPH_CRC
 292:Drivers/STM32F0xx_HAL_Driver/Inc/stm32f0xx_ll_bus.h ****   *         @arg @ref LL_AHB1_GRP1_PERIPH_GPIOA
 293:Drivers/STM32F0xx_HAL_Driver/Inc/stm32f0xx_ll_bus.h ****   *         @arg @ref LL_AHB1_GRP1_PERIPH_GPIOB
 294:Drivers/STM32F0xx_HAL_Driver/Inc/stm32f0xx_ll_bus.h ****   *         @arg @ref LL_AHB1_GRP1_PERIPH_GPIOC
 295:Drivers/STM32F0xx_HAL_Driver/Inc/stm32f0xx_ll_bus.h ****   *         @arg @ref LL_AHB1_GRP1_PERIPH_GPIOD (*)
ARM GAS  C:\Users\ADMINI~1\AppData\Local\Temp\cco9rtsT.s 			page 8


 296:Drivers/STM32F0xx_HAL_Driver/Inc/stm32f0xx_ll_bus.h ****   *         @arg @ref LL_AHB1_GRP1_PERIPH_GPIOE (*)
 297:Drivers/STM32F0xx_HAL_Driver/Inc/stm32f0xx_ll_bus.h ****   *         @arg @ref LL_AHB1_GRP1_PERIPH_GPIOF
 298:Drivers/STM32F0xx_HAL_Driver/Inc/stm32f0xx_ll_bus.h ****   *         @arg @ref LL_AHB1_GRP1_PERIPH_TSC (*)
 299:Drivers/STM32F0xx_HAL_Driver/Inc/stm32f0xx_ll_bus.h ****   *
 300:Drivers/STM32F0xx_HAL_Driver/Inc/stm32f0xx_ll_bus.h ****   *         (*) value not defined in all devices.
 301:Drivers/STM32F0xx_HAL_Driver/Inc/stm32f0xx_ll_bus.h ****   * @retval None
 302:Drivers/STM32F0xx_HAL_Driver/Inc/stm32f0xx_ll_bus.h **** */
 303:Drivers/STM32F0xx_HAL_Driver/Inc/stm32f0xx_ll_bus.h **** __STATIC_INLINE void LL_AHB1_GRP1_DisableClock(uint32_t Periphs)
 304:Drivers/STM32F0xx_HAL_Driver/Inc/stm32f0xx_ll_bus.h **** {
 305:Drivers/STM32F0xx_HAL_Driver/Inc/stm32f0xx_ll_bus.h ****   CLEAR_BIT(RCC->AHBENR, Periphs);
 306:Drivers/STM32F0xx_HAL_Driver/Inc/stm32f0xx_ll_bus.h **** }
 307:Drivers/STM32F0xx_HAL_Driver/Inc/stm32f0xx_ll_bus.h **** 
 308:Drivers/STM32F0xx_HAL_Driver/Inc/stm32f0xx_ll_bus.h **** /**
 309:Drivers/STM32F0xx_HAL_Driver/Inc/stm32f0xx_ll_bus.h ****   * @brief  Force AHB1 peripherals reset.
 310:Drivers/STM32F0xx_HAL_Driver/Inc/stm32f0xx_ll_bus.h ****   * @rmtoll AHBRSTR      GPIOARST      LL_AHB1_GRP1_ForceReset\n
 311:Drivers/STM32F0xx_HAL_Driver/Inc/stm32f0xx_ll_bus.h ****   *         AHBRSTR      GPIOBRST      LL_AHB1_GRP1_ForceReset\n
 312:Drivers/STM32F0xx_HAL_Driver/Inc/stm32f0xx_ll_bus.h ****   *         AHBRSTR      GPIOCRST      LL_AHB1_GRP1_ForceReset\n
 313:Drivers/STM32F0xx_HAL_Driver/Inc/stm32f0xx_ll_bus.h ****   *         AHBRSTR      GPIODRST      LL_AHB1_GRP1_ForceReset\n
 314:Drivers/STM32F0xx_HAL_Driver/Inc/stm32f0xx_ll_bus.h ****   *         AHBRSTR      GPIOERST      LL_AHB1_GRP1_ForceReset\n
 315:Drivers/STM32F0xx_HAL_Driver/Inc/stm32f0xx_ll_bus.h ****   *         AHBRSTR      GPIOFRST      LL_AHB1_GRP1_ForceReset\n
 316:Drivers/STM32F0xx_HAL_Driver/Inc/stm32f0xx_ll_bus.h ****   *         AHBRSTR      TSCRST        LL_AHB1_GRP1_ForceReset
 317:Drivers/STM32F0xx_HAL_Driver/Inc/stm32f0xx_ll_bus.h ****   * @param  Periphs This parameter can be a combination of the following values:
 318:Drivers/STM32F0xx_HAL_Driver/Inc/stm32f0xx_ll_bus.h ****   *         @arg @ref LL_AHB1_GRP1_PERIPH_ALL
 319:Drivers/STM32F0xx_HAL_Driver/Inc/stm32f0xx_ll_bus.h ****   *         @arg @ref LL_AHB1_GRP1_PERIPH_GPIOA
 320:Drivers/STM32F0xx_HAL_Driver/Inc/stm32f0xx_ll_bus.h ****   *         @arg @ref LL_AHB1_GRP1_PERIPH_GPIOB
 321:Drivers/STM32F0xx_HAL_Driver/Inc/stm32f0xx_ll_bus.h ****   *         @arg @ref LL_AHB1_GRP1_PERIPH_GPIOC
 322:Drivers/STM32F0xx_HAL_Driver/Inc/stm32f0xx_ll_bus.h ****   *         @arg @ref LL_AHB1_GRP1_PERIPH_GPIOD (*)
 323:Drivers/STM32F0xx_HAL_Driver/Inc/stm32f0xx_ll_bus.h ****   *         @arg @ref LL_AHB1_GRP1_PERIPH_GPIOE (*)
 324:Drivers/STM32F0xx_HAL_Driver/Inc/stm32f0xx_ll_bus.h ****   *         @arg @ref LL_AHB1_GRP1_PERIPH_GPIOF
 325:Drivers/STM32F0xx_HAL_Driver/Inc/stm32f0xx_ll_bus.h ****   *         @arg @ref LL_AHB1_GRP1_PERIPH_TSC (*)
 326:Drivers/STM32F0xx_HAL_Driver/Inc/stm32f0xx_ll_bus.h ****   *
 327:Drivers/STM32F0xx_HAL_Driver/Inc/stm32f0xx_ll_bus.h ****   *         (*) value not defined in all devices.
 328:Drivers/STM32F0xx_HAL_Driver/Inc/stm32f0xx_ll_bus.h ****   * @retval None
 329:Drivers/STM32F0xx_HAL_Driver/Inc/stm32f0xx_ll_bus.h **** */
 330:Drivers/STM32F0xx_HAL_Driver/Inc/stm32f0xx_ll_bus.h **** __STATIC_INLINE void LL_AHB1_GRP1_ForceReset(uint32_t Periphs)
 331:Drivers/STM32F0xx_HAL_Driver/Inc/stm32f0xx_ll_bus.h **** {
 332:Drivers/STM32F0xx_HAL_Driver/Inc/stm32f0xx_ll_bus.h ****   SET_BIT(RCC->AHBRSTR, Periphs);
 333:Drivers/STM32F0xx_HAL_Driver/Inc/stm32f0xx_ll_bus.h **** }
 334:Drivers/STM32F0xx_HAL_Driver/Inc/stm32f0xx_ll_bus.h **** 
 335:Drivers/STM32F0xx_HAL_Driver/Inc/stm32f0xx_ll_bus.h **** /**
 336:Drivers/STM32F0xx_HAL_Driver/Inc/stm32f0xx_ll_bus.h ****   * @brief  Release AHB1 peripherals reset.
 337:Drivers/STM32F0xx_HAL_Driver/Inc/stm32f0xx_ll_bus.h ****   * @rmtoll AHBRSTR      GPIOARST      LL_AHB1_GRP1_ReleaseReset\n
 338:Drivers/STM32F0xx_HAL_Driver/Inc/stm32f0xx_ll_bus.h ****   *         AHBRSTR      GPIOBRST      LL_AHB1_GRP1_ReleaseReset\n
 339:Drivers/STM32F0xx_HAL_Driver/Inc/stm32f0xx_ll_bus.h ****   *         AHBRSTR      GPIOCRST      LL_AHB1_GRP1_ReleaseReset\n
 340:Drivers/STM32F0xx_HAL_Driver/Inc/stm32f0xx_ll_bus.h ****   *         AHBRSTR      GPIODRST      LL_AHB1_GRP1_ReleaseReset\n
 341:Drivers/STM32F0xx_HAL_Driver/Inc/stm32f0xx_ll_bus.h ****   *         AHBRSTR      GPIOERST      LL_AHB1_GRP1_ReleaseReset\n
 342:Drivers/STM32F0xx_HAL_Driver/Inc/stm32f0xx_ll_bus.h ****   *         AHBRSTR      GPIOFRST      LL_AHB1_GRP1_ReleaseReset\n
 343:Drivers/STM32F0xx_HAL_Driver/Inc/stm32f0xx_ll_bus.h ****   *         AHBRSTR      TSCRST        LL_AHB1_GRP1_ReleaseReset
 344:Drivers/STM32F0xx_HAL_Driver/Inc/stm32f0xx_ll_bus.h ****   * @param  Periphs This parameter can be a combination of the following values:
 345:Drivers/STM32F0xx_HAL_Driver/Inc/stm32f0xx_ll_bus.h ****   *         @arg @ref LL_AHB1_GRP1_PERIPH_ALL
 346:Drivers/STM32F0xx_HAL_Driver/Inc/stm32f0xx_ll_bus.h ****   *         @arg @ref LL_AHB1_GRP1_PERIPH_GPIOA
 347:Drivers/STM32F0xx_HAL_Driver/Inc/stm32f0xx_ll_bus.h ****   *         @arg @ref LL_AHB1_GRP1_PERIPH_GPIOB
 348:Drivers/STM32F0xx_HAL_Driver/Inc/stm32f0xx_ll_bus.h ****   *         @arg @ref LL_AHB1_GRP1_PERIPH_GPIOC
 349:Drivers/STM32F0xx_HAL_Driver/Inc/stm32f0xx_ll_bus.h ****   *         @arg @ref LL_AHB1_GRP1_PERIPH_GPIOD (*)
 350:Drivers/STM32F0xx_HAL_Driver/Inc/stm32f0xx_ll_bus.h ****   *         @arg @ref LL_AHB1_GRP1_PERIPH_GPIOE (*)
 351:Drivers/STM32F0xx_HAL_Driver/Inc/stm32f0xx_ll_bus.h ****   *         @arg @ref LL_AHB1_GRP1_PERIPH_GPIOF
 352:Drivers/STM32F0xx_HAL_Driver/Inc/stm32f0xx_ll_bus.h ****   *         @arg @ref LL_AHB1_GRP1_PERIPH_TSC (*)
ARM GAS  C:\Users\ADMINI~1\AppData\Local\Temp\cco9rtsT.s 			page 9


 353:Drivers/STM32F0xx_HAL_Driver/Inc/stm32f0xx_ll_bus.h ****   *
 354:Drivers/STM32F0xx_HAL_Driver/Inc/stm32f0xx_ll_bus.h ****   *         (*) value not defined in all devices.
 355:Drivers/STM32F0xx_HAL_Driver/Inc/stm32f0xx_ll_bus.h ****   * @retval None
 356:Drivers/STM32F0xx_HAL_Driver/Inc/stm32f0xx_ll_bus.h **** */
 357:Drivers/STM32F0xx_HAL_Driver/Inc/stm32f0xx_ll_bus.h **** __STATIC_INLINE void LL_AHB1_GRP1_ReleaseReset(uint32_t Periphs)
 358:Drivers/STM32F0xx_HAL_Driver/Inc/stm32f0xx_ll_bus.h **** {
 359:Drivers/STM32F0xx_HAL_Driver/Inc/stm32f0xx_ll_bus.h ****   CLEAR_BIT(RCC->AHBRSTR, Periphs);
 360:Drivers/STM32F0xx_HAL_Driver/Inc/stm32f0xx_ll_bus.h **** }
 361:Drivers/STM32F0xx_HAL_Driver/Inc/stm32f0xx_ll_bus.h **** 
 362:Drivers/STM32F0xx_HAL_Driver/Inc/stm32f0xx_ll_bus.h **** /**
 363:Drivers/STM32F0xx_HAL_Driver/Inc/stm32f0xx_ll_bus.h ****   * @}
 364:Drivers/STM32F0xx_HAL_Driver/Inc/stm32f0xx_ll_bus.h ****   */
 365:Drivers/STM32F0xx_HAL_Driver/Inc/stm32f0xx_ll_bus.h **** 
 366:Drivers/STM32F0xx_HAL_Driver/Inc/stm32f0xx_ll_bus.h **** /** @defgroup BUS_LL_EF_APB1_GRP1 APB1 GRP1
 367:Drivers/STM32F0xx_HAL_Driver/Inc/stm32f0xx_ll_bus.h ****   * @{
 368:Drivers/STM32F0xx_HAL_Driver/Inc/stm32f0xx_ll_bus.h ****   */
 369:Drivers/STM32F0xx_HAL_Driver/Inc/stm32f0xx_ll_bus.h **** 
 370:Drivers/STM32F0xx_HAL_Driver/Inc/stm32f0xx_ll_bus.h **** /**
 371:Drivers/STM32F0xx_HAL_Driver/Inc/stm32f0xx_ll_bus.h ****   * @brief  Enable APB1 peripherals clock (available in register 1).
 372:Drivers/STM32F0xx_HAL_Driver/Inc/stm32f0xx_ll_bus.h ****   * @rmtoll APB1ENR      TIM2EN        LL_APB1_GRP1_EnableClock\n
 373:Drivers/STM32F0xx_HAL_Driver/Inc/stm32f0xx_ll_bus.h ****   *         APB1ENR      TIM3EN        LL_APB1_GRP1_EnableClock\n
 374:Drivers/STM32F0xx_HAL_Driver/Inc/stm32f0xx_ll_bus.h ****   *         APB1ENR      TIM6EN        LL_APB1_GRP1_EnableClock\n
 375:Drivers/STM32F0xx_HAL_Driver/Inc/stm32f0xx_ll_bus.h ****   *         APB1ENR      TIM7EN        LL_APB1_GRP1_EnableClock\n
 376:Drivers/STM32F0xx_HAL_Driver/Inc/stm32f0xx_ll_bus.h ****   *         APB1ENR      TIM14EN       LL_APB1_GRP1_EnableClock\n
 377:Drivers/STM32F0xx_HAL_Driver/Inc/stm32f0xx_ll_bus.h ****   *         APB1ENR      WWDGEN        LL_APB1_GRP1_EnableClock\n
 378:Drivers/STM32F0xx_HAL_Driver/Inc/stm32f0xx_ll_bus.h ****   *         APB1ENR      SPI2EN        LL_APB1_GRP1_EnableClock\n
 379:Drivers/STM32F0xx_HAL_Driver/Inc/stm32f0xx_ll_bus.h ****   *         APB1ENR      USART2EN      LL_APB1_GRP1_EnableClock\n
 380:Drivers/STM32F0xx_HAL_Driver/Inc/stm32f0xx_ll_bus.h ****   *         APB1ENR      USART3EN      LL_APB1_GRP1_EnableClock\n
 381:Drivers/STM32F0xx_HAL_Driver/Inc/stm32f0xx_ll_bus.h ****   *         APB1ENR      USART4EN      LL_APB1_GRP1_EnableClock\n
 382:Drivers/STM32F0xx_HAL_Driver/Inc/stm32f0xx_ll_bus.h ****   *         APB1ENR      USART5EN      LL_APB1_GRP1_EnableClock\n
 383:Drivers/STM32F0xx_HAL_Driver/Inc/stm32f0xx_ll_bus.h ****   *         APB1ENR      I2C1EN        LL_APB1_GRP1_EnableClock\n
 384:Drivers/STM32F0xx_HAL_Driver/Inc/stm32f0xx_ll_bus.h ****   *         APB1ENR      I2C2EN        LL_APB1_GRP1_EnableClock\n
 385:Drivers/STM32F0xx_HAL_Driver/Inc/stm32f0xx_ll_bus.h ****   *         APB1ENR      USBEN         LL_APB1_GRP1_EnableClock\n
 386:Drivers/STM32F0xx_HAL_Driver/Inc/stm32f0xx_ll_bus.h ****   *         APB1ENR      CANEN         LL_APB1_GRP1_EnableClock\n
 387:Drivers/STM32F0xx_HAL_Driver/Inc/stm32f0xx_ll_bus.h ****   *         APB1ENR      CRSEN         LL_APB1_GRP1_EnableClock\n
 388:Drivers/STM32F0xx_HAL_Driver/Inc/stm32f0xx_ll_bus.h ****   *         APB1ENR      PWREN         LL_APB1_GRP1_EnableClock\n
 389:Drivers/STM32F0xx_HAL_Driver/Inc/stm32f0xx_ll_bus.h ****   *         APB1ENR      DACEN         LL_APB1_GRP1_EnableClock\n
 390:Drivers/STM32F0xx_HAL_Driver/Inc/stm32f0xx_ll_bus.h ****   *         APB1ENR      CECEN         LL_APB1_GRP1_EnableClock
 391:Drivers/STM32F0xx_HAL_Driver/Inc/stm32f0xx_ll_bus.h ****   * @param  Periphs This parameter can be a combination of the following values:
 392:Drivers/STM32F0xx_HAL_Driver/Inc/stm32f0xx_ll_bus.h ****   *         @arg @ref LL_APB1_GRP1_PERIPH_TIM2 (*)
 393:Drivers/STM32F0xx_HAL_Driver/Inc/stm32f0xx_ll_bus.h ****   *         @arg @ref LL_APB1_GRP1_PERIPH_TIM3
 394:Drivers/STM32F0xx_HAL_Driver/Inc/stm32f0xx_ll_bus.h ****   *         @arg @ref LL_APB1_GRP1_PERIPH_TIM6 (*)
 395:Drivers/STM32F0xx_HAL_Driver/Inc/stm32f0xx_ll_bus.h ****   *         @arg @ref LL_APB1_GRP1_PERIPH_TIM7 (*)
 396:Drivers/STM32F0xx_HAL_Driver/Inc/stm32f0xx_ll_bus.h ****   *         @arg @ref LL_APB1_GRP1_PERIPH_TIM14
 397:Drivers/STM32F0xx_HAL_Driver/Inc/stm32f0xx_ll_bus.h ****   *         @arg @ref LL_APB1_GRP1_PERIPH_WWDG
 398:Drivers/STM32F0xx_HAL_Driver/Inc/stm32f0xx_ll_bus.h ****   *         @arg @ref LL_APB1_GRP1_PERIPH_SPI2 (*)
 399:Drivers/STM32F0xx_HAL_Driver/Inc/stm32f0xx_ll_bus.h ****   *         @arg @ref LL_APB1_GRP1_PERIPH_USART2 (*)
 400:Drivers/STM32F0xx_HAL_Driver/Inc/stm32f0xx_ll_bus.h ****   *         @arg @ref LL_APB1_GRP1_PERIPH_USART3 (*)
 401:Drivers/STM32F0xx_HAL_Driver/Inc/stm32f0xx_ll_bus.h ****   *         @arg @ref LL_APB1_GRP1_PERIPH_USART4 (*)
 402:Drivers/STM32F0xx_HAL_Driver/Inc/stm32f0xx_ll_bus.h ****   *         @arg @ref LL_APB1_GRP1_PERIPH_USART5 (*)
 403:Drivers/STM32F0xx_HAL_Driver/Inc/stm32f0xx_ll_bus.h ****   *         @arg @ref LL_APB1_GRP1_PERIPH_I2C1
 404:Drivers/STM32F0xx_HAL_Driver/Inc/stm32f0xx_ll_bus.h ****   *         @arg @ref LL_APB1_GRP1_PERIPH_I2C2 (*)
 405:Drivers/STM32F0xx_HAL_Driver/Inc/stm32f0xx_ll_bus.h ****   *         @arg @ref LL_APB1_GRP1_PERIPH_USB (*)
 406:Drivers/STM32F0xx_HAL_Driver/Inc/stm32f0xx_ll_bus.h ****   *         @arg @ref LL_APB1_GRP1_PERIPH_CAN (*)
 407:Drivers/STM32F0xx_HAL_Driver/Inc/stm32f0xx_ll_bus.h ****   *         @arg @ref LL_APB1_GRP1_PERIPH_CRS (*)
 408:Drivers/STM32F0xx_HAL_Driver/Inc/stm32f0xx_ll_bus.h ****   *         @arg @ref LL_APB1_GRP1_PERIPH_PWR
 409:Drivers/STM32F0xx_HAL_Driver/Inc/stm32f0xx_ll_bus.h ****   *         @arg @ref LL_APB1_GRP1_PERIPH_DAC1 (*)
ARM GAS  C:\Users\ADMINI~1\AppData\Local\Temp\cco9rtsT.s 			page 10


 410:Drivers/STM32F0xx_HAL_Driver/Inc/stm32f0xx_ll_bus.h ****   *         @arg @ref LL_APB1_GRP1_PERIPH_CEC (*)
 411:Drivers/STM32F0xx_HAL_Driver/Inc/stm32f0xx_ll_bus.h ****   *
 412:Drivers/STM32F0xx_HAL_Driver/Inc/stm32f0xx_ll_bus.h ****   *         (*) value not defined in all devices.
 413:Drivers/STM32F0xx_HAL_Driver/Inc/stm32f0xx_ll_bus.h ****   * @retval None
 414:Drivers/STM32F0xx_HAL_Driver/Inc/stm32f0xx_ll_bus.h **** */
 415:Drivers/STM32F0xx_HAL_Driver/Inc/stm32f0xx_ll_bus.h **** __STATIC_INLINE void LL_APB1_GRP1_EnableClock(uint32_t Periphs)
 416:Drivers/STM32F0xx_HAL_Driver/Inc/stm32f0xx_ll_bus.h **** {
 417:Drivers/STM32F0xx_HAL_Driver/Inc/stm32f0xx_ll_bus.h ****   __IO uint32_t tmpreg;
 418:Drivers/STM32F0xx_HAL_Driver/Inc/stm32f0xx_ll_bus.h ****   SET_BIT(RCC->APB1ENR, Periphs);
 419:Drivers/STM32F0xx_HAL_Driver/Inc/stm32f0xx_ll_bus.h ****   /* Delay after an RCC peripheral clock enabling */
 420:Drivers/STM32F0xx_HAL_Driver/Inc/stm32f0xx_ll_bus.h ****   tmpreg = READ_BIT(RCC->APB1ENR, Periphs);
 421:Drivers/STM32F0xx_HAL_Driver/Inc/stm32f0xx_ll_bus.h ****   (void)tmpreg;
 422:Drivers/STM32F0xx_HAL_Driver/Inc/stm32f0xx_ll_bus.h **** }
 423:Drivers/STM32F0xx_HAL_Driver/Inc/stm32f0xx_ll_bus.h **** 
 424:Drivers/STM32F0xx_HAL_Driver/Inc/stm32f0xx_ll_bus.h **** /**
 425:Drivers/STM32F0xx_HAL_Driver/Inc/stm32f0xx_ll_bus.h ****   * @brief  Check if APB1 peripheral clock is enabled or not (available in register 1).
 426:Drivers/STM32F0xx_HAL_Driver/Inc/stm32f0xx_ll_bus.h ****   * @rmtoll APB1ENR      TIM2EN        LL_APB1_GRP1_IsEnabledClock\n
 427:Drivers/STM32F0xx_HAL_Driver/Inc/stm32f0xx_ll_bus.h ****   *         APB1ENR      TIM3EN        LL_APB1_GRP1_IsEnabledClock\n
 428:Drivers/STM32F0xx_HAL_Driver/Inc/stm32f0xx_ll_bus.h ****   *         APB1ENR      TIM6EN        LL_APB1_GRP1_IsEnabledClock\n
 429:Drivers/STM32F0xx_HAL_Driver/Inc/stm32f0xx_ll_bus.h ****   *         APB1ENR      TIM7EN        LL_APB1_GRP1_IsEnabledClock\n
 430:Drivers/STM32F0xx_HAL_Driver/Inc/stm32f0xx_ll_bus.h ****   *         APB1ENR      TIM14EN       LL_APB1_GRP1_IsEnabledClock\n
 431:Drivers/STM32F0xx_HAL_Driver/Inc/stm32f0xx_ll_bus.h ****   *         APB1ENR      WWDGEN        LL_APB1_GRP1_IsEnabledClock\n
 432:Drivers/STM32F0xx_HAL_Driver/Inc/stm32f0xx_ll_bus.h ****   *         APB1ENR      SPI2EN        LL_APB1_GRP1_IsEnabledClock\n
 433:Drivers/STM32F0xx_HAL_Driver/Inc/stm32f0xx_ll_bus.h ****   *         APB1ENR      USART2EN      LL_APB1_GRP1_IsEnabledClock\n
 434:Drivers/STM32F0xx_HAL_Driver/Inc/stm32f0xx_ll_bus.h ****   *         APB1ENR      USART3EN      LL_APB1_GRP1_IsEnabledClock\n
 435:Drivers/STM32F0xx_HAL_Driver/Inc/stm32f0xx_ll_bus.h ****   *         APB1ENR      USART4EN      LL_APB1_GRP1_IsEnabledClock\n
 436:Drivers/STM32F0xx_HAL_Driver/Inc/stm32f0xx_ll_bus.h ****   *         APB1ENR      USART5EN      LL_APB1_GRP1_IsEnabledClock\n
 437:Drivers/STM32F0xx_HAL_Driver/Inc/stm32f0xx_ll_bus.h ****   *         APB1ENR      I2C1EN        LL_APB1_GRP1_IsEnabledClock\n
 438:Drivers/STM32F0xx_HAL_Driver/Inc/stm32f0xx_ll_bus.h ****   *         APB1ENR      I2C2EN        LL_APB1_GRP1_IsEnabledClock\n
 439:Drivers/STM32F0xx_HAL_Driver/Inc/stm32f0xx_ll_bus.h ****   *         APB1ENR      USBEN         LL_APB1_GRP1_IsEnabledClock\n
 440:Drivers/STM32F0xx_HAL_Driver/Inc/stm32f0xx_ll_bus.h ****   *         APB1ENR      CANEN         LL_APB1_GRP1_IsEnabledClock\n
 441:Drivers/STM32F0xx_HAL_Driver/Inc/stm32f0xx_ll_bus.h ****   *         APB1ENR      CRSEN         LL_APB1_GRP1_IsEnabledClock\n
 442:Drivers/STM32F0xx_HAL_Driver/Inc/stm32f0xx_ll_bus.h ****   *         APB1ENR      PWREN         LL_APB1_GRP1_IsEnabledClock\n
 443:Drivers/STM32F0xx_HAL_Driver/Inc/stm32f0xx_ll_bus.h ****   *         APB1ENR      DACEN         LL_APB1_GRP1_IsEnabledClock\n
 444:Drivers/STM32F0xx_HAL_Driver/Inc/stm32f0xx_ll_bus.h ****   *         APB1ENR      CECEN         LL_APB1_GRP1_IsEnabledClock
 445:Drivers/STM32F0xx_HAL_Driver/Inc/stm32f0xx_ll_bus.h ****   * @param  Periphs This parameter can be a combination of the following values:
 446:Drivers/STM32F0xx_HAL_Driver/Inc/stm32f0xx_ll_bus.h ****   *         @arg @ref LL_APB1_GRP1_PERIPH_TIM2 (*)
 447:Drivers/STM32F0xx_HAL_Driver/Inc/stm32f0xx_ll_bus.h ****   *         @arg @ref LL_APB1_GRP1_PERIPH_TIM3
 448:Drivers/STM32F0xx_HAL_Driver/Inc/stm32f0xx_ll_bus.h ****   *         @arg @ref LL_APB1_GRP1_PERIPH_TIM6 (*)
 449:Drivers/STM32F0xx_HAL_Driver/Inc/stm32f0xx_ll_bus.h ****   *         @arg @ref LL_APB1_GRP1_PERIPH_TIM7 (*)
 450:Drivers/STM32F0xx_HAL_Driver/Inc/stm32f0xx_ll_bus.h ****   *         @arg @ref LL_APB1_GRP1_PERIPH_TIM14
 451:Drivers/STM32F0xx_HAL_Driver/Inc/stm32f0xx_ll_bus.h ****   *         @arg @ref LL_APB1_GRP1_PERIPH_WWDG
 452:Drivers/STM32F0xx_HAL_Driver/Inc/stm32f0xx_ll_bus.h ****   *         @arg @ref LL_APB1_GRP1_PERIPH_SPI2 (*)
 453:Drivers/STM32F0xx_HAL_Driver/Inc/stm32f0xx_ll_bus.h ****   *         @arg @ref LL_APB1_GRP1_PERIPH_USART2 (*)
 454:Drivers/STM32F0xx_HAL_Driver/Inc/stm32f0xx_ll_bus.h ****   *         @arg @ref LL_APB1_GRP1_PERIPH_USART3 (*)
 455:Drivers/STM32F0xx_HAL_Driver/Inc/stm32f0xx_ll_bus.h ****   *         @arg @ref LL_APB1_GRP1_PERIPH_USART4 (*)
 456:Drivers/STM32F0xx_HAL_Driver/Inc/stm32f0xx_ll_bus.h ****   *         @arg @ref LL_APB1_GRP1_PERIPH_USART5 (*)
 457:Drivers/STM32F0xx_HAL_Driver/Inc/stm32f0xx_ll_bus.h ****   *         @arg @ref LL_APB1_GRP1_PERIPH_I2C1
 458:Drivers/STM32F0xx_HAL_Driver/Inc/stm32f0xx_ll_bus.h ****   *         @arg @ref LL_APB1_GRP1_PERIPH_I2C2 (*)
 459:Drivers/STM32F0xx_HAL_Driver/Inc/stm32f0xx_ll_bus.h ****   *         @arg @ref LL_APB1_GRP1_PERIPH_USB (*)
 460:Drivers/STM32F0xx_HAL_Driver/Inc/stm32f0xx_ll_bus.h ****   *         @arg @ref LL_APB1_GRP1_PERIPH_CAN (*)
 461:Drivers/STM32F0xx_HAL_Driver/Inc/stm32f0xx_ll_bus.h ****   *         @arg @ref LL_APB1_GRP1_PERIPH_CRS (*)
 462:Drivers/STM32F0xx_HAL_Driver/Inc/stm32f0xx_ll_bus.h ****   *         @arg @ref LL_APB1_GRP1_PERIPH_PWR
 463:Drivers/STM32F0xx_HAL_Driver/Inc/stm32f0xx_ll_bus.h ****   *         @arg @ref LL_APB1_GRP1_PERIPH_DAC1 (*)
 464:Drivers/STM32F0xx_HAL_Driver/Inc/stm32f0xx_ll_bus.h ****   *         @arg @ref LL_APB1_GRP1_PERIPH_CEC (*)
 465:Drivers/STM32F0xx_HAL_Driver/Inc/stm32f0xx_ll_bus.h ****   *
 466:Drivers/STM32F0xx_HAL_Driver/Inc/stm32f0xx_ll_bus.h ****   *         (*) value not defined in all devices.
ARM GAS  C:\Users\ADMINI~1\AppData\Local\Temp\cco9rtsT.s 			page 11


 467:Drivers/STM32F0xx_HAL_Driver/Inc/stm32f0xx_ll_bus.h ****   * @retval State of Periphs (1 or 0).
 468:Drivers/STM32F0xx_HAL_Driver/Inc/stm32f0xx_ll_bus.h **** */
 469:Drivers/STM32F0xx_HAL_Driver/Inc/stm32f0xx_ll_bus.h **** __STATIC_INLINE uint32_t LL_APB1_GRP1_IsEnabledClock(uint32_t Periphs)
 470:Drivers/STM32F0xx_HAL_Driver/Inc/stm32f0xx_ll_bus.h **** {
 471:Drivers/STM32F0xx_HAL_Driver/Inc/stm32f0xx_ll_bus.h ****   return (READ_BIT(RCC->APB1ENR, Periphs) == Periphs);
 472:Drivers/STM32F0xx_HAL_Driver/Inc/stm32f0xx_ll_bus.h **** }
 473:Drivers/STM32F0xx_HAL_Driver/Inc/stm32f0xx_ll_bus.h **** 
 474:Drivers/STM32F0xx_HAL_Driver/Inc/stm32f0xx_ll_bus.h **** /**
 475:Drivers/STM32F0xx_HAL_Driver/Inc/stm32f0xx_ll_bus.h ****   * @brief  Disable APB1 peripherals clock (available in register 1).
 476:Drivers/STM32F0xx_HAL_Driver/Inc/stm32f0xx_ll_bus.h ****   * @rmtoll APB1ENR      TIM2EN        LL_APB1_GRP1_DisableClock\n
 477:Drivers/STM32F0xx_HAL_Driver/Inc/stm32f0xx_ll_bus.h ****   *         APB1ENR      TIM3EN        LL_APB1_GRP1_DisableClock\n
 478:Drivers/STM32F0xx_HAL_Driver/Inc/stm32f0xx_ll_bus.h ****   *         APB1ENR      TIM6EN        LL_APB1_GRP1_DisableClock\n
 479:Drivers/STM32F0xx_HAL_Driver/Inc/stm32f0xx_ll_bus.h ****   *         APB1ENR      TIM7EN        LL_APB1_GRP1_DisableClock\n
 480:Drivers/STM32F0xx_HAL_Driver/Inc/stm32f0xx_ll_bus.h ****   *         APB1ENR      TIM14EN       LL_APB1_GRP1_DisableClock\n
 481:Drivers/STM32F0xx_HAL_Driver/Inc/stm32f0xx_ll_bus.h ****   *         APB1ENR      WWDGEN        LL_APB1_GRP1_DisableClock\n
 482:Drivers/STM32F0xx_HAL_Driver/Inc/stm32f0xx_ll_bus.h ****   *         APB1ENR      SPI2EN        LL_APB1_GRP1_DisableClock\n
 483:Drivers/STM32F0xx_HAL_Driver/Inc/stm32f0xx_ll_bus.h ****   *         APB1ENR      USART2EN      LL_APB1_GRP1_DisableClock\n
 484:Drivers/STM32F0xx_HAL_Driver/Inc/stm32f0xx_ll_bus.h ****   *         APB1ENR      USART3EN      LL_APB1_GRP1_DisableClock\n
 485:Drivers/STM32F0xx_HAL_Driver/Inc/stm32f0xx_ll_bus.h ****   *         APB1ENR      USART4EN      LL_APB1_GRP1_DisableClock\n
 486:Drivers/STM32F0xx_HAL_Driver/Inc/stm32f0xx_ll_bus.h ****   *         APB1ENR      USART5EN      LL_APB1_GRP1_DisableClock\n
 487:Drivers/STM32F0xx_HAL_Driver/Inc/stm32f0xx_ll_bus.h ****   *         APB1ENR      I2C1EN        LL_APB1_GRP1_DisableClock\n
 488:Drivers/STM32F0xx_HAL_Driver/Inc/stm32f0xx_ll_bus.h ****   *         APB1ENR      I2C2EN        LL_APB1_GRP1_DisableClock\n
 489:Drivers/STM32F0xx_HAL_Driver/Inc/stm32f0xx_ll_bus.h ****   *         APB1ENR      USBEN         LL_APB1_GRP1_DisableClock\n
 490:Drivers/STM32F0xx_HAL_Driver/Inc/stm32f0xx_ll_bus.h ****   *         APB1ENR      CANEN         LL_APB1_GRP1_DisableClock\n
 491:Drivers/STM32F0xx_HAL_Driver/Inc/stm32f0xx_ll_bus.h ****   *         APB1ENR      CRSEN         LL_APB1_GRP1_DisableClock\n
 492:Drivers/STM32F0xx_HAL_Driver/Inc/stm32f0xx_ll_bus.h ****   *         APB1ENR      PWREN         LL_APB1_GRP1_DisableClock\n
 493:Drivers/STM32F0xx_HAL_Driver/Inc/stm32f0xx_ll_bus.h ****   *         APB1ENR      DACEN         LL_APB1_GRP1_DisableClock\n
 494:Drivers/STM32F0xx_HAL_Driver/Inc/stm32f0xx_ll_bus.h ****   *         APB1ENR      CECEN         LL_APB1_GRP1_DisableClock
 495:Drivers/STM32F0xx_HAL_Driver/Inc/stm32f0xx_ll_bus.h ****   * @param  Periphs This parameter can be a combination of the following values:
 496:Drivers/STM32F0xx_HAL_Driver/Inc/stm32f0xx_ll_bus.h ****   *         @arg @ref LL_APB1_GRP1_PERIPH_TIM2 (*)
 497:Drivers/STM32F0xx_HAL_Driver/Inc/stm32f0xx_ll_bus.h ****   *         @arg @ref LL_APB1_GRP1_PERIPH_TIM3
 498:Drivers/STM32F0xx_HAL_Driver/Inc/stm32f0xx_ll_bus.h ****   *         @arg @ref LL_APB1_GRP1_PERIPH_TIM6 (*)
 499:Drivers/STM32F0xx_HAL_Driver/Inc/stm32f0xx_ll_bus.h ****   *         @arg @ref LL_APB1_GRP1_PERIPH_TIM7 (*)
 500:Drivers/STM32F0xx_HAL_Driver/Inc/stm32f0xx_ll_bus.h ****   *         @arg @ref LL_APB1_GRP1_PERIPH_TIM14
 501:Drivers/STM32F0xx_HAL_Driver/Inc/stm32f0xx_ll_bus.h ****   *         @arg @ref LL_APB1_GRP1_PERIPH_WWDG
 502:Drivers/STM32F0xx_HAL_Driver/Inc/stm32f0xx_ll_bus.h ****   *         @arg @ref LL_APB1_GRP1_PERIPH_SPI2 (*)
 503:Drivers/STM32F0xx_HAL_Driver/Inc/stm32f0xx_ll_bus.h ****   *         @arg @ref LL_APB1_GRP1_PERIPH_USART2 (*)
 504:Drivers/STM32F0xx_HAL_Driver/Inc/stm32f0xx_ll_bus.h ****   *         @arg @ref LL_APB1_GRP1_PERIPH_USART3 (*)
 505:Drivers/STM32F0xx_HAL_Driver/Inc/stm32f0xx_ll_bus.h ****   *         @arg @ref LL_APB1_GRP1_PERIPH_USART4 (*)
 506:Drivers/STM32F0xx_HAL_Driver/Inc/stm32f0xx_ll_bus.h ****   *         @arg @ref LL_APB1_GRP1_PERIPH_USART5 (*)
 507:Drivers/STM32F0xx_HAL_Driver/Inc/stm32f0xx_ll_bus.h ****   *         @arg @ref LL_APB1_GRP1_PERIPH_I2C1
 508:Drivers/STM32F0xx_HAL_Driver/Inc/stm32f0xx_ll_bus.h ****   *         @arg @ref LL_APB1_GRP1_PERIPH_I2C2 (*)
 509:Drivers/STM32F0xx_HAL_Driver/Inc/stm32f0xx_ll_bus.h ****   *         @arg @ref LL_APB1_GRP1_PERIPH_USB (*)
 510:Drivers/STM32F0xx_HAL_Driver/Inc/stm32f0xx_ll_bus.h ****   *         @arg @ref LL_APB1_GRP1_PERIPH_CAN (*)
 511:Drivers/STM32F0xx_HAL_Driver/Inc/stm32f0xx_ll_bus.h ****   *         @arg @ref LL_APB1_GRP1_PERIPH_CRS (*)
 512:Drivers/STM32F0xx_HAL_Driver/Inc/stm32f0xx_ll_bus.h ****   *         @arg @ref LL_APB1_GRP1_PERIPH_PWR
 513:Drivers/STM32F0xx_HAL_Driver/Inc/stm32f0xx_ll_bus.h ****   *         @arg @ref LL_APB1_GRP1_PERIPH_DAC1 (*)
 514:Drivers/STM32F0xx_HAL_Driver/Inc/stm32f0xx_ll_bus.h ****   *         @arg @ref LL_APB1_GRP1_PERIPH_CEC (*)
 515:Drivers/STM32F0xx_HAL_Driver/Inc/stm32f0xx_ll_bus.h ****   *
 516:Drivers/STM32F0xx_HAL_Driver/Inc/stm32f0xx_ll_bus.h ****   *         (*) value not defined in all devices.
 517:Drivers/STM32F0xx_HAL_Driver/Inc/stm32f0xx_ll_bus.h ****   * @retval None
 518:Drivers/STM32F0xx_HAL_Driver/Inc/stm32f0xx_ll_bus.h **** */
 519:Drivers/STM32F0xx_HAL_Driver/Inc/stm32f0xx_ll_bus.h **** __STATIC_INLINE void LL_APB1_GRP1_DisableClock(uint32_t Periphs)
 520:Drivers/STM32F0xx_HAL_Driver/Inc/stm32f0xx_ll_bus.h **** {
 521:Drivers/STM32F0xx_HAL_Driver/Inc/stm32f0xx_ll_bus.h ****   CLEAR_BIT(RCC->APB1ENR, Periphs);
 522:Drivers/STM32F0xx_HAL_Driver/Inc/stm32f0xx_ll_bus.h **** }
 523:Drivers/STM32F0xx_HAL_Driver/Inc/stm32f0xx_ll_bus.h **** 
ARM GAS  C:\Users\ADMINI~1\AppData\Local\Temp\cco9rtsT.s 			page 12


 524:Drivers/STM32F0xx_HAL_Driver/Inc/stm32f0xx_ll_bus.h **** /**
 525:Drivers/STM32F0xx_HAL_Driver/Inc/stm32f0xx_ll_bus.h ****   * @brief  Force APB1 peripherals reset (available in register 1).
 526:Drivers/STM32F0xx_HAL_Driver/Inc/stm32f0xx_ll_bus.h ****   * @rmtoll APB1RSTR     TIM2RST       LL_APB1_GRP1_ForceReset\n
 527:Drivers/STM32F0xx_HAL_Driver/Inc/stm32f0xx_ll_bus.h ****   *         APB1RSTR     TIM3RST       LL_APB1_GRP1_ForceReset\n
 528:Drivers/STM32F0xx_HAL_Driver/Inc/stm32f0xx_ll_bus.h ****   *         APB1RSTR     TIM6RST       LL_APB1_GRP1_ForceReset\n
 529:Drivers/STM32F0xx_HAL_Driver/Inc/stm32f0xx_ll_bus.h ****   *         APB1RSTR     TIM7RST       LL_APB1_GRP1_ForceReset\n
 530:Drivers/STM32F0xx_HAL_Driver/Inc/stm32f0xx_ll_bus.h ****   *         APB1RSTR     TIM14RST      LL_APB1_GRP1_ForceReset\n
 531:Drivers/STM32F0xx_HAL_Driver/Inc/stm32f0xx_ll_bus.h ****   *         APB1RSTR     WWDGRST       LL_APB1_GRP1_ForceReset\n
 532:Drivers/STM32F0xx_HAL_Driver/Inc/stm32f0xx_ll_bus.h ****   *         APB1RSTR     SPI2RST       LL_APB1_GRP1_ForceReset\n
 533:Drivers/STM32F0xx_HAL_Driver/Inc/stm32f0xx_ll_bus.h ****   *         APB1RSTR     USART2RST     LL_APB1_GRP1_ForceReset\n
 534:Drivers/STM32F0xx_HAL_Driver/Inc/stm32f0xx_ll_bus.h ****   *         APB1RSTR     USART3RST     LL_APB1_GRP1_ForceReset\n
 535:Drivers/STM32F0xx_HAL_Driver/Inc/stm32f0xx_ll_bus.h ****   *         APB1RSTR     USART4RST     LL_APB1_GRP1_ForceReset\n
 536:Drivers/STM32F0xx_HAL_Driver/Inc/stm32f0xx_ll_bus.h ****   *         APB1RSTR     USART5RST     LL_APB1_GRP1_ForceReset\n
 537:Drivers/STM32F0xx_HAL_Driver/Inc/stm32f0xx_ll_bus.h ****   *         APB1RSTR     I2C1RST       LL_APB1_GRP1_ForceReset\n
 538:Drivers/STM32F0xx_HAL_Driver/Inc/stm32f0xx_ll_bus.h ****   *         APB1RSTR     I2C2RST       LL_APB1_GRP1_ForceReset\n
 539:Drivers/STM32F0xx_HAL_Driver/Inc/stm32f0xx_ll_bus.h ****   *         APB1RSTR     USBRST        LL_APB1_GRP1_ForceReset\n
 540:Drivers/STM32F0xx_HAL_Driver/Inc/stm32f0xx_ll_bus.h ****   *         APB1RSTR     CANRST        LL_APB1_GRP1_ForceReset\n
 541:Drivers/STM32F0xx_HAL_Driver/Inc/stm32f0xx_ll_bus.h ****   *         APB1RSTR     CRSRST        LL_APB1_GRP1_ForceReset\n
 542:Drivers/STM32F0xx_HAL_Driver/Inc/stm32f0xx_ll_bus.h ****   *         APB1RSTR     PWRRST        LL_APB1_GRP1_ForceReset\n
 543:Drivers/STM32F0xx_HAL_Driver/Inc/stm32f0xx_ll_bus.h ****   *         APB1RSTR     DACRST        LL_APB1_GRP1_ForceReset\n
 544:Drivers/STM32F0xx_HAL_Driver/Inc/stm32f0xx_ll_bus.h ****   *         APB1RSTR     CECRST        LL_APB1_GRP1_ForceReset
 545:Drivers/STM32F0xx_HAL_Driver/Inc/stm32f0xx_ll_bus.h ****   * @param  Periphs This parameter can be a combination of the following values:
 546:Drivers/STM32F0xx_HAL_Driver/Inc/stm32f0xx_ll_bus.h ****   *         @arg @ref LL_APB1_GRP1_PERIPH_ALL
 547:Drivers/STM32F0xx_HAL_Driver/Inc/stm32f0xx_ll_bus.h ****   *         @arg @ref LL_APB1_GRP1_PERIPH_TIM2 (*)
 548:Drivers/STM32F0xx_HAL_Driver/Inc/stm32f0xx_ll_bus.h ****   *         @arg @ref LL_APB1_GRP1_PERIPH_TIM3
 549:Drivers/STM32F0xx_HAL_Driver/Inc/stm32f0xx_ll_bus.h ****   *         @arg @ref LL_APB1_GRP1_PERIPH_TIM6 (*)
 550:Drivers/STM32F0xx_HAL_Driver/Inc/stm32f0xx_ll_bus.h ****   *         @arg @ref LL_APB1_GRP1_PERIPH_TIM7 (*)
 551:Drivers/STM32F0xx_HAL_Driver/Inc/stm32f0xx_ll_bus.h ****   *         @arg @ref LL_APB1_GRP1_PERIPH_TIM14
 552:Drivers/STM32F0xx_HAL_Driver/Inc/stm32f0xx_ll_bus.h ****   *         @arg @ref LL_APB1_GRP1_PERIPH_WWDG
 553:Drivers/STM32F0xx_HAL_Driver/Inc/stm32f0xx_ll_bus.h ****   *         @arg @ref LL_APB1_GRP1_PERIPH_SPI2 (*)
 554:Drivers/STM32F0xx_HAL_Driver/Inc/stm32f0xx_ll_bus.h ****   *         @arg @ref LL_APB1_GRP1_PERIPH_USART2 (*)
 555:Drivers/STM32F0xx_HAL_Driver/Inc/stm32f0xx_ll_bus.h ****   *         @arg @ref LL_APB1_GRP1_PERIPH_USART3 (*)
 556:Drivers/STM32F0xx_HAL_Driver/Inc/stm32f0xx_ll_bus.h ****   *         @arg @ref LL_APB1_GRP1_PERIPH_USART4 (*)
 557:Drivers/STM32F0xx_HAL_Driver/Inc/stm32f0xx_ll_bus.h ****   *         @arg @ref LL_APB1_GRP1_PERIPH_USART5 (*)
 558:Drivers/STM32F0xx_HAL_Driver/Inc/stm32f0xx_ll_bus.h ****   *         @arg @ref LL_APB1_GRP1_PERIPH_I2C1
 559:Drivers/STM32F0xx_HAL_Driver/Inc/stm32f0xx_ll_bus.h ****   *         @arg @ref LL_APB1_GRP1_PERIPH_I2C2 (*)
 560:Drivers/STM32F0xx_HAL_Driver/Inc/stm32f0xx_ll_bus.h ****   *         @arg @ref LL_APB1_GRP1_PERIPH_USB (*)
 561:Drivers/STM32F0xx_HAL_Driver/Inc/stm32f0xx_ll_bus.h ****   *         @arg @ref LL_APB1_GRP1_PERIPH_CAN (*)
 562:Drivers/STM32F0xx_HAL_Driver/Inc/stm32f0xx_ll_bus.h ****   *         @arg @ref LL_APB1_GRP1_PERIPH_CRS (*)
 563:Drivers/STM32F0xx_HAL_Driver/Inc/stm32f0xx_ll_bus.h ****   *         @arg @ref LL_APB1_GRP1_PERIPH_PWR
 564:Drivers/STM32F0xx_HAL_Driver/Inc/stm32f0xx_ll_bus.h ****   *         @arg @ref LL_APB1_GRP1_PERIPH_DAC1 (*)
 565:Drivers/STM32F0xx_HAL_Driver/Inc/stm32f0xx_ll_bus.h ****   *         @arg @ref LL_APB1_GRP1_PERIPH_CEC (*)
 566:Drivers/STM32F0xx_HAL_Driver/Inc/stm32f0xx_ll_bus.h ****   *
 567:Drivers/STM32F0xx_HAL_Driver/Inc/stm32f0xx_ll_bus.h ****   *         (*) value not defined in all devices.
 568:Drivers/STM32F0xx_HAL_Driver/Inc/stm32f0xx_ll_bus.h ****   * @retval None
 569:Drivers/STM32F0xx_HAL_Driver/Inc/stm32f0xx_ll_bus.h **** */
 570:Drivers/STM32F0xx_HAL_Driver/Inc/stm32f0xx_ll_bus.h **** __STATIC_INLINE void LL_APB1_GRP1_ForceReset(uint32_t Periphs)
 571:Drivers/STM32F0xx_HAL_Driver/Inc/stm32f0xx_ll_bus.h **** {
 572:Drivers/STM32F0xx_HAL_Driver/Inc/stm32f0xx_ll_bus.h ****   SET_BIT(RCC->APB1RSTR, Periphs);
 573:Drivers/STM32F0xx_HAL_Driver/Inc/stm32f0xx_ll_bus.h **** }
 574:Drivers/STM32F0xx_HAL_Driver/Inc/stm32f0xx_ll_bus.h **** 
 575:Drivers/STM32F0xx_HAL_Driver/Inc/stm32f0xx_ll_bus.h **** /**
 576:Drivers/STM32F0xx_HAL_Driver/Inc/stm32f0xx_ll_bus.h ****   * @brief  Release APB1 peripherals reset (available in register 1).
 577:Drivers/STM32F0xx_HAL_Driver/Inc/stm32f0xx_ll_bus.h ****   * @rmtoll APB1RSTR     TIM2RST       LL_APB1_GRP1_ReleaseReset\n
 578:Drivers/STM32F0xx_HAL_Driver/Inc/stm32f0xx_ll_bus.h ****   *         APB1RSTR     TIM3RST       LL_APB1_GRP1_ReleaseReset\n
 579:Drivers/STM32F0xx_HAL_Driver/Inc/stm32f0xx_ll_bus.h ****   *         APB1RSTR     TIM6RST       LL_APB1_GRP1_ReleaseReset\n
 580:Drivers/STM32F0xx_HAL_Driver/Inc/stm32f0xx_ll_bus.h ****   *         APB1RSTR     TIM7RST       LL_APB1_GRP1_ReleaseReset\n
ARM GAS  C:\Users\ADMINI~1\AppData\Local\Temp\cco9rtsT.s 			page 13


 581:Drivers/STM32F0xx_HAL_Driver/Inc/stm32f0xx_ll_bus.h ****   *         APB1RSTR     TIM14RST      LL_APB1_GRP1_ReleaseReset\n
 582:Drivers/STM32F0xx_HAL_Driver/Inc/stm32f0xx_ll_bus.h ****   *         APB1RSTR     WWDGRST       LL_APB1_GRP1_ReleaseReset\n
 583:Drivers/STM32F0xx_HAL_Driver/Inc/stm32f0xx_ll_bus.h ****   *         APB1RSTR     SPI2RST       LL_APB1_GRP1_ReleaseReset\n
 584:Drivers/STM32F0xx_HAL_Driver/Inc/stm32f0xx_ll_bus.h ****   *         APB1RSTR     USART2RST     LL_APB1_GRP1_ReleaseReset\n
 585:Drivers/STM32F0xx_HAL_Driver/Inc/stm32f0xx_ll_bus.h ****   *         APB1RSTR     USART3RST     LL_APB1_GRP1_ReleaseReset\n
 586:Drivers/STM32F0xx_HAL_Driver/Inc/stm32f0xx_ll_bus.h ****   *         APB1RSTR     USART4RST     LL_APB1_GRP1_ReleaseReset\n
 587:Drivers/STM32F0xx_HAL_Driver/Inc/stm32f0xx_ll_bus.h ****   *         APB1RSTR     USART5RST     LL_APB1_GRP1_ReleaseReset\n
 588:Drivers/STM32F0xx_HAL_Driver/Inc/stm32f0xx_ll_bus.h ****   *         APB1RSTR     I2C1RST       LL_APB1_GRP1_ReleaseReset\n
 589:Drivers/STM32F0xx_HAL_Driver/Inc/stm32f0xx_ll_bus.h ****   *         APB1RSTR     I2C2RST       LL_APB1_GRP1_ReleaseReset\n
 590:Drivers/STM32F0xx_HAL_Driver/Inc/stm32f0xx_ll_bus.h ****   *         APB1RSTR     USBRST        LL_APB1_GRP1_ReleaseReset\n
 591:Drivers/STM32F0xx_HAL_Driver/Inc/stm32f0xx_ll_bus.h ****   *         APB1RSTR     CANRST        LL_APB1_GRP1_ReleaseReset\n
 592:Drivers/STM32F0xx_HAL_Driver/Inc/stm32f0xx_ll_bus.h ****   *         APB1RSTR     CRSRST        LL_APB1_GRP1_ReleaseReset\n
 593:Drivers/STM32F0xx_HAL_Driver/Inc/stm32f0xx_ll_bus.h ****   *         APB1RSTR     PWRRST        LL_APB1_GRP1_ReleaseReset\n
 594:Drivers/STM32F0xx_HAL_Driver/Inc/stm32f0xx_ll_bus.h ****   *         APB1RSTR     DACRST        LL_APB1_GRP1_ReleaseReset\n
 595:Drivers/STM32F0xx_HAL_Driver/Inc/stm32f0xx_ll_bus.h ****   *         APB1RSTR     CECRST        LL_APB1_GRP1_ReleaseReset
 596:Drivers/STM32F0xx_HAL_Driver/Inc/stm32f0xx_ll_bus.h ****   * @param  Periphs This parameter can be a combination of the following values:
 597:Drivers/STM32F0xx_HAL_Driver/Inc/stm32f0xx_ll_bus.h ****   *         @arg @ref LL_APB1_GRP1_PERIPH_ALL
 598:Drivers/STM32F0xx_HAL_Driver/Inc/stm32f0xx_ll_bus.h ****   *         @arg @ref LL_APB1_GRP1_PERIPH_TIM2 (*)
 599:Drivers/STM32F0xx_HAL_Driver/Inc/stm32f0xx_ll_bus.h ****   *         @arg @ref LL_APB1_GRP1_PERIPH_TIM3
 600:Drivers/STM32F0xx_HAL_Driver/Inc/stm32f0xx_ll_bus.h ****   *         @arg @ref LL_APB1_GRP1_PERIPH_TIM6 (*)
 601:Drivers/STM32F0xx_HAL_Driver/Inc/stm32f0xx_ll_bus.h ****   *         @arg @ref LL_APB1_GRP1_PERIPH_TIM7 (*)
 602:Drivers/STM32F0xx_HAL_Driver/Inc/stm32f0xx_ll_bus.h ****   *         @arg @ref LL_APB1_GRP1_PERIPH_TIM14
 603:Drivers/STM32F0xx_HAL_Driver/Inc/stm32f0xx_ll_bus.h ****   *         @arg @ref LL_APB1_GRP1_PERIPH_WWDG
 604:Drivers/STM32F0xx_HAL_Driver/Inc/stm32f0xx_ll_bus.h ****   *         @arg @ref LL_APB1_GRP1_PERIPH_SPI2 (*)
 605:Drivers/STM32F0xx_HAL_Driver/Inc/stm32f0xx_ll_bus.h ****   *         @arg @ref LL_APB1_GRP1_PERIPH_USART2 (*)
 606:Drivers/STM32F0xx_HAL_Driver/Inc/stm32f0xx_ll_bus.h ****   *         @arg @ref LL_APB1_GRP1_PERIPH_USART3 (*)
 607:Drivers/STM32F0xx_HAL_Driver/Inc/stm32f0xx_ll_bus.h ****   *         @arg @ref LL_APB1_GRP1_PERIPH_USART4 (*)
 608:Drivers/STM32F0xx_HAL_Driver/Inc/stm32f0xx_ll_bus.h ****   *         @arg @ref LL_APB1_GRP1_PERIPH_USART5 (*)
 609:Drivers/STM32F0xx_HAL_Driver/Inc/stm32f0xx_ll_bus.h ****   *         @arg @ref LL_APB1_GRP1_PERIPH_I2C1
 610:Drivers/STM32F0xx_HAL_Driver/Inc/stm32f0xx_ll_bus.h ****   *         @arg @ref LL_APB1_GRP1_PERIPH_I2C2 (*)
 611:Drivers/STM32F0xx_HAL_Driver/Inc/stm32f0xx_ll_bus.h ****   *         @arg @ref LL_APB1_GRP1_PERIPH_USB (*)
 612:Drivers/STM32F0xx_HAL_Driver/Inc/stm32f0xx_ll_bus.h ****   *         @arg @ref LL_APB1_GRP1_PERIPH_CAN (*)
 613:Drivers/STM32F0xx_HAL_Driver/Inc/stm32f0xx_ll_bus.h ****   *         @arg @ref LL_APB1_GRP1_PERIPH_CRS (*)
 614:Drivers/STM32F0xx_HAL_Driver/Inc/stm32f0xx_ll_bus.h ****   *         @arg @ref LL_APB1_GRP1_PERIPH_PWR
 615:Drivers/STM32F0xx_HAL_Driver/Inc/stm32f0xx_ll_bus.h ****   *         @arg @ref LL_APB1_GRP1_PERIPH_DAC1 (*)
 616:Drivers/STM32F0xx_HAL_Driver/Inc/stm32f0xx_ll_bus.h ****   *         @arg @ref LL_APB1_GRP1_PERIPH_CEC (*)
 617:Drivers/STM32F0xx_HAL_Driver/Inc/stm32f0xx_ll_bus.h ****   *
 618:Drivers/STM32F0xx_HAL_Driver/Inc/stm32f0xx_ll_bus.h ****   *         (*) value not defined in all devices.
 619:Drivers/STM32F0xx_HAL_Driver/Inc/stm32f0xx_ll_bus.h ****   * @retval None
 620:Drivers/STM32F0xx_HAL_Driver/Inc/stm32f0xx_ll_bus.h **** */
 621:Drivers/STM32F0xx_HAL_Driver/Inc/stm32f0xx_ll_bus.h **** __STATIC_INLINE void LL_APB1_GRP1_ReleaseReset(uint32_t Periphs)
 622:Drivers/STM32F0xx_HAL_Driver/Inc/stm32f0xx_ll_bus.h **** {
 623:Drivers/STM32F0xx_HAL_Driver/Inc/stm32f0xx_ll_bus.h ****   CLEAR_BIT(RCC->APB1RSTR, Periphs);
 624:Drivers/STM32F0xx_HAL_Driver/Inc/stm32f0xx_ll_bus.h **** }
 625:Drivers/STM32F0xx_HAL_Driver/Inc/stm32f0xx_ll_bus.h **** 
 626:Drivers/STM32F0xx_HAL_Driver/Inc/stm32f0xx_ll_bus.h **** /**
 627:Drivers/STM32F0xx_HAL_Driver/Inc/stm32f0xx_ll_bus.h ****   * @}
 628:Drivers/STM32F0xx_HAL_Driver/Inc/stm32f0xx_ll_bus.h ****   */
 629:Drivers/STM32F0xx_HAL_Driver/Inc/stm32f0xx_ll_bus.h **** 
 630:Drivers/STM32F0xx_HAL_Driver/Inc/stm32f0xx_ll_bus.h **** /** @defgroup BUS_LL_EF_APB1_GRP2 APB1 GRP2
 631:Drivers/STM32F0xx_HAL_Driver/Inc/stm32f0xx_ll_bus.h ****   * @{
 632:Drivers/STM32F0xx_HAL_Driver/Inc/stm32f0xx_ll_bus.h ****   */
 633:Drivers/STM32F0xx_HAL_Driver/Inc/stm32f0xx_ll_bus.h **** 
 634:Drivers/STM32F0xx_HAL_Driver/Inc/stm32f0xx_ll_bus.h **** /**
 635:Drivers/STM32F0xx_HAL_Driver/Inc/stm32f0xx_ll_bus.h ****   * @brief  Enable APB1 peripherals clock (available in register 2).
 636:Drivers/STM32F0xx_HAL_Driver/Inc/stm32f0xx_ll_bus.h ****   * @rmtoll APB2ENR      SYSCFGEN      LL_APB1_GRP2_EnableClock\n
 637:Drivers/STM32F0xx_HAL_Driver/Inc/stm32f0xx_ll_bus.h ****   *         APB2ENR      ADC1EN        LL_APB1_GRP2_EnableClock\n
ARM GAS  C:\Users\ADMINI~1\AppData\Local\Temp\cco9rtsT.s 			page 14


 638:Drivers/STM32F0xx_HAL_Driver/Inc/stm32f0xx_ll_bus.h ****   *         APB2ENR      USART8EN      LL_APB1_GRP2_EnableClock\n
 639:Drivers/STM32F0xx_HAL_Driver/Inc/stm32f0xx_ll_bus.h ****   *         APB2ENR      USART7EN      LL_APB1_GRP2_EnableClock\n
 640:Drivers/STM32F0xx_HAL_Driver/Inc/stm32f0xx_ll_bus.h ****   *         APB2ENR      USART6EN      LL_APB1_GRP2_EnableClock\n
 641:Drivers/STM32F0xx_HAL_Driver/Inc/stm32f0xx_ll_bus.h ****   *         APB2ENR      TIM1EN        LL_APB1_GRP2_EnableClock\n
 642:Drivers/STM32F0xx_HAL_Driver/Inc/stm32f0xx_ll_bus.h ****   *         APB2ENR      SPI1EN        LL_APB1_GRP2_EnableClock\n
 643:Drivers/STM32F0xx_HAL_Driver/Inc/stm32f0xx_ll_bus.h ****   *         APB2ENR      USART1EN      LL_APB1_GRP2_EnableClock\n
 644:Drivers/STM32F0xx_HAL_Driver/Inc/stm32f0xx_ll_bus.h ****   *         APB2ENR      TIM15EN       LL_APB1_GRP2_EnableClock\n
 645:Drivers/STM32F0xx_HAL_Driver/Inc/stm32f0xx_ll_bus.h ****   *         APB2ENR      TIM16EN       LL_APB1_GRP2_EnableClock\n
 646:Drivers/STM32F0xx_HAL_Driver/Inc/stm32f0xx_ll_bus.h ****   *         APB2ENR      TIM17EN       LL_APB1_GRP2_EnableClock\n
 647:Drivers/STM32F0xx_HAL_Driver/Inc/stm32f0xx_ll_bus.h ****   *         APB2ENR      DBGMCUEN      LL_APB1_GRP2_EnableClock
 648:Drivers/STM32F0xx_HAL_Driver/Inc/stm32f0xx_ll_bus.h ****   * @param  Periphs This parameter can be a combination of the following values:
 649:Drivers/STM32F0xx_HAL_Driver/Inc/stm32f0xx_ll_bus.h ****   *         @arg @ref LL_APB1_GRP2_PERIPH_SYSCFG
 650:Drivers/STM32F0xx_HAL_Driver/Inc/stm32f0xx_ll_bus.h ****   *         @arg @ref LL_APB1_GRP2_PERIPH_ADC1
 651:Drivers/STM32F0xx_HAL_Driver/Inc/stm32f0xx_ll_bus.h ****   *         @arg @ref LL_APB1_GRP2_PERIPH_USART8 (*)
 652:Drivers/STM32F0xx_HAL_Driver/Inc/stm32f0xx_ll_bus.h ****   *         @arg @ref LL_APB1_GRP2_PERIPH_USART7 (*)
 653:Drivers/STM32F0xx_HAL_Driver/Inc/stm32f0xx_ll_bus.h ****   *         @arg @ref LL_APB1_GRP2_PERIPH_USART6 (*)
 654:Drivers/STM32F0xx_HAL_Driver/Inc/stm32f0xx_ll_bus.h ****   *         @arg @ref LL_APB1_GRP2_PERIPH_TIM1
 655:Drivers/STM32F0xx_HAL_Driver/Inc/stm32f0xx_ll_bus.h ****   *         @arg @ref LL_APB1_GRP2_PERIPH_SPI1
 656:Drivers/STM32F0xx_HAL_Driver/Inc/stm32f0xx_ll_bus.h ****   *         @arg @ref LL_APB1_GRP2_PERIPH_USART1
 657:Drivers/STM32F0xx_HAL_Driver/Inc/stm32f0xx_ll_bus.h ****   *         @arg @ref LL_APB1_GRP2_PERIPH_TIM15 (*)
 658:Drivers/STM32F0xx_HAL_Driver/Inc/stm32f0xx_ll_bus.h ****   *         @arg @ref LL_APB1_GRP2_PERIPH_TIM16
 659:Drivers/STM32F0xx_HAL_Driver/Inc/stm32f0xx_ll_bus.h ****   *         @arg @ref LL_APB1_GRP2_PERIPH_TIM17
 660:Drivers/STM32F0xx_HAL_Driver/Inc/stm32f0xx_ll_bus.h ****   *         @arg @ref LL_APB1_GRP2_PERIPH_DBGMCU
 661:Drivers/STM32F0xx_HAL_Driver/Inc/stm32f0xx_ll_bus.h ****   *
 662:Drivers/STM32F0xx_HAL_Driver/Inc/stm32f0xx_ll_bus.h ****   *         (*) value not defined in all devices.
 663:Drivers/STM32F0xx_HAL_Driver/Inc/stm32f0xx_ll_bus.h ****   * @retval None
 664:Drivers/STM32F0xx_HAL_Driver/Inc/stm32f0xx_ll_bus.h **** */
 665:Drivers/STM32F0xx_HAL_Driver/Inc/stm32f0xx_ll_bus.h **** __STATIC_INLINE void LL_APB1_GRP2_EnableClock(uint32_t Periphs)
  65              		.loc 2 665 22 view .LVU6
  66              	.LBB27:
 666:Drivers/STM32F0xx_HAL_Driver/Inc/stm32f0xx_ll_bus.h **** {
 667:Drivers/STM32F0xx_HAL_Driver/Inc/stm32f0xx_ll_bus.h ****   __IO uint32_t tmpreg;
  67              		.loc 2 667 3 view .LVU7
 668:Drivers/STM32F0xx_HAL_Driver/Inc/stm32f0xx_ll_bus.h ****   SET_BIT(RCC->APB2ENR, Periphs);
  68              		.loc 2 668 3 view .LVU8
  69 001c 2A4B     		ldr	r3, .L2
  70 001e 9969     		ldr	r1, [r3, #24]
  71 0020 8020     		movs	r0, #128
  72 0022 C001     		lsls	r0, r0, #7
  73 0024 0143     		orrs	r1, r0
  74 0026 9961     		str	r1, [r3, #24]
 669:Drivers/STM32F0xx_HAL_Driver/Inc/stm32f0xx_ll_bus.h ****   /* Delay after an RCC peripheral clock enabling */
 670:Drivers/STM32F0xx_HAL_Driver/Inc/stm32f0xx_ll_bus.h ****   tmpreg = READ_BIT(RCC->APB2ENR, Periphs);
  75              		.loc 2 670 3 view .LVU9
  76              		.loc 2 670 12 is_stmt 0 view .LVU10
  77 0028 9A69     		ldr	r2, [r3, #24]
  78 002a 0240     		ands	r2, r0
  79              		.loc 2 670 10 view .LVU11
  80 002c 0292     		str	r2, [sp, #8]
 671:Drivers/STM32F0xx_HAL_Driver/Inc/stm32f0xx_ll_bus.h ****   (void)tmpreg;
  81              		.loc 2 671 3 is_stmt 1 view .LVU12
  82 002e 029A     		ldr	r2, [sp, #8]
  83              	.LVL2:
  84              		.loc 2 671 3 is_stmt 0 view .LVU13
  85              	.LBE27:
  86              	.LBE26:
  42:Src/usart.c   **** 
ARM GAS  C:\Users\ADMINI~1\AppData\Local\Temp\cco9rtsT.s 			page 15


  43:Src/usart.c   ****   LL_AHB1_GRP1_EnableClock(LL_AHB1_GRP1_PERIPH_GPIOA);
  87              		.loc 1 43 3 is_stmt 1 view .LVU14
  88              	.LBB28:
  89              	.LBI28:
 227:Drivers/STM32F0xx_HAL_Driver/Inc/stm32f0xx_ll_bus.h **** {
  90              		.loc 2 227 22 view .LVU15
  91              	.LBB29:
 229:Drivers/STM32F0xx_HAL_Driver/Inc/stm32f0xx_ll_bus.h ****   SET_BIT(RCC->AHBENR, Periphs);
  92              		.loc 2 229 3 view .LVU16
 230:Drivers/STM32F0xx_HAL_Driver/Inc/stm32f0xx_ll_bus.h ****   /* Delay after an RCC peripheral clock enabling */
  93              		.loc 2 230 3 view .LVU17
  94 0030 5A69     		ldr	r2, [r3, #20]
  95 0032 8021     		movs	r1, #128
  96 0034 8902     		lsls	r1, r1, #10
  97 0036 0A43     		orrs	r2, r1
  98 0038 5A61     		str	r2, [r3, #20]
 232:Drivers/STM32F0xx_HAL_Driver/Inc/stm32f0xx_ll_bus.h ****   (void)tmpreg;
  99              		.loc 2 232 3 view .LVU18
 232:Drivers/STM32F0xx_HAL_Driver/Inc/stm32f0xx_ll_bus.h ****   (void)tmpreg;
 100              		.loc 2 232 12 is_stmt 0 view .LVU19
 101 003a 5B69     		ldr	r3, [r3, #20]
 102 003c 0B40     		ands	r3, r1
 232:Drivers/STM32F0xx_HAL_Driver/Inc/stm32f0xx_ll_bus.h ****   (void)tmpreg;
 103              		.loc 2 232 10 view .LVU20
 104 003e 0193     		str	r3, [sp, #4]
 233:Drivers/STM32F0xx_HAL_Driver/Inc/stm32f0xx_ll_bus.h **** }
 105              		.loc 2 233 3 is_stmt 1 view .LVU21
 106 0040 019B     		ldr	r3, [sp, #4]
 107              	.LVL3:
 233:Drivers/STM32F0xx_HAL_Driver/Inc/stm32f0xx_ll_bus.h **** }
 108              		.loc 2 233 3 is_stmt 0 view .LVU22
 109              	.LBE29:
 110              	.LBE28:
  44:Src/usart.c   ****   /**USART1 GPIO Configuration
  45:Src/usart.c   ****   PA2   ------> USART1_TX
  46:Src/usart.c   ****   PA3   ------> USART1_RX
  47:Src/usart.c   ****   */
  48:Src/usart.c   ****   GPIO_InitStruct.Pin = LL_GPIO_PIN_2;
 111              		.loc 1 48 3 is_stmt 1 view .LVU23
 112              		.loc 1 48 23 is_stmt 0 view .LVU24
 113 0042 0423     		movs	r3, #4
 114 0044 0393     		str	r3, [sp, #12]
  49:Src/usart.c   ****   GPIO_InitStruct.Mode = LL_GPIO_MODE_ALTERNATE;
 115              		.loc 1 49 3 is_stmt 1 view .LVU25
 116              		.loc 1 49 24 is_stmt 0 view .LVU26
 117 0046 023B     		subs	r3, r3, #2
 118 0048 9846     		mov	r8, r3
 119 004a 0493     		str	r3, [sp, #16]
  50:Src/usart.c   ****   GPIO_InitStruct.Speed = LL_GPIO_SPEED_FREQ_HIGH;
 120              		.loc 1 50 3 is_stmt 1 view .LVU27
 121              		.loc 1 50 25 is_stmt 0 view .LVU28
 122 004c 0324     		movs	r4, #3
 123 004e 0594     		str	r4, [sp, #20]
  51:Src/usart.c   ****   GPIO_InitStruct.OutputType = LL_GPIO_OUTPUT_PUSHPULL;
 124              		.loc 1 51 3 is_stmt 1 view .LVU29
  52:Src/usart.c   ****   GPIO_InitStruct.Pull = LL_GPIO_PULL_NO;
 125              		.loc 1 52 3 view .LVU30
ARM GAS  C:\Users\ADMINI~1\AppData\Local\Temp\cco9rtsT.s 			page 16


  53:Src/usart.c   ****   GPIO_InitStruct.Alternate = LL_GPIO_AF_1;
 126              		.loc 1 53 3 view .LVU31
 127              		.loc 1 53 29 is_stmt 0 view .LVU32
 128 0050 0125     		movs	r5, #1
 129 0052 0895     		str	r5, [sp, #32]
  54:Src/usart.c   ****   LL_GPIO_Init(GPIOA, &GPIO_InitStruct);
 130              		.loc 1 54 3 is_stmt 1 view .LVU33
 131 0054 9027     		movs	r7, #144
 132 0056 FF05     		lsls	r7, r7, #23
 133 0058 03A9     		add	r1, sp, #12
 134 005a 3800     		movs	r0, r7
 135 005c FFF7FEFF 		bl	LL_GPIO_Init
 136              	.LVL4:
  55:Src/usart.c   **** 
  56:Src/usart.c   ****   GPIO_InitStruct.Pin = LL_GPIO_PIN_3;
 137              		.loc 1 56 3 view .LVU34
 138              		.loc 1 56 23 is_stmt 0 view .LVU35
 139 0060 0826     		movs	r6, #8
 140 0062 0396     		str	r6, [sp, #12]
  57:Src/usart.c   ****   GPIO_InitStruct.Mode = LL_GPIO_MODE_ALTERNATE;
 141              		.loc 1 57 3 is_stmt 1 view .LVU36
 142              		.loc 1 57 24 is_stmt 0 view .LVU37
 143 0064 4346     		mov	r3, r8
 144 0066 0493     		str	r3, [sp, #16]
  58:Src/usart.c   ****   GPIO_InitStruct.Speed = LL_GPIO_SPEED_FREQ_HIGH;
 145              		.loc 1 58 3 is_stmt 1 view .LVU38
 146              		.loc 1 58 25 is_stmt 0 view .LVU39
 147 0068 0594     		str	r4, [sp, #20]
  59:Src/usart.c   ****   GPIO_InitStruct.OutputType = LL_GPIO_OUTPUT_PUSHPULL;
 148              		.loc 1 59 3 is_stmt 1 view .LVU40
 149              		.loc 1 59 30 is_stmt 0 view .LVU41
 150 006a 0024     		movs	r4, #0
 151 006c 0694     		str	r4, [sp, #24]
  60:Src/usart.c   ****   GPIO_InitStruct.Pull = LL_GPIO_PULL_NO;
 152              		.loc 1 60 3 is_stmt 1 view .LVU42
 153              		.loc 1 60 24 is_stmt 0 view .LVU43
 154 006e 0794     		str	r4, [sp, #28]
  61:Src/usart.c   ****   GPIO_InitStruct.Alternate = LL_GPIO_AF_1;
 155              		.loc 1 61 3 is_stmt 1 view .LVU44
 156              		.loc 1 61 29 is_stmt 0 view .LVU45
 157 0070 0895     		str	r5, [sp, #32]
  62:Src/usart.c   ****   LL_GPIO_Init(GPIOA, &GPIO_InitStruct);
 158              		.loc 1 62 3 is_stmt 1 view .LVU46
 159 0072 03A9     		add	r1, sp, #12
 160 0074 3800     		movs	r0, r7
 161 0076 FFF7FEFF 		bl	LL_GPIO_Init
 162              	.LVL5:
  63:Src/usart.c   **** 
  64:Src/usart.c   ****   /* USER CODE BEGIN USART1_Init 1 */
  65:Src/usart.c   **** 
  66:Src/usart.c   ****   /* USER CODE END USART1_Init 1 */
  67:Src/usart.c   ****   USART_InitStruct.BaudRate = 115200;
 163              		.loc 1 67 3 view .LVU47
 164              		.loc 1 67 29 is_stmt 0 view .LVU48
 165 007a E123     		movs	r3, #225
 166 007c 5B02     		lsls	r3, r3, #9
 167 007e 0993     		str	r3, [sp, #36]
ARM GAS  C:\Users\ADMINI~1\AppData\Local\Temp\cco9rtsT.s 			page 17


  68:Src/usart.c   ****   USART_InitStruct.DataWidth = LL_USART_DATAWIDTH_8B;
 168              		.loc 1 68 3 is_stmt 1 view .LVU49
 169              		.loc 1 68 30 is_stmt 0 view .LVU50
 170 0080 0A94     		str	r4, [sp, #40]
  69:Src/usart.c   ****   USART_InitStruct.StopBits = LL_USART_STOPBITS_1;
 171              		.loc 1 69 3 is_stmt 1 view .LVU51
 172              		.loc 1 69 29 is_stmt 0 view .LVU52
 173 0082 0B94     		str	r4, [sp, #44]
  70:Src/usart.c   ****   USART_InitStruct.Parity = LL_USART_PARITY_NONE;
 174              		.loc 1 70 3 is_stmt 1 view .LVU53
 175              		.loc 1 70 27 is_stmt 0 view .LVU54
 176 0084 0C94     		str	r4, [sp, #48]
  71:Src/usart.c   ****   USART_InitStruct.TransferDirection = LL_USART_DIRECTION_TX_RX;
 177              		.loc 1 71 3 is_stmt 1 view .LVU55
 178              		.loc 1 71 38 is_stmt 0 view .LVU56
 179 0086 0C23     		movs	r3, #12
 180 0088 0D93     		str	r3, [sp, #52]
  72:Src/usart.c   ****   USART_InitStruct.HardwareFlowControl = LL_USART_HWCONTROL_NONE;
 181              		.loc 1 72 3 is_stmt 1 view .LVU57
 182              		.loc 1 72 40 is_stmt 0 view .LVU58
 183 008a 0E94     		str	r4, [sp, #56]
  73:Src/usart.c   ****   USART_InitStruct.OverSampling = LL_USART_OVERSAMPLING_16;
 184              		.loc 1 73 3 is_stmt 1 view .LVU59
 185              		.loc 1 73 33 is_stmt 0 view .LVU60
 186 008c 0F94     		str	r4, [sp, #60]
  74:Src/usart.c   ****   LL_USART_Init(USART1, &USART_InitStruct);
 187              		.loc 1 74 3 is_stmt 1 view .LVU61
 188 008e 0F4C     		ldr	r4, .L2+4
 189 0090 09A9     		add	r1, sp, #36
 190 0092 2000     		movs	r0, r4
 191 0094 FFF7FEFF 		bl	LL_USART_Init
 192              	.LVL6:
  75:Src/usart.c   ****   LL_USART_DisableIT_CTS(USART1);
 193              		.loc 1 75 3 view .LVU62
 194              	.LBB30:
 195              	.LBI30:
 196              		.file 3 "Drivers/STM32F0xx_HAL_Driver/Inc/stm32f0xx_ll_usart.h"
   1:Drivers/STM32F0xx_HAL_Driver/Inc/stm32f0xx_ll_usart.h **** /**
   2:Drivers/STM32F0xx_HAL_Driver/Inc/stm32f0xx_ll_usart.h ****   ******************************************************************************
   3:Drivers/STM32F0xx_HAL_Driver/Inc/stm32f0xx_ll_usart.h ****   * @file    stm32f0xx_ll_usart.h
   4:Drivers/STM32F0xx_HAL_Driver/Inc/stm32f0xx_ll_usart.h ****   * @author  MCD Application Team
   5:Drivers/STM32F0xx_HAL_Driver/Inc/stm32f0xx_ll_usart.h ****   * @brief   Header file of USART LL module.
   6:Drivers/STM32F0xx_HAL_Driver/Inc/stm32f0xx_ll_usart.h ****   ******************************************************************************
   7:Drivers/STM32F0xx_HAL_Driver/Inc/stm32f0xx_ll_usart.h ****   * @attention
   8:Drivers/STM32F0xx_HAL_Driver/Inc/stm32f0xx_ll_usart.h ****   *
   9:Drivers/STM32F0xx_HAL_Driver/Inc/stm32f0xx_ll_usart.h ****   * <h2><center>&copy; Copyright (c) 2016 STMicroelectronics.
  10:Drivers/STM32F0xx_HAL_Driver/Inc/stm32f0xx_ll_usart.h ****   * All rights reserved.</center></h2>
  11:Drivers/STM32F0xx_HAL_Driver/Inc/stm32f0xx_ll_usart.h ****   *
  12:Drivers/STM32F0xx_HAL_Driver/Inc/stm32f0xx_ll_usart.h ****   * This software component is licensed by ST under BSD 3-Clause license,
  13:Drivers/STM32F0xx_HAL_Driver/Inc/stm32f0xx_ll_usart.h ****   * the "License"; You may not use this file except in compliance with the
  14:Drivers/STM32F0xx_HAL_Driver/Inc/stm32f0xx_ll_usart.h ****   * License. You may obtain a copy of the License at:
  15:Drivers/STM32F0xx_HAL_Driver/Inc/stm32f0xx_ll_usart.h ****   *                        opensource.org/licenses/BSD-3-Clause
  16:Drivers/STM32F0xx_HAL_Driver/Inc/stm32f0xx_ll_usart.h ****   *
  17:Drivers/STM32F0xx_HAL_Driver/Inc/stm32f0xx_ll_usart.h ****   ******************************************************************************
  18:Drivers/STM32F0xx_HAL_Driver/Inc/stm32f0xx_ll_usart.h ****   */
  19:Drivers/STM32F0xx_HAL_Driver/Inc/stm32f0xx_ll_usart.h **** 
  20:Drivers/STM32F0xx_HAL_Driver/Inc/stm32f0xx_ll_usart.h **** /* Define to prevent recursive inclusion -------------------------------------*/
ARM GAS  C:\Users\ADMINI~1\AppData\Local\Temp\cco9rtsT.s 			page 18


  21:Drivers/STM32F0xx_HAL_Driver/Inc/stm32f0xx_ll_usart.h **** #ifndef STM32F0xx_LL_USART_H
  22:Drivers/STM32F0xx_HAL_Driver/Inc/stm32f0xx_ll_usart.h **** #define STM32F0xx_LL_USART_H
  23:Drivers/STM32F0xx_HAL_Driver/Inc/stm32f0xx_ll_usart.h **** 
  24:Drivers/STM32F0xx_HAL_Driver/Inc/stm32f0xx_ll_usart.h **** #ifdef __cplusplus
  25:Drivers/STM32F0xx_HAL_Driver/Inc/stm32f0xx_ll_usart.h **** extern "C" {
  26:Drivers/STM32F0xx_HAL_Driver/Inc/stm32f0xx_ll_usart.h **** #endif
  27:Drivers/STM32F0xx_HAL_Driver/Inc/stm32f0xx_ll_usart.h **** 
  28:Drivers/STM32F0xx_HAL_Driver/Inc/stm32f0xx_ll_usart.h **** /* Includes ------------------------------------------------------------------*/
  29:Drivers/STM32F0xx_HAL_Driver/Inc/stm32f0xx_ll_usart.h **** #include "stm32f0xx.h"
  30:Drivers/STM32F0xx_HAL_Driver/Inc/stm32f0xx_ll_usart.h **** 
  31:Drivers/STM32F0xx_HAL_Driver/Inc/stm32f0xx_ll_usart.h **** /** @addtogroup STM32F0xx_LL_Driver
  32:Drivers/STM32F0xx_HAL_Driver/Inc/stm32f0xx_ll_usart.h ****   * @{
  33:Drivers/STM32F0xx_HAL_Driver/Inc/stm32f0xx_ll_usart.h ****   */
  34:Drivers/STM32F0xx_HAL_Driver/Inc/stm32f0xx_ll_usart.h **** 
  35:Drivers/STM32F0xx_HAL_Driver/Inc/stm32f0xx_ll_usart.h **** #if defined (USART1) || defined (USART2) || defined (USART3) || defined (UART4) || defined (UART5) 
  36:Drivers/STM32F0xx_HAL_Driver/Inc/stm32f0xx_ll_usart.h **** 
  37:Drivers/STM32F0xx_HAL_Driver/Inc/stm32f0xx_ll_usart.h **** /** @defgroup USART_LL USART
  38:Drivers/STM32F0xx_HAL_Driver/Inc/stm32f0xx_ll_usart.h ****   * @{
  39:Drivers/STM32F0xx_HAL_Driver/Inc/stm32f0xx_ll_usart.h ****   */
  40:Drivers/STM32F0xx_HAL_Driver/Inc/stm32f0xx_ll_usart.h **** 
  41:Drivers/STM32F0xx_HAL_Driver/Inc/stm32f0xx_ll_usart.h **** /* Private types -------------------------------------------------------------*/
  42:Drivers/STM32F0xx_HAL_Driver/Inc/stm32f0xx_ll_usart.h **** /* Private variables ---------------------------------------------------------*/
  43:Drivers/STM32F0xx_HAL_Driver/Inc/stm32f0xx_ll_usart.h **** 
  44:Drivers/STM32F0xx_HAL_Driver/Inc/stm32f0xx_ll_usart.h **** /* Private constants ---------------------------------------------------------*/
  45:Drivers/STM32F0xx_HAL_Driver/Inc/stm32f0xx_ll_usart.h **** /* Private macros ------------------------------------------------------------*/
  46:Drivers/STM32F0xx_HAL_Driver/Inc/stm32f0xx_ll_usart.h **** #if defined(USE_FULL_LL_DRIVER)
  47:Drivers/STM32F0xx_HAL_Driver/Inc/stm32f0xx_ll_usart.h **** /** @defgroup USART_LL_Private_Macros USART Private Macros
  48:Drivers/STM32F0xx_HAL_Driver/Inc/stm32f0xx_ll_usart.h ****   * @{
  49:Drivers/STM32F0xx_HAL_Driver/Inc/stm32f0xx_ll_usart.h ****   */
  50:Drivers/STM32F0xx_HAL_Driver/Inc/stm32f0xx_ll_usart.h **** /**
  51:Drivers/STM32F0xx_HAL_Driver/Inc/stm32f0xx_ll_usart.h ****   * @}
  52:Drivers/STM32F0xx_HAL_Driver/Inc/stm32f0xx_ll_usart.h ****   */
  53:Drivers/STM32F0xx_HAL_Driver/Inc/stm32f0xx_ll_usart.h **** #endif /*USE_FULL_LL_DRIVER*/
  54:Drivers/STM32F0xx_HAL_Driver/Inc/stm32f0xx_ll_usart.h **** 
  55:Drivers/STM32F0xx_HAL_Driver/Inc/stm32f0xx_ll_usart.h **** /* Exported types ------------------------------------------------------------*/
  56:Drivers/STM32F0xx_HAL_Driver/Inc/stm32f0xx_ll_usart.h **** #if defined(USE_FULL_LL_DRIVER)
  57:Drivers/STM32F0xx_HAL_Driver/Inc/stm32f0xx_ll_usart.h **** /** @defgroup USART_LL_ES_INIT USART Exported Init structures
  58:Drivers/STM32F0xx_HAL_Driver/Inc/stm32f0xx_ll_usart.h ****   * @{
  59:Drivers/STM32F0xx_HAL_Driver/Inc/stm32f0xx_ll_usart.h ****   */
  60:Drivers/STM32F0xx_HAL_Driver/Inc/stm32f0xx_ll_usart.h **** 
  61:Drivers/STM32F0xx_HAL_Driver/Inc/stm32f0xx_ll_usart.h **** /**
  62:Drivers/STM32F0xx_HAL_Driver/Inc/stm32f0xx_ll_usart.h ****   * @brief LL USART Init Structure definition
  63:Drivers/STM32F0xx_HAL_Driver/Inc/stm32f0xx_ll_usart.h ****   */
  64:Drivers/STM32F0xx_HAL_Driver/Inc/stm32f0xx_ll_usart.h **** typedef struct
  65:Drivers/STM32F0xx_HAL_Driver/Inc/stm32f0xx_ll_usart.h **** {
  66:Drivers/STM32F0xx_HAL_Driver/Inc/stm32f0xx_ll_usart.h **** 
  67:Drivers/STM32F0xx_HAL_Driver/Inc/stm32f0xx_ll_usart.h ****   uint32_t BaudRate;                  /*!< This field defines expected Usart communication baud rat
  68:Drivers/STM32F0xx_HAL_Driver/Inc/stm32f0xx_ll_usart.h **** 
  69:Drivers/STM32F0xx_HAL_Driver/Inc/stm32f0xx_ll_usart.h ****                                            This feature can be modified afterwards using unitary
  70:Drivers/STM32F0xx_HAL_Driver/Inc/stm32f0xx_ll_usart.h ****                                            function @ref LL_USART_SetBaudRate().*/
  71:Drivers/STM32F0xx_HAL_Driver/Inc/stm32f0xx_ll_usart.h **** 
  72:Drivers/STM32F0xx_HAL_Driver/Inc/stm32f0xx_ll_usart.h ****   uint32_t DataWidth;                 /*!< Specifies the number of data bits transmitted or receive
  73:Drivers/STM32F0xx_HAL_Driver/Inc/stm32f0xx_ll_usart.h ****                                            This parameter can be a value of @ref USART_LL_EC_DATAWI
  74:Drivers/STM32F0xx_HAL_Driver/Inc/stm32f0xx_ll_usart.h **** 
  75:Drivers/STM32F0xx_HAL_Driver/Inc/stm32f0xx_ll_usart.h ****                                            This feature can be modified afterwards using unitary
  76:Drivers/STM32F0xx_HAL_Driver/Inc/stm32f0xx_ll_usart.h ****                                            function @ref LL_USART_SetDataWidth().*/
  77:Drivers/STM32F0xx_HAL_Driver/Inc/stm32f0xx_ll_usart.h **** 
ARM GAS  C:\Users\ADMINI~1\AppData\Local\Temp\cco9rtsT.s 			page 19


  78:Drivers/STM32F0xx_HAL_Driver/Inc/stm32f0xx_ll_usart.h ****   uint32_t StopBits;                  /*!< Specifies the number of stop bits transmitted.
  79:Drivers/STM32F0xx_HAL_Driver/Inc/stm32f0xx_ll_usart.h ****                                            This parameter can be a value of @ref USART_LL_EC_STOPBI
  80:Drivers/STM32F0xx_HAL_Driver/Inc/stm32f0xx_ll_usart.h **** 
  81:Drivers/STM32F0xx_HAL_Driver/Inc/stm32f0xx_ll_usart.h ****                                            This feature can be modified afterwards using unitary
  82:Drivers/STM32F0xx_HAL_Driver/Inc/stm32f0xx_ll_usart.h ****                                            function @ref LL_USART_SetStopBitsLength().*/
  83:Drivers/STM32F0xx_HAL_Driver/Inc/stm32f0xx_ll_usart.h **** 
  84:Drivers/STM32F0xx_HAL_Driver/Inc/stm32f0xx_ll_usart.h ****   uint32_t Parity;                    /*!< Specifies the parity mode.
  85:Drivers/STM32F0xx_HAL_Driver/Inc/stm32f0xx_ll_usart.h ****                                            This parameter can be a value of @ref USART_LL_EC_PARITY
  86:Drivers/STM32F0xx_HAL_Driver/Inc/stm32f0xx_ll_usart.h **** 
  87:Drivers/STM32F0xx_HAL_Driver/Inc/stm32f0xx_ll_usart.h ****                                            This feature can be modified afterwards using unitary
  88:Drivers/STM32F0xx_HAL_Driver/Inc/stm32f0xx_ll_usart.h ****                                            function @ref LL_USART_SetParity().*/
  89:Drivers/STM32F0xx_HAL_Driver/Inc/stm32f0xx_ll_usart.h **** 
  90:Drivers/STM32F0xx_HAL_Driver/Inc/stm32f0xx_ll_usart.h ****   uint32_t TransferDirection;         /*!< Specifies whether the Receive and/or Transmit mode is en
  91:Drivers/STM32F0xx_HAL_Driver/Inc/stm32f0xx_ll_usart.h ****                                            This parameter can be a value of @ref USART_LL_EC_DIRECT
  92:Drivers/STM32F0xx_HAL_Driver/Inc/stm32f0xx_ll_usart.h **** 
  93:Drivers/STM32F0xx_HAL_Driver/Inc/stm32f0xx_ll_usart.h ****                                            This feature can be modified afterwards using unitary
  94:Drivers/STM32F0xx_HAL_Driver/Inc/stm32f0xx_ll_usart.h ****                                            function @ref LL_USART_SetTransferDirection().*/
  95:Drivers/STM32F0xx_HAL_Driver/Inc/stm32f0xx_ll_usart.h **** 
  96:Drivers/STM32F0xx_HAL_Driver/Inc/stm32f0xx_ll_usart.h ****   uint32_t HardwareFlowControl;       /*!< Specifies whether the hardware flow control mode is enab
  97:Drivers/STM32F0xx_HAL_Driver/Inc/stm32f0xx_ll_usart.h ****                                            This parameter can be a value of @ref USART_LL_EC_HWCONT
  98:Drivers/STM32F0xx_HAL_Driver/Inc/stm32f0xx_ll_usart.h **** 
  99:Drivers/STM32F0xx_HAL_Driver/Inc/stm32f0xx_ll_usart.h ****                                            This feature can be modified afterwards using unitary
 100:Drivers/STM32F0xx_HAL_Driver/Inc/stm32f0xx_ll_usart.h ****                                            function @ref LL_USART_SetHWFlowCtrl().*/
 101:Drivers/STM32F0xx_HAL_Driver/Inc/stm32f0xx_ll_usart.h **** 
 102:Drivers/STM32F0xx_HAL_Driver/Inc/stm32f0xx_ll_usart.h ****   uint32_t OverSampling;              /*!< Specifies whether USART oversampling mode is 16 or 8.
 103:Drivers/STM32F0xx_HAL_Driver/Inc/stm32f0xx_ll_usart.h ****                                            This parameter can be a value of @ref USART_LL_EC_OVERSA
 104:Drivers/STM32F0xx_HAL_Driver/Inc/stm32f0xx_ll_usart.h **** 
 105:Drivers/STM32F0xx_HAL_Driver/Inc/stm32f0xx_ll_usart.h ****                                            This feature can be modified afterwards using unitary
 106:Drivers/STM32F0xx_HAL_Driver/Inc/stm32f0xx_ll_usart.h ****                                            function @ref LL_USART_SetOverSampling().*/
 107:Drivers/STM32F0xx_HAL_Driver/Inc/stm32f0xx_ll_usart.h **** 
 108:Drivers/STM32F0xx_HAL_Driver/Inc/stm32f0xx_ll_usart.h **** } LL_USART_InitTypeDef;
 109:Drivers/STM32F0xx_HAL_Driver/Inc/stm32f0xx_ll_usart.h **** 
 110:Drivers/STM32F0xx_HAL_Driver/Inc/stm32f0xx_ll_usart.h **** /**
 111:Drivers/STM32F0xx_HAL_Driver/Inc/stm32f0xx_ll_usart.h ****   * @brief LL USART Clock Init Structure definition
 112:Drivers/STM32F0xx_HAL_Driver/Inc/stm32f0xx_ll_usart.h ****   */
 113:Drivers/STM32F0xx_HAL_Driver/Inc/stm32f0xx_ll_usart.h **** typedef struct
 114:Drivers/STM32F0xx_HAL_Driver/Inc/stm32f0xx_ll_usart.h **** {
 115:Drivers/STM32F0xx_HAL_Driver/Inc/stm32f0xx_ll_usart.h ****   uint32_t ClockOutput;               /*!< Specifies whether the USART clock is enabled or disabled
 116:Drivers/STM32F0xx_HAL_Driver/Inc/stm32f0xx_ll_usart.h ****                                            This parameter can be a value of @ref USART_LL_EC_CLOCK.
 117:Drivers/STM32F0xx_HAL_Driver/Inc/stm32f0xx_ll_usart.h **** 
 118:Drivers/STM32F0xx_HAL_Driver/Inc/stm32f0xx_ll_usart.h ****                                            USART HW configuration can be modified afterwards using 
 119:Drivers/STM32F0xx_HAL_Driver/Inc/stm32f0xx_ll_usart.h ****                                            @ref LL_USART_EnableSCLKOutput() or @ref LL_USART_Disabl
 120:Drivers/STM32F0xx_HAL_Driver/Inc/stm32f0xx_ll_usart.h ****                                            For more details, refer to description of this function.
 121:Drivers/STM32F0xx_HAL_Driver/Inc/stm32f0xx_ll_usart.h **** 
 122:Drivers/STM32F0xx_HAL_Driver/Inc/stm32f0xx_ll_usart.h ****   uint32_t ClockPolarity;             /*!< Specifies the steady state of the serial clock.
 123:Drivers/STM32F0xx_HAL_Driver/Inc/stm32f0xx_ll_usart.h ****                                            This parameter can be a value of @ref USART_LL_EC_POLARI
 124:Drivers/STM32F0xx_HAL_Driver/Inc/stm32f0xx_ll_usart.h **** 
 125:Drivers/STM32F0xx_HAL_Driver/Inc/stm32f0xx_ll_usart.h ****                                            USART HW configuration can be modified afterwards using 
 126:Drivers/STM32F0xx_HAL_Driver/Inc/stm32f0xx_ll_usart.h ****                                            functions @ref LL_USART_SetClockPolarity().
 127:Drivers/STM32F0xx_HAL_Driver/Inc/stm32f0xx_ll_usart.h ****                                            For more details, refer to description of this function.
 128:Drivers/STM32F0xx_HAL_Driver/Inc/stm32f0xx_ll_usart.h **** 
 129:Drivers/STM32F0xx_HAL_Driver/Inc/stm32f0xx_ll_usart.h ****   uint32_t ClockPhase;                /*!< Specifies the clock transition on which the bit capture 
 130:Drivers/STM32F0xx_HAL_Driver/Inc/stm32f0xx_ll_usart.h ****                                            This parameter can be a value of @ref USART_LL_EC_PHASE.
 131:Drivers/STM32F0xx_HAL_Driver/Inc/stm32f0xx_ll_usart.h **** 
 132:Drivers/STM32F0xx_HAL_Driver/Inc/stm32f0xx_ll_usart.h ****                                            USART HW configuration can be modified afterwards using 
 133:Drivers/STM32F0xx_HAL_Driver/Inc/stm32f0xx_ll_usart.h ****                                            functions @ref LL_USART_SetClockPhase().
 134:Drivers/STM32F0xx_HAL_Driver/Inc/stm32f0xx_ll_usart.h ****                                            For more details, refer to description of this function.
ARM GAS  C:\Users\ADMINI~1\AppData\Local\Temp\cco9rtsT.s 			page 20


 135:Drivers/STM32F0xx_HAL_Driver/Inc/stm32f0xx_ll_usart.h **** 
 136:Drivers/STM32F0xx_HAL_Driver/Inc/stm32f0xx_ll_usart.h ****   uint32_t LastBitClockPulse;         /*!< Specifies whether the clock pulse corresponding to the l
 137:Drivers/STM32F0xx_HAL_Driver/Inc/stm32f0xx_ll_usart.h ****                                            data bit (MSB) has to be output on the SCLK pin in synch
 138:Drivers/STM32F0xx_HAL_Driver/Inc/stm32f0xx_ll_usart.h ****                                            This parameter can be a value of @ref USART_LL_EC_LASTCL
 139:Drivers/STM32F0xx_HAL_Driver/Inc/stm32f0xx_ll_usart.h **** 
 140:Drivers/STM32F0xx_HAL_Driver/Inc/stm32f0xx_ll_usart.h ****                                            USART HW configuration can be modified afterwards using 
 141:Drivers/STM32F0xx_HAL_Driver/Inc/stm32f0xx_ll_usart.h ****                                            functions @ref LL_USART_SetLastClkPulseOutput().
 142:Drivers/STM32F0xx_HAL_Driver/Inc/stm32f0xx_ll_usart.h ****                                            For more details, refer to description of this function.
 143:Drivers/STM32F0xx_HAL_Driver/Inc/stm32f0xx_ll_usart.h **** 
 144:Drivers/STM32F0xx_HAL_Driver/Inc/stm32f0xx_ll_usart.h **** } LL_USART_ClockInitTypeDef;
 145:Drivers/STM32F0xx_HAL_Driver/Inc/stm32f0xx_ll_usart.h **** 
 146:Drivers/STM32F0xx_HAL_Driver/Inc/stm32f0xx_ll_usart.h **** /**
 147:Drivers/STM32F0xx_HAL_Driver/Inc/stm32f0xx_ll_usart.h ****   * @}
 148:Drivers/STM32F0xx_HAL_Driver/Inc/stm32f0xx_ll_usart.h ****   */
 149:Drivers/STM32F0xx_HAL_Driver/Inc/stm32f0xx_ll_usart.h **** #endif /* USE_FULL_LL_DRIVER */
 150:Drivers/STM32F0xx_HAL_Driver/Inc/stm32f0xx_ll_usart.h **** 
 151:Drivers/STM32F0xx_HAL_Driver/Inc/stm32f0xx_ll_usart.h **** /* Exported constants --------------------------------------------------------*/
 152:Drivers/STM32F0xx_HAL_Driver/Inc/stm32f0xx_ll_usart.h **** /** @defgroup USART_LL_Exported_Constants USART Exported Constants
 153:Drivers/STM32F0xx_HAL_Driver/Inc/stm32f0xx_ll_usart.h ****   * @{
 154:Drivers/STM32F0xx_HAL_Driver/Inc/stm32f0xx_ll_usart.h ****   */
 155:Drivers/STM32F0xx_HAL_Driver/Inc/stm32f0xx_ll_usart.h **** 
 156:Drivers/STM32F0xx_HAL_Driver/Inc/stm32f0xx_ll_usart.h **** /** @defgroup USART_LL_EC_CLEAR_FLAG Clear Flags Defines
 157:Drivers/STM32F0xx_HAL_Driver/Inc/stm32f0xx_ll_usart.h ****   * @brief    Flags defines which can be used with LL_USART_WriteReg function
 158:Drivers/STM32F0xx_HAL_Driver/Inc/stm32f0xx_ll_usart.h ****   * @{
 159:Drivers/STM32F0xx_HAL_Driver/Inc/stm32f0xx_ll_usart.h ****   */
 160:Drivers/STM32F0xx_HAL_Driver/Inc/stm32f0xx_ll_usart.h **** #define LL_USART_ICR_PECF                       USART_ICR_PECF                /*!< Parity error cle
 161:Drivers/STM32F0xx_HAL_Driver/Inc/stm32f0xx_ll_usart.h **** #define LL_USART_ICR_FECF                       USART_ICR_FECF                /*!< Framing error cl
 162:Drivers/STM32F0xx_HAL_Driver/Inc/stm32f0xx_ll_usart.h **** #define LL_USART_ICR_NCF                        USART_ICR_NCF                 /*!< Noise error dete
 163:Drivers/STM32F0xx_HAL_Driver/Inc/stm32f0xx_ll_usart.h **** #define LL_USART_ICR_ORECF                      USART_ICR_ORECF               /*!< Overrun error cl
 164:Drivers/STM32F0xx_HAL_Driver/Inc/stm32f0xx_ll_usart.h **** #define LL_USART_ICR_IDLECF                     USART_ICR_IDLECF              /*!< Idle line detect
 165:Drivers/STM32F0xx_HAL_Driver/Inc/stm32f0xx_ll_usart.h **** #define LL_USART_ICR_TCCF                       USART_ICR_TCCF                /*!< Transmission com
 166:Drivers/STM32F0xx_HAL_Driver/Inc/stm32f0xx_ll_usart.h **** #if defined USART_LIN_SUPPORT
 167:Drivers/STM32F0xx_HAL_Driver/Inc/stm32f0xx_ll_usart.h **** #define LL_USART_ICR_LBDCF                      USART_ICR_LBDCF               /*!< LIN break detect
 168:Drivers/STM32F0xx_HAL_Driver/Inc/stm32f0xx_ll_usart.h **** #endif /* USART_LIN_SUPPORT */
 169:Drivers/STM32F0xx_HAL_Driver/Inc/stm32f0xx_ll_usart.h **** #define LL_USART_ICR_CTSCF                      USART_ICR_CTSCF               /*!< CTS clear flag *
 170:Drivers/STM32F0xx_HAL_Driver/Inc/stm32f0xx_ll_usart.h **** #define LL_USART_ICR_RTOCF                      USART_ICR_RTOCF               /*!< Receiver timeout
 171:Drivers/STM32F0xx_HAL_Driver/Inc/stm32f0xx_ll_usart.h **** #if defined USART_SMARTCARD_SUPPORT
 172:Drivers/STM32F0xx_HAL_Driver/Inc/stm32f0xx_ll_usart.h **** #define LL_USART_ICR_EOBCF                      USART_ICR_EOBCF               /*!< End of block cle
 173:Drivers/STM32F0xx_HAL_Driver/Inc/stm32f0xx_ll_usart.h **** #endif /* USART_SMARTCARD_SUPPORT */
 174:Drivers/STM32F0xx_HAL_Driver/Inc/stm32f0xx_ll_usart.h **** #define LL_USART_ICR_CMCF                       USART_ICR_CMCF                /*!< Character match 
 175:Drivers/STM32F0xx_HAL_Driver/Inc/stm32f0xx_ll_usart.h **** #if defined(USART_CR1_UESM)
 176:Drivers/STM32F0xx_HAL_Driver/Inc/stm32f0xx_ll_usart.h **** #if defined(USART_CR3_WUFIE)
 177:Drivers/STM32F0xx_HAL_Driver/Inc/stm32f0xx_ll_usart.h **** #define LL_USART_ICR_WUCF                       USART_ICR_WUCF                /*!< Wakeup from Stop
 178:Drivers/STM32F0xx_HAL_Driver/Inc/stm32f0xx_ll_usart.h **** #endif /* USART_CR3_WUFIE */
 179:Drivers/STM32F0xx_HAL_Driver/Inc/stm32f0xx_ll_usart.h **** #endif /* USART_CR1_UESM */
 180:Drivers/STM32F0xx_HAL_Driver/Inc/stm32f0xx_ll_usart.h **** /**
 181:Drivers/STM32F0xx_HAL_Driver/Inc/stm32f0xx_ll_usart.h ****   * @}
 182:Drivers/STM32F0xx_HAL_Driver/Inc/stm32f0xx_ll_usart.h ****   */
 183:Drivers/STM32F0xx_HAL_Driver/Inc/stm32f0xx_ll_usart.h **** 
 184:Drivers/STM32F0xx_HAL_Driver/Inc/stm32f0xx_ll_usart.h **** /** @defgroup USART_LL_EC_GET_FLAG Get Flags Defines
 185:Drivers/STM32F0xx_HAL_Driver/Inc/stm32f0xx_ll_usart.h ****   * @brief    Flags defines which can be used with LL_USART_ReadReg function
 186:Drivers/STM32F0xx_HAL_Driver/Inc/stm32f0xx_ll_usart.h ****   * @{
 187:Drivers/STM32F0xx_HAL_Driver/Inc/stm32f0xx_ll_usart.h ****   */
 188:Drivers/STM32F0xx_HAL_Driver/Inc/stm32f0xx_ll_usart.h **** #define LL_USART_ISR_PE                         USART_ISR_PE                  /*!< Parity error fla
 189:Drivers/STM32F0xx_HAL_Driver/Inc/stm32f0xx_ll_usart.h **** #define LL_USART_ISR_FE                         USART_ISR_FE                  /*!< Framing error fl
 190:Drivers/STM32F0xx_HAL_Driver/Inc/stm32f0xx_ll_usart.h **** #define LL_USART_ISR_NE                         USART_ISR_NE                  /*!< Noise detected f
 191:Drivers/STM32F0xx_HAL_Driver/Inc/stm32f0xx_ll_usart.h **** #define LL_USART_ISR_ORE                        USART_ISR_ORE                 /*!< Overrun error fl
ARM GAS  C:\Users\ADMINI~1\AppData\Local\Temp\cco9rtsT.s 			page 21


 192:Drivers/STM32F0xx_HAL_Driver/Inc/stm32f0xx_ll_usart.h **** #define LL_USART_ISR_IDLE                       USART_ISR_IDLE                /*!< Idle line detect
 193:Drivers/STM32F0xx_HAL_Driver/Inc/stm32f0xx_ll_usart.h **** #define LL_USART_ISR_RXNE                       USART_ISR_RXNE                /*!< Read data regist
 194:Drivers/STM32F0xx_HAL_Driver/Inc/stm32f0xx_ll_usart.h **** #define LL_USART_ISR_TC                         USART_ISR_TC                  /*!< Transmission com
 195:Drivers/STM32F0xx_HAL_Driver/Inc/stm32f0xx_ll_usart.h **** #define LL_USART_ISR_TXE                        USART_ISR_TXE                 /*!< Transmit data re
 196:Drivers/STM32F0xx_HAL_Driver/Inc/stm32f0xx_ll_usart.h **** #if defined USART_LIN_SUPPORT
 197:Drivers/STM32F0xx_HAL_Driver/Inc/stm32f0xx_ll_usart.h **** #define LL_USART_ISR_LBDF                       USART_ISR_LBDF                /*!< LIN break detect
 198:Drivers/STM32F0xx_HAL_Driver/Inc/stm32f0xx_ll_usart.h **** #endif /* USART_LIN_SUPPORT */
 199:Drivers/STM32F0xx_HAL_Driver/Inc/stm32f0xx_ll_usart.h **** #define LL_USART_ISR_CTSIF                      USART_ISR_CTSIF               /*!< CTS interrupt fl
 200:Drivers/STM32F0xx_HAL_Driver/Inc/stm32f0xx_ll_usart.h **** #define LL_USART_ISR_CTS                        USART_ISR_CTS                 /*!< CTS flag */
 201:Drivers/STM32F0xx_HAL_Driver/Inc/stm32f0xx_ll_usart.h **** #define LL_USART_ISR_RTOF                       USART_ISR_RTOF                /*!< Receiver timeout
 202:Drivers/STM32F0xx_HAL_Driver/Inc/stm32f0xx_ll_usart.h **** #if defined USART_SMARTCARD_SUPPORT
 203:Drivers/STM32F0xx_HAL_Driver/Inc/stm32f0xx_ll_usart.h **** #define LL_USART_ISR_EOBF                       USART_ISR_EOBF                /*!< End of block fla
 204:Drivers/STM32F0xx_HAL_Driver/Inc/stm32f0xx_ll_usart.h **** #endif /* USART_SMARTCARD_SUPPORT */
 205:Drivers/STM32F0xx_HAL_Driver/Inc/stm32f0xx_ll_usart.h **** #define LL_USART_ISR_ABRE                       USART_ISR_ABRE                /*!< Auto baud rate e
 206:Drivers/STM32F0xx_HAL_Driver/Inc/stm32f0xx_ll_usart.h **** #define LL_USART_ISR_ABRF                       USART_ISR_ABRF                /*!< Auto baud rate f
 207:Drivers/STM32F0xx_HAL_Driver/Inc/stm32f0xx_ll_usart.h **** #define LL_USART_ISR_BUSY                       USART_ISR_BUSY                /*!< Busy flag */
 208:Drivers/STM32F0xx_HAL_Driver/Inc/stm32f0xx_ll_usart.h **** #define LL_USART_ISR_CMF                        USART_ISR_CMF                 /*!< Character match 
 209:Drivers/STM32F0xx_HAL_Driver/Inc/stm32f0xx_ll_usart.h **** #define LL_USART_ISR_SBKF                       USART_ISR_SBKF                /*!< Send break flag 
 210:Drivers/STM32F0xx_HAL_Driver/Inc/stm32f0xx_ll_usart.h **** #define LL_USART_ISR_RWU                        USART_ISR_RWU                 /*!< Receiver wakeup 
 211:Drivers/STM32F0xx_HAL_Driver/Inc/stm32f0xx_ll_usart.h **** #if defined(USART_CR1_UESM)
 212:Drivers/STM32F0xx_HAL_Driver/Inc/stm32f0xx_ll_usart.h **** #if defined(USART_CR3_WUFIE)
 213:Drivers/STM32F0xx_HAL_Driver/Inc/stm32f0xx_ll_usart.h **** #define LL_USART_ISR_WUF                        USART_ISR_WUF                 /*!< Wakeup from Stop
 214:Drivers/STM32F0xx_HAL_Driver/Inc/stm32f0xx_ll_usart.h **** #endif /* USART_CR3_WUFIE */
 215:Drivers/STM32F0xx_HAL_Driver/Inc/stm32f0xx_ll_usart.h **** #endif /* USART_CR1_UESM */
 216:Drivers/STM32F0xx_HAL_Driver/Inc/stm32f0xx_ll_usart.h **** #define LL_USART_ISR_TEACK                      USART_ISR_TEACK               /*!< Transmit enable 
 217:Drivers/STM32F0xx_HAL_Driver/Inc/stm32f0xx_ll_usart.h **** #define LL_USART_ISR_REACK                      USART_ISR_REACK               /*!< Receive enable a
 218:Drivers/STM32F0xx_HAL_Driver/Inc/stm32f0xx_ll_usart.h **** /**
 219:Drivers/STM32F0xx_HAL_Driver/Inc/stm32f0xx_ll_usart.h ****   * @}
 220:Drivers/STM32F0xx_HAL_Driver/Inc/stm32f0xx_ll_usart.h ****   */
 221:Drivers/STM32F0xx_HAL_Driver/Inc/stm32f0xx_ll_usart.h **** 
 222:Drivers/STM32F0xx_HAL_Driver/Inc/stm32f0xx_ll_usart.h **** /** @defgroup USART_LL_EC_IT IT Defines
 223:Drivers/STM32F0xx_HAL_Driver/Inc/stm32f0xx_ll_usart.h ****   * @brief    IT defines which can be used with LL_USART_ReadReg and  LL_USART_WriteReg functions
 224:Drivers/STM32F0xx_HAL_Driver/Inc/stm32f0xx_ll_usart.h ****   * @{
 225:Drivers/STM32F0xx_HAL_Driver/Inc/stm32f0xx_ll_usart.h ****   */
 226:Drivers/STM32F0xx_HAL_Driver/Inc/stm32f0xx_ll_usart.h **** #define LL_USART_CR1_IDLEIE                     USART_CR1_IDLEIE              /*!< IDLE interrupt e
 227:Drivers/STM32F0xx_HAL_Driver/Inc/stm32f0xx_ll_usart.h **** #define LL_USART_CR1_RXNEIE                     USART_CR1_RXNEIE              /*!< Read data regist
 228:Drivers/STM32F0xx_HAL_Driver/Inc/stm32f0xx_ll_usart.h **** #define LL_USART_CR1_TCIE                       USART_CR1_TCIE                /*!< Transmission com
 229:Drivers/STM32F0xx_HAL_Driver/Inc/stm32f0xx_ll_usart.h **** #define LL_USART_CR1_TXEIE                      USART_CR1_TXEIE               /*!< Transmit data re
 230:Drivers/STM32F0xx_HAL_Driver/Inc/stm32f0xx_ll_usart.h **** #define LL_USART_CR1_PEIE                       USART_CR1_PEIE                /*!< Parity error */
 231:Drivers/STM32F0xx_HAL_Driver/Inc/stm32f0xx_ll_usart.h **** #define LL_USART_CR1_CMIE                       USART_CR1_CMIE                /*!< Character match 
 232:Drivers/STM32F0xx_HAL_Driver/Inc/stm32f0xx_ll_usart.h **** #define LL_USART_CR1_RTOIE                      USART_CR1_RTOIE               /*!< Receiver timeout
 233:Drivers/STM32F0xx_HAL_Driver/Inc/stm32f0xx_ll_usart.h **** #if defined(USART_SMARTCARD_SUPPORT)
 234:Drivers/STM32F0xx_HAL_Driver/Inc/stm32f0xx_ll_usart.h **** #define LL_USART_CR1_EOBIE                      USART_CR1_EOBIE               /*!< End of Block int
 235:Drivers/STM32F0xx_HAL_Driver/Inc/stm32f0xx_ll_usart.h **** #endif /* USART_SMARTCARD_SUPPORT */
 236:Drivers/STM32F0xx_HAL_Driver/Inc/stm32f0xx_ll_usart.h **** #if defined(USART_LIN_SUPPORT)
 237:Drivers/STM32F0xx_HAL_Driver/Inc/stm32f0xx_ll_usart.h **** #define LL_USART_CR2_LBDIE                      USART_CR2_LBDIE               /*!< LIN break detect
 238:Drivers/STM32F0xx_HAL_Driver/Inc/stm32f0xx_ll_usart.h **** #endif /* USART_LIN_SUPPORT */
 239:Drivers/STM32F0xx_HAL_Driver/Inc/stm32f0xx_ll_usart.h **** #define LL_USART_CR3_EIE                        USART_CR3_EIE                 /*!< Error interrupt 
 240:Drivers/STM32F0xx_HAL_Driver/Inc/stm32f0xx_ll_usart.h **** #define LL_USART_CR3_CTSIE                      USART_CR3_CTSIE               /*!< CTS interrupt en
 241:Drivers/STM32F0xx_HAL_Driver/Inc/stm32f0xx_ll_usart.h **** #if defined(USART_CR1_UESM)
 242:Drivers/STM32F0xx_HAL_Driver/Inc/stm32f0xx_ll_usart.h **** #if defined(USART_CR3_WUFIE)
 243:Drivers/STM32F0xx_HAL_Driver/Inc/stm32f0xx_ll_usart.h **** #define LL_USART_CR3_WUFIE                      USART_CR3_WUFIE               /*!< Wakeup from Stop
 244:Drivers/STM32F0xx_HAL_Driver/Inc/stm32f0xx_ll_usart.h **** #endif /* USART_CR3_WUFIE */
 245:Drivers/STM32F0xx_HAL_Driver/Inc/stm32f0xx_ll_usart.h **** #endif /* USART_CR1_UESM */
 246:Drivers/STM32F0xx_HAL_Driver/Inc/stm32f0xx_ll_usart.h **** /**
 247:Drivers/STM32F0xx_HAL_Driver/Inc/stm32f0xx_ll_usart.h ****   * @}
 248:Drivers/STM32F0xx_HAL_Driver/Inc/stm32f0xx_ll_usart.h ****   */
ARM GAS  C:\Users\ADMINI~1\AppData\Local\Temp\cco9rtsT.s 			page 22


 249:Drivers/STM32F0xx_HAL_Driver/Inc/stm32f0xx_ll_usart.h **** 
 250:Drivers/STM32F0xx_HAL_Driver/Inc/stm32f0xx_ll_usart.h **** /** @defgroup USART_LL_EC_DIRECTION Communication Direction
 251:Drivers/STM32F0xx_HAL_Driver/Inc/stm32f0xx_ll_usart.h ****   * @{
 252:Drivers/STM32F0xx_HAL_Driver/Inc/stm32f0xx_ll_usart.h ****   */
 253:Drivers/STM32F0xx_HAL_Driver/Inc/stm32f0xx_ll_usart.h **** #define LL_USART_DIRECTION_NONE                 0x00000000U                        /*!< Transmitter
 254:Drivers/STM32F0xx_HAL_Driver/Inc/stm32f0xx_ll_usart.h **** #define LL_USART_DIRECTION_RX                   USART_CR1_RE                       /*!< Transmitter
 255:Drivers/STM32F0xx_HAL_Driver/Inc/stm32f0xx_ll_usart.h **** #define LL_USART_DIRECTION_TX                   USART_CR1_TE                       /*!< Transmitter
 256:Drivers/STM32F0xx_HAL_Driver/Inc/stm32f0xx_ll_usart.h **** #define LL_USART_DIRECTION_TX_RX                (USART_CR1_TE |USART_CR1_RE)       /*!< Transmitter
 257:Drivers/STM32F0xx_HAL_Driver/Inc/stm32f0xx_ll_usart.h **** /**
 258:Drivers/STM32F0xx_HAL_Driver/Inc/stm32f0xx_ll_usart.h ****   * @}
 259:Drivers/STM32F0xx_HAL_Driver/Inc/stm32f0xx_ll_usart.h ****   */
 260:Drivers/STM32F0xx_HAL_Driver/Inc/stm32f0xx_ll_usart.h **** 
 261:Drivers/STM32F0xx_HAL_Driver/Inc/stm32f0xx_ll_usart.h **** /** @defgroup USART_LL_EC_PARITY Parity Control
 262:Drivers/STM32F0xx_HAL_Driver/Inc/stm32f0xx_ll_usart.h ****   * @{
 263:Drivers/STM32F0xx_HAL_Driver/Inc/stm32f0xx_ll_usart.h ****   */
 264:Drivers/STM32F0xx_HAL_Driver/Inc/stm32f0xx_ll_usart.h **** #define LL_USART_PARITY_NONE                    0x00000000U                          /*!< Parity co
 265:Drivers/STM32F0xx_HAL_Driver/Inc/stm32f0xx_ll_usart.h **** #define LL_USART_PARITY_EVEN                    USART_CR1_PCE                        /*!< Parity co
 266:Drivers/STM32F0xx_HAL_Driver/Inc/stm32f0xx_ll_usart.h **** #define LL_USART_PARITY_ODD                     (USART_CR1_PCE | USART_CR1_PS)       /*!< Parity co
 267:Drivers/STM32F0xx_HAL_Driver/Inc/stm32f0xx_ll_usart.h **** /**
 268:Drivers/STM32F0xx_HAL_Driver/Inc/stm32f0xx_ll_usart.h ****   * @}
 269:Drivers/STM32F0xx_HAL_Driver/Inc/stm32f0xx_ll_usart.h ****   */
 270:Drivers/STM32F0xx_HAL_Driver/Inc/stm32f0xx_ll_usart.h **** 
 271:Drivers/STM32F0xx_HAL_Driver/Inc/stm32f0xx_ll_usart.h **** /** @defgroup USART_LL_EC_WAKEUP Wakeup
 272:Drivers/STM32F0xx_HAL_Driver/Inc/stm32f0xx_ll_usart.h ****   * @{
 273:Drivers/STM32F0xx_HAL_Driver/Inc/stm32f0xx_ll_usart.h ****   */
 274:Drivers/STM32F0xx_HAL_Driver/Inc/stm32f0xx_ll_usart.h **** #define LL_USART_WAKEUP_IDLELINE                0x00000000U           /*!<  USART wake up from Mute
 275:Drivers/STM32F0xx_HAL_Driver/Inc/stm32f0xx_ll_usart.h **** #define LL_USART_WAKEUP_ADDRESSMARK             USART_CR1_WAKE        /*!<  USART wake up from Mute
 276:Drivers/STM32F0xx_HAL_Driver/Inc/stm32f0xx_ll_usart.h **** /**
 277:Drivers/STM32F0xx_HAL_Driver/Inc/stm32f0xx_ll_usart.h ****   * @}
 278:Drivers/STM32F0xx_HAL_Driver/Inc/stm32f0xx_ll_usart.h ****   */
 279:Drivers/STM32F0xx_HAL_Driver/Inc/stm32f0xx_ll_usart.h **** 
 280:Drivers/STM32F0xx_HAL_Driver/Inc/stm32f0xx_ll_usart.h **** /** @defgroup USART_LL_EC_DATAWIDTH Datawidth
 281:Drivers/STM32F0xx_HAL_Driver/Inc/stm32f0xx_ll_usart.h ****   * @{
 282:Drivers/STM32F0xx_HAL_Driver/Inc/stm32f0xx_ll_usart.h ****   */
 283:Drivers/STM32F0xx_HAL_Driver/Inc/stm32f0xx_ll_usart.h **** #if defined(USART_7BITS_SUPPORT)
 284:Drivers/STM32F0xx_HAL_Driver/Inc/stm32f0xx_ll_usart.h **** #define LL_USART_DATAWIDTH_7B                   USART_CR1_M1            /*!< 7 bits word length : S
 285:Drivers/STM32F0xx_HAL_Driver/Inc/stm32f0xx_ll_usart.h **** #define LL_USART_DATAWIDTH_8B                   0x00000000U             /*!< 8 bits word length : S
 286:Drivers/STM32F0xx_HAL_Driver/Inc/stm32f0xx_ll_usart.h **** #define LL_USART_DATAWIDTH_9B                   USART_CR1_M0            /*!< 9 bits word length : S
 287:Drivers/STM32F0xx_HAL_Driver/Inc/stm32f0xx_ll_usart.h **** #else
 288:Drivers/STM32F0xx_HAL_Driver/Inc/stm32f0xx_ll_usart.h **** #define LL_USART_DATAWIDTH_8B                   0x00000000U             /*!< 8 bits word length : S
 289:Drivers/STM32F0xx_HAL_Driver/Inc/stm32f0xx_ll_usart.h **** #define LL_USART_DATAWIDTH_9B                   USART_CR1_M             /*!< 9 bits word length : S
 290:Drivers/STM32F0xx_HAL_Driver/Inc/stm32f0xx_ll_usart.h **** #endif/* USART_7BITS_SUPPORT */
 291:Drivers/STM32F0xx_HAL_Driver/Inc/stm32f0xx_ll_usart.h **** /**
 292:Drivers/STM32F0xx_HAL_Driver/Inc/stm32f0xx_ll_usart.h ****   * @}
 293:Drivers/STM32F0xx_HAL_Driver/Inc/stm32f0xx_ll_usart.h ****   */
 294:Drivers/STM32F0xx_HAL_Driver/Inc/stm32f0xx_ll_usart.h **** 
 295:Drivers/STM32F0xx_HAL_Driver/Inc/stm32f0xx_ll_usart.h **** /** @defgroup USART_LL_EC_OVERSAMPLING Oversampling
 296:Drivers/STM32F0xx_HAL_Driver/Inc/stm32f0xx_ll_usart.h ****   * @{
 297:Drivers/STM32F0xx_HAL_Driver/Inc/stm32f0xx_ll_usart.h ****   */
 298:Drivers/STM32F0xx_HAL_Driver/Inc/stm32f0xx_ll_usart.h **** #define LL_USART_OVERSAMPLING_16                0x00000000U            /*!< Oversampling by 16 */
 299:Drivers/STM32F0xx_HAL_Driver/Inc/stm32f0xx_ll_usart.h **** #define LL_USART_OVERSAMPLING_8                 USART_CR1_OVER8        /*!< Oversampling by 8 */
 300:Drivers/STM32F0xx_HAL_Driver/Inc/stm32f0xx_ll_usart.h **** /**
 301:Drivers/STM32F0xx_HAL_Driver/Inc/stm32f0xx_ll_usart.h ****   * @}
 302:Drivers/STM32F0xx_HAL_Driver/Inc/stm32f0xx_ll_usart.h ****   */
 303:Drivers/STM32F0xx_HAL_Driver/Inc/stm32f0xx_ll_usart.h **** 
 304:Drivers/STM32F0xx_HAL_Driver/Inc/stm32f0xx_ll_usart.h **** #if defined(USE_FULL_LL_DRIVER)
 305:Drivers/STM32F0xx_HAL_Driver/Inc/stm32f0xx_ll_usart.h **** /** @defgroup USART_LL_EC_CLOCK Clock Signal
ARM GAS  C:\Users\ADMINI~1\AppData\Local\Temp\cco9rtsT.s 			page 23


 306:Drivers/STM32F0xx_HAL_Driver/Inc/stm32f0xx_ll_usart.h ****   * @{
 307:Drivers/STM32F0xx_HAL_Driver/Inc/stm32f0xx_ll_usart.h ****   */
 308:Drivers/STM32F0xx_HAL_Driver/Inc/stm32f0xx_ll_usart.h **** 
 309:Drivers/STM32F0xx_HAL_Driver/Inc/stm32f0xx_ll_usart.h **** #define LL_USART_CLOCK_DISABLE                  0x00000000U            /*!< Clock signal not provid
 310:Drivers/STM32F0xx_HAL_Driver/Inc/stm32f0xx_ll_usart.h **** #define LL_USART_CLOCK_ENABLE                   USART_CR2_CLKEN        /*!< Clock signal provided *
 311:Drivers/STM32F0xx_HAL_Driver/Inc/stm32f0xx_ll_usart.h **** /**
 312:Drivers/STM32F0xx_HAL_Driver/Inc/stm32f0xx_ll_usart.h ****   * @}
 313:Drivers/STM32F0xx_HAL_Driver/Inc/stm32f0xx_ll_usart.h ****   */
 314:Drivers/STM32F0xx_HAL_Driver/Inc/stm32f0xx_ll_usart.h **** #endif /*USE_FULL_LL_DRIVER*/
 315:Drivers/STM32F0xx_HAL_Driver/Inc/stm32f0xx_ll_usart.h **** 
 316:Drivers/STM32F0xx_HAL_Driver/Inc/stm32f0xx_ll_usart.h **** /** @defgroup USART_LL_EC_LASTCLKPULSE Last Clock Pulse
 317:Drivers/STM32F0xx_HAL_Driver/Inc/stm32f0xx_ll_usart.h ****   * @{
 318:Drivers/STM32F0xx_HAL_Driver/Inc/stm32f0xx_ll_usart.h ****   */
 319:Drivers/STM32F0xx_HAL_Driver/Inc/stm32f0xx_ll_usart.h **** #define LL_USART_LASTCLKPULSE_NO_OUTPUT         0x00000000U           /*!< The clock pulse of the l
 320:Drivers/STM32F0xx_HAL_Driver/Inc/stm32f0xx_ll_usart.h **** #define LL_USART_LASTCLKPULSE_OUTPUT            USART_CR2_LBCL        /*!< The clock pulse of the l
 321:Drivers/STM32F0xx_HAL_Driver/Inc/stm32f0xx_ll_usart.h **** /**
 322:Drivers/STM32F0xx_HAL_Driver/Inc/stm32f0xx_ll_usart.h ****   * @}
 323:Drivers/STM32F0xx_HAL_Driver/Inc/stm32f0xx_ll_usart.h ****   */
 324:Drivers/STM32F0xx_HAL_Driver/Inc/stm32f0xx_ll_usart.h **** 
 325:Drivers/STM32F0xx_HAL_Driver/Inc/stm32f0xx_ll_usart.h **** /** @defgroup USART_LL_EC_PHASE Clock Phase
 326:Drivers/STM32F0xx_HAL_Driver/Inc/stm32f0xx_ll_usart.h ****   * @{
 327:Drivers/STM32F0xx_HAL_Driver/Inc/stm32f0xx_ll_usart.h ****   */
 328:Drivers/STM32F0xx_HAL_Driver/Inc/stm32f0xx_ll_usart.h **** #define LL_USART_PHASE_1EDGE                    0x00000000U           /*!< The first clock transiti
 329:Drivers/STM32F0xx_HAL_Driver/Inc/stm32f0xx_ll_usart.h **** #define LL_USART_PHASE_2EDGE                    USART_CR2_CPHA        /*!< The second clock transit
 330:Drivers/STM32F0xx_HAL_Driver/Inc/stm32f0xx_ll_usart.h **** /**
 331:Drivers/STM32F0xx_HAL_Driver/Inc/stm32f0xx_ll_usart.h ****   * @}
 332:Drivers/STM32F0xx_HAL_Driver/Inc/stm32f0xx_ll_usart.h ****   */
 333:Drivers/STM32F0xx_HAL_Driver/Inc/stm32f0xx_ll_usart.h **** 
 334:Drivers/STM32F0xx_HAL_Driver/Inc/stm32f0xx_ll_usart.h **** /** @defgroup USART_LL_EC_POLARITY Clock Polarity
 335:Drivers/STM32F0xx_HAL_Driver/Inc/stm32f0xx_ll_usart.h ****   * @{
 336:Drivers/STM32F0xx_HAL_Driver/Inc/stm32f0xx_ll_usart.h ****   */
 337:Drivers/STM32F0xx_HAL_Driver/Inc/stm32f0xx_ll_usart.h **** #define LL_USART_POLARITY_LOW                   0x00000000U           /*!< Steady low value on SCLK
 338:Drivers/STM32F0xx_HAL_Driver/Inc/stm32f0xx_ll_usart.h **** #define LL_USART_POLARITY_HIGH                  USART_CR2_CPOL        /*!< Steady high value on SCL
 339:Drivers/STM32F0xx_HAL_Driver/Inc/stm32f0xx_ll_usart.h **** /**
 340:Drivers/STM32F0xx_HAL_Driver/Inc/stm32f0xx_ll_usart.h ****   * @}
 341:Drivers/STM32F0xx_HAL_Driver/Inc/stm32f0xx_ll_usart.h ****   */
 342:Drivers/STM32F0xx_HAL_Driver/Inc/stm32f0xx_ll_usart.h **** 
 343:Drivers/STM32F0xx_HAL_Driver/Inc/stm32f0xx_ll_usart.h **** /** @defgroup USART_LL_EC_STOPBITS Stop Bits
 344:Drivers/STM32F0xx_HAL_Driver/Inc/stm32f0xx_ll_usart.h ****   * @{
 345:Drivers/STM32F0xx_HAL_Driver/Inc/stm32f0xx_ll_usart.h ****   */
 346:Drivers/STM32F0xx_HAL_Driver/Inc/stm32f0xx_ll_usart.h **** #if defined(USART_SMARTCARD_SUPPORT)
 347:Drivers/STM32F0xx_HAL_Driver/Inc/stm32f0xx_ll_usart.h **** #define LL_USART_STOPBITS_0_5                   USART_CR2_STOP_0                           /*!< 0.5
 348:Drivers/STM32F0xx_HAL_Driver/Inc/stm32f0xx_ll_usart.h **** #endif /* USART_SMARTCARD_SUPPORT */
 349:Drivers/STM32F0xx_HAL_Driver/Inc/stm32f0xx_ll_usart.h **** #define LL_USART_STOPBITS_1                     0x00000000U                                /*!< 1 s
 350:Drivers/STM32F0xx_HAL_Driver/Inc/stm32f0xx_ll_usart.h **** #if defined(USART_SMARTCARD_SUPPORT)
 351:Drivers/STM32F0xx_HAL_Driver/Inc/stm32f0xx_ll_usart.h **** #define LL_USART_STOPBITS_1_5                   (USART_CR2_STOP_0 | USART_CR2_STOP_1)      /*!< 1.5
 352:Drivers/STM32F0xx_HAL_Driver/Inc/stm32f0xx_ll_usart.h **** #endif /* USART_SMARTCARD_SUPPORT */
 353:Drivers/STM32F0xx_HAL_Driver/Inc/stm32f0xx_ll_usart.h **** #define LL_USART_STOPBITS_2                     USART_CR2_STOP_1                           /*!< 2 s
 354:Drivers/STM32F0xx_HAL_Driver/Inc/stm32f0xx_ll_usart.h **** /**
 355:Drivers/STM32F0xx_HAL_Driver/Inc/stm32f0xx_ll_usart.h ****   * @}
 356:Drivers/STM32F0xx_HAL_Driver/Inc/stm32f0xx_ll_usart.h ****   */
 357:Drivers/STM32F0xx_HAL_Driver/Inc/stm32f0xx_ll_usart.h **** 
 358:Drivers/STM32F0xx_HAL_Driver/Inc/stm32f0xx_ll_usart.h **** /** @defgroup USART_LL_EC_TXRX TX RX Pins Swap
 359:Drivers/STM32F0xx_HAL_Driver/Inc/stm32f0xx_ll_usart.h ****   * @{
 360:Drivers/STM32F0xx_HAL_Driver/Inc/stm32f0xx_ll_usart.h ****   */
 361:Drivers/STM32F0xx_HAL_Driver/Inc/stm32f0xx_ll_usart.h **** #define LL_USART_TXRX_STANDARD                  0x00000000U           /*!< TX/RX pins are used as d
 362:Drivers/STM32F0xx_HAL_Driver/Inc/stm32f0xx_ll_usart.h **** #define LL_USART_TXRX_SWAPPED                   (USART_CR2_SWAP)      /*!< TX and RX pins functions
ARM GAS  C:\Users\ADMINI~1\AppData\Local\Temp\cco9rtsT.s 			page 24


 363:Drivers/STM32F0xx_HAL_Driver/Inc/stm32f0xx_ll_usart.h **** /**
 364:Drivers/STM32F0xx_HAL_Driver/Inc/stm32f0xx_ll_usart.h ****   * @}
 365:Drivers/STM32F0xx_HAL_Driver/Inc/stm32f0xx_ll_usart.h ****   */
 366:Drivers/STM32F0xx_HAL_Driver/Inc/stm32f0xx_ll_usart.h **** 
 367:Drivers/STM32F0xx_HAL_Driver/Inc/stm32f0xx_ll_usart.h **** /** @defgroup USART_LL_EC_RXPIN_LEVEL RX Pin Active Level Inversion
 368:Drivers/STM32F0xx_HAL_Driver/Inc/stm32f0xx_ll_usart.h ****   * @{
 369:Drivers/STM32F0xx_HAL_Driver/Inc/stm32f0xx_ll_usart.h ****   */
 370:Drivers/STM32F0xx_HAL_Driver/Inc/stm32f0xx_ll_usart.h **** #define LL_USART_RXPIN_LEVEL_STANDARD           0x00000000U           /*!< RX pin signal works usin
 371:Drivers/STM32F0xx_HAL_Driver/Inc/stm32f0xx_ll_usart.h **** #define LL_USART_RXPIN_LEVEL_INVERTED           (USART_CR2_RXINV)     /*!< RX pin signal values are
 372:Drivers/STM32F0xx_HAL_Driver/Inc/stm32f0xx_ll_usart.h **** /**
 373:Drivers/STM32F0xx_HAL_Driver/Inc/stm32f0xx_ll_usart.h ****   * @}
 374:Drivers/STM32F0xx_HAL_Driver/Inc/stm32f0xx_ll_usart.h ****   */
 375:Drivers/STM32F0xx_HAL_Driver/Inc/stm32f0xx_ll_usart.h **** 
 376:Drivers/STM32F0xx_HAL_Driver/Inc/stm32f0xx_ll_usart.h **** /** @defgroup USART_LL_EC_TXPIN_LEVEL TX Pin Active Level Inversion
 377:Drivers/STM32F0xx_HAL_Driver/Inc/stm32f0xx_ll_usart.h ****   * @{
 378:Drivers/STM32F0xx_HAL_Driver/Inc/stm32f0xx_ll_usart.h ****   */
 379:Drivers/STM32F0xx_HAL_Driver/Inc/stm32f0xx_ll_usart.h **** #define LL_USART_TXPIN_LEVEL_STANDARD           0x00000000U           /*!< TX pin signal works usin
 380:Drivers/STM32F0xx_HAL_Driver/Inc/stm32f0xx_ll_usart.h **** #define LL_USART_TXPIN_LEVEL_INVERTED           (USART_CR2_TXINV)     /*!< TX pin signal values are
 381:Drivers/STM32F0xx_HAL_Driver/Inc/stm32f0xx_ll_usart.h **** /**
 382:Drivers/STM32F0xx_HAL_Driver/Inc/stm32f0xx_ll_usart.h ****   * @}
 383:Drivers/STM32F0xx_HAL_Driver/Inc/stm32f0xx_ll_usart.h ****   */
 384:Drivers/STM32F0xx_HAL_Driver/Inc/stm32f0xx_ll_usart.h **** 
 385:Drivers/STM32F0xx_HAL_Driver/Inc/stm32f0xx_ll_usart.h **** /** @defgroup USART_LL_EC_BINARY_LOGIC Binary Data Inversion
 386:Drivers/STM32F0xx_HAL_Driver/Inc/stm32f0xx_ll_usart.h ****   * @{
 387:Drivers/STM32F0xx_HAL_Driver/Inc/stm32f0xx_ll_usart.h ****   */
 388:Drivers/STM32F0xx_HAL_Driver/Inc/stm32f0xx_ll_usart.h **** #define LL_USART_BINARY_LOGIC_POSITIVE          0x00000000U           /*!< Logical data from the da
 389:Drivers/STM32F0xx_HAL_Driver/Inc/stm32f0xx_ll_usart.h **** #define LL_USART_BINARY_LOGIC_NEGATIVE          USART_CR2_DATAINV     /*!< Logical data from the da
 390:Drivers/STM32F0xx_HAL_Driver/Inc/stm32f0xx_ll_usart.h **** /**
 391:Drivers/STM32F0xx_HAL_Driver/Inc/stm32f0xx_ll_usart.h ****   * @}
 392:Drivers/STM32F0xx_HAL_Driver/Inc/stm32f0xx_ll_usart.h ****   */
 393:Drivers/STM32F0xx_HAL_Driver/Inc/stm32f0xx_ll_usart.h **** 
 394:Drivers/STM32F0xx_HAL_Driver/Inc/stm32f0xx_ll_usart.h **** /** @defgroup USART_LL_EC_BITORDER Bit Order
 395:Drivers/STM32F0xx_HAL_Driver/Inc/stm32f0xx_ll_usart.h ****   * @{
 396:Drivers/STM32F0xx_HAL_Driver/Inc/stm32f0xx_ll_usart.h ****   */
 397:Drivers/STM32F0xx_HAL_Driver/Inc/stm32f0xx_ll_usart.h **** #define LL_USART_BITORDER_LSBFIRST              0x00000000U           /*!< data is transmitted/rece
 398:Drivers/STM32F0xx_HAL_Driver/Inc/stm32f0xx_ll_usart.h **** #define LL_USART_BITORDER_MSBFIRST              USART_CR2_MSBFIRST    /*!< data is transmitted/rece
 399:Drivers/STM32F0xx_HAL_Driver/Inc/stm32f0xx_ll_usart.h **** /**
 400:Drivers/STM32F0xx_HAL_Driver/Inc/stm32f0xx_ll_usart.h ****   * @}
 401:Drivers/STM32F0xx_HAL_Driver/Inc/stm32f0xx_ll_usart.h ****   */
 402:Drivers/STM32F0xx_HAL_Driver/Inc/stm32f0xx_ll_usart.h **** 
 403:Drivers/STM32F0xx_HAL_Driver/Inc/stm32f0xx_ll_usart.h **** /** @defgroup USART_LL_EC_AUTOBAUD_DETECT_ON Autobaud Detection
 404:Drivers/STM32F0xx_HAL_Driver/Inc/stm32f0xx_ll_usart.h ****   * @{
 405:Drivers/STM32F0xx_HAL_Driver/Inc/stm32f0xx_ll_usart.h ****   */
 406:Drivers/STM32F0xx_HAL_Driver/Inc/stm32f0xx_ll_usart.h **** #define LL_USART_AUTOBAUD_DETECT_ON_STARTBIT    0x00000000U                                 /*!< Me
 407:Drivers/STM32F0xx_HAL_Driver/Inc/stm32f0xx_ll_usart.h **** #define LL_USART_AUTOBAUD_DETECT_ON_FALLINGEDGE USART_CR2_ABRMODE_0                         /*!< Fa
 408:Drivers/STM32F0xx_HAL_Driver/Inc/stm32f0xx_ll_usart.h **** #if defined(USART_FABR_SUPPORT)
 409:Drivers/STM32F0xx_HAL_Driver/Inc/stm32f0xx_ll_usart.h **** #define LL_USART_AUTOBAUD_DETECT_ON_7F_FRAME    USART_CR2_ABRMODE_1                         /*!< 0x
 410:Drivers/STM32F0xx_HAL_Driver/Inc/stm32f0xx_ll_usart.h **** #define LL_USART_AUTOBAUD_DETECT_ON_55_FRAME    (USART_CR2_ABRMODE_1 | USART_CR2_ABRMODE_0) /*!< 0x
 411:Drivers/STM32F0xx_HAL_Driver/Inc/stm32f0xx_ll_usart.h **** #endif /* USART_FABR_SUPPORT */
 412:Drivers/STM32F0xx_HAL_Driver/Inc/stm32f0xx_ll_usart.h **** /**
 413:Drivers/STM32F0xx_HAL_Driver/Inc/stm32f0xx_ll_usart.h ****   * @}
 414:Drivers/STM32F0xx_HAL_Driver/Inc/stm32f0xx_ll_usart.h ****   */
 415:Drivers/STM32F0xx_HAL_Driver/Inc/stm32f0xx_ll_usart.h **** 
 416:Drivers/STM32F0xx_HAL_Driver/Inc/stm32f0xx_ll_usart.h **** /** @defgroup USART_LL_EC_ADDRESS_DETECT Address Length Detection
 417:Drivers/STM32F0xx_HAL_Driver/Inc/stm32f0xx_ll_usart.h ****   * @{
 418:Drivers/STM32F0xx_HAL_Driver/Inc/stm32f0xx_ll_usart.h ****   */
 419:Drivers/STM32F0xx_HAL_Driver/Inc/stm32f0xx_ll_usart.h **** #define LL_USART_ADDRESS_DETECT_4B              0x00000000U           /*!< 4-bit address detection 
ARM GAS  C:\Users\ADMINI~1\AppData\Local\Temp\cco9rtsT.s 			page 25


 420:Drivers/STM32F0xx_HAL_Driver/Inc/stm32f0xx_ll_usart.h **** #define LL_USART_ADDRESS_DETECT_7B              USART_CR2_ADDM7       /*!< 7-bit address detection 
 421:Drivers/STM32F0xx_HAL_Driver/Inc/stm32f0xx_ll_usart.h **** /**
 422:Drivers/STM32F0xx_HAL_Driver/Inc/stm32f0xx_ll_usart.h ****   * @}
 423:Drivers/STM32F0xx_HAL_Driver/Inc/stm32f0xx_ll_usart.h ****   */
 424:Drivers/STM32F0xx_HAL_Driver/Inc/stm32f0xx_ll_usart.h **** 
 425:Drivers/STM32F0xx_HAL_Driver/Inc/stm32f0xx_ll_usart.h **** /** @defgroup USART_LL_EC_HWCONTROL Hardware Control
 426:Drivers/STM32F0xx_HAL_Driver/Inc/stm32f0xx_ll_usart.h ****   * @{
 427:Drivers/STM32F0xx_HAL_Driver/Inc/stm32f0xx_ll_usart.h ****   */
 428:Drivers/STM32F0xx_HAL_Driver/Inc/stm32f0xx_ll_usart.h **** #define LL_USART_HWCONTROL_NONE                 0x00000000U                          /*!< CTS and R
 429:Drivers/STM32F0xx_HAL_Driver/Inc/stm32f0xx_ll_usart.h **** #define LL_USART_HWCONTROL_RTS                  USART_CR3_RTSE                       /*!< RTS outpu
 430:Drivers/STM32F0xx_HAL_Driver/Inc/stm32f0xx_ll_usart.h **** #define LL_USART_HWCONTROL_CTS                  USART_CR3_CTSE                       /*!< CTS mode 
 431:Drivers/STM32F0xx_HAL_Driver/Inc/stm32f0xx_ll_usart.h **** #define LL_USART_HWCONTROL_RTS_CTS              (USART_CR3_RTSE | USART_CR3_CTSE)    /*!< CTS and R
 432:Drivers/STM32F0xx_HAL_Driver/Inc/stm32f0xx_ll_usart.h **** /**
 433:Drivers/STM32F0xx_HAL_Driver/Inc/stm32f0xx_ll_usart.h ****   * @}
 434:Drivers/STM32F0xx_HAL_Driver/Inc/stm32f0xx_ll_usart.h ****   */
 435:Drivers/STM32F0xx_HAL_Driver/Inc/stm32f0xx_ll_usart.h **** 
 436:Drivers/STM32F0xx_HAL_Driver/Inc/stm32f0xx_ll_usart.h **** #if defined(USART_CR1_UESM)
 437:Drivers/STM32F0xx_HAL_Driver/Inc/stm32f0xx_ll_usart.h **** #if defined(USART_CR3_WUS)
 438:Drivers/STM32F0xx_HAL_Driver/Inc/stm32f0xx_ll_usart.h **** /** @defgroup USART_LL_EC_WAKEUP_ON Wakeup Activation
 439:Drivers/STM32F0xx_HAL_Driver/Inc/stm32f0xx_ll_usart.h ****   * @{
 440:Drivers/STM32F0xx_HAL_Driver/Inc/stm32f0xx_ll_usart.h ****   */
 441:Drivers/STM32F0xx_HAL_Driver/Inc/stm32f0xx_ll_usart.h **** #define LL_USART_WAKEUP_ON_ADDRESS              0x00000000U                             /*!< Wake u
 442:Drivers/STM32F0xx_HAL_Driver/Inc/stm32f0xx_ll_usart.h **** #define LL_USART_WAKEUP_ON_STARTBIT             USART_CR3_WUS_1                         /*!< Wake u
 443:Drivers/STM32F0xx_HAL_Driver/Inc/stm32f0xx_ll_usart.h **** #define LL_USART_WAKEUP_ON_RXNE                 (USART_CR3_WUS_0 | USART_CR3_WUS_1)     /*!< Wake u
 444:Drivers/STM32F0xx_HAL_Driver/Inc/stm32f0xx_ll_usart.h **** /**
 445:Drivers/STM32F0xx_HAL_Driver/Inc/stm32f0xx_ll_usart.h ****   * @}
 446:Drivers/STM32F0xx_HAL_Driver/Inc/stm32f0xx_ll_usart.h ****   */
 447:Drivers/STM32F0xx_HAL_Driver/Inc/stm32f0xx_ll_usart.h **** 
 448:Drivers/STM32F0xx_HAL_Driver/Inc/stm32f0xx_ll_usart.h **** #endif /* USART_CR3_WUS */
 449:Drivers/STM32F0xx_HAL_Driver/Inc/stm32f0xx_ll_usart.h **** #endif /* USART_CR1_UESM */
 450:Drivers/STM32F0xx_HAL_Driver/Inc/stm32f0xx_ll_usart.h **** #if defined(USART_IRDA_SUPPORT)
 451:Drivers/STM32F0xx_HAL_Driver/Inc/stm32f0xx_ll_usart.h **** /** @defgroup USART_LL_EC_IRDA_POWER IrDA Power
 452:Drivers/STM32F0xx_HAL_Driver/Inc/stm32f0xx_ll_usart.h ****   * @{
 453:Drivers/STM32F0xx_HAL_Driver/Inc/stm32f0xx_ll_usart.h ****   */
 454:Drivers/STM32F0xx_HAL_Driver/Inc/stm32f0xx_ll_usart.h **** #define LL_USART_IRDA_POWER_NORMAL              0x00000000U           /*!< IrDA normal power mode *
 455:Drivers/STM32F0xx_HAL_Driver/Inc/stm32f0xx_ll_usart.h **** #define LL_USART_IRDA_POWER_LOW                 USART_CR3_IRLP        /*!< IrDA low power mode */
 456:Drivers/STM32F0xx_HAL_Driver/Inc/stm32f0xx_ll_usart.h **** /**
 457:Drivers/STM32F0xx_HAL_Driver/Inc/stm32f0xx_ll_usart.h ****   * @}
 458:Drivers/STM32F0xx_HAL_Driver/Inc/stm32f0xx_ll_usart.h ****   */
 459:Drivers/STM32F0xx_HAL_Driver/Inc/stm32f0xx_ll_usart.h **** #endif /* USART_IRDA_SUPPORT */
 460:Drivers/STM32F0xx_HAL_Driver/Inc/stm32f0xx_ll_usart.h **** 
 461:Drivers/STM32F0xx_HAL_Driver/Inc/stm32f0xx_ll_usart.h **** #if defined(USART_LIN_SUPPORT)
 462:Drivers/STM32F0xx_HAL_Driver/Inc/stm32f0xx_ll_usart.h **** /** @defgroup USART_LL_EC_LINBREAK_DETECT LIN Break Detection Length
 463:Drivers/STM32F0xx_HAL_Driver/Inc/stm32f0xx_ll_usart.h ****   * @{
 464:Drivers/STM32F0xx_HAL_Driver/Inc/stm32f0xx_ll_usart.h ****   */
 465:Drivers/STM32F0xx_HAL_Driver/Inc/stm32f0xx_ll_usart.h **** #define LL_USART_LINBREAK_DETECT_10B            0x00000000U           /*!< 10-bit break detection m
 466:Drivers/STM32F0xx_HAL_Driver/Inc/stm32f0xx_ll_usart.h **** #define LL_USART_LINBREAK_DETECT_11B            USART_CR2_LBDL        /*!< 11-bit break detection m
 467:Drivers/STM32F0xx_HAL_Driver/Inc/stm32f0xx_ll_usart.h **** /**
 468:Drivers/STM32F0xx_HAL_Driver/Inc/stm32f0xx_ll_usart.h ****   * @}
 469:Drivers/STM32F0xx_HAL_Driver/Inc/stm32f0xx_ll_usart.h ****   */
 470:Drivers/STM32F0xx_HAL_Driver/Inc/stm32f0xx_ll_usart.h **** #endif /* USART_LIN_SUPPORT */
 471:Drivers/STM32F0xx_HAL_Driver/Inc/stm32f0xx_ll_usart.h **** 
 472:Drivers/STM32F0xx_HAL_Driver/Inc/stm32f0xx_ll_usart.h **** /** @defgroup USART_LL_EC_DE_POLARITY Driver Enable Polarity
 473:Drivers/STM32F0xx_HAL_Driver/Inc/stm32f0xx_ll_usart.h ****   * @{
 474:Drivers/STM32F0xx_HAL_Driver/Inc/stm32f0xx_ll_usart.h ****   */
 475:Drivers/STM32F0xx_HAL_Driver/Inc/stm32f0xx_ll_usart.h **** #define LL_USART_DE_POLARITY_HIGH               0x00000000U           /*!< DE signal is active high
 476:Drivers/STM32F0xx_HAL_Driver/Inc/stm32f0xx_ll_usart.h **** #define LL_USART_DE_POLARITY_LOW                USART_CR3_DEP         /*!< DE signal is active low 
ARM GAS  C:\Users\ADMINI~1\AppData\Local\Temp\cco9rtsT.s 			page 26


 477:Drivers/STM32F0xx_HAL_Driver/Inc/stm32f0xx_ll_usart.h **** /**
 478:Drivers/STM32F0xx_HAL_Driver/Inc/stm32f0xx_ll_usart.h ****   * @}
 479:Drivers/STM32F0xx_HAL_Driver/Inc/stm32f0xx_ll_usart.h ****   */
 480:Drivers/STM32F0xx_HAL_Driver/Inc/stm32f0xx_ll_usart.h **** 
 481:Drivers/STM32F0xx_HAL_Driver/Inc/stm32f0xx_ll_usart.h **** /** @defgroup USART_LL_EC_DMA_REG_DATA DMA Register Data
 482:Drivers/STM32F0xx_HAL_Driver/Inc/stm32f0xx_ll_usart.h ****   * @{
 483:Drivers/STM32F0xx_HAL_Driver/Inc/stm32f0xx_ll_usart.h ****   */
 484:Drivers/STM32F0xx_HAL_Driver/Inc/stm32f0xx_ll_usart.h **** #define LL_USART_DMA_REG_DATA_TRANSMIT          0x00000000U          /*!< Get address of data regis
 485:Drivers/STM32F0xx_HAL_Driver/Inc/stm32f0xx_ll_usart.h **** #define LL_USART_DMA_REG_DATA_RECEIVE           0x00000001U          /*!< Get address of data regis
 486:Drivers/STM32F0xx_HAL_Driver/Inc/stm32f0xx_ll_usart.h **** /**
 487:Drivers/STM32F0xx_HAL_Driver/Inc/stm32f0xx_ll_usart.h ****   * @}
 488:Drivers/STM32F0xx_HAL_Driver/Inc/stm32f0xx_ll_usart.h ****   */
 489:Drivers/STM32F0xx_HAL_Driver/Inc/stm32f0xx_ll_usart.h **** 
 490:Drivers/STM32F0xx_HAL_Driver/Inc/stm32f0xx_ll_usart.h **** /**
 491:Drivers/STM32F0xx_HAL_Driver/Inc/stm32f0xx_ll_usart.h ****   * @}
 492:Drivers/STM32F0xx_HAL_Driver/Inc/stm32f0xx_ll_usart.h ****   */
 493:Drivers/STM32F0xx_HAL_Driver/Inc/stm32f0xx_ll_usart.h **** 
 494:Drivers/STM32F0xx_HAL_Driver/Inc/stm32f0xx_ll_usart.h **** /* Exported macro ------------------------------------------------------------*/
 495:Drivers/STM32F0xx_HAL_Driver/Inc/stm32f0xx_ll_usart.h **** /** @defgroup USART_LL_Exported_Macros USART Exported Macros
 496:Drivers/STM32F0xx_HAL_Driver/Inc/stm32f0xx_ll_usart.h ****   * @{
 497:Drivers/STM32F0xx_HAL_Driver/Inc/stm32f0xx_ll_usart.h ****   */
 498:Drivers/STM32F0xx_HAL_Driver/Inc/stm32f0xx_ll_usart.h **** 
 499:Drivers/STM32F0xx_HAL_Driver/Inc/stm32f0xx_ll_usart.h **** /** @defgroup USART_LL_EM_WRITE_READ Common Write and read registers Macros
 500:Drivers/STM32F0xx_HAL_Driver/Inc/stm32f0xx_ll_usart.h ****   * @{
 501:Drivers/STM32F0xx_HAL_Driver/Inc/stm32f0xx_ll_usart.h ****   */
 502:Drivers/STM32F0xx_HAL_Driver/Inc/stm32f0xx_ll_usart.h **** 
 503:Drivers/STM32F0xx_HAL_Driver/Inc/stm32f0xx_ll_usart.h **** /**
 504:Drivers/STM32F0xx_HAL_Driver/Inc/stm32f0xx_ll_usart.h ****   * @brief  Write a value in USART register
 505:Drivers/STM32F0xx_HAL_Driver/Inc/stm32f0xx_ll_usart.h ****   * @param  __INSTANCE__ USART Instance
 506:Drivers/STM32F0xx_HAL_Driver/Inc/stm32f0xx_ll_usart.h ****   * @param  __REG__ Register to be written
 507:Drivers/STM32F0xx_HAL_Driver/Inc/stm32f0xx_ll_usart.h ****   * @param  __VALUE__ Value to be written in the register
 508:Drivers/STM32F0xx_HAL_Driver/Inc/stm32f0xx_ll_usart.h ****   * @retval None
 509:Drivers/STM32F0xx_HAL_Driver/Inc/stm32f0xx_ll_usart.h ****   */
 510:Drivers/STM32F0xx_HAL_Driver/Inc/stm32f0xx_ll_usart.h **** #define LL_USART_WriteReg(__INSTANCE__, __REG__, __VALUE__) WRITE_REG(__INSTANCE__->__REG__, (__VAL
 511:Drivers/STM32F0xx_HAL_Driver/Inc/stm32f0xx_ll_usart.h **** 
 512:Drivers/STM32F0xx_HAL_Driver/Inc/stm32f0xx_ll_usart.h **** /**
 513:Drivers/STM32F0xx_HAL_Driver/Inc/stm32f0xx_ll_usart.h ****   * @brief  Read a value in USART register
 514:Drivers/STM32F0xx_HAL_Driver/Inc/stm32f0xx_ll_usart.h ****   * @param  __INSTANCE__ USART Instance
 515:Drivers/STM32F0xx_HAL_Driver/Inc/stm32f0xx_ll_usart.h ****   * @param  __REG__ Register to be read
 516:Drivers/STM32F0xx_HAL_Driver/Inc/stm32f0xx_ll_usart.h ****   * @retval Register value
 517:Drivers/STM32F0xx_HAL_Driver/Inc/stm32f0xx_ll_usart.h ****   */
 518:Drivers/STM32F0xx_HAL_Driver/Inc/stm32f0xx_ll_usart.h **** #define LL_USART_ReadReg(__INSTANCE__, __REG__) READ_REG(__INSTANCE__->__REG__)
 519:Drivers/STM32F0xx_HAL_Driver/Inc/stm32f0xx_ll_usart.h **** /**
 520:Drivers/STM32F0xx_HAL_Driver/Inc/stm32f0xx_ll_usart.h ****   * @}
 521:Drivers/STM32F0xx_HAL_Driver/Inc/stm32f0xx_ll_usart.h ****   */
 522:Drivers/STM32F0xx_HAL_Driver/Inc/stm32f0xx_ll_usart.h **** 
 523:Drivers/STM32F0xx_HAL_Driver/Inc/stm32f0xx_ll_usart.h **** /** @defgroup USART_LL_EM_Exported_Macros_Helper Exported_Macros_Helper
 524:Drivers/STM32F0xx_HAL_Driver/Inc/stm32f0xx_ll_usart.h ****   * @{
 525:Drivers/STM32F0xx_HAL_Driver/Inc/stm32f0xx_ll_usart.h ****   */
 526:Drivers/STM32F0xx_HAL_Driver/Inc/stm32f0xx_ll_usart.h **** 
 527:Drivers/STM32F0xx_HAL_Driver/Inc/stm32f0xx_ll_usart.h **** /**
 528:Drivers/STM32F0xx_HAL_Driver/Inc/stm32f0xx_ll_usart.h ****   * @brief  Compute USARTDIV value according to Peripheral Clock and
 529:Drivers/STM32F0xx_HAL_Driver/Inc/stm32f0xx_ll_usart.h ****   *         expected Baud Rate in 8 bits sampling mode (32 bits value of USARTDIV is returned)
 530:Drivers/STM32F0xx_HAL_Driver/Inc/stm32f0xx_ll_usart.h ****   * @param  __PERIPHCLK__ Peripheral Clock frequency used for USART instance
 531:Drivers/STM32F0xx_HAL_Driver/Inc/stm32f0xx_ll_usart.h ****   * @param  __BAUDRATE__ Baud rate value to achieve
 532:Drivers/STM32F0xx_HAL_Driver/Inc/stm32f0xx_ll_usart.h ****   * @retval USARTDIV value to be used for BRR register filling in OverSampling_8 case
 533:Drivers/STM32F0xx_HAL_Driver/Inc/stm32f0xx_ll_usart.h ****   */
ARM GAS  C:\Users\ADMINI~1\AppData\Local\Temp\cco9rtsT.s 			page 27


 534:Drivers/STM32F0xx_HAL_Driver/Inc/stm32f0xx_ll_usart.h **** #define __LL_USART_DIV_SAMPLING8(__PERIPHCLK__, __BAUDRATE__) ((((__PERIPHCLK__)*2U)\
 535:Drivers/STM32F0xx_HAL_Driver/Inc/stm32f0xx_ll_usart.h ****                                                                 + ((__BAUDRATE__)/2U))/(__BAUDRATE_
 536:Drivers/STM32F0xx_HAL_Driver/Inc/stm32f0xx_ll_usart.h **** 
 537:Drivers/STM32F0xx_HAL_Driver/Inc/stm32f0xx_ll_usart.h **** /**
 538:Drivers/STM32F0xx_HAL_Driver/Inc/stm32f0xx_ll_usart.h ****   * @brief  Compute USARTDIV value according to Peripheral Clock and
 539:Drivers/STM32F0xx_HAL_Driver/Inc/stm32f0xx_ll_usart.h ****   *         expected Baud Rate in 16 bits sampling mode (32 bits value of USARTDIV is returned)
 540:Drivers/STM32F0xx_HAL_Driver/Inc/stm32f0xx_ll_usart.h ****   * @param  __PERIPHCLK__ Peripheral Clock frequency used for USART instance
 541:Drivers/STM32F0xx_HAL_Driver/Inc/stm32f0xx_ll_usart.h ****   * @param  __BAUDRATE__ Baud rate value to achieve
 542:Drivers/STM32F0xx_HAL_Driver/Inc/stm32f0xx_ll_usart.h ****   * @retval USARTDIV value to be used for BRR register filling in OverSampling_16 case
 543:Drivers/STM32F0xx_HAL_Driver/Inc/stm32f0xx_ll_usart.h ****   */
 544:Drivers/STM32F0xx_HAL_Driver/Inc/stm32f0xx_ll_usart.h **** #define __LL_USART_DIV_SAMPLING16(__PERIPHCLK__, __BAUDRATE__) (((__PERIPHCLK__) + ((__BAUDRATE__)/
 545:Drivers/STM32F0xx_HAL_Driver/Inc/stm32f0xx_ll_usart.h **** 
 546:Drivers/STM32F0xx_HAL_Driver/Inc/stm32f0xx_ll_usart.h **** /**
 547:Drivers/STM32F0xx_HAL_Driver/Inc/stm32f0xx_ll_usart.h ****   * @}
 548:Drivers/STM32F0xx_HAL_Driver/Inc/stm32f0xx_ll_usart.h ****   */
 549:Drivers/STM32F0xx_HAL_Driver/Inc/stm32f0xx_ll_usart.h **** 
 550:Drivers/STM32F0xx_HAL_Driver/Inc/stm32f0xx_ll_usart.h **** /**
 551:Drivers/STM32F0xx_HAL_Driver/Inc/stm32f0xx_ll_usart.h ****   * @}
 552:Drivers/STM32F0xx_HAL_Driver/Inc/stm32f0xx_ll_usart.h ****   */
 553:Drivers/STM32F0xx_HAL_Driver/Inc/stm32f0xx_ll_usart.h **** 
 554:Drivers/STM32F0xx_HAL_Driver/Inc/stm32f0xx_ll_usart.h **** /* Exported functions --------------------------------------------------------*/
 555:Drivers/STM32F0xx_HAL_Driver/Inc/stm32f0xx_ll_usart.h **** 
 556:Drivers/STM32F0xx_HAL_Driver/Inc/stm32f0xx_ll_usart.h **** /** @defgroup USART_LL_Exported_Functions USART Exported Functions
 557:Drivers/STM32F0xx_HAL_Driver/Inc/stm32f0xx_ll_usart.h ****   * @{
 558:Drivers/STM32F0xx_HAL_Driver/Inc/stm32f0xx_ll_usart.h ****   */
 559:Drivers/STM32F0xx_HAL_Driver/Inc/stm32f0xx_ll_usart.h **** 
 560:Drivers/STM32F0xx_HAL_Driver/Inc/stm32f0xx_ll_usart.h **** /** @defgroup USART_LL_EF_Configuration Configuration functions
 561:Drivers/STM32F0xx_HAL_Driver/Inc/stm32f0xx_ll_usart.h ****   * @{
 562:Drivers/STM32F0xx_HAL_Driver/Inc/stm32f0xx_ll_usart.h ****   */
 563:Drivers/STM32F0xx_HAL_Driver/Inc/stm32f0xx_ll_usart.h **** 
 564:Drivers/STM32F0xx_HAL_Driver/Inc/stm32f0xx_ll_usart.h **** /**
 565:Drivers/STM32F0xx_HAL_Driver/Inc/stm32f0xx_ll_usart.h ****   * @brief  USART Enable
 566:Drivers/STM32F0xx_HAL_Driver/Inc/stm32f0xx_ll_usart.h ****   * @rmtoll CR1          UE            LL_USART_Enable
 567:Drivers/STM32F0xx_HAL_Driver/Inc/stm32f0xx_ll_usart.h ****   * @param  USARTx USART Instance
 568:Drivers/STM32F0xx_HAL_Driver/Inc/stm32f0xx_ll_usart.h ****   * @retval None
 569:Drivers/STM32F0xx_HAL_Driver/Inc/stm32f0xx_ll_usart.h ****   */
 570:Drivers/STM32F0xx_HAL_Driver/Inc/stm32f0xx_ll_usart.h **** __STATIC_INLINE void LL_USART_Enable(USART_TypeDef *USARTx)
 571:Drivers/STM32F0xx_HAL_Driver/Inc/stm32f0xx_ll_usart.h **** {
 572:Drivers/STM32F0xx_HAL_Driver/Inc/stm32f0xx_ll_usart.h ****   SET_BIT(USARTx->CR1, USART_CR1_UE);
 573:Drivers/STM32F0xx_HAL_Driver/Inc/stm32f0xx_ll_usart.h **** }
 574:Drivers/STM32F0xx_HAL_Driver/Inc/stm32f0xx_ll_usart.h **** 
 575:Drivers/STM32F0xx_HAL_Driver/Inc/stm32f0xx_ll_usart.h **** /**
 576:Drivers/STM32F0xx_HAL_Driver/Inc/stm32f0xx_ll_usart.h ****   * @brief  USART Disable (all USART prescalers and outputs are disabled)
 577:Drivers/STM32F0xx_HAL_Driver/Inc/stm32f0xx_ll_usart.h ****   * @note   When USART is disabled, USART prescalers and outputs are stopped immediately,
 578:Drivers/STM32F0xx_HAL_Driver/Inc/stm32f0xx_ll_usart.h ****   *         and current operations are discarded. The configuration of the USART is kept, but all t
 579:Drivers/STM32F0xx_HAL_Driver/Inc/stm32f0xx_ll_usart.h ****   *         flags, in the USARTx_ISR are set to their default values.
 580:Drivers/STM32F0xx_HAL_Driver/Inc/stm32f0xx_ll_usart.h ****   * @rmtoll CR1          UE            LL_USART_Disable
 581:Drivers/STM32F0xx_HAL_Driver/Inc/stm32f0xx_ll_usart.h ****   * @param  USARTx USART Instance
 582:Drivers/STM32F0xx_HAL_Driver/Inc/stm32f0xx_ll_usart.h ****   * @retval None
 583:Drivers/STM32F0xx_HAL_Driver/Inc/stm32f0xx_ll_usart.h ****   */
 584:Drivers/STM32F0xx_HAL_Driver/Inc/stm32f0xx_ll_usart.h **** __STATIC_INLINE void LL_USART_Disable(USART_TypeDef *USARTx)
 585:Drivers/STM32F0xx_HAL_Driver/Inc/stm32f0xx_ll_usart.h **** {
 586:Drivers/STM32F0xx_HAL_Driver/Inc/stm32f0xx_ll_usart.h ****   CLEAR_BIT(USARTx->CR1, USART_CR1_UE);
 587:Drivers/STM32F0xx_HAL_Driver/Inc/stm32f0xx_ll_usart.h **** }
 588:Drivers/STM32F0xx_HAL_Driver/Inc/stm32f0xx_ll_usart.h **** 
 589:Drivers/STM32F0xx_HAL_Driver/Inc/stm32f0xx_ll_usart.h **** /**
 590:Drivers/STM32F0xx_HAL_Driver/Inc/stm32f0xx_ll_usart.h ****   * @brief  Indicate if USART is enabled
ARM GAS  C:\Users\ADMINI~1\AppData\Local\Temp\cco9rtsT.s 			page 28


 591:Drivers/STM32F0xx_HAL_Driver/Inc/stm32f0xx_ll_usart.h ****   * @rmtoll CR1          UE            LL_USART_IsEnabled
 592:Drivers/STM32F0xx_HAL_Driver/Inc/stm32f0xx_ll_usart.h ****   * @param  USARTx USART Instance
 593:Drivers/STM32F0xx_HAL_Driver/Inc/stm32f0xx_ll_usart.h ****   * @retval State of bit (1 or 0).
 594:Drivers/STM32F0xx_HAL_Driver/Inc/stm32f0xx_ll_usart.h ****   */
 595:Drivers/STM32F0xx_HAL_Driver/Inc/stm32f0xx_ll_usart.h **** __STATIC_INLINE uint32_t LL_USART_IsEnabled(USART_TypeDef *USARTx)
 596:Drivers/STM32F0xx_HAL_Driver/Inc/stm32f0xx_ll_usart.h **** {
 597:Drivers/STM32F0xx_HAL_Driver/Inc/stm32f0xx_ll_usart.h ****   return ((READ_BIT(USARTx->CR1, USART_CR1_UE) == (USART_CR1_UE)) ? 1UL : 0UL);
 598:Drivers/STM32F0xx_HAL_Driver/Inc/stm32f0xx_ll_usart.h **** }
 599:Drivers/STM32F0xx_HAL_Driver/Inc/stm32f0xx_ll_usart.h **** 
 600:Drivers/STM32F0xx_HAL_Driver/Inc/stm32f0xx_ll_usart.h **** #if defined(USART_CR1_UESM)
 601:Drivers/STM32F0xx_HAL_Driver/Inc/stm32f0xx_ll_usart.h **** /**
 602:Drivers/STM32F0xx_HAL_Driver/Inc/stm32f0xx_ll_usart.h ****   * @brief  USART enabled in STOP Mode.
 603:Drivers/STM32F0xx_HAL_Driver/Inc/stm32f0xx_ll_usart.h ****   * @note   When this function is enabled, USART is able to wake up the MCU from Stop mode, provide
 604:Drivers/STM32F0xx_HAL_Driver/Inc/stm32f0xx_ll_usart.h ****   *         USART clock selection is HSI or LSE in RCC.
 605:Drivers/STM32F0xx_HAL_Driver/Inc/stm32f0xx_ll_usart.h ****   * @note   Macro IS_UART_WAKEUP_FROMSTOP_INSTANCE(USARTx) can be used to check whether or not
 606:Drivers/STM32F0xx_HAL_Driver/Inc/stm32f0xx_ll_usart.h ****   *         Wake-up from Stop mode feature is supported by the USARTx instance.
 607:Drivers/STM32F0xx_HAL_Driver/Inc/stm32f0xx_ll_usart.h ****   * @rmtoll CR1          UESM          LL_USART_EnableInStopMode
 608:Drivers/STM32F0xx_HAL_Driver/Inc/stm32f0xx_ll_usart.h ****   * @param  USARTx USART Instance
 609:Drivers/STM32F0xx_HAL_Driver/Inc/stm32f0xx_ll_usart.h ****   * @retval None
 610:Drivers/STM32F0xx_HAL_Driver/Inc/stm32f0xx_ll_usart.h ****   */
 611:Drivers/STM32F0xx_HAL_Driver/Inc/stm32f0xx_ll_usart.h **** __STATIC_INLINE void LL_USART_EnableInStopMode(USART_TypeDef *USARTx)
 612:Drivers/STM32F0xx_HAL_Driver/Inc/stm32f0xx_ll_usart.h **** {
 613:Drivers/STM32F0xx_HAL_Driver/Inc/stm32f0xx_ll_usart.h ****   ATOMIC_SET_BIT(USARTx->CR1, USART_CR1_UESM);
 614:Drivers/STM32F0xx_HAL_Driver/Inc/stm32f0xx_ll_usart.h **** }
 615:Drivers/STM32F0xx_HAL_Driver/Inc/stm32f0xx_ll_usart.h **** 
 616:Drivers/STM32F0xx_HAL_Driver/Inc/stm32f0xx_ll_usart.h **** /**
 617:Drivers/STM32F0xx_HAL_Driver/Inc/stm32f0xx_ll_usart.h ****   * @brief  USART disabled in STOP Mode.
 618:Drivers/STM32F0xx_HAL_Driver/Inc/stm32f0xx_ll_usart.h ****   * @note   When this function is disabled, USART is not able to wake up the MCU from Stop mode
 619:Drivers/STM32F0xx_HAL_Driver/Inc/stm32f0xx_ll_usart.h ****   * @note   Macro IS_UART_WAKEUP_FROMSTOP_INSTANCE(USARTx) can be used to check whether or not
 620:Drivers/STM32F0xx_HAL_Driver/Inc/stm32f0xx_ll_usart.h ****   *         Wake-up from Stop mode feature is supported by the USARTx instance.
 621:Drivers/STM32F0xx_HAL_Driver/Inc/stm32f0xx_ll_usart.h ****   * @rmtoll CR1          UESM          LL_USART_DisableInStopMode
 622:Drivers/STM32F0xx_HAL_Driver/Inc/stm32f0xx_ll_usart.h ****   * @param  USARTx USART Instance
 623:Drivers/STM32F0xx_HAL_Driver/Inc/stm32f0xx_ll_usart.h ****   * @retval None
 624:Drivers/STM32F0xx_HAL_Driver/Inc/stm32f0xx_ll_usart.h ****   */
 625:Drivers/STM32F0xx_HAL_Driver/Inc/stm32f0xx_ll_usart.h **** __STATIC_INLINE void LL_USART_DisableInStopMode(USART_TypeDef *USARTx)
 626:Drivers/STM32F0xx_HAL_Driver/Inc/stm32f0xx_ll_usart.h **** {
 627:Drivers/STM32F0xx_HAL_Driver/Inc/stm32f0xx_ll_usart.h ****   ATOMIC_CLEAR_BIT(USARTx->CR1, USART_CR1_UESM);
 628:Drivers/STM32F0xx_HAL_Driver/Inc/stm32f0xx_ll_usart.h **** }
 629:Drivers/STM32F0xx_HAL_Driver/Inc/stm32f0xx_ll_usart.h **** 
 630:Drivers/STM32F0xx_HAL_Driver/Inc/stm32f0xx_ll_usart.h **** /**
 631:Drivers/STM32F0xx_HAL_Driver/Inc/stm32f0xx_ll_usart.h ****   * @brief  Indicate if USART is enabled in STOP Mode (able to wake up MCU from Stop mode or not)
 632:Drivers/STM32F0xx_HAL_Driver/Inc/stm32f0xx_ll_usart.h ****   * @note   Macro IS_UART_WAKEUP_FROMSTOP_INSTANCE(USARTx) can be used to check whether or not
 633:Drivers/STM32F0xx_HAL_Driver/Inc/stm32f0xx_ll_usart.h ****   *         Wake-up from Stop mode feature is supported by the USARTx instance.
 634:Drivers/STM32F0xx_HAL_Driver/Inc/stm32f0xx_ll_usart.h ****   * @rmtoll CR1          UESM          LL_USART_IsEnabledInStopMode
 635:Drivers/STM32F0xx_HAL_Driver/Inc/stm32f0xx_ll_usart.h ****   * @param  USARTx USART Instance
 636:Drivers/STM32F0xx_HAL_Driver/Inc/stm32f0xx_ll_usart.h ****   * @retval State of bit (1 or 0).
 637:Drivers/STM32F0xx_HAL_Driver/Inc/stm32f0xx_ll_usart.h ****   */
 638:Drivers/STM32F0xx_HAL_Driver/Inc/stm32f0xx_ll_usart.h **** __STATIC_INLINE uint32_t LL_USART_IsEnabledInStopMode(USART_TypeDef *USARTx)
 639:Drivers/STM32F0xx_HAL_Driver/Inc/stm32f0xx_ll_usart.h **** {
 640:Drivers/STM32F0xx_HAL_Driver/Inc/stm32f0xx_ll_usart.h ****   return ((READ_BIT(USARTx->CR1, USART_CR1_UESM) == (USART_CR1_UESM)) ? 1UL : 0UL);
 641:Drivers/STM32F0xx_HAL_Driver/Inc/stm32f0xx_ll_usart.h **** }
 642:Drivers/STM32F0xx_HAL_Driver/Inc/stm32f0xx_ll_usart.h **** 
 643:Drivers/STM32F0xx_HAL_Driver/Inc/stm32f0xx_ll_usart.h **** #endif /* USART_CR1_UESM*/
 644:Drivers/STM32F0xx_HAL_Driver/Inc/stm32f0xx_ll_usart.h **** /**
 645:Drivers/STM32F0xx_HAL_Driver/Inc/stm32f0xx_ll_usart.h ****   * @brief  Receiver Enable (Receiver is enabled and begins searching for a start bit)
 646:Drivers/STM32F0xx_HAL_Driver/Inc/stm32f0xx_ll_usart.h ****   * @rmtoll CR1          RE            LL_USART_EnableDirectionRx
 647:Drivers/STM32F0xx_HAL_Driver/Inc/stm32f0xx_ll_usart.h ****   * @param  USARTx USART Instance
ARM GAS  C:\Users\ADMINI~1\AppData\Local\Temp\cco9rtsT.s 			page 29


 648:Drivers/STM32F0xx_HAL_Driver/Inc/stm32f0xx_ll_usart.h ****   * @retval None
 649:Drivers/STM32F0xx_HAL_Driver/Inc/stm32f0xx_ll_usart.h ****   */
 650:Drivers/STM32F0xx_HAL_Driver/Inc/stm32f0xx_ll_usart.h **** __STATIC_INLINE void LL_USART_EnableDirectionRx(USART_TypeDef *USARTx)
 651:Drivers/STM32F0xx_HAL_Driver/Inc/stm32f0xx_ll_usart.h **** {
 652:Drivers/STM32F0xx_HAL_Driver/Inc/stm32f0xx_ll_usart.h ****   ATOMIC_SET_BIT(USARTx->CR1, USART_CR1_RE);
 653:Drivers/STM32F0xx_HAL_Driver/Inc/stm32f0xx_ll_usart.h **** }
 654:Drivers/STM32F0xx_HAL_Driver/Inc/stm32f0xx_ll_usart.h **** 
 655:Drivers/STM32F0xx_HAL_Driver/Inc/stm32f0xx_ll_usart.h **** /**
 656:Drivers/STM32F0xx_HAL_Driver/Inc/stm32f0xx_ll_usart.h ****   * @brief  Receiver Disable
 657:Drivers/STM32F0xx_HAL_Driver/Inc/stm32f0xx_ll_usart.h ****   * @rmtoll CR1          RE            LL_USART_DisableDirectionRx
 658:Drivers/STM32F0xx_HAL_Driver/Inc/stm32f0xx_ll_usart.h ****   * @param  USARTx USART Instance
 659:Drivers/STM32F0xx_HAL_Driver/Inc/stm32f0xx_ll_usart.h ****   * @retval None
 660:Drivers/STM32F0xx_HAL_Driver/Inc/stm32f0xx_ll_usart.h ****   */
 661:Drivers/STM32F0xx_HAL_Driver/Inc/stm32f0xx_ll_usart.h **** __STATIC_INLINE void LL_USART_DisableDirectionRx(USART_TypeDef *USARTx)
 662:Drivers/STM32F0xx_HAL_Driver/Inc/stm32f0xx_ll_usart.h **** {
 663:Drivers/STM32F0xx_HAL_Driver/Inc/stm32f0xx_ll_usart.h ****   ATOMIC_CLEAR_BIT(USARTx->CR1, USART_CR1_RE);
 664:Drivers/STM32F0xx_HAL_Driver/Inc/stm32f0xx_ll_usart.h **** }
 665:Drivers/STM32F0xx_HAL_Driver/Inc/stm32f0xx_ll_usart.h **** 
 666:Drivers/STM32F0xx_HAL_Driver/Inc/stm32f0xx_ll_usart.h **** /**
 667:Drivers/STM32F0xx_HAL_Driver/Inc/stm32f0xx_ll_usart.h ****   * @brief  Transmitter Enable
 668:Drivers/STM32F0xx_HAL_Driver/Inc/stm32f0xx_ll_usart.h ****   * @rmtoll CR1          TE            LL_USART_EnableDirectionTx
 669:Drivers/STM32F0xx_HAL_Driver/Inc/stm32f0xx_ll_usart.h ****   * @param  USARTx USART Instance
 670:Drivers/STM32F0xx_HAL_Driver/Inc/stm32f0xx_ll_usart.h ****   * @retval None
 671:Drivers/STM32F0xx_HAL_Driver/Inc/stm32f0xx_ll_usart.h ****   */
 672:Drivers/STM32F0xx_HAL_Driver/Inc/stm32f0xx_ll_usart.h **** __STATIC_INLINE void LL_USART_EnableDirectionTx(USART_TypeDef *USARTx)
 673:Drivers/STM32F0xx_HAL_Driver/Inc/stm32f0xx_ll_usart.h **** {
 674:Drivers/STM32F0xx_HAL_Driver/Inc/stm32f0xx_ll_usart.h ****   ATOMIC_SET_BIT(USARTx->CR1, USART_CR1_TE);
 675:Drivers/STM32F0xx_HAL_Driver/Inc/stm32f0xx_ll_usart.h **** }
 676:Drivers/STM32F0xx_HAL_Driver/Inc/stm32f0xx_ll_usart.h **** 
 677:Drivers/STM32F0xx_HAL_Driver/Inc/stm32f0xx_ll_usart.h **** /**
 678:Drivers/STM32F0xx_HAL_Driver/Inc/stm32f0xx_ll_usart.h ****   * @brief  Transmitter Disable
 679:Drivers/STM32F0xx_HAL_Driver/Inc/stm32f0xx_ll_usart.h ****   * @rmtoll CR1          TE            LL_USART_DisableDirectionTx
 680:Drivers/STM32F0xx_HAL_Driver/Inc/stm32f0xx_ll_usart.h ****   * @param  USARTx USART Instance
 681:Drivers/STM32F0xx_HAL_Driver/Inc/stm32f0xx_ll_usart.h ****   * @retval None
 682:Drivers/STM32F0xx_HAL_Driver/Inc/stm32f0xx_ll_usart.h ****   */
 683:Drivers/STM32F0xx_HAL_Driver/Inc/stm32f0xx_ll_usart.h **** __STATIC_INLINE void LL_USART_DisableDirectionTx(USART_TypeDef *USARTx)
 684:Drivers/STM32F0xx_HAL_Driver/Inc/stm32f0xx_ll_usart.h **** {
 685:Drivers/STM32F0xx_HAL_Driver/Inc/stm32f0xx_ll_usart.h ****   ATOMIC_CLEAR_BIT(USARTx->CR1, USART_CR1_TE);
 686:Drivers/STM32F0xx_HAL_Driver/Inc/stm32f0xx_ll_usart.h **** }
 687:Drivers/STM32F0xx_HAL_Driver/Inc/stm32f0xx_ll_usart.h **** 
 688:Drivers/STM32F0xx_HAL_Driver/Inc/stm32f0xx_ll_usart.h **** /**
 689:Drivers/STM32F0xx_HAL_Driver/Inc/stm32f0xx_ll_usart.h ****   * @brief  Configure simultaneously enabled/disabled states
 690:Drivers/STM32F0xx_HAL_Driver/Inc/stm32f0xx_ll_usart.h ****   *         of Transmitter and Receiver
 691:Drivers/STM32F0xx_HAL_Driver/Inc/stm32f0xx_ll_usart.h ****   * @rmtoll CR1          RE            LL_USART_SetTransferDirection\n
 692:Drivers/STM32F0xx_HAL_Driver/Inc/stm32f0xx_ll_usart.h ****   *         CR1          TE            LL_USART_SetTransferDirection
 693:Drivers/STM32F0xx_HAL_Driver/Inc/stm32f0xx_ll_usart.h ****   * @param  USARTx USART Instance
 694:Drivers/STM32F0xx_HAL_Driver/Inc/stm32f0xx_ll_usart.h ****   * @param  TransferDirection This parameter can be one of the following values:
 695:Drivers/STM32F0xx_HAL_Driver/Inc/stm32f0xx_ll_usart.h ****   *         @arg @ref LL_USART_DIRECTION_NONE
 696:Drivers/STM32F0xx_HAL_Driver/Inc/stm32f0xx_ll_usart.h ****   *         @arg @ref LL_USART_DIRECTION_RX
 697:Drivers/STM32F0xx_HAL_Driver/Inc/stm32f0xx_ll_usart.h ****   *         @arg @ref LL_USART_DIRECTION_TX
 698:Drivers/STM32F0xx_HAL_Driver/Inc/stm32f0xx_ll_usart.h ****   *         @arg @ref LL_USART_DIRECTION_TX_RX
 699:Drivers/STM32F0xx_HAL_Driver/Inc/stm32f0xx_ll_usart.h ****   * @retval None
 700:Drivers/STM32F0xx_HAL_Driver/Inc/stm32f0xx_ll_usart.h ****   */
 701:Drivers/STM32F0xx_HAL_Driver/Inc/stm32f0xx_ll_usart.h **** __STATIC_INLINE void LL_USART_SetTransferDirection(USART_TypeDef *USARTx, uint32_t TransferDirectio
 702:Drivers/STM32F0xx_HAL_Driver/Inc/stm32f0xx_ll_usart.h **** {
 703:Drivers/STM32F0xx_HAL_Driver/Inc/stm32f0xx_ll_usart.h ****   ATOMIC_MODIFY_REG(USARTx->CR1, USART_CR1_RE | USART_CR1_TE, TransferDirection);
 704:Drivers/STM32F0xx_HAL_Driver/Inc/stm32f0xx_ll_usart.h **** }
ARM GAS  C:\Users\ADMINI~1\AppData\Local\Temp\cco9rtsT.s 			page 30


 705:Drivers/STM32F0xx_HAL_Driver/Inc/stm32f0xx_ll_usart.h **** 
 706:Drivers/STM32F0xx_HAL_Driver/Inc/stm32f0xx_ll_usart.h **** /**
 707:Drivers/STM32F0xx_HAL_Driver/Inc/stm32f0xx_ll_usart.h ****   * @brief  Return enabled/disabled states of Transmitter and Receiver
 708:Drivers/STM32F0xx_HAL_Driver/Inc/stm32f0xx_ll_usart.h ****   * @rmtoll CR1          RE            LL_USART_GetTransferDirection\n
 709:Drivers/STM32F0xx_HAL_Driver/Inc/stm32f0xx_ll_usart.h ****   *         CR1          TE            LL_USART_GetTransferDirection
 710:Drivers/STM32F0xx_HAL_Driver/Inc/stm32f0xx_ll_usart.h ****   * @param  USARTx USART Instance
 711:Drivers/STM32F0xx_HAL_Driver/Inc/stm32f0xx_ll_usart.h ****   * @retval Returned value can be one of the following values:
 712:Drivers/STM32F0xx_HAL_Driver/Inc/stm32f0xx_ll_usart.h ****   *         @arg @ref LL_USART_DIRECTION_NONE
 713:Drivers/STM32F0xx_HAL_Driver/Inc/stm32f0xx_ll_usart.h ****   *         @arg @ref LL_USART_DIRECTION_RX
 714:Drivers/STM32F0xx_HAL_Driver/Inc/stm32f0xx_ll_usart.h ****   *         @arg @ref LL_USART_DIRECTION_TX
 715:Drivers/STM32F0xx_HAL_Driver/Inc/stm32f0xx_ll_usart.h ****   *         @arg @ref LL_USART_DIRECTION_TX_RX
 716:Drivers/STM32F0xx_HAL_Driver/Inc/stm32f0xx_ll_usart.h ****   */
 717:Drivers/STM32F0xx_HAL_Driver/Inc/stm32f0xx_ll_usart.h **** __STATIC_INLINE uint32_t LL_USART_GetTransferDirection(USART_TypeDef *USARTx)
 718:Drivers/STM32F0xx_HAL_Driver/Inc/stm32f0xx_ll_usart.h **** {
 719:Drivers/STM32F0xx_HAL_Driver/Inc/stm32f0xx_ll_usart.h ****   return (uint32_t)(READ_BIT(USARTx->CR1, USART_CR1_RE | USART_CR1_TE));
 720:Drivers/STM32F0xx_HAL_Driver/Inc/stm32f0xx_ll_usart.h **** }
 721:Drivers/STM32F0xx_HAL_Driver/Inc/stm32f0xx_ll_usart.h **** 
 722:Drivers/STM32F0xx_HAL_Driver/Inc/stm32f0xx_ll_usart.h **** /**
 723:Drivers/STM32F0xx_HAL_Driver/Inc/stm32f0xx_ll_usart.h ****   * @brief  Configure Parity (enabled/disabled and parity mode if enabled).
 724:Drivers/STM32F0xx_HAL_Driver/Inc/stm32f0xx_ll_usart.h ****   * @note   This function selects if hardware parity control (generation and detection) is enabled 
 725:Drivers/STM32F0xx_HAL_Driver/Inc/stm32f0xx_ll_usart.h ****   *         When the parity control is enabled (Odd or Even), computed parity bit is inserted at th
 726:Drivers/STM32F0xx_HAL_Driver/Inc/stm32f0xx_ll_usart.h ****   *         (9th or 8th bit depending on data width) and parity is checked on the received data.
 727:Drivers/STM32F0xx_HAL_Driver/Inc/stm32f0xx_ll_usart.h ****   * @rmtoll CR1          PS            LL_USART_SetParity\n
 728:Drivers/STM32F0xx_HAL_Driver/Inc/stm32f0xx_ll_usart.h ****   *         CR1          PCE           LL_USART_SetParity
 729:Drivers/STM32F0xx_HAL_Driver/Inc/stm32f0xx_ll_usart.h ****   * @param  USARTx USART Instance
 730:Drivers/STM32F0xx_HAL_Driver/Inc/stm32f0xx_ll_usart.h ****   * @param  Parity This parameter can be one of the following values:
 731:Drivers/STM32F0xx_HAL_Driver/Inc/stm32f0xx_ll_usart.h ****   *         @arg @ref LL_USART_PARITY_NONE
 732:Drivers/STM32F0xx_HAL_Driver/Inc/stm32f0xx_ll_usart.h ****   *         @arg @ref LL_USART_PARITY_EVEN
 733:Drivers/STM32F0xx_HAL_Driver/Inc/stm32f0xx_ll_usart.h ****   *         @arg @ref LL_USART_PARITY_ODD
 734:Drivers/STM32F0xx_HAL_Driver/Inc/stm32f0xx_ll_usart.h ****   * @retval None
 735:Drivers/STM32F0xx_HAL_Driver/Inc/stm32f0xx_ll_usart.h ****   */
 736:Drivers/STM32F0xx_HAL_Driver/Inc/stm32f0xx_ll_usart.h **** __STATIC_INLINE void LL_USART_SetParity(USART_TypeDef *USARTx, uint32_t Parity)
 737:Drivers/STM32F0xx_HAL_Driver/Inc/stm32f0xx_ll_usart.h **** {
 738:Drivers/STM32F0xx_HAL_Driver/Inc/stm32f0xx_ll_usart.h ****   MODIFY_REG(USARTx->CR1, USART_CR1_PS | USART_CR1_PCE, Parity);
 739:Drivers/STM32F0xx_HAL_Driver/Inc/stm32f0xx_ll_usart.h **** }
 740:Drivers/STM32F0xx_HAL_Driver/Inc/stm32f0xx_ll_usart.h **** 
 741:Drivers/STM32F0xx_HAL_Driver/Inc/stm32f0xx_ll_usart.h **** /**
 742:Drivers/STM32F0xx_HAL_Driver/Inc/stm32f0xx_ll_usart.h ****   * @brief  Return Parity configuration (enabled/disabled and parity mode if enabled)
 743:Drivers/STM32F0xx_HAL_Driver/Inc/stm32f0xx_ll_usart.h ****   * @rmtoll CR1          PS            LL_USART_GetParity\n
 744:Drivers/STM32F0xx_HAL_Driver/Inc/stm32f0xx_ll_usart.h ****   *         CR1          PCE           LL_USART_GetParity
 745:Drivers/STM32F0xx_HAL_Driver/Inc/stm32f0xx_ll_usart.h ****   * @param  USARTx USART Instance
 746:Drivers/STM32F0xx_HAL_Driver/Inc/stm32f0xx_ll_usart.h ****   * @retval Returned value can be one of the following values:
 747:Drivers/STM32F0xx_HAL_Driver/Inc/stm32f0xx_ll_usart.h ****   *         @arg @ref LL_USART_PARITY_NONE
 748:Drivers/STM32F0xx_HAL_Driver/Inc/stm32f0xx_ll_usart.h ****   *         @arg @ref LL_USART_PARITY_EVEN
 749:Drivers/STM32F0xx_HAL_Driver/Inc/stm32f0xx_ll_usart.h ****   *         @arg @ref LL_USART_PARITY_ODD
 750:Drivers/STM32F0xx_HAL_Driver/Inc/stm32f0xx_ll_usart.h ****   */
 751:Drivers/STM32F0xx_HAL_Driver/Inc/stm32f0xx_ll_usart.h **** __STATIC_INLINE uint32_t LL_USART_GetParity(USART_TypeDef *USARTx)
 752:Drivers/STM32F0xx_HAL_Driver/Inc/stm32f0xx_ll_usart.h **** {
 753:Drivers/STM32F0xx_HAL_Driver/Inc/stm32f0xx_ll_usart.h ****   return (uint32_t)(READ_BIT(USARTx->CR1, USART_CR1_PS | USART_CR1_PCE));
 754:Drivers/STM32F0xx_HAL_Driver/Inc/stm32f0xx_ll_usart.h **** }
 755:Drivers/STM32F0xx_HAL_Driver/Inc/stm32f0xx_ll_usart.h **** 
 756:Drivers/STM32F0xx_HAL_Driver/Inc/stm32f0xx_ll_usart.h **** /**
 757:Drivers/STM32F0xx_HAL_Driver/Inc/stm32f0xx_ll_usart.h ****   * @brief  Set Receiver Wake Up method from Mute mode.
 758:Drivers/STM32F0xx_HAL_Driver/Inc/stm32f0xx_ll_usart.h ****   * @rmtoll CR1          WAKE          LL_USART_SetWakeUpMethod
 759:Drivers/STM32F0xx_HAL_Driver/Inc/stm32f0xx_ll_usart.h ****   * @param  USARTx USART Instance
 760:Drivers/STM32F0xx_HAL_Driver/Inc/stm32f0xx_ll_usart.h ****   * @param  Method This parameter can be one of the following values:
 761:Drivers/STM32F0xx_HAL_Driver/Inc/stm32f0xx_ll_usart.h ****   *         @arg @ref LL_USART_WAKEUP_IDLELINE
ARM GAS  C:\Users\ADMINI~1\AppData\Local\Temp\cco9rtsT.s 			page 31


 762:Drivers/STM32F0xx_HAL_Driver/Inc/stm32f0xx_ll_usart.h ****   *         @arg @ref LL_USART_WAKEUP_ADDRESSMARK
 763:Drivers/STM32F0xx_HAL_Driver/Inc/stm32f0xx_ll_usart.h ****   * @retval None
 764:Drivers/STM32F0xx_HAL_Driver/Inc/stm32f0xx_ll_usart.h ****   */
 765:Drivers/STM32F0xx_HAL_Driver/Inc/stm32f0xx_ll_usart.h **** __STATIC_INLINE void LL_USART_SetWakeUpMethod(USART_TypeDef *USARTx, uint32_t Method)
 766:Drivers/STM32F0xx_HAL_Driver/Inc/stm32f0xx_ll_usart.h **** {
 767:Drivers/STM32F0xx_HAL_Driver/Inc/stm32f0xx_ll_usart.h ****   MODIFY_REG(USARTx->CR1, USART_CR1_WAKE, Method);
 768:Drivers/STM32F0xx_HAL_Driver/Inc/stm32f0xx_ll_usart.h **** }
 769:Drivers/STM32F0xx_HAL_Driver/Inc/stm32f0xx_ll_usart.h **** 
 770:Drivers/STM32F0xx_HAL_Driver/Inc/stm32f0xx_ll_usart.h **** /**
 771:Drivers/STM32F0xx_HAL_Driver/Inc/stm32f0xx_ll_usart.h ****   * @brief  Return Receiver Wake Up method from Mute mode
 772:Drivers/STM32F0xx_HAL_Driver/Inc/stm32f0xx_ll_usart.h ****   * @rmtoll CR1          WAKE          LL_USART_GetWakeUpMethod
 773:Drivers/STM32F0xx_HAL_Driver/Inc/stm32f0xx_ll_usart.h ****   * @param  USARTx USART Instance
 774:Drivers/STM32F0xx_HAL_Driver/Inc/stm32f0xx_ll_usart.h ****   * @retval Returned value can be one of the following values:
 775:Drivers/STM32F0xx_HAL_Driver/Inc/stm32f0xx_ll_usart.h ****   *         @arg @ref LL_USART_WAKEUP_IDLELINE
 776:Drivers/STM32F0xx_HAL_Driver/Inc/stm32f0xx_ll_usart.h ****   *         @arg @ref LL_USART_WAKEUP_ADDRESSMARK
 777:Drivers/STM32F0xx_HAL_Driver/Inc/stm32f0xx_ll_usart.h ****   */
 778:Drivers/STM32F0xx_HAL_Driver/Inc/stm32f0xx_ll_usart.h **** __STATIC_INLINE uint32_t LL_USART_GetWakeUpMethod(USART_TypeDef *USARTx)
 779:Drivers/STM32F0xx_HAL_Driver/Inc/stm32f0xx_ll_usart.h **** {
 780:Drivers/STM32F0xx_HAL_Driver/Inc/stm32f0xx_ll_usart.h ****   return (uint32_t)(READ_BIT(USARTx->CR1, USART_CR1_WAKE));
 781:Drivers/STM32F0xx_HAL_Driver/Inc/stm32f0xx_ll_usart.h **** }
 782:Drivers/STM32F0xx_HAL_Driver/Inc/stm32f0xx_ll_usart.h **** 
 783:Drivers/STM32F0xx_HAL_Driver/Inc/stm32f0xx_ll_usart.h **** /**
 784:Drivers/STM32F0xx_HAL_Driver/Inc/stm32f0xx_ll_usart.h ****   * @brief  Set Word length (i.e. nb of data bits, excluding start and stop bits)
 785:Drivers/STM32F0xx_HAL_Driver/Inc/stm32f0xx_ll_usart.h ****   * @rmtoll CR1          M0            LL_USART_SetDataWidth\n
 786:Drivers/STM32F0xx_HAL_Driver/Inc/stm32f0xx_ll_usart.h ****   *         CR1          M1            LL_USART_SetDataWidth
 787:Drivers/STM32F0xx_HAL_Driver/Inc/stm32f0xx_ll_usart.h ****   * @param  USARTx USART Instance
 788:Drivers/STM32F0xx_HAL_Driver/Inc/stm32f0xx_ll_usart.h ****   * @param  DataWidth This parameter can be one of the following values:
 789:Drivers/STM32F0xx_HAL_Driver/Inc/stm32f0xx_ll_usart.h ****   *         @arg @ref LL_USART_DATAWIDTH_7B (*)
 790:Drivers/STM32F0xx_HAL_Driver/Inc/stm32f0xx_ll_usart.h ****   *         @arg @ref LL_USART_DATAWIDTH_8B
 791:Drivers/STM32F0xx_HAL_Driver/Inc/stm32f0xx_ll_usart.h ****   *         @arg @ref LL_USART_DATAWIDTH_9B
 792:Drivers/STM32F0xx_HAL_Driver/Inc/stm32f0xx_ll_usart.h ****   *
 793:Drivers/STM32F0xx_HAL_Driver/Inc/stm32f0xx_ll_usart.h ****   *         (*) Values not available on all devices
 794:Drivers/STM32F0xx_HAL_Driver/Inc/stm32f0xx_ll_usart.h ****   * @retval None
 795:Drivers/STM32F0xx_HAL_Driver/Inc/stm32f0xx_ll_usart.h ****   */
 796:Drivers/STM32F0xx_HAL_Driver/Inc/stm32f0xx_ll_usart.h **** __STATIC_INLINE void LL_USART_SetDataWidth(USART_TypeDef *USARTx, uint32_t DataWidth)
 797:Drivers/STM32F0xx_HAL_Driver/Inc/stm32f0xx_ll_usart.h **** {
 798:Drivers/STM32F0xx_HAL_Driver/Inc/stm32f0xx_ll_usart.h ****   MODIFY_REG(USARTx->CR1, USART_CR1_M, DataWidth);
 799:Drivers/STM32F0xx_HAL_Driver/Inc/stm32f0xx_ll_usart.h **** }
 800:Drivers/STM32F0xx_HAL_Driver/Inc/stm32f0xx_ll_usart.h **** 
 801:Drivers/STM32F0xx_HAL_Driver/Inc/stm32f0xx_ll_usart.h **** /**
 802:Drivers/STM32F0xx_HAL_Driver/Inc/stm32f0xx_ll_usart.h ****   * @brief  Return Word length (i.e. nb of data bits, excluding start and stop bits)
 803:Drivers/STM32F0xx_HAL_Driver/Inc/stm32f0xx_ll_usart.h ****   * @rmtoll CR1          M0            LL_USART_GetDataWidth\n
 804:Drivers/STM32F0xx_HAL_Driver/Inc/stm32f0xx_ll_usart.h ****   *         CR1          M1            LL_USART_GetDataWidth
 805:Drivers/STM32F0xx_HAL_Driver/Inc/stm32f0xx_ll_usart.h ****   * @param  USARTx USART Instance
 806:Drivers/STM32F0xx_HAL_Driver/Inc/stm32f0xx_ll_usart.h ****   * @retval Returned value can be one of the following values:
 807:Drivers/STM32F0xx_HAL_Driver/Inc/stm32f0xx_ll_usart.h ****   *         @arg @ref LL_USART_DATAWIDTH_7B (*)
 808:Drivers/STM32F0xx_HAL_Driver/Inc/stm32f0xx_ll_usart.h ****   *         @arg @ref LL_USART_DATAWIDTH_8B
 809:Drivers/STM32F0xx_HAL_Driver/Inc/stm32f0xx_ll_usart.h ****   *         @arg @ref LL_USART_DATAWIDTH_9B
 810:Drivers/STM32F0xx_HAL_Driver/Inc/stm32f0xx_ll_usart.h ****   *
 811:Drivers/STM32F0xx_HAL_Driver/Inc/stm32f0xx_ll_usart.h ****   *         (*) Values not available on all devices
 812:Drivers/STM32F0xx_HAL_Driver/Inc/stm32f0xx_ll_usart.h ****   */
 813:Drivers/STM32F0xx_HAL_Driver/Inc/stm32f0xx_ll_usart.h **** __STATIC_INLINE uint32_t LL_USART_GetDataWidth(USART_TypeDef *USARTx)
 814:Drivers/STM32F0xx_HAL_Driver/Inc/stm32f0xx_ll_usart.h **** {
 815:Drivers/STM32F0xx_HAL_Driver/Inc/stm32f0xx_ll_usart.h ****   return (uint32_t)(READ_BIT(USARTx->CR1, USART_CR1_M));
 816:Drivers/STM32F0xx_HAL_Driver/Inc/stm32f0xx_ll_usart.h **** }
 817:Drivers/STM32F0xx_HAL_Driver/Inc/stm32f0xx_ll_usart.h **** 
 818:Drivers/STM32F0xx_HAL_Driver/Inc/stm32f0xx_ll_usart.h **** /**
ARM GAS  C:\Users\ADMINI~1\AppData\Local\Temp\cco9rtsT.s 			page 32


 819:Drivers/STM32F0xx_HAL_Driver/Inc/stm32f0xx_ll_usart.h ****   * @brief  Allow switch between Mute Mode and Active mode
 820:Drivers/STM32F0xx_HAL_Driver/Inc/stm32f0xx_ll_usart.h ****   * @rmtoll CR1          MME           LL_USART_EnableMuteMode
 821:Drivers/STM32F0xx_HAL_Driver/Inc/stm32f0xx_ll_usart.h ****   * @param  USARTx USART Instance
 822:Drivers/STM32F0xx_HAL_Driver/Inc/stm32f0xx_ll_usart.h ****   * @retval None
 823:Drivers/STM32F0xx_HAL_Driver/Inc/stm32f0xx_ll_usart.h ****   */
 824:Drivers/STM32F0xx_HAL_Driver/Inc/stm32f0xx_ll_usart.h **** __STATIC_INLINE void LL_USART_EnableMuteMode(USART_TypeDef *USARTx)
 825:Drivers/STM32F0xx_HAL_Driver/Inc/stm32f0xx_ll_usart.h **** {
 826:Drivers/STM32F0xx_HAL_Driver/Inc/stm32f0xx_ll_usart.h ****   ATOMIC_SET_BIT(USARTx->CR1, USART_CR1_MME);
 827:Drivers/STM32F0xx_HAL_Driver/Inc/stm32f0xx_ll_usart.h **** }
 828:Drivers/STM32F0xx_HAL_Driver/Inc/stm32f0xx_ll_usart.h **** 
 829:Drivers/STM32F0xx_HAL_Driver/Inc/stm32f0xx_ll_usart.h **** /**
 830:Drivers/STM32F0xx_HAL_Driver/Inc/stm32f0xx_ll_usart.h ****   * @brief  Prevent Mute Mode use. Set Receiver in active mode permanently.
 831:Drivers/STM32F0xx_HAL_Driver/Inc/stm32f0xx_ll_usart.h ****   * @rmtoll CR1          MME           LL_USART_DisableMuteMode
 832:Drivers/STM32F0xx_HAL_Driver/Inc/stm32f0xx_ll_usart.h ****   * @param  USARTx USART Instance
 833:Drivers/STM32F0xx_HAL_Driver/Inc/stm32f0xx_ll_usart.h ****   * @retval None
 834:Drivers/STM32F0xx_HAL_Driver/Inc/stm32f0xx_ll_usart.h ****   */
 835:Drivers/STM32F0xx_HAL_Driver/Inc/stm32f0xx_ll_usart.h **** __STATIC_INLINE void LL_USART_DisableMuteMode(USART_TypeDef *USARTx)
 836:Drivers/STM32F0xx_HAL_Driver/Inc/stm32f0xx_ll_usart.h **** {
 837:Drivers/STM32F0xx_HAL_Driver/Inc/stm32f0xx_ll_usart.h ****   ATOMIC_CLEAR_BIT(USARTx->CR1, USART_CR1_MME);
 838:Drivers/STM32F0xx_HAL_Driver/Inc/stm32f0xx_ll_usart.h **** }
 839:Drivers/STM32F0xx_HAL_Driver/Inc/stm32f0xx_ll_usart.h **** 
 840:Drivers/STM32F0xx_HAL_Driver/Inc/stm32f0xx_ll_usart.h **** /**
 841:Drivers/STM32F0xx_HAL_Driver/Inc/stm32f0xx_ll_usart.h ****   * @brief  Indicate if switch between Mute Mode and Active mode is allowed
 842:Drivers/STM32F0xx_HAL_Driver/Inc/stm32f0xx_ll_usart.h ****   * @rmtoll CR1          MME           LL_USART_IsEnabledMuteMode
 843:Drivers/STM32F0xx_HAL_Driver/Inc/stm32f0xx_ll_usart.h ****   * @param  USARTx USART Instance
 844:Drivers/STM32F0xx_HAL_Driver/Inc/stm32f0xx_ll_usart.h ****   * @retval State of bit (1 or 0).
 845:Drivers/STM32F0xx_HAL_Driver/Inc/stm32f0xx_ll_usart.h ****   */
 846:Drivers/STM32F0xx_HAL_Driver/Inc/stm32f0xx_ll_usart.h **** __STATIC_INLINE uint32_t LL_USART_IsEnabledMuteMode(USART_TypeDef *USARTx)
 847:Drivers/STM32F0xx_HAL_Driver/Inc/stm32f0xx_ll_usart.h **** {
 848:Drivers/STM32F0xx_HAL_Driver/Inc/stm32f0xx_ll_usart.h ****   return ((READ_BIT(USARTx->CR1, USART_CR1_MME) == (USART_CR1_MME)) ? 1UL : 0UL);
 849:Drivers/STM32F0xx_HAL_Driver/Inc/stm32f0xx_ll_usart.h **** }
 850:Drivers/STM32F0xx_HAL_Driver/Inc/stm32f0xx_ll_usart.h **** 
 851:Drivers/STM32F0xx_HAL_Driver/Inc/stm32f0xx_ll_usart.h **** /**
 852:Drivers/STM32F0xx_HAL_Driver/Inc/stm32f0xx_ll_usart.h ****   * @brief  Set Oversampling to 8-bit or 16-bit mode
 853:Drivers/STM32F0xx_HAL_Driver/Inc/stm32f0xx_ll_usart.h ****   * @rmtoll CR1          OVER8         LL_USART_SetOverSampling
 854:Drivers/STM32F0xx_HAL_Driver/Inc/stm32f0xx_ll_usart.h ****   * @param  USARTx USART Instance
 855:Drivers/STM32F0xx_HAL_Driver/Inc/stm32f0xx_ll_usart.h ****   * @param  OverSampling This parameter can be one of the following values:
 856:Drivers/STM32F0xx_HAL_Driver/Inc/stm32f0xx_ll_usart.h ****   *         @arg @ref LL_USART_OVERSAMPLING_16
 857:Drivers/STM32F0xx_HAL_Driver/Inc/stm32f0xx_ll_usart.h ****   *         @arg @ref LL_USART_OVERSAMPLING_8
 858:Drivers/STM32F0xx_HAL_Driver/Inc/stm32f0xx_ll_usart.h ****   * @retval None
 859:Drivers/STM32F0xx_HAL_Driver/Inc/stm32f0xx_ll_usart.h ****   */
 860:Drivers/STM32F0xx_HAL_Driver/Inc/stm32f0xx_ll_usart.h **** __STATIC_INLINE void LL_USART_SetOverSampling(USART_TypeDef *USARTx, uint32_t OverSampling)
 861:Drivers/STM32F0xx_HAL_Driver/Inc/stm32f0xx_ll_usart.h **** {
 862:Drivers/STM32F0xx_HAL_Driver/Inc/stm32f0xx_ll_usart.h ****   MODIFY_REG(USARTx->CR1, USART_CR1_OVER8, OverSampling);
 863:Drivers/STM32F0xx_HAL_Driver/Inc/stm32f0xx_ll_usart.h **** }
 864:Drivers/STM32F0xx_HAL_Driver/Inc/stm32f0xx_ll_usart.h **** 
 865:Drivers/STM32F0xx_HAL_Driver/Inc/stm32f0xx_ll_usart.h **** /**
 866:Drivers/STM32F0xx_HAL_Driver/Inc/stm32f0xx_ll_usart.h ****   * @brief  Return Oversampling mode
 867:Drivers/STM32F0xx_HAL_Driver/Inc/stm32f0xx_ll_usart.h ****   * @rmtoll CR1          OVER8         LL_USART_GetOverSampling
 868:Drivers/STM32F0xx_HAL_Driver/Inc/stm32f0xx_ll_usart.h ****   * @param  USARTx USART Instance
 869:Drivers/STM32F0xx_HAL_Driver/Inc/stm32f0xx_ll_usart.h ****   * @retval Returned value can be one of the following values:
 870:Drivers/STM32F0xx_HAL_Driver/Inc/stm32f0xx_ll_usart.h ****   *         @arg @ref LL_USART_OVERSAMPLING_16
 871:Drivers/STM32F0xx_HAL_Driver/Inc/stm32f0xx_ll_usart.h ****   *         @arg @ref LL_USART_OVERSAMPLING_8
 872:Drivers/STM32F0xx_HAL_Driver/Inc/stm32f0xx_ll_usart.h ****   */
 873:Drivers/STM32F0xx_HAL_Driver/Inc/stm32f0xx_ll_usart.h **** __STATIC_INLINE uint32_t LL_USART_GetOverSampling(USART_TypeDef *USARTx)
 874:Drivers/STM32F0xx_HAL_Driver/Inc/stm32f0xx_ll_usart.h **** {
 875:Drivers/STM32F0xx_HAL_Driver/Inc/stm32f0xx_ll_usart.h ****   return (uint32_t)(READ_BIT(USARTx->CR1, USART_CR1_OVER8));
ARM GAS  C:\Users\ADMINI~1\AppData\Local\Temp\cco9rtsT.s 			page 33


 876:Drivers/STM32F0xx_HAL_Driver/Inc/stm32f0xx_ll_usart.h **** }
 877:Drivers/STM32F0xx_HAL_Driver/Inc/stm32f0xx_ll_usart.h **** 
 878:Drivers/STM32F0xx_HAL_Driver/Inc/stm32f0xx_ll_usart.h **** /**
 879:Drivers/STM32F0xx_HAL_Driver/Inc/stm32f0xx_ll_usart.h ****   * @brief  Configure if Clock pulse of the last data bit is output to the SCLK pin or not
 880:Drivers/STM32F0xx_HAL_Driver/Inc/stm32f0xx_ll_usart.h ****   * @note   Macro IS_USART_INSTANCE(USARTx) can be used to check whether or not
 881:Drivers/STM32F0xx_HAL_Driver/Inc/stm32f0xx_ll_usart.h ****   *         Synchronous mode is supported by the USARTx instance.
 882:Drivers/STM32F0xx_HAL_Driver/Inc/stm32f0xx_ll_usart.h ****   * @rmtoll CR2          LBCL          LL_USART_SetLastClkPulseOutput
 883:Drivers/STM32F0xx_HAL_Driver/Inc/stm32f0xx_ll_usart.h ****   * @param  USARTx USART Instance
 884:Drivers/STM32F0xx_HAL_Driver/Inc/stm32f0xx_ll_usart.h ****   * @param  LastBitClockPulse This parameter can be one of the following values:
 885:Drivers/STM32F0xx_HAL_Driver/Inc/stm32f0xx_ll_usart.h ****   *         @arg @ref LL_USART_LASTCLKPULSE_NO_OUTPUT
 886:Drivers/STM32F0xx_HAL_Driver/Inc/stm32f0xx_ll_usart.h ****   *         @arg @ref LL_USART_LASTCLKPULSE_OUTPUT
 887:Drivers/STM32F0xx_HAL_Driver/Inc/stm32f0xx_ll_usart.h ****   * @retval None
 888:Drivers/STM32F0xx_HAL_Driver/Inc/stm32f0xx_ll_usart.h ****   */
 889:Drivers/STM32F0xx_HAL_Driver/Inc/stm32f0xx_ll_usart.h **** __STATIC_INLINE void LL_USART_SetLastClkPulseOutput(USART_TypeDef *USARTx, uint32_t LastBitClockPul
 890:Drivers/STM32F0xx_HAL_Driver/Inc/stm32f0xx_ll_usart.h **** {
 891:Drivers/STM32F0xx_HAL_Driver/Inc/stm32f0xx_ll_usart.h ****   MODIFY_REG(USARTx->CR2, USART_CR2_LBCL, LastBitClockPulse);
 892:Drivers/STM32F0xx_HAL_Driver/Inc/stm32f0xx_ll_usart.h **** }
 893:Drivers/STM32F0xx_HAL_Driver/Inc/stm32f0xx_ll_usart.h **** 
 894:Drivers/STM32F0xx_HAL_Driver/Inc/stm32f0xx_ll_usart.h **** /**
 895:Drivers/STM32F0xx_HAL_Driver/Inc/stm32f0xx_ll_usart.h ****   * @brief  Retrieve Clock pulse of the last data bit output configuration
 896:Drivers/STM32F0xx_HAL_Driver/Inc/stm32f0xx_ll_usart.h ****   *         (Last bit Clock pulse output to the SCLK pin or not)
 897:Drivers/STM32F0xx_HAL_Driver/Inc/stm32f0xx_ll_usart.h ****   * @note   Macro IS_USART_INSTANCE(USARTx) can be used to check whether or not
 898:Drivers/STM32F0xx_HAL_Driver/Inc/stm32f0xx_ll_usart.h ****   *         Synchronous mode is supported by the USARTx instance.
 899:Drivers/STM32F0xx_HAL_Driver/Inc/stm32f0xx_ll_usart.h ****   * @rmtoll CR2          LBCL          LL_USART_GetLastClkPulseOutput
 900:Drivers/STM32F0xx_HAL_Driver/Inc/stm32f0xx_ll_usart.h ****   * @param  USARTx USART Instance
 901:Drivers/STM32F0xx_HAL_Driver/Inc/stm32f0xx_ll_usart.h ****   * @retval Returned value can be one of the following values:
 902:Drivers/STM32F0xx_HAL_Driver/Inc/stm32f0xx_ll_usart.h ****   *         @arg @ref LL_USART_LASTCLKPULSE_NO_OUTPUT
 903:Drivers/STM32F0xx_HAL_Driver/Inc/stm32f0xx_ll_usart.h ****   *         @arg @ref LL_USART_LASTCLKPULSE_OUTPUT
 904:Drivers/STM32F0xx_HAL_Driver/Inc/stm32f0xx_ll_usart.h ****   */
 905:Drivers/STM32F0xx_HAL_Driver/Inc/stm32f0xx_ll_usart.h **** __STATIC_INLINE uint32_t LL_USART_GetLastClkPulseOutput(USART_TypeDef *USARTx)
 906:Drivers/STM32F0xx_HAL_Driver/Inc/stm32f0xx_ll_usart.h **** {
 907:Drivers/STM32F0xx_HAL_Driver/Inc/stm32f0xx_ll_usart.h ****   return (uint32_t)(READ_BIT(USARTx->CR2, USART_CR2_LBCL));
 908:Drivers/STM32F0xx_HAL_Driver/Inc/stm32f0xx_ll_usart.h **** }
 909:Drivers/STM32F0xx_HAL_Driver/Inc/stm32f0xx_ll_usart.h **** 
 910:Drivers/STM32F0xx_HAL_Driver/Inc/stm32f0xx_ll_usart.h **** /**
 911:Drivers/STM32F0xx_HAL_Driver/Inc/stm32f0xx_ll_usart.h ****   * @brief  Select the phase of the clock output on the SCLK pin in synchronous mode
 912:Drivers/STM32F0xx_HAL_Driver/Inc/stm32f0xx_ll_usart.h ****   * @note   Macro IS_USART_INSTANCE(USARTx) can be used to check whether or not
 913:Drivers/STM32F0xx_HAL_Driver/Inc/stm32f0xx_ll_usart.h ****   *         Synchronous mode is supported by the USARTx instance.
 914:Drivers/STM32F0xx_HAL_Driver/Inc/stm32f0xx_ll_usart.h ****   * @rmtoll CR2          CPHA          LL_USART_SetClockPhase
 915:Drivers/STM32F0xx_HAL_Driver/Inc/stm32f0xx_ll_usart.h ****   * @param  USARTx USART Instance
 916:Drivers/STM32F0xx_HAL_Driver/Inc/stm32f0xx_ll_usart.h ****   * @param  ClockPhase This parameter can be one of the following values:
 917:Drivers/STM32F0xx_HAL_Driver/Inc/stm32f0xx_ll_usart.h ****   *         @arg @ref LL_USART_PHASE_1EDGE
 918:Drivers/STM32F0xx_HAL_Driver/Inc/stm32f0xx_ll_usart.h ****   *         @arg @ref LL_USART_PHASE_2EDGE
 919:Drivers/STM32F0xx_HAL_Driver/Inc/stm32f0xx_ll_usart.h ****   * @retval None
 920:Drivers/STM32F0xx_HAL_Driver/Inc/stm32f0xx_ll_usart.h ****   */
 921:Drivers/STM32F0xx_HAL_Driver/Inc/stm32f0xx_ll_usart.h **** __STATIC_INLINE void LL_USART_SetClockPhase(USART_TypeDef *USARTx, uint32_t ClockPhase)
 922:Drivers/STM32F0xx_HAL_Driver/Inc/stm32f0xx_ll_usart.h **** {
 923:Drivers/STM32F0xx_HAL_Driver/Inc/stm32f0xx_ll_usart.h ****   MODIFY_REG(USARTx->CR2, USART_CR2_CPHA, ClockPhase);
 924:Drivers/STM32F0xx_HAL_Driver/Inc/stm32f0xx_ll_usart.h **** }
 925:Drivers/STM32F0xx_HAL_Driver/Inc/stm32f0xx_ll_usart.h **** 
 926:Drivers/STM32F0xx_HAL_Driver/Inc/stm32f0xx_ll_usart.h **** /**
 927:Drivers/STM32F0xx_HAL_Driver/Inc/stm32f0xx_ll_usart.h ****   * @brief  Return phase of the clock output on the SCLK pin in synchronous mode
 928:Drivers/STM32F0xx_HAL_Driver/Inc/stm32f0xx_ll_usart.h ****   * @note   Macro IS_USART_INSTANCE(USARTx) can be used to check whether or not
 929:Drivers/STM32F0xx_HAL_Driver/Inc/stm32f0xx_ll_usart.h ****   *         Synchronous mode is supported by the USARTx instance.
 930:Drivers/STM32F0xx_HAL_Driver/Inc/stm32f0xx_ll_usart.h ****   * @rmtoll CR2          CPHA          LL_USART_GetClockPhase
 931:Drivers/STM32F0xx_HAL_Driver/Inc/stm32f0xx_ll_usart.h ****   * @param  USARTx USART Instance
 932:Drivers/STM32F0xx_HAL_Driver/Inc/stm32f0xx_ll_usart.h ****   * @retval Returned value can be one of the following values:
ARM GAS  C:\Users\ADMINI~1\AppData\Local\Temp\cco9rtsT.s 			page 34


 933:Drivers/STM32F0xx_HAL_Driver/Inc/stm32f0xx_ll_usart.h ****   *         @arg @ref LL_USART_PHASE_1EDGE
 934:Drivers/STM32F0xx_HAL_Driver/Inc/stm32f0xx_ll_usart.h ****   *         @arg @ref LL_USART_PHASE_2EDGE
 935:Drivers/STM32F0xx_HAL_Driver/Inc/stm32f0xx_ll_usart.h ****   */
 936:Drivers/STM32F0xx_HAL_Driver/Inc/stm32f0xx_ll_usart.h **** __STATIC_INLINE uint32_t LL_USART_GetClockPhase(USART_TypeDef *USARTx)
 937:Drivers/STM32F0xx_HAL_Driver/Inc/stm32f0xx_ll_usart.h **** {
 938:Drivers/STM32F0xx_HAL_Driver/Inc/stm32f0xx_ll_usart.h ****   return (uint32_t)(READ_BIT(USARTx->CR2, USART_CR2_CPHA));
 939:Drivers/STM32F0xx_HAL_Driver/Inc/stm32f0xx_ll_usart.h **** }
 940:Drivers/STM32F0xx_HAL_Driver/Inc/stm32f0xx_ll_usart.h **** 
 941:Drivers/STM32F0xx_HAL_Driver/Inc/stm32f0xx_ll_usart.h **** /**
 942:Drivers/STM32F0xx_HAL_Driver/Inc/stm32f0xx_ll_usart.h ****   * @brief  Select the polarity of the clock output on the SCLK pin in synchronous mode
 943:Drivers/STM32F0xx_HAL_Driver/Inc/stm32f0xx_ll_usart.h ****   * @note   Macro IS_USART_INSTANCE(USARTx) can be used to check whether or not
 944:Drivers/STM32F0xx_HAL_Driver/Inc/stm32f0xx_ll_usart.h ****   *         Synchronous mode is supported by the USARTx instance.
 945:Drivers/STM32F0xx_HAL_Driver/Inc/stm32f0xx_ll_usart.h ****   * @rmtoll CR2          CPOL          LL_USART_SetClockPolarity
 946:Drivers/STM32F0xx_HAL_Driver/Inc/stm32f0xx_ll_usart.h ****   * @param  USARTx USART Instance
 947:Drivers/STM32F0xx_HAL_Driver/Inc/stm32f0xx_ll_usart.h ****   * @param  ClockPolarity This parameter can be one of the following values:
 948:Drivers/STM32F0xx_HAL_Driver/Inc/stm32f0xx_ll_usart.h ****   *         @arg @ref LL_USART_POLARITY_LOW
 949:Drivers/STM32F0xx_HAL_Driver/Inc/stm32f0xx_ll_usart.h ****   *         @arg @ref LL_USART_POLARITY_HIGH
 950:Drivers/STM32F0xx_HAL_Driver/Inc/stm32f0xx_ll_usart.h ****   * @retval None
 951:Drivers/STM32F0xx_HAL_Driver/Inc/stm32f0xx_ll_usart.h ****   */
 952:Drivers/STM32F0xx_HAL_Driver/Inc/stm32f0xx_ll_usart.h **** __STATIC_INLINE void LL_USART_SetClockPolarity(USART_TypeDef *USARTx, uint32_t ClockPolarity)
 953:Drivers/STM32F0xx_HAL_Driver/Inc/stm32f0xx_ll_usart.h **** {
 954:Drivers/STM32F0xx_HAL_Driver/Inc/stm32f0xx_ll_usart.h ****   MODIFY_REG(USARTx->CR2, USART_CR2_CPOL, ClockPolarity);
 955:Drivers/STM32F0xx_HAL_Driver/Inc/stm32f0xx_ll_usart.h **** }
 956:Drivers/STM32F0xx_HAL_Driver/Inc/stm32f0xx_ll_usart.h **** 
 957:Drivers/STM32F0xx_HAL_Driver/Inc/stm32f0xx_ll_usart.h **** /**
 958:Drivers/STM32F0xx_HAL_Driver/Inc/stm32f0xx_ll_usart.h ****   * @brief  Return polarity of the clock output on the SCLK pin in synchronous mode
 959:Drivers/STM32F0xx_HAL_Driver/Inc/stm32f0xx_ll_usart.h ****   * @note   Macro IS_USART_INSTANCE(USARTx) can be used to check whether or not
 960:Drivers/STM32F0xx_HAL_Driver/Inc/stm32f0xx_ll_usart.h ****   *         Synchronous mode is supported by the USARTx instance.
 961:Drivers/STM32F0xx_HAL_Driver/Inc/stm32f0xx_ll_usart.h ****   * @rmtoll CR2          CPOL          LL_USART_GetClockPolarity
 962:Drivers/STM32F0xx_HAL_Driver/Inc/stm32f0xx_ll_usart.h ****   * @param  USARTx USART Instance
 963:Drivers/STM32F0xx_HAL_Driver/Inc/stm32f0xx_ll_usart.h ****   * @retval Returned value can be one of the following values:
 964:Drivers/STM32F0xx_HAL_Driver/Inc/stm32f0xx_ll_usart.h ****   *         @arg @ref LL_USART_POLARITY_LOW
 965:Drivers/STM32F0xx_HAL_Driver/Inc/stm32f0xx_ll_usart.h ****   *         @arg @ref LL_USART_POLARITY_HIGH
 966:Drivers/STM32F0xx_HAL_Driver/Inc/stm32f0xx_ll_usart.h ****   */
 967:Drivers/STM32F0xx_HAL_Driver/Inc/stm32f0xx_ll_usart.h **** __STATIC_INLINE uint32_t LL_USART_GetClockPolarity(USART_TypeDef *USARTx)
 968:Drivers/STM32F0xx_HAL_Driver/Inc/stm32f0xx_ll_usart.h **** {
 969:Drivers/STM32F0xx_HAL_Driver/Inc/stm32f0xx_ll_usart.h ****   return (uint32_t)(READ_BIT(USARTx->CR2, USART_CR2_CPOL));
 970:Drivers/STM32F0xx_HAL_Driver/Inc/stm32f0xx_ll_usart.h **** }
 971:Drivers/STM32F0xx_HAL_Driver/Inc/stm32f0xx_ll_usart.h **** 
 972:Drivers/STM32F0xx_HAL_Driver/Inc/stm32f0xx_ll_usart.h **** /**
 973:Drivers/STM32F0xx_HAL_Driver/Inc/stm32f0xx_ll_usart.h ****   * @brief  Configure Clock signal format (Phase Polarity and choice about output of last bit clock
 974:Drivers/STM32F0xx_HAL_Driver/Inc/stm32f0xx_ll_usart.h ****   * @note   Macro IS_USART_INSTANCE(USARTx) can be used to check whether or not
 975:Drivers/STM32F0xx_HAL_Driver/Inc/stm32f0xx_ll_usart.h ****   *         Synchronous mode is supported by the USARTx instance.
 976:Drivers/STM32F0xx_HAL_Driver/Inc/stm32f0xx_ll_usart.h ****   * @note   Call of this function is equivalent to following function call sequence :
 977:Drivers/STM32F0xx_HAL_Driver/Inc/stm32f0xx_ll_usart.h ****   *         - Clock Phase configuration using @ref LL_USART_SetClockPhase() function
 978:Drivers/STM32F0xx_HAL_Driver/Inc/stm32f0xx_ll_usart.h ****   *         - Clock Polarity configuration using @ref LL_USART_SetClockPolarity() function
 979:Drivers/STM32F0xx_HAL_Driver/Inc/stm32f0xx_ll_usart.h ****   *         - Output of Last bit Clock pulse configuration using @ref LL_USART_SetLastClkPulseOutpu
 980:Drivers/STM32F0xx_HAL_Driver/Inc/stm32f0xx_ll_usart.h ****   * @rmtoll CR2          CPHA          LL_USART_ConfigClock\n
 981:Drivers/STM32F0xx_HAL_Driver/Inc/stm32f0xx_ll_usart.h ****   *         CR2          CPOL          LL_USART_ConfigClock\n
 982:Drivers/STM32F0xx_HAL_Driver/Inc/stm32f0xx_ll_usart.h ****   *         CR2          LBCL          LL_USART_ConfigClock
 983:Drivers/STM32F0xx_HAL_Driver/Inc/stm32f0xx_ll_usart.h ****   * @param  USARTx USART Instance
 984:Drivers/STM32F0xx_HAL_Driver/Inc/stm32f0xx_ll_usart.h ****   * @param  Phase This parameter can be one of the following values:
 985:Drivers/STM32F0xx_HAL_Driver/Inc/stm32f0xx_ll_usart.h ****   *         @arg @ref LL_USART_PHASE_1EDGE
 986:Drivers/STM32F0xx_HAL_Driver/Inc/stm32f0xx_ll_usart.h ****   *         @arg @ref LL_USART_PHASE_2EDGE
 987:Drivers/STM32F0xx_HAL_Driver/Inc/stm32f0xx_ll_usart.h ****   * @param  Polarity This parameter can be one of the following values:
 988:Drivers/STM32F0xx_HAL_Driver/Inc/stm32f0xx_ll_usart.h ****   *         @arg @ref LL_USART_POLARITY_LOW
 989:Drivers/STM32F0xx_HAL_Driver/Inc/stm32f0xx_ll_usart.h ****   *         @arg @ref LL_USART_POLARITY_HIGH
ARM GAS  C:\Users\ADMINI~1\AppData\Local\Temp\cco9rtsT.s 			page 35


 990:Drivers/STM32F0xx_HAL_Driver/Inc/stm32f0xx_ll_usart.h ****   * @param  LBCPOutput This parameter can be one of the following values:
 991:Drivers/STM32F0xx_HAL_Driver/Inc/stm32f0xx_ll_usart.h ****   *         @arg @ref LL_USART_LASTCLKPULSE_NO_OUTPUT
 992:Drivers/STM32F0xx_HAL_Driver/Inc/stm32f0xx_ll_usart.h ****   *         @arg @ref LL_USART_LASTCLKPULSE_OUTPUT
 993:Drivers/STM32F0xx_HAL_Driver/Inc/stm32f0xx_ll_usart.h ****   * @retval None
 994:Drivers/STM32F0xx_HAL_Driver/Inc/stm32f0xx_ll_usart.h ****   */
 995:Drivers/STM32F0xx_HAL_Driver/Inc/stm32f0xx_ll_usart.h **** __STATIC_INLINE void LL_USART_ConfigClock(USART_TypeDef *USARTx, uint32_t Phase, uint32_t Polarity,
 996:Drivers/STM32F0xx_HAL_Driver/Inc/stm32f0xx_ll_usart.h **** {
 997:Drivers/STM32F0xx_HAL_Driver/Inc/stm32f0xx_ll_usart.h ****   MODIFY_REG(USARTx->CR2, USART_CR2_CPHA | USART_CR2_CPOL | USART_CR2_LBCL, Phase | Polarity | LBCP
 998:Drivers/STM32F0xx_HAL_Driver/Inc/stm32f0xx_ll_usart.h **** }
 999:Drivers/STM32F0xx_HAL_Driver/Inc/stm32f0xx_ll_usart.h **** 
1000:Drivers/STM32F0xx_HAL_Driver/Inc/stm32f0xx_ll_usart.h **** /**
1001:Drivers/STM32F0xx_HAL_Driver/Inc/stm32f0xx_ll_usart.h ****   * @brief  Enable Clock output on SCLK pin
1002:Drivers/STM32F0xx_HAL_Driver/Inc/stm32f0xx_ll_usart.h ****   * @note   Macro IS_USART_INSTANCE(USARTx) can be used to check whether or not
1003:Drivers/STM32F0xx_HAL_Driver/Inc/stm32f0xx_ll_usart.h ****   *         Synchronous mode is supported by the USARTx instance.
1004:Drivers/STM32F0xx_HAL_Driver/Inc/stm32f0xx_ll_usart.h ****   * @rmtoll CR2          CLKEN         LL_USART_EnableSCLKOutput
1005:Drivers/STM32F0xx_HAL_Driver/Inc/stm32f0xx_ll_usart.h ****   * @param  USARTx USART Instance
1006:Drivers/STM32F0xx_HAL_Driver/Inc/stm32f0xx_ll_usart.h ****   * @retval None
1007:Drivers/STM32F0xx_HAL_Driver/Inc/stm32f0xx_ll_usart.h ****   */
1008:Drivers/STM32F0xx_HAL_Driver/Inc/stm32f0xx_ll_usart.h **** __STATIC_INLINE void LL_USART_EnableSCLKOutput(USART_TypeDef *USARTx)
1009:Drivers/STM32F0xx_HAL_Driver/Inc/stm32f0xx_ll_usart.h **** {
1010:Drivers/STM32F0xx_HAL_Driver/Inc/stm32f0xx_ll_usart.h ****   SET_BIT(USARTx->CR2, USART_CR2_CLKEN);
1011:Drivers/STM32F0xx_HAL_Driver/Inc/stm32f0xx_ll_usart.h **** }
1012:Drivers/STM32F0xx_HAL_Driver/Inc/stm32f0xx_ll_usart.h **** 
1013:Drivers/STM32F0xx_HAL_Driver/Inc/stm32f0xx_ll_usart.h **** /**
1014:Drivers/STM32F0xx_HAL_Driver/Inc/stm32f0xx_ll_usart.h ****   * @brief  Disable Clock output on SCLK pin
1015:Drivers/STM32F0xx_HAL_Driver/Inc/stm32f0xx_ll_usart.h ****   * @note   Macro IS_USART_INSTANCE(USARTx) can be used to check whether or not
1016:Drivers/STM32F0xx_HAL_Driver/Inc/stm32f0xx_ll_usart.h ****   *         Synchronous mode is supported by the USARTx instance.
1017:Drivers/STM32F0xx_HAL_Driver/Inc/stm32f0xx_ll_usart.h ****   * @rmtoll CR2          CLKEN         LL_USART_DisableSCLKOutput
1018:Drivers/STM32F0xx_HAL_Driver/Inc/stm32f0xx_ll_usart.h ****   * @param  USARTx USART Instance
1019:Drivers/STM32F0xx_HAL_Driver/Inc/stm32f0xx_ll_usart.h ****   * @retval None
1020:Drivers/STM32F0xx_HAL_Driver/Inc/stm32f0xx_ll_usart.h ****   */
1021:Drivers/STM32F0xx_HAL_Driver/Inc/stm32f0xx_ll_usart.h **** __STATIC_INLINE void LL_USART_DisableSCLKOutput(USART_TypeDef *USARTx)
1022:Drivers/STM32F0xx_HAL_Driver/Inc/stm32f0xx_ll_usart.h **** {
1023:Drivers/STM32F0xx_HAL_Driver/Inc/stm32f0xx_ll_usart.h ****   CLEAR_BIT(USARTx->CR2, USART_CR2_CLKEN);
1024:Drivers/STM32F0xx_HAL_Driver/Inc/stm32f0xx_ll_usart.h **** }
1025:Drivers/STM32F0xx_HAL_Driver/Inc/stm32f0xx_ll_usart.h **** 
1026:Drivers/STM32F0xx_HAL_Driver/Inc/stm32f0xx_ll_usart.h **** /**
1027:Drivers/STM32F0xx_HAL_Driver/Inc/stm32f0xx_ll_usart.h ****   * @brief  Indicate if Clock output on SCLK pin is enabled
1028:Drivers/STM32F0xx_HAL_Driver/Inc/stm32f0xx_ll_usart.h ****   * @note   Macro IS_USART_INSTANCE(USARTx) can be used to check whether or not
1029:Drivers/STM32F0xx_HAL_Driver/Inc/stm32f0xx_ll_usart.h ****   *         Synchronous mode is supported by the USARTx instance.
1030:Drivers/STM32F0xx_HAL_Driver/Inc/stm32f0xx_ll_usart.h ****   * @rmtoll CR2          CLKEN         LL_USART_IsEnabledSCLKOutput
1031:Drivers/STM32F0xx_HAL_Driver/Inc/stm32f0xx_ll_usart.h ****   * @param  USARTx USART Instance
1032:Drivers/STM32F0xx_HAL_Driver/Inc/stm32f0xx_ll_usart.h ****   * @retval State of bit (1 or 0).
1033:Drivers/STM32F0xx_HAL_Driver/Inc/stm32f0xx_ll_usart.h ****   */
1034:Drivers/STM32F0xx_HAL_Driver/Inc/stm32f0xx_ll_usart.h **** __STATIC_INLINE uint32_t LL_USART_IsEnabledSCLKOutput(USART_TypeDef *USARTx)
1035:Drivers/STM32F0xx_HAL_Driver/Inc/stm32f0xx_ll_usart.h **** {
1036:Drivers/STM32F0xx_HAL_Driver/Inc/stm32f0xx_ll_usart.h ****   return ((READ_BIT(USARTx->CR2, USART_CR2_CLKEN) == (USART_CR2_CLKEN)) ? 1UL : 0UL);
1037:Drivers/STM32F0xx_HAL_Driver/Inc/stm32f0xx_ll_usart.h **** }
1038:Drivers/STM32F0xx_HAL_Driver/Inc/stm32f0xx_ll_usart.h **** 
1039:Drivers/STM32F0xx_HAL_Driver/Inc/stm32f0xx_ll_usart.h **** /**
1040:Drivers/STM32F0xx_HAL_Driver/Inc/stm32f0xx_ll_usart.h ****   * @brief  Set the length of the stop bits
1041:Drivers/STM32F0xx_HAL_Driver/Inc/stm32f0xx_ll_usart.h ****   * @rmtoll CR2          STOP          LL_USART_SetStopBitsLength
1042:Drivers/STM32F0xx_HAL_Driver/Inc/stm32f0xx_ll_usart.h ****   * @param  USARTx USART Instance
1043:Drivers/STM32F0xx_HAL_Driver/Inc/stm32f0xx_ll_usart.h ****   * @param  StopBits This parameter can be one of the following values:
1044:Drivers/STM32F0xx_HAL_Driver/Inc/stm32f0xx_ll_usart.h ****   *         @arg @ref LL_USART_STOPBITS_0_5 (*)
1045:Drivers/STM32F0xx_HAL_Driver/Inc/stm32f0xx_ll_usart.h ****   *         @arg @ref LL_USART_STOPBITS_1
1046:Drivers/STM32F0xx_HAL_Driver/Inc/stm32f0xx_ll_usart.h ****   *         @arg @ref LL_USART_STOPBITS_1_5 (*)
ARM GAS  C:\Users\ADMINI~1\AppData\Local\Temp\cco9rtsT.s 			page 36


1047:Drivers/STM32F0xx_HAL_Driver/Inc/stm32f0xx_ll_usart.h ****   *         @arg @ref LL_USART_STOPBITS_2
1048:Drivers/STM32F0xx_HAL_Driver/Inc/stm32f0xx_ll_usart.h ****   *
1049:Drivers/STM32F0xx_HAL_Driver/Inc/stm32f0xx_ll_usart.h ****   *         (*) Values not available on all devices
1050:Drivers/STM32F0xx_HAL_Driver/Inc/stm32f0xx_ll_usart.h ****   * @retval None
1051:Drivers/STM32F0xx_HAL_Driver/Inc/stm32f0xx_ll_usart.h ****   */
1052:Drivers/STM32F0xx_HAL_Driver/Inc/stm32f0xx_ll_usart.h **** __STATIC_INLINE void LL_USART_SetStopBitsLength(USART_TypeDef *USARTx, uint32_t StopBits)
1053:Drivers/STM32F0xx_HAL_Driver/Inc/stm32f0xx_ll_usart.h **** {
1054:Drivers/STM32F0xx_HAL_Driver/Inc/stm32f0xx_ll_usart.h ****   MODIFY_REG(USARTx->CR2, USART_CR2_STOP, StopBits);
1055:Drivers/STM32F0xx_HAL_Driver/Inc/stm32f0xx_ll_usart.h **** }
1056:Drivers/STM32F0xx_HAL_Driver/Inc/stm32f0xx_ll_usart.h **** 
1057:Drivers/STM32F0xx_HAL_Driver/Inc/stm32f0xx_ll_usart.h **** /**
1058:Drivers/STM32F0xx_HAL_Driver/Inc/stm32f0xx_ll_usart.h ****   * @brief  Retrieve the length of the stop bits
1059:Drivers/STM32F0xx_HAL_Driver/Inc/stm32f0xx_ll_usart.h ****   * @rmtoll CR2          STOP          LL_USART_GetStopBitsLength
1060:Drivers/STM32F0xx_HAL_Driver/Inc/stm32f0xx_ll_usart.h ****   * @param  USARTx USART Instance
1061:Drivers/STM32F0xx_HAL_Driver/Inc/stm32f0xx_ll_usart.h ****   * @retval Returned value can be one of the following values:
1062:Drivers/STM32F0xx_HAL_Driver/Inc/stm32f0xx_ll_usart.h ****   *         @arg @ref LL_USART_STOPBITS_0_5 (*)
1063:Drivers/STM32F0xx_HAL_Driver/Inc/stm32f0xx_ll_usart.h ****   *         @arg @ref LL_USART_STOPBITS_1
1064:Drivers/STM32F0xx_HAL_Driver/Inc/stm32f0xx_ll_usart.h ****   *         @arg @ref LL_USART_STOPBITS_1_5 (*)
1065:Drivers/STM32F0xx_HAL_Driver/Inc/stm32f0xx_ll_usart.h ****   *         @arg @ref LL_USART_STOPBITS_2
1066:Drivers/STM32F0xx_HAL_Driver/Inc/stm32f0xx_ll_usart.h ****   *
1067:Drivers/STM32F0xx_HAL_Driver/Inc/stm32f0xx_ll_usart.h ****   *         (*) Values not available on all devices
1068:Drivers/STM32F0xx_HAL_Driver/Inc/stm32f0xx_ll_usart.h ****   */
1069:Drivers/STM32F0xx_HAL_Driver/Inc/stm32f0xx_ll_usart.h **** __STATIC_INLINE uint32_t LL_USART_GetStopBitsLength(USART_TypeDef *USARTx)
1070:Drivers/STM32F0xx_HAL_Driver/Inc/stm32f0xx_ll_usart.h **** {
1071:Drivers/STM32F0xx_HAL_Driver/Inc/stm32f0xx_ll_usart.h ****   return (uint32_t)(READ_BIT(USARTx->CR2, USART_CR2_STOP));
1072:Drivers/STM32F0xx_HAL_Driver/Inc/stm32f0xx_ll_usart.h **** }
1073:Drivers/STM32F0xx_HAL_Driver/Inc/stm32f0xx_ll_usart.h **** 
1074:Drivers/STM32F0xx_HAL_Driver/Inc/stm32f0xx_ll_usart.h **** /**
1075:Drivers/STM32F0xx_HAL_Driver/Inc/stm32f0xx_ll_usart.h ****   * @brief  Configure Character frame format (Datawidth, Parity control, Stop Bits)
1076:Drivers/STM32F0xx_HAL_Driver/Inc/stm32f0xx_ll_usart.h ****   * @note   Call of this function is equivalent to following function call sequence :
1077:Drivers/STM32F0xx_HAL_Driver/Inc/stm32f0xx_ll_usart.h ****   *         - Data Width configuration using @ref LL_USART_SetDataWidth() function
1078:Drivers/STM32F0xx_HAL_Driver/Inc/stm32f0xx_ll_usart.h ****   *         - Parity Control and mode configuration using @ref LL_USART_SetParity() function
1079:Drivers/STM32F0xx_HAL_Driver/Inc/stm32f0xx_ll_usart.h ****   *         - Stop bits configuration using @ref LL_USART_SetStopBitsLength() function
1080:Drivers/STM32F0xx_HAL_Driver/Inc/stm32f0xx_ll_usart.h ****   * @rmtoll CR1          PS            LL_USART_ConfigCharacter\n
1081:Drivers/STM32F0xx_HAL_Driver/Inc/stm32f0xx_ll_usart.h ****   *         CR1          PCE           LL_USART_ConfigCharacter\n
1082:Drivers/STM32F0xx_HAL_Driver/Inc/stm32f0xx_ll_usart.h ****   *         CR1          M0            LL_USART_ConfigCharacter\n
1083:Drivers/STM32F0xx_HAL_Driver/Inc/stm32f0xx_ll_usart.h ****   *         CR1          M1            LL_USART_ConfigCharacter\n
1084:Drivers/STM32F0xx_HAL_Driver/Inc/stm32f0xx_ll_usart.h ****   *         CR2          STOP          LL_USART_ConfigCharacter
1085:Drivers/STM32F0xx_HAL_Driver/Inc/stm32f0xx_ll_usart.h ****   * @param  USARTx USART Instance
1086:Drivers/STM32F0xx_HAL_Driver/Inc/stm32f0xx_ll_usart.h ****   * @param  DataWidth This parameter can be one of the following values:
1087:Drivers/STM32F0xx_HAL_Driver/Inc/stm32f0xx_ll_usart.h ****   *         @arg @ref LL_USART_DATAWIDTH_7B (*)
1088:Drivers/STM32F0xx_HAL_Driver/Inc/stm32f0xx_ll_usart.h ****   *         @arg @ref LL_USART_DATAWIDTH_8B
1089:Drivers/STM32F0xx_HAL_Driver/Inc/stm32f0xx_ll_usart.h ****   *         @arg @ref LL_USART_DATAWIDTH_9B
1090:Drivers/STM32F0xx_HAL_Driver/Inc/stm32f0xx_ll_usart.h ****   * @param  Parity This parameter can be one of the following values:
1091:Drivers/STM32F0xx_HAL_Driver/Inc/stm32f0xx_ll_usart.h ****   *         @arg @ref LL_USART_PARITY_NONE
1092:Drivers/STM32F0xx_HAL_Driver/Inc/stm32f0xx_ll_usart.h ****   *         @arg @ref LL_USART_PARITY_EVEN
1093:Drivers/STM32F0xx_HAL_Driver/Inc/stm32f0xx_ll_usart.h ****   *         @arg @ref LL_USART_PARITY_ODD
1094:Drivers/STM32F0xx_HAL_Driver/Inc/stm32f0xx_ll_usart.h ****   * @param  StopBits This parameter can be one of the following values:
1095:Drivers/STM32F0xx_HAL_Driver/Inc/stm32f0xx_ll_usart.h ****   *         @arg @ref LL_USART_STOPBITS_0_5 (*)
1096:Drivers/STM32F0xx_HAL_Driver/Inc/stm32f0xx_ll_usart.h ****   *         @arg @ref LL_USART_STOPBITS_1
1097:Drivers/STM32F0xx_HAL_Driver/Inc/stm32f0xx_ll_usart.h ****   *         @arg @ref LL_USART_STOPBITS_1_5 (*)
1098:Drivers/STM32F0xx_HAL_Driver/Inc/stm32f0xx_ll_usart.h ****   *         @arg @ref LL_USART_STOPBITS_2
1099:Drivers/STM32F0xx_HAL_Driver/Inc/stm32f0xx_ll_usart.h ****   *
1100:Drivers/STM32F0xx_HAL_Driver/Inc/stm32f0xx_ll_usart.h ****   *         (*) Values not available on all devices
1101:Drivers/STM32F0xx_HAL_Driver/Inc/stm32f0xx_ll_usart.h ****   * @retval None
1102:Drivers/STM32F0xx_HAL_Driver/Inc/stm32f0xx_ll_usart.h ****   */
1103:Drivers/STM32F0xx_HAL_Driver/Inc/stm32f0xx_ll_usart.h **** __STATIC_INLINE void LL_USART_ConfigCharacter(USART_TypeDef *USARTx, uint32_t DataWidth, uint32_t P
ARM GAS  C:\Users\ADMINI~1\AppData\Local\Temp\cco9rtsT.s 			page 37


1104:Drivers/STM32F0xx_HAL_Driver/Inc/stm32f0xx_ll_usart.h ****                                               uint32_t StopBits)
1105:Drivers/STM32F0xx_HAL_Driver/Inc/stm32f0xx_ll_usart.h **** {
1106:Drivers/STM32F0xx_HAL_Driver/Inc/stm32f0xx_ll_usart.h ****   MODIFY_REG(USARTx->CR1, USART_CR1_PS | USART_CR1_PCE | USART_CR1_M, Parity | DataWidth);
1107:Drivers/STM32F0xx_HAL_Driver/Inc/stm32f0xx_ll_usart.h ****   MODIFY_REG(USARTx->CR2, USART_CR2_STOP, StopBits);
1108:Drivers/STM32F0xx_HAL_Driver/Inc/stm32f0xx_ll_usart.h **** }
1109:Drivers/STM32F0xx_HAL_Driver/Inc/stm32f0xx_ll_usart.h **** 
1110:Drivers/STM32F0xx_HAL_Driver/Inc/stm32f0xx_ll_usart.h **** /**
1111:Drivers/STM32F0xx_HAL_Driver/Inc/stm32f0xx_ll_usart.h ****   * @brief  Configure TX/RX pins swapping setting.
1112:Drivers/STM32F0xx_HAL_Driver/Inc/stm32f0xx_ll_usart.h ****   * @rmtoll CR2          SWAP          LL_USART_SetTXRXSwap
1113:Drivers/STM32F0xx_HAL_Driver/Inc/stm32f0xx_ll_usart.h ****   * @param  USARTx USART Instance
1114:Drivers/STM32F0xx_HAL_Driver/Inc/stm32f0xx_ll_usart.h ****   * @param  SwapConfig This parameter can be one of the following values:
1115:Drivers/STM32F0xx_HAL_Driver/Inc/stm32f0xx_ll_usart.h ****   *         @arg @ref LL_USART_TXRX_STANDARD
1116:Drivers/STM32F0xx_HAL_Driver/Inc/stm32f0xx_ll_usart.h ****   *         @arg @ref LL_USART_TXRX_SWAPPED
1117:Drivers/STM32F0xx_HAL_Driver/Inc/stm32f0xx_ll_usart.h ****   * @retval None
1118:Drivers/STM32F0xx_HAL_Driver/Inc/stm32f0xx_ll_usart.h ****   */
1119:Drivers/STM32F0xx_HAL_Driver/Inc/stm32f0xx_ll_usart.h **** __STATIC_INLINE void LL_USART_SetTXRXSwap(USART_TypeDef *USARTx, uint32_t SwapConfig)
1120:Drivers/STM32F0xx_HAL_Driver/Inc/stm32f0xx_ll_usart.h **** {
1121:Drivers/STM32F0xx_HAL_Driver/Inc/stm32f0xx_ll_usart.h ****   MODIFY_REG(USARTx->CR2, USART_CR2_SWAP, SwapConfig);
1122:Drivers/STM32F0xx_HAL_Driver/Inc/stm32f0xx_ll_usart.h **** }
1123:Drivers/STM32F0xx_HAL_Driver/Inc/stm32f0xx_ll_usart.h **** 
1124:Drivers/STM32F0xx_HAL_Driver/Inc/stm32f0xx_ll_usart.h **** /**
1125:Drivers/STM32F0xx_HAL_Driver/Inc/stm32f0xx_ll_usart.h ****   * @brief  Retrieve TX/RX pins swapping configuration.
1126:Drivers/STM32F0xx_HAL_Driver/Inc/stm32f0xx_ll_usart.h ****   * @rmtoll CR2          SWAP          LL_USART_GetTXRXSwap
1127:Drivers/STM32F0xx_HAL_Driver/Inc/stm32f0xx_ll_usart.h ****   * @param  USARTx USART Instance
1128:Drivers/STM32F0xx_HAL_Driver/Inc/stm32f0xx_ll_usart.h ****   * @retval Returned value can be one of the following values:
1129:Drivers/STM32F0xx_HAL_Driver/Inc/stm32f0xx_ll_usart.h ****   *         @arg @ref LL_USART_TXRX_STANDARD
1130:Drivers/STM32F0xx_HAL_Driver/Inc/stm32f0xx_ll_usart.h ****   *         @arg @ref LL_USART_TXRX_SWAPPED
1131:Drivers/STM32F0xx_HAL_Driver/Inc/stm32f0xx_ll_usart.h ****   */
1132:Drivers/STM32F0xx_HAL_Driver/Inc/stm32f0xx_ll_usart.h **** __STATIC_INLINE uint32_t LL_USART_GetTXRXSwap(USART_TypeDef *USARTx)
1133:Drivers/STM32F0xx_HAL_Driver/Inc/stm32f0xx_ll_usart.h **** {
1134:Drivers/STM32F0xx_HAL_Driver/Inc/stm32f0xx_ll_usart.h ****   return (uint32_t)(READ_BIT(USARTx->CR2, USART_CR2_SWAP));
1135:Drivers/STM32F0xx_HAL_Driver/Inc/stm32f0xx_ll_usart.h **** }
1136:Drivers/STM32F0xx_HAL_Driver/Inc/stm32f0xx_ll_usart.h **** 
1137:Drivers/STM32F0xx_HAL_Driver/Inc/stm32f0xx_ll_usart.h **** /**
1138:Drivers/STM32F0xx_HAL_Driver/Inc/stm32f0xx_ll_usart.h ****   * @brief  Configure RX pin active level logic
1139:Drivers/STM32F0xx_HAL_Driver/Inc/stm32f0xx_ll_usart.h ****   * @rmtoll CR2          RXINV         LL_USART_SetRXPinLevel
1140:Drivers/STM32F0xx_HAL_Driver/Inc/stm32f0xx_ll_usart.h ****   * @param  USARTx USART Instance
1141:Drivers/STM32F0xx_HAL_Driver/Inc/stm32f0xx_ll_usart.h ****   * @param  PinInvMethod This parameter can be one of the following values:
1142:Drivers/STM32F0xx_HAL_Driver/Inc/stm32f0xx_ll_usart.h ****   *         @arg @ref LL_USART_RXPIN_LEVEL_STANDARD
1143:Drivers/STM32F0xx_HAL_Driver/Inc/stm32f0xx_ll_usart.h ****   *         @arg @ref LL_USART_RXPIN_LEVEL_INVERTED
1144:Drivers/STM32F0xx_HAL_Driver/Inc/stm32f0xx_ll_usart.h ****   * @retval None
1145:Drivers/STM32F0xx_HAL_Driver/Inc/stm32f0xx_ll_usart.h ****   */
1146:Drivers/STM32F0xx_HAL_Driver/Inc/stm32f0xx_ll_usart.h **** __STATIC_INLINE void LL_USART_SetRXPinLevel(USART_TypeDef *USARTx, uint32_t PinInvMethod)
1147:Drivers/STM32F0xx_HAL_Driver/Inc/stm32f0xx_ll_usart.h **** {
1148:Drivers/STM32F0xx_HAL_Driver/Inc/stm32f0xx_ll_usart.h ****   MODIFY_REG(USARTx->CR2, USART_CR2_RXINV, PinInvMethod);
1149:Drivers/STM32F0xx_HAL_Driver/Inc/stm32f0xx_ll_usart.h **** }
1150:Drivers/STM32F0xx_HAL_Driver/Inc/stm32f0xx_ll_usart.h **** 
1151:Drivers/STM32F0xx_HAL_Driver/Inc/stm32f0xx_ll_usart.h **** /**
1152:Drivers/STM32F0xx_HAL_Driver/Inc/stm32f0xx_ll_usart.h ****   * @brief  Retrieve RX pin active level logic configuration
1153:Drivers/STM32F0xx_HAL_Driver/Inc/stm32f0xx_ll_usart.h ****   * @rmtoll CR2          RXINV         LL_USART_GetRXPinLevel
1154:Drivers/STM32F0xx_HAL_Driver/Inc/stm32f0xx_ll_usart.h ****   * @param  USARTx USART Instance
1155:Drivers/STM32F0xx_HAL_Driver/Inc/stm32f0xx_ll_usart.h ****   * @retval Returned value can be one of the following values:
1156:Drivers/STM32F0xx_HAL_Driver/Inc/stm32f0xx_ll_usart.h ****   *         @arg @ref LL_USART_RXPIN_LEVEL_STANDARD
1157:Drivers/STM32F0xx_HAL_Driver/Inc/stm32f0xx_ll_usart.h ****   *         @arg @ref LL_USART_RXPIN_LEVEL_INVERTED
1158:Drivers/STM32F0xx_HAL_Driver/Inc/stm32f0xx_ll_usart.h ****   */
1159:Drivers/STM32F0xx_HAL_Driver/Inc/stm32f0xx_ll_usart.h **** __STATIC_INLINE uint32_t LL_USART_GetRXPinLevel(USART_TypeDef *USARTx)
1160:Drivers/STM32F0xx_HAL_Driver/Inc/stm32f0xx_ll_usart.h **** {
ARM GAS  C:\Users\ADMINI~1\AppData\Local\Temp\cco9rtsT.s 			page 38


1161:Drivers/STM32F0xx_HAL_Driver/Inc/stm32f0xx_ll_usart.h ****   return (uint32_t)(READ_BIT(USARTx->CR2, USART_CR2_RXINV));
1162:Drivers/STM32F0xx_HAL_Driver/Inc/stm32f0xx_ll_usart.h **** }
1163:Drivers/STM32F0xx_HAL_Driver/Inc/stm32f0xx_ll_usart.h **** 
1164:Drivers/STM32F0xx_HAL_Driver/Inc/stm32f0xx_ll_usart.h **** /**
1165:Drivers/STM32F0xx_HAL_Driver/Inc/stm32f0xx_ll_usart.h ****   * @brief  Configure TX pin active level logic
1166:Drivers/STM32F0xx_HAL_Driver/Inc/stm32f0xx_ll_usart.h ****   * @rmtoll CR2          TXINV         LL_USART_SetTXPinLevel
1167:Drivers/STM32F0xx_HAL_Driver/Inc/stm32f0xx_ll_usart.h ****   * @param  USARTx USART Instance
1168:Drivers/STM32F0xx_HAL_Driver/Inc/stm32f0xx_ll_usart.h ****   * @param  PinInvMethod This parameter can be one of the following values:
1169:Drivers/STM32F0xx_HAL_Driver/Inc/stm32f0xx_ll_usart.h ****   *         @arg @ref LL_USART_TXPIN_LEVEL_STANDARD
1170:Drivers/STM32F0xx_HAL_Driver/Inc/stm32f0xx_ll_usart.h ****   *         @arg @ref LL_USART_TXPIN_LEVEL_INVERTED
1171:Drivers/STM32F0xx_HAL_Driver/Inc/stm32f0xx_ll_usart.h ****   * @retval None
1172:Drivers/STM32F0xx_HAL_Driver/Inc/stm32f0xx_ll_usart.h ****   */
1173:Drivers/STM32F0xx_HAL_Driver/Inc/stm32f0xx_ll_usart.h **** __STATIC_INLINE void LL_USART_SetTXPinLevel(USART_TypeDef *USARTx, uint32_t PinInvMethod)
1174:Drivers/STM32F0xx_HAL_Driver/Inc/stm32f0xx_ll_usart.h **** {
1175:Drivers/STM32F0xx_HAL_Driver/Inc/stm32f0xx_ll_usart.h ****   MODIFY_REG(USARTx->CR2, USART_CR2_TXINV, PinInvMethod);
1176:Drivers/STM32F0xx_HAL_Driver/Inc/stm32f0xx_ll_usart.h **** }
1177:Drivers/STM32F0xx_HAL_Driver/Inc/stm32f0xx_ll_usart.h **** 
1178:Drivers/STM32F0xx_HAL_Driver/Inc/stm32f0xx_ll_usart.h **** /**
1179:Drivers/STM32F0xx_HAL_Driver/Inc/stm32f0xx_ll_usart.h ****   * @brief  Retrieve TX pin active level logic configuration
1180:Drivers/STM32F0xx_HAL_Driver/Inc/stm32f0xx_ll_usart.h ****   * @rmtoll CR2          TXINV         LL_USART_GetTXPinLevel
1181:Drivers/STM32F0xx_HAL_Driver/Inc/stm32f0xx_ll_usart.h ****   * @param  USARTx USART Instance
1182:Drivers/STM32F0xx_HAL_Driver/Inc/stm32f0xx_ll_usart.h ****   * @retval Returned value can be one of the following values:
1183:Drivers/STM32F0xx_HAL_Driver/Inc/stm32f0xx_ll_usart.h ****   *         @arg @ref LL_USART_TXPIN_LEVEL_STANDARD
1184:Drivers/STM32F0xx_HAL_Driver/Inc/stm32f0xx_ll_usart.h ****   *         @arg @ref LL_USART_TXPIN_LEVEL_INVERTED
1185:Drivers/STM32F0xx_HAL_Driver/Inc/stm32f0xx_ll_usart.h ****   */
1186:Drivers/STM32F0xx_HAL_Driver/Inc/stm32f0xx_ll_usart.h **** __STATIC_INLINE uint32_t LL_USART_GetTXPinLevel(USART_TypeDef *USARTx)
1187:Drivers/STM32F0xx_HAL_Driver/Inc/stm32f0xx_ll_usart.h **** {
1188:Drivers/STM32F0xx_HAL_Driver/Inc/stm32f0xx_ll_usart.h ****   return (uint32_t)(READ_BIT(USARTx->CR2, USART_CR2_TXINV));
1189:Drivers/STM32F0xx_HAL_Driver/Inc/stm32f0xx_ll_usart.h **** }
1190:Drivers/STM32F0xx_HAL_Driver/Inc/stm32f0xx_ll_usart.h **** 
1191:Drivers/STM32F0xx_HAL_Driver/Inc/stm32f0xx_ll_usart.h **** /**
1192:Drivers/STM32F0xx_HAL_Driver/Inc/stm32f0xx_ll_usart.h ****   * @brief  Configure Binary data logic.
1193:Drivers/STM32F0xx_HAL_Driver/Inc/stm32f0xx_ll_usart.h ****   * @note   Allow to define how Logical data from the data register are send/received :
1194:Drivers/STM32F0xx_HAL_Driver/Inc/stm32f0xx_ll_usart.h ****   *         either in positive/direct logic (1=H, 0=L) or in negative/inverse logic (1=L, 0=H)
1195:Drivers/STM32F0xx_HAL_Driver/Inc/stm32f0xx_ll_usart.h ****   * @rmtoll CR2          DATAINV       LL_USART_SetBinaryDataLogic
1196:Drivers/STM32F0xx_HAL_Driver/Inc/stm32f0xx_ll_usart.h ****   * @param  USARTx USART Instance
1197:Drivers/STM32F0xx_HAL_Driver/Inc/stm32f0xx_ll_usart.h ****   * @param  DataLogic This parameter can be one of the following values:
1198:Drivers/STM32F0xx_HAL_Driver/Inc/stm32f0xx_ll_usart.h ****   *         @arg @ref LL_USART_BINARY_LOGIC_POSITIVE
1199:Drivers/STM32F0xx_HAL_Driver/Inc/stm32f0xx_ll_usart.h ****   *         @arg @ref LL_USART_BINARY_LOGIC_NEGATIVE
1200:Drivers/STM32F0xx_HAL_Driver/Inc/stm32f0xx_ll_usart.h ****   * @retval None
1201:Drivers/STM32F0xx_HAL_Driver/Inc/stm32f0xx_ll_usart.h ****   */
1202:Drivers/STM32F0xx_HAL_Driver/Inc/stm32f0xx_ll_usart.h **** __STATIC_INLINE void LL_USART_SetBinaryDataLogic(USART_TypeDef *USARTx, uint32_t DataLogic)
1203:Drivers/STM32F0xx_HAL_Driver/Inc/stm32f0xx_ll_usart.h **** {
1204:Drivers/STM32F0xx_HAL_Driver/Inc/stm32f0xx_ll_usart.h ****   MODIFY_REG(USARTx->CR2, USART_CR2_DATAINV, DataLogic);
1205:Drivers/STM32F0xx_HAL_Driver/Inc/stm32f0xx_ll_usart.h **** }
1206:Drivers/STM32F0xx_HAL_Driver/Inc/stm32f0xx_ll_usart.h **** 
1207:Drivers/STM32F0xx_HAL_Driver/Inc/stm32f0xx_ll_usart.h **** /**
1208:Drivers/STM32F0xx_HAL_Driver/Inc/stm32f0xx_ll_usart.h ****   * @brief  Retrieve Binary data configuration
1209:Drivers/STM32F0xx_HAL_Driver/Inc/stm32f0xx_ll_usart.h ****   * @rmtoll CR2          DATAINV       LL_USART_GetBinaryDataLogic
1210:Drivers/STM32F0xx_HAL_Driver/Inc/stm32f0xx_ll_usart.h ****   * @param  USARTx USART Instance
1211:Drivers/STM32F0xx_HAL_Driver/Inc/stm32f0xx_ll_usart.h ****   * @retval Returned value can be one of the following values:
1212:Drivers/STM32F0xx_HAL_Driver/Inc/stm32f0xx_ll_usart.h ****   *         @arg @ref LL_USART_BINARY_LOGIC_POSITIVE
1213:Drivers/STM32F0xx_HAL_Driver/Inc/stm32f0xx_ll_usart.h ****   *         @arg @ref LL_USART_BINARY_LOGIC_NEGATIVE
1214:Drivers/STM32F0xx_HAL_Driver/Inc/stm32f0xx_ll_usart.h ****   */
1215:Drivers/STM32F0xx_HAL_Driver/Inc/stm32f0xx_ll_usart.h **** __STATIC_INLINE uint32_t LL_USART_GetBinaryDataLogic(USART_TypeDef *USARTx)
1216:Drivers/STM32F0xx_HAL_Driver/Inc/stm32f0xx_ll_usart.h **** {
1217:Drivers/STM32F0xx_HAL_Driver/Inc/stm32f0xx_ll_usart.h ****   return (uint32_t)(READ_BIT(USARTx->CR2, USART_CR2_DATAINV));
ARM GAS  C:\Users\ADMINI~1\AppData\Local\Temp\cco9rtsT.s 			page 39


1218:Drivers/STM32F0xx_HAL_Driver/Inc/stm32f0xx_ll_usart.h **** }
1219:Drivers/STM32F0xx_HAL_Driver/Inc/stm32f0xx_ll_usart.h **** 
1220:Drivers/STM32F0xx_HAL_Driver/Inc/stm32f0xx_ll_usart.h **** /**
1221:Drivers/STM32F0xx_HAL_Driver/Inc/stm32f0xx_ll_usart.h ****   * @brief  Configure transfer bit order (either Less or Most Significant Bit First)
1222:Drivers/STM32F0xx_HAL_Driver/Inc/stm32f0xx_ll_usart.h ****   * @note   MSB First means data is transmitted/received with the MSB first, following the start bi
1223:Drivers/STM32F0xx_HAL_Driver/Inc/stm32f0xx_ll_usart.h ****   *         LSB First means data is transmitted/received with data bit 0 first, following the start
1224:Drivers/STM32F0xx_HAL_Driver/Inc/stm32f0xx_ll_usart.h ****   * @rmtoll CR2          MSBFIRST      LL_USART_SetTransferBitOrder
1225:Drivers/STM32F0xx_HAL_Driver/Inc/stm32f0xx_ll_usart.h ****   * @param  USARTx USART Instance
1226:Drivers/STM32F0xx_HAL_Driver/Inc/stm32f0xx_ll_usart.h ****   * @param  BitOrder This parameter can be one of the following values:
1227:Drivers/STM32F0xx_HAL_Driver/Inc/stm32f0xx_ll_usart.h ****   *         @arg @ref LL_USART_BITORDER_LSBFIRST
1228:Drivers/STM32F0xx_HAL_Driver/Inc/stm32f0xx_ll_usart.h ****   *         @arg @ref LL_USART_BITORDER_MSBFIRST
1229:Drivers/STM32F0xx_HAL_Driver/Inc/stm32f0xx_ll_usart.h ****   * @retval None
1230:Drivers/STM32F0xx_HAL_Driver/Inc/stm32f0xx_ll_usart.h ****   */
1231:Drivers/STM32F0xx_HAL_Driver/Inc/stm32f0xx_ll_usart.h **** __STATIC_INLINE void LL_USART_SetTransferBitOrder(USART_TypeDef *USARTx, uint32_t BitOrder)
1232:Drivers/STM32F0xx_HAL_Driver/Inc/stm32f0xx_ll_usart.h **** {
1233:Drivers/STM32F0xx_HAL_Driver/Inc/stm32f0xx_ll_usart.h ****   MODIFY_REG(USARTx->CR2, USART_CR2_MSBFIRST, BitOrder);
1234:Drivers/STM32F0xx_HAL_Driver/Inc/stm32f0xx_ll_usart.h **** }
1235:Drivers/STM32F0xx_HAL_Driver/Inc/stm32f0xx_ll_usart.h **** 
1236:Drivers/STM32F0xx_HAL_Driver/Inc/stm32f0xx_ll_usart.h **** /**
1237:Drivers/STM32F0xx_HAL_Driver/Inc/stm32f0xx_ll_usart.h ****   * @brief  Return transfer bit order (either Less or Most Significant Bit First)
1238:Drivers/STM32F0xx_HAL_Driver/Inc/stm32f0xx_ll_usart.h ****   * @note   MSB First means data is transmitted/received with the MSB first, following the start bi
1239:Drivers/STM32F0xx_HAL_Driver/Inc/stm32f0xx_ll_usart.h ****   *         LSB First means data is transmitted/received with data bit 0 first, following the start
1240:Drivers/STM32F0xx_HAL_Driver/Inc/stm32f0xx_ll_usart.h ****   * @rmtoll CR2          MSBFIRST      LL_USART_GetTransferBitOrder
1241:Drivers/STM32F0xx_HAL_Driver/Inc/stm32f0xx_ll_usart.h ****   * @param  USARTx USART Instance
1242:Drivers/STM32F0xx_HAL_Driver/Inc/stm32f0xx_ll_usart.h ****   * @retval Returned value can be one of the following values:
1243:Drivers/STM32F0xx_HAL_Driver/Inc/stm32f0xx_ll_usart.h ****   *         @arg @ref LL_USART_BITORDER_LSBFIRST
1244:Drivers/STM32F0xx_HAL_Driver/Inc/stm32f0xx_ll_usart.h ****   *         @arg @ref LL_USART_BITORDER_MSBFIRST
1245:Drivers/STM32F0xx_HAL_Driver/Inc/stm32f0xx_ll_usart.h ****   */
1246:Drivers/STM32F0xx_HAL_Driver/Inc/stm32f0xx_ll_usart.h **** __STATIC_INLINE uint32_t LL_USART_GetTransferBitOrder(USART_TypeDef *USARTx)
1247:Drivers/STM32F0xx_HAL_Driver/Inc/stm32f0xx_ll_usart.h **** {
1248:Drivers/STM32F0xx_HAL_Driver/Inc/stm32f0xx_ll_usart.h ****   return (uint32_t)(READ_BIT(USARTx->CR2, USART_CR2_MSBFIRST));
1249:Drivers/STM32F0xx_HAL_Driver/Inc/stm32f0xx_ll_usart.h **** }
1250:Drivers/STM32F0xx_HAL_Driver/Inc/stm32f0xx_ll_usart.h **** 
1251:Drivers/STM32F0xx_HAL_Driver/Inc/stm32f0xx_ll_usart.h **** /**
1252:Drivers/STM32F0xx_HAL_Driver/Inc/stm32f0xx_ll_usart.h ****   * @brief  Enable Auto Baud-Rate Detection
1253:Drivers/STM32F0xx_HAL_Driver/Inc/stm32f0xx_ll_usart.h ****   * @note   Macro IS_USART_AUTOBAUDRATE_DETECTION_INSTANCE(USARTx) can be used to check whether or 
1254:Drivers/STM32F0xx_HAL_Driver/Inc/stm32f0xx_ll_usart.h ****   *         Auto Baud Rate detection feature is supported by the USARTx instance.
1255:Drivers/STM32F0xx_HAL_Driver/Inc/stm32f0xx_ll_usart.h ****   * @rmtoll CR2          ABREN         LL_USART_EnableAutoBaudRate
1256:Drivers/STM32F0xx_HAL_Driver/Inc/stm32f0xx_ll_usart.h ****   * @param  USARTx USART Instance
1257:Drivers/STM32F0xx_HAL_Driver/Inc/stm32f0xx_ll_usart.h ****   * @retval None
1258:Drivers/STM32F0xx_HAL_Driver/Inc/stm32f0xx_ll_usart.h ****   */
1259:Drivers/STM32F0xx_HAL_Driver/Inc/stm32f0xx_ll_usart.h **** __STATIC_INLINE void LL_USART_EnableAutoBaudRate(USART_TypeDef *USARTx)
1260:Drivers/STM32F0xx_HAL_Driver/Inc/stm32f0xx_ll_usart.h **** {
1261:Drivers/STM32F0xx_HAL_Driver/Inc/stm32f0xx_ll_usart.h ****   SET_BIT(USARTx->CR2, USART_CR2_ABREN);
1262:Drivers/STM32F0xx_HAL_Driver/Inc/stm32f0xx_ll_usart.h **** }
1263:Drivers/STM32F0xx_HAL_Driver/Inc/stm32f0xx_ll_usart.h **** 
1264:Drivers/STM32F0xx_HAL_Driver/Inc/stm32f0xx_ll_usart.h **** /**
1265:Drivers/STM32F0xx_HAL_Driver/Inc/stm32f0xx_ll_usart.h ****   * @brief  Disable Auto Baud-Rate Detection
1266:Drivers/STM32F0xx_HAL_Driver/Inc/stm32f0xx_ll_usart.h ****   * @note   Macro IS_USART_AUTOBAUDRATE_DETECTION_INSTANCE(USARTx) can be used to check whether or 
1267:Drivers/STM32F0xx_HAL_Driver/Inc/stm32f0xx_ll_usart.h ****   *         Auto Baud Rate detection feature is supported by the USARTx instance.
1268:Drivers/STM32F0xx_HAL_Driver/Inc/stm32f0xx_ll_usart.h ****   * @rmtoll CR2          ABREN         LL_USART_DisableAutoBaudRate
1269:Drivers/STM32F0xx_HAL_Driver/Inc/stm32f0xx_ll_usart.h ****   * @param  USARTx USART Instance
1270:Drivers/STM32F0xx_HAL_Driver/Inc/stm32f0xx_ll_usart.h ****   * @retval None
1271:Drivers/STM32F0xx_HAL_Driver/Inc/stm32f0xx_ll_usart.h ****   */
1272:Drivers/STM32F0xx_HAL_Driver/Inc/stm32f0xx_ll_usart.h **** __STATIC_INLINE void LL_USART_DisableAutoBaudRate(USART_TypeDef *USARTx)
1273:Drivers/STM32F0xx_HAL_Driver/Inc/stm32f0xx_ll_usart.h **** {
1274:Drivers/STM32F0xx_HAL_Driver/Inc/stm32f0xx_ll_usart.h ****   CLEAR_BIT(USARTx->CR2, USART_CR2_ABREN);
ARM GAS  C:\Users\ADMINI~1\AppData\Local\Temp\cco9rtsT.s 			page 40


1275:Drivers/STM32F0xx_HAL_Driver/Inc/stm32f0xx_ll_usart.h **** }
1276:Drivers/STM32F0xx_HAL_Driver/Inc/stm32f0xx_ll_usart.h **** 
1277:Drivers/STM32F0xx_HAL_Driver/Inc/stm32f0xx_ll_usart.h **** /**
1278:Drivers/STM32F0xx_HAL_Driver/Inc/stm32f0xx_ll_usart.h ****   * @brief  Indicate if Auto Baud-Rate Detection mechanism is enabled
1279:Drivers/STM32F0xx_HAL_Driver/Inc/stm32f0xx_ll_usart.h ****   * @note   Macro IS_USART_AUTOBAUDRATE_DETECTION_INSTANCE(USARTx) can be used to check whether or 
1280:Drivers/STM32F0xx_HAL_Driver/Inc/stm32f0xx_ll_usart.h ****   *         Auto Baud Rate detection feature is supported by the USARTx instance.
1281:Drivers/STM32F0xx_HAL_Driver/Inc/stm32f0xx_ll_usart.h ****   * @rmtoll CR2          ABREN         LL_USART_IsEnabledAutoBaud
1282:Drivers/STM32F0xx_HAL_Driver/Inc/stm32f0xx_ll_usart.h ****   * @param  USARTx USART Instance
1283:Drivers/STM32F0xx_HAL_Driver/Inc/stm32f0xx_ll_usart.h ****   * @retval State of bit (1 or 0).
1284:Drivers/STM32F0xx_HAL_Driver/Inc/stm32f0xx_ll_usart.h ****   */
1285:Drivers/STM32F0xx_HAL_Driver/Inc/stm32f0xx_ll_usart.h **** __STATIC_INLINE uint32_t LL_USART_IsEnabledAutoBaud(USART_TypeDef *USARTx)
1286:Drivers/STM32F0xx_HAL_Driver/Inc/stm32f0xx_ll_usart.h **** {
1287:Drivers/STM32F0xx_HAL_Driver/Inc/stm32f0xx_ll_usart.h ****   return ((READ_BIT(USARTx->CR2, USART_CR2_ABREN) == (USART_CR2_ABREN)) ? 1UL : 0UL);
1288:Drivers/STM32F0xx_HAL_Driver/Inc/stm32f0xx_ll_usart.h **** }
1289:Drivers/STM32F0xx_HAL_Driver/Inc/stm32f0xx_ll_usart.h **** 
1290:Drivers/STM32F0xx_HAL_Driver/Inc/stm32f0xx_ll_usart.h **** /**
1291:Drivers/STM32F0xx_HAL_Driver/Inc/stm32f0xx_ll_usart.h ****   * @brief  Set Auto Baud-Rate mode bits
1292:Drivers/STM32F0xx_HAL_Driver/Inc/stm32f0xx_ll_usart.h ****   * @note   Macro IS_USART_AUTOBAUDRATE_DETECTION_INSTANCE(USARTx) can be used to check whether or 
1293:Drivers/STM32F0xx_HAL_Driver/Inc/stm32f0xx_ll_usart.h ****   *         Auto Baud Rate detection feature is supported by the USARTx instance.
1294:Drivers/STM32F0xx_HAL_Driver/Inc/stm32f0xx_ll_usart.h ****   * @rmtoll CR2          ABRMODE       LL_USART_SetAutoBaudRateMode
1295:Drivers/STM32F0xx_HAL_Driver/Inc/stm32f0xx_ll_usart.h ****   * @param  USARTx USART Instance
1296:Drivers/STM32F0xx_HAL_Driver/Inc/stm32f0xx_ll_usart.h ****   * @param  AutoBaudRateMode This parameter can be one of the following values:
1297:Drivers/STM32F0xx_HAL_Driver/Inc/stm32f0xx_ll_usart.h ****   *         @arg @ref LL_USART_AUTOBAUD_DETECT_ON_STARTBIT
1298:Drivers/STM32F0xx_HAL_Driver/Inc/stm32f0xx_ll_usart.h ****   *         @arg @ref LL_USART_AUTOBAUD_DETECT_ON_FALLINGEDGE
1299:Drivers/STM32F0xx_HAL_Driver/Inc/stm32f0xx_ll_usart.h ****   *         @arg @ref LL_USART_AUTOBAUD_DETECT_ON_7F_FRAME (*)
1300:Drivers/STM32F0xx_HAL_Driver/Inc/stm32f0xx_ll_usart.h ****   *         @arg @ref LL_USART_AUTOBAUD_DETECT_ON_55_FRAME (*)
1301:Drivers/STM32F0xx_HAL_Driver/Inc/stm32f0xx_ll_usart.h ****   *
1302:Drivers/STM32F0xx_HAL_Driver/Inc/stm32f0xx_ll_usart.h ****   *         (*) Values not available on all devices
1303:Drivers/STM32F0xx_HAL_Driver/Inc/stm32f0xx_ll_usart.h ****   * @retval None
1304:Drivers/STM32F0xx_HAL_Driver/Inc/stm32f0xx_ll_usart.h ****   */
1305:Drivers/STM32F0xx_HAL_Driver/Inc/stm32f0xx_ll_usart.h **** __STATIC_INLINE void LL_USART_SetAutoBaudRateMode(USART_TypeDef *USARTx, uint32_t AutoBaudRateMode)
1306:Drivers/STM32F0xx_HAL_Driver/Inc/stm32f0xx_ll_usart.h **** {
1307:Drivers/STM32F0xx_HAL_Driver/Inc/stm32f0xx_ll_usart.h ****   MODIFY_REG(USARTx->CR2, USART_CR2_ABRMODE, AutoBaudRateMode);
1308:Drivers/STM32F0xx_HAL_Driver/Inc/stm32f0xx_ll_usart.h **** }
1309:Drivers/STM32F0xx_HAL_Driver/Inc/stm32f0xx_ll_usart.h **** 
1310:Drivers/STM32F0xx_HAL_Driver/Inc/stm32f0xx_ll_usart.h **** /**
1311:Drivers/STM32F0xx_HAL_Driver/Inc/stm32f0xx_ll_usart.h ****   * @brief  Return Auto Baud-Rate mode
1312:Drivers/STM32F0xx_HAL_Driver/Inc/stm32f0xx_ll_usart.h ****   * @note   Macro IS_USART_AUTOBAUDRATE_DETECTION_INSTANCE(USARTx) can be used to check whether or 
1313:Drivers/STM32F0xx_HAL_Driver/Inc/stm32f0xx_ll_usart.h ****   *         Auto Baud Rate detection feature is supported by the USARTx instance.
1314:Drivers/STM32F0xx_HAL_Driver/Inc/stm32f0xx_ll_usart.h ****   * @rmtoll CR2          ABRMODE       LL_USART_GetAutoBaudRateMode
1315:Drivers/STM32F0xx_HAL_Driver/Inc/stm32f0xx_ll_usart.h ****   * @param  USARTx USART Instance
1316:Drivers/STM32F0xx_HAL_Driver/Inc/stm32f0xx_ll_usart.h ****   * @retval Returned value can be one of the following values:
1317:Drivers/STM32F0xx_HAL_Driver/Inc/stm32f0xx_ll_usart.h ****   *         @arg @ref LL_USART_AUTOBAUD_DETECT_ON_STARTBIT
1318:Drivers/STM32F0xx_HAL_Driver/Inc/stm32f0xx_ll_usart.h ****   *         @arg @ref LL_USART_AUTOBAUD_DETECT_ON_FALLINGEDGE
1319:Drivers/STM32F0xx_HAL_Driver/Inc/stm32f0xx_ll_usart.h ****   *         @arg @ref LL_USART_AUTOBAUD_DETECT_ON_7F_FRAME (*)
1320:Drivers/STM32F0xx_HAL_Driver/Inc/stm32f0xx_ll_usart.h ****   *         @arg @ref LL_USART_AUTOBAUD_DETECT_ON_55_FRAME (*)
1321:Drivers/STM32F0xx_HAL_Driver/Inc/stm32f0xx_ll_usart.h ****   *
1322:Drivers/STM32F0xx_HAL_Driver/Inc/stm32f0xx_ll_usart.h ****   *         (*) Values not available on all devices
1323:Drivers/STM32F0xx_HAL_Driver/Inc/stm32f0xx_ll_usart.h ****   */
1324:Drivers/STM32F0xx_HAL_Driver/Inc/stm32f0xx_ll_usart.h **** __STATIC_INLINE uint32_t LL_USART_GetAutoBaudRateMode(USART_TypeDef *USARTx)
1325:Drivers/STM32F0xx_HAL_Driver/Inc/stm32f0xx_ll_usart.h **** {
1326:Drivers/STM32F0xx_HAL_Driver/Inc/stm32f0xx_ll_usart.h ****   return (uint32_t)(READ_BIT(USARTx->CR2, USART_CR2_ABRMODE));
1327:Drivers/STM32F0xx_HAL_Driver/Inc/stm32f0xx_ll_usart.h **** }
1328:Drivers/STM32F0xx_HAL_Driver/Inc/stm32f0xx_ll_usart.h **** 
1329:Drivers/STM32F0xx_HAL_Driver/Inc/stm32f0xx_ll_usart.h **** /**
1330:Drivers/STM32F0xx_HAL_Driver/Inc/stm32f0xx_ll_usart.h ****   * @brief  Enable Receiver Timeout
1331:Drivers/STM32F0xx_HAL_Driver/Inc/stm32f0xx_ll_usart.h ****   * @rmtoll CR2          RTOEN         LL_USART_EnableRxTimeout
ARM GAS  C:\Users\ADMINI~1\AppData\Local\Temp\cco9rtsT.s 			page 41


1332:Drivers/STM32F0xx_HAL_Driver/Inc/stm32f0xx_ll_usart.h ****   * @param  USARTx USART Instance
1333:Drivers/STM32F0xx_HAL_Driver/Inc/stm32f0xx_ll_usart.h ****   * @retval None
1334:Drivers/STM32F0xx_HAL_Driver/Inc/stm32f0xx_ll_usart.h ****   */
1335:Drivers/STM32F0xx_HAL_Driver/Inc/stm32f0xx_ll_usart.h **** __STATIC_INLINE void LL_USART_EnableRxTimeout(USART_TypeDef *USARTx)
1336:Drivers/STM32F0xx_HAL_Driver/Inc/stm32f0xx_ll_usart.h **** {
1337:Drivers/STM32F0xx_HAL_Driver/Inc/stm32f0xx_ll_usart.h ****   SET_BIT(USARTx->CR2, USART_CR2_RTOEN);
1338:Drivers/STM32F0xx_HAL_Driver/Inc/stm32f0xx_ll_usart.h **** }
1339:Drivers/STM32F0xx_HAL_Driver/Inc/stm32f0xx_ll_usart.h **** 
1340:Drivers/STM32F0xx_HAL_Driver/Inc/stm32f0xx_ll_usart.h **** /**
1341:Drivers/STM32F0xx_HAL_Driver/Inc/stm32f0xx_ll_usart.h ****   * @brief  Disable Receiver Timeout
1342:Drivers/STM32F0xx_HAL_Driver/Inc/stm32f0xx_ll_usart.h ****   * @rmtoll CR2          RTOEN         LL_USART_DisableRxTimeout
1343:Drivers/STM32F0xx_HAL_Driver/Inc/stm32f0xx_ll_usart.h ****   * @param  USARTx USART Instance
1344:Drivers/STM32F0xx_HAL_Driver/Inc/stm32f0xx_ll_usart.h ****   * @retval None
1345:Drivers/STM32F0xx_HAL_Driver/Inc/stm32f0xx_ll_usart.h ****   */
1346:Drivers/STM32F0xx_HAL_Driver/Inc/stm32f0xx_ll_usart.h **** __STATIC_INLINE void LL_USART_DisableRxTimeout(USART_TypeDef *USARTx)
1347:Drivers/STM32F0xx_HAL_Driver/Inc/stm32f0xx_ll_usart.h **** {
1348:Drivers/STM32F0xx_HAL_Driver/Inc/stm32f0xx_ll_usart.h ****   CLEAR_BIT(USARTx->CR2, USART_CR2_RTOEN);
1349:Drivers/STM32F0xx_HAL_Driver/Inc/stm32f0xx_ll_usart.h **** }
1350:Drivers/STM32F0xx_HAL_Driver/Inc/stm32f0xx_ll_usart.h **** 
1351:Drivers/STM32F0xx_HAL_Driver/Inc/stm32f0xx_ll_usart.h **** /**
1352:Drivers/STM32F0xx_HAL_Driver/Inc/stm32f0xx_ll_usart.h ****   * @brief  Indicate if Receiver Timeout feature is enabled
1353:Drivers/STM32F0xx_HAL_Driver/Inc/stm32f0xx_ll_usart.h ****   * @rmtoll CR2          RTOEN         LL_USART_IsEnabledRxTimeout
1354:Drivers/STM32F0xx_HAL_Driver/Inc/stm32f0xx_ll_usart.h ****   * @param  USARTx USART Instance
1355:Drivers/STM32F0xx_HAL_Driver/Inc/stm32f0xx_ll_usart.h ****   * @retval State of bit (1 or 0).
1356:Drivers/STM32F0xx_HAL_Driver/Inc/stm32f0xx_ll_usart.h ****   */
1357:Drivers/STM32F0xx_HAL_Driver/Inc/stm32f0xx_ll_usart.h **** __STATIC_INLINE uint32_t LL_USART_IsEnabledRxTimeout(USART_TypeDef *USARTx)
1358:Drivers/STM32F0xx_HAL_Driver/Inc/stm32f0xx_ll_usart.h **** {
1359:Drivers/STM32F0xx_HAL_Driver/Inc/stm32f0xx_ll_usart.h ****   return ((READ_BIT(USARTx->CR2, USART_CR2_RTOEN) == (USART_CR2_RTOEN)) ? 1UL : 0UL);
1360:Drivers/STM32F0xx_HAL_Driver/Inc/stm32f0xx_ll_usart.h **** }
1361:Drivers/STM32F0xx_HAL_Driver/Inc/stm32f0xx_ll_usart.h **** 
1362:Drivers/STM32F0xx_HAL_Driver/Inc/stm32f0xx_ll_usart.h **** /**
1363:Drivers/STM32F0xx_HAL_Driver/Inc/stm32f0xx_ll_usart.h ****   * @brief  Set Address of the USART node.
1364:Drivers/STM32F0xx_HAL_Driver/Inc/stm32f0xx_ll_usart.h ****   * @note   This is used in multiprocessor communication during Mute mode or Stop mode,
1365:Drivers/STM32F0xx_HAL_Driver/Inc/stm32f0xx_ll_usart.h ****   *         for wake up with address mark detection.
1366:Drivers/STM32F0xx_HAL_Driver/Inc/stm32f0xx_ll_usart.h ****   * @note   4bits address node is used when 4-bit Address Detection is selected in ADDM7.
1367:Drivers/STM32F0xx_HAL_Driver/Inc/stm32f0xx_ll_usart.h ****   *         (b7-b4 should be set to 0)
1368:Drivers/STM32F0xx_HAL_Driver/Inc/stm32f0xx_ll_usart.h ****   *         8bits address node is used when 7-bit Address Detection is selected in ADDM7.
1369:Drivers/STM32F0xx_HAL_Driver/Inc/stm32f0xx_ll_usart.h ****   *         (This is used in multiprocessor communication during Mute mode or Stop mode,
1370:Drivers/STM32F0xx_HAL_Driver/Inc/stm32f0xx_ll_usart.h ****   *         for wake up with 7-bit address mark detection.
1371:Drivers/STM32F0xx_HAL_Driver/Inc/stm32f0xx_ll_usart.h ****   *         The MSB of the character sent by the transmitter should be equal to 1.
1372:Drivers/STM32F0xx_HAL_Driver/Inc/stm32f0xx_ll_usart.h ****   *         It may also be used for character detection during normal reception,
1373:Drivers/STM32F0xx_HAL_Driver/Inc/stm32f0xx_ll_usart.h ****   *         Mute mode inactive (for example, end of block detection in ModBus protocol).
1374:Drivers/STM32F0xx_HAL_Driver/Inc/stm32f0xx_ll_usart.h ****   *         In this case, the whole received character (8-bit) is compared to the ADD[7:0]
1375:Drivers/STM32F0xx_HAL_Driver/Inc/stm32f0xx_ll_usart.h ****   *         value and CMF flag is set on match)
1376:Drivers/STM32F0xx_HAL_Driver/Inc/stm32f0xx_ll_usart.h ****   * @rmtoll CR2          ADD           LL_USART_ConfigNodeAddress\n
1377:Drivers/STM32F0xx_HAL_Driver/Inc/stm32f0xx_ll_usart.h ****   *         CR2          ADDM7         LL_USART_ConfigNodeAddress
1378:Drivers/STM32F0xx_HAL_Driver/Inc/stm32f0xx_ll_usart.h ****   * @param  USARTx USART Instance
1379:Drivers/STM32F0xx_HAL_Driver/Inc/stm32f0xx_ll_usart.h ****   * @param  AddressLen This parameter can be one of the following values:
1380:Drivers/STM32F0xx_HAL_Driver/Inc/stm32f0xx_ll_usart.h ****   *         @arg @ref LL_USART_ADDRESS_DETECT_4B
1381:Drivers/STM32F0xx_HAL_Driver/Inc/stm32f0xx_ll_usart.h ****   *         @arg @ref LL_USART_ADDRESS_DETECT_7B
1382:Drivers/STM32F0xx_HAL_Driver/Inc/stm32f0xx_ll_usart.h ****   * @param  NodeAddress 4 or 7 bit Address of the USART node.
1383:Drivers/STM32F0xx_HAL_Driver/Inc/stm32f0xx_ll_usart.h ****   * @retval None
1384:Drivers/STM32F0xx_HAL_Driver/Inc/stm32f0xx_ll_usart.h ****   */
1385:Drivers/STM32F0xx_HAL_Driver/Inc/stm32f0xx_ll_usart.h **** __STATIC_INLINE void LL_USART_ConfigNodeAddress(USART_TypeDef *USARTx, uint32_t AddressLen, uint32_
1386:Drivers/STM32F0xx_HAL_Driver/Inc/stm32f0xx_ll_usart.h **** {
1387:Drivers/STM32F0xx_HAL_Driver/Inc/stm32f0xx_ll_usart.h ****   MODIFY_REG(USARTx->CR2, USART_CR2_ADD | USART_CR2_ADDM7,
1388:Drivers/STM32F0xx_HAL_Driver/Inc/stm32f0xx_ll_usart.h ****              (uint32_t)(AddressLen | (NodeAddress << USART_CR2_ADD_Pos)));
ARM GAS  C:\Users\ADMINI~1\AppData\Local\Temp\cco9rtsT.s 			page 42


1389:Drivers/STM32F0xx_HAL_Driver/Inc/stm32f0xx_ll_usart.h **** }
1390:Drivers/STM32F0xx_HAL_Driver/Inc/stm32f0xx_ll_usart.h **** 
1391:Drivers/STM32F0xx_HAL_Driver/Inc/stm32f0xx_ll_usart.h **** /**
1392:Drivers/STM32F0xx_HAL_Driver/Inc/stm32f0xx_ll_usart.h ****   * @brief  Return 8 bit Address of the USART node as set in ADD field of CR2.
1393:Drivers/STM32F0xx_HAL_Driver/Inc/stm32f0xx_ll_usart.h ****   * @note   If 4-bit Address Detection is selected in ADDM7,
1394:Drivers/STM32F0xx_HAL_Driver/Inc/stm32f0xx_ll_usart.h ****   *         only 4bits (b3-b0) of returned value are relevant (b31-b4 are not relevant)
1395:Drivers/STM32F0xx_HAL_Driver/Inc/stm32f0xx_ll_usart.h ****   *         If 7-bit Address Detection is selected in ADDM7,
1396:Drivers/STM32F0xx_HAL_Driver/Inc/stm32f0xx_ll_usart.h ****   *         only 8bits (b7-b0) of returned value are relevant (b31-b8 are not relevant)
1397:Drivers/STM32F0xx_HAL_Driver/Inc/stm32f0xx_ll_usart.h ****   * @rmtoll CR2          ADD           LL_USART_GetNodeAddress
1398:Drivers/STM32F0xx_HAL_Driver/Inc/stm32f0xx_ll_usart.h ****   * @param  USARTx USART Instance
1399:Drivers/STM32F0xx_HAL_Driver/Inc/stm32f0xx_ll_usart.h ****   * @retval Address of the USART node (Value between Min_Data=0 and Max_Data=255)
1400:Drivers/STM32F0xx_HAL_Driver/Inc/stm32f0xx_ll_usart.h ****   */
1401:Drivers/STM32F0xx_HAL_Driver/Inc/stm32f0xx_ll_usart.h **** __STATIC_INLINE uint32_t LL_USART_GetNodeAddress(USART_TypeDef *USARTx)
1402:Drivers/STM32F0xx_HAL_Driver/Inc/stm32f0xx_ll_usart.h **** {
1403:Drivers/STM32F0xx_HAL_Driver/Inc/stm32f0xx_ll_usart.h ****   return (uint32_t)(READ_BIT(USARTx->CR2, USART_CR2_ADD) >> USART_CR2_ADD_Pos);
1404:Drivers/STM32F0xx_HAL_Driver/Inc/stm32f0xx_ll_usart.h **** }
1405:Drivers/STM32F0xx_HAL_Driver/Inc/stm32f0xx_ll_usart.h **** 
1406:Drivers/STM32F0xx_HAL_Driver/Inc/stm32f0xx_ll_usart.h **** /**
1407:Drivers/STM32F0xx_HAL_Driver/Inc/stm32f0xx_ll_usart.h ****   * @brief  Return Length of Node Address used in Address Detection mode (7-bit or 4-bit)
1408:Drivers/STM32F0xx_HAL_Driver/Inc/stm32f0xx_ll_usart.h ****   * @rmtoll CR2          ADDM7         LL_USART_GetNodeAddressLen
1409:Drivers/STM32F0xx_HAL_Driver/Inc/stm32f0xx_ll_usart.h ****   * @param  USARTx USART Instance
1410:Drivers/STM32F0xx_HAL_Driver/Inc/stm32f0xx_ll_usart.h ****   * @retval Returned value can be one of the following values:
1411:Drivers/STM32F0xx_HAL_Driver/Inc/stm32f0xx_ll_usart.h ****   *         @arg @ref LL_USART_ADDRESS_DETECT_4B
1412:Drivers/STM32F0xx_HAL_Driver/Inc/stm32f0xx_ll_usart.h ****   *         @arg @ref LL_USART_ADDRESS_DETECT_7B
1413:Drivers/STM32F0xx_HAL_Driver/Inc/stm32f0xx_ll_usart.h ****   */
1414:Drivers/STM32F0xx_HAL_Driver/Inc/stm32f0xx_ll_usart.h **** __STATIC_INLINE uint32_t LL_USART_GetNodeAddressLen(USART_TypeDef *USARTx)
1415:Drivers/STM32F0xx_HAL_Driver/Inc/stm32f0xx_ll_usart.h **** {
1416:Drivers/STM32F0xx_HAL_Driver/Inc/stm32f0xx_ll_usart.h ****   return (uint32_t)(READ_BIT(USARTx->CR2, USART_CR2_ADDM7));
1417:Drivers/STM32F0xx_HAL_Driver/Inc/stm32f0xx_ll_usart.h **** }
1418:Drivers/STM32F0xx_HAL_Driver/Inc/stm32f0xx_ll_usart.h **** 
1419:Drivers/STM32F0xx_HAL_Driver/Inc/stm32f0xx_ll_usart.h **** /**
1420:Drivers/STM32F0xx_HAL_Driver/Inc/stm32f0xx_ll_usart.h ****   * @brief  Enable RTS HW Flow Control
1421:Drivers/STM32F0xx_HAL_Driver/Inc/stm32f0xx_ll_usart.h ****   * @note   Macro IS_UART_HWFLOW_INSTANCE(USARTx) can be used to check whether or not
1422:Drivers/STM32F0xx_HAL_Driver/Inc/stm32f0xx_ll_usart.h ****   *         Hardware Flow control feature is supported by the USARTx instance.
1423:Drivers/STM32F0xx_HAL_Driver/Inc/stm32f0xx_ll_usart.h ****   * @rmtoll CR3          RTSE          LL_USART_EnableRTSHWFlowCtrl
1424:Drivers/STM32F0xx_HAL_Driver/Inc/stm32f0xx_ll_usart.h ****   * @param  USARTx USART Instance
1425:Drivers/STM32F0xx_HAL_Driver/Inc/stm32f0xx_ll_usart.h ****   * @retval None
1426:Drivers/STM32F0xx_HAL_Driver/Inc/stm32f0xx_ll_usart.h ****   */
1427:Drivers/STM32F0xx_HAL_Driver/Inc/stm32f0xx_ll_usart.h **** __STATIC_INLINE void LL_USART_EnableRTSHWFlowCtrl(USART_TypeDef *USARTx)
1428:Drivers/STM32F0xx_HAL_Driver/Inc/stm32f0xx_ll_usart.h **** {
1429:Drivers/STM32F0xx_HAL_Driver/Inc/stm32f0xx_ll_usart.h ****   SET_BIT(USARTx->CR3, USART_CR3_RTSE);
1430:Drivers/STM32F0xx_HAL_Driver/Inc/stm32f0xx_ll_usart.h **** }
1431:Drivers/STM32F0xx_HAL_Driver/Inc/stm32f0xx_ll_usart.h **** 
1432:Drivers/STM32F0xx_HAL_Driver/Inc/stm32f0xx_ll_usart.h **** /**
1433:Drivers/STM32F0xx_HAL_Driver/Inc/stm32f0xx_ll_usart.h ****   * @brief  Disable RTS HW Flow Control
1434:Drivers/STM32F0xx_HAL_Driver/Inc/stm32f0xx_ll_usart.h ****   * @note   Macro IS_UART_HWFLOW_INSTANCE(USARTx) can be used to check whether or not
1435:Drivers/STM32F0xx_HAL_Driver/Inc/stm32f0xx_ll_usart.h ****   *         Hardware Flow control feature is supported by the USARTx instance.
1436:Drivers/STM32F0xx_HAL_Driver/Inc/stm32f0xx_ll_usart.h ****   * @rmtoll CR3          RTSE          LL_USART_DisableRTSHWFlowCtrl
1437:Drivers/STM32F0xx_HAL_Driver/Inc/stm32f0xx_ll_usart.h ****   * @param  USARTx USART Instance
1438:Drivers/STM32F0xx_HAL_Driver/Inc/stm32f0xx_ll_usart.h ****   * @retval None
1439:Drivers/STM32F0xx_HAL_Driver/Inc/stm32f0xx_ll_usart.h ****   */
1440:Drivers/STM32F0xx_HAL_Driver/Inc/stm32f0xx_ll_usart.h **** __STATIC_INLINE void LL_USART_DisableRTSHWFlowCtrl(USART_TypeDef *USARTx)
1441:Drivers/STM32F0xx_HAL_Driver/Inc/stm32f0xx_ll_usart.h **** {
1442:Drivers/STM32F0xx_HAL_Driver/Inc/stm32f0xx_ll_usart.h ****   CLEAR_BIT(USARTx->CR3, USART_CR3_RTSE);
1443:Drivers/STM32F0xx_HAL_Driver/Inc/stm32f0xx_ll_usart.h **** }
1444:Drivers/STM32F0xx_HAL_Driver/Inc/stm32f0xx_ll_usart.h **** 
1445:Drivers/STM32F0xx_HAL_Driver/Inc/stm32f0xx_ll_usart.h **** /**
ARM GAS  C:\Users\ADMINI~1\AppData\Local\Temp\cco9rtsT.s 			page 43


1446:Drivers/STM32F0xx_HAL_Driver/Inc/stm32f0xx_ll_usart.h ****   * @brief  Enable CTS HW Flow Control
1447:Drivers/STM32F0xx_HAL_Driver/Inc/stm32f0xx_ll_usart.h ****   * @note   Macro IS_UART_HWFLOW_INSTANCE(USARTx) can be used to check whether or not
1448:Drivers/STM32F0xx_HAL_Driver/Inc/stm32f0xx_ll_usart.h ****   *         Hardware Flow control feature is supported by the USARTx instance.
1449:Drivers/STM32F0xx_HAL_Driver/Inc/stm32f0xx_ll_usart.h ****   * @rmtoll CR3          CTSE          LL_USART_EnableCTSHWFlowCtrl
1450:Drivers/STM32F0xx_HAL_Driver/Inc/stm32f0xx_ll_usart.h ****   * @param  USARTx USART Instance
1451:Drivers/STM32F0xx_HAL_Driver/Inc/stm32f0xx_ll_usart.h ****   * @retval None
1452:Drivers/STM32F0xx_HAL_Driver/Inc/stm32f0xx_ll_usart.h ****   */
1453:Drivers/STM32F0xx_HAL_Driver/Inc/stm32f0xx_ll_usart.h **** __STATIC_INLINE void LL_USART_EnableCTSHWFlowCtrl(USART_TypeDef *USARTx)
1454:Drivers/STM32F0xx_HAL_Driver/Inc/stm32f0xx_ll_usart.h **** {
1455:Drivers/STM32F0xx_HAL_Driver/Inc/stm32f0xx_ll_usart.h ****   SET_BIT(USARTx->CR3, USART_CR3_CTSE);
1456:Drivers/STM32F0xx_HAL_Driver/Inc/stm32f0xx_ll_usart.h **** }
1457:Drivers/STM32F0xx_HAL_Driver/Inc/stm32f0xx_ll_usart.h **** 
1458:Drivers/STM32F0xx_HAL_Driver/Inc/stm32f0xx_ll_usart.h **** /**
1459:Drivers/STM32F0xx_HAL_Driver/Inc/stm32f0xx_ll_usart.h ****   * @brief  Disable CTS HW Flow Control
1460:Drivers/STM32F0xx_HAL_Driver/Inc/stm32f0xx_ll_usart.h ****   * @note   Macro IS_UART_HWFLOW_INSTANCE(USARTx) can be used to check whether or not
1461:Drivers/STM32F0xx_HAL_Driver/Inc/stm32f0xx_ll_usart.h ****   *         Hardware Flow control feature is supported by the USARTx instance.
1462:Drivers/STM32F0xx_HAL_Driver/Inc/stm32f0xx_ll_usart.h ****   * @rmtoll CR3          CTSE          LL_USART_DisableCTSHWFlowCtrl
1463:Drivers/STM32F0xx_HAL_Driver/Inc/stm32f0xx_ll_usart.h ****   * @param  USARTx USART Instance
1464:Drivers/STM32F0xx_HAL_Driver/Inc/stm32f0xx_ll_usart.h ****   * @retval None
1465:Drivers/STM32F0xx_HAL_Driver/Inc/stm32f0xx_ll_usart.h ****   */
1466:Drivers/STM32F0xx_HAL_Driver/Inc/stm32f0xx_ll_usart.h **** __STATIC_INLINE void LL_USART_DisableCTSHWFlowCtrl(USART_TypeDef *USARTx)
1467:Drivers/STM32F0xx_HAL_Driver/Inc/stm32f0xx_ll_usart.h **** {
1468:Drivers/STM32F0xx_HAL_Driver/Inc/stm32f0xx_ll_usart.h ****   CLEAR_BIT(USARTx->CR3, USART_CR3_CTSE);
1469:Drivers/STM32F0xx_HAL_Driver/Inc/stm32f0xx_ll_usart.h **** }
1470:Drivers/STM32F0xx_HAL_Driver/Inc/stm32f0xx_ll_usart.h **** 
1471:Drivers/STM32F0xx_HAL_Driver/Inc/stm32f0xx_ll_usart.h **** /**
1472:Drivers/STM32F0xx_HAL_Driver/Inc/stm32f0xx_ll_usart.h ****   * @brief  Configure HW Flow Control mode (both CTS and RTS)
1473:Drivers/STM32F0xx_HAL_Driver/Inc/stm32f0xx_ll_usart.h ****   * @note   Macro IS_UART_HWFLOW_INSTANCE(USARTx) can be used to check whether or not
1474:Drivers/STM32F0xx_HAL_Driver/Inc/stm32f0xx_ll_usart.h ****   *         Hardware Flow control feature is supported by the USARTx instance.
1475:Drivers/STM32F0xx_HAL_Driver/Inc/stm32f0xx_ll_usart.h ****   * @rmtoll CR3          RTSE          LL_USART_SetHWFlowCtrl\n
1476:Drivers/STM32F0xx_HAL_Driver/Inc/stm32f0xx_ll_usart.h ****   *         CR3          CTSE          LL_USART_SetHWFlowCtrl
1477:Drivers/STM32F0xx_HAL_Driver/Inc/stm32f0xx_ll_usart.h ****   * @param  USARTx USART Instance
1478:Drivers/STM32F0xx_HAL_Driver/Inc/stm32f0xx_ll_usart.h ****   * @param  HardwareFlowControl This parameter can be one of the following values:
1479:Drivers/STM32F0xx_HAL_Driver/Inc/stm32f0xx_ll_usart.h ****   *         @arg @ref LL_USART_HWCONTROL_NONE
1480:Drivers/STM32F0xx_HAL_Driver/Inc/stm32f0xx_ll_usart.h ****   *         @arg @ref LL_USART_HWCONTROL_RTS
1481:Drivers/STM32F0xx_HAL_Driver/Inc/stm32f0xx_ll_usart.h ****   *         @arg @ref LL_USART_HWCONTROL_CTS
1482:Drivers/STM32F0xx_HAL_Driver/Inc/stm32f0xx_ll_usart.h ****   *         @arg @ref LL_USART_HWCONTROL_RTS_CTS
1483:Drivers/STM32F0xx_HAL_Driver/Inc/stm32f0xx_ll_usart.h ****   * @retval None
1484:Drivers/STM32F0xx_HAL_Driver/Inc/stm32f0xx_ll_usart.h ****   */
1485:Drivers/STM32F0xx_HAL_Driver/Inc/stm32f0xx_ll_usart.h **** __STATIC_INLINE void LL_USART_SetHWFlowCtrl(USART_TypeDef *USARTx, uint32_t HardwareFlowControl)
1486:Drivers/STM32F0xx_HAL_Driver/Inc/stm32f0xx_ll_usart.h **** {
1487:Drivers/STM32F0xx_HAL_Driver/Inc/stm32f0xx_ll_usart.h ****   MODIFY_REG(USARTx->CR3, USART_CR3_RTSE | USART_CR3_CTSE, HardwareFlowControl);
1488:Drivers/STM32F0xx_HAL_Driver/Inc/stm32f0xx_ll_usart.h **** }
1489:Drivers/STM32F0xx_HAL_Driver/Inc/stm32f0xx_ll_usart.h **** 
1490:Drivers/STM32F0xx_HAL_Driver/Inc/stm32f0xx_ll_usart.h **** /**
1491:Drivers/STM32F0xx_HAL_Driver/Inc/stm32f0xx_ll_usart.h ****   * @brief  Return HW Flow Control configuration (both CTS and RTS)
1492:Drivers/STM32F0xx_HAL_Driver/Inc/stm32f0xx_ll_usart.h ****   * @note   Macro IS_UART_HWFLOW_INSTANCE(USARTx) can be used to check whether or not
1493:Drivers/STM32F0xx_HAL_Driver/Inc/stm32f0xx_ll_usart.h ****   *         Hardware Flow control feature is supported by the USARTx instance.
1494:Drivers/STM32F0xx_HAL_Driver/Inc/stm32f0xx_ll_usart.h ****   * @rmtoll CR3          RTSE          LL_USART_GetHWFlowCtrl\n
1495:Drivers/STM32F0xx_HAL_Driver/Inc/stm32f0xx_ll_usart.h ****   *         CR3          CTSE          LL_USART_GetHWFlowCtrl
1496:Drivers/STM32F0xx_HAL_Driver/Inc/stm32f0xx_ll_usart.h ****   * @param  USARTx USART Instance
1497:Drivers/STM32F0xx_HAL_Driver/Inc/stm32f0xx_ll_usart.h ****   * @retval Returned value can be one of the following values:
1498:Drivers/STM32F0xx_HAL_Driver/Inc/stm32f0xx_ll_usart.h ****   *         @arg @ref LL_USART_HWCONTROL_NONE
1499:Drivers/STM32F0xx_HAL_Driver/Inc/stm32f0xx_ll_usart.h ****   *         @arg @ref LL_USART_HWCONTROL_RTS
1500:Drivers/STM32F0xx_HAL_Driver/Inc/stm32f0xx_ll_usart.h ****   *         @arg @ref LL_USART_HWCONTROL_CTS
1501:Drivers/STM32F0xx_HAL_Driver/Inc/stm32f0xx_ll_usart.h ****   *         @arg @ref LL_USART_HWCONTROL_RTS_CTS
1502:Drivers/STM32F0xx_HAL_Driver/Inc/stm32f0xx_ll_usart.h ****   */
ARM GAS  C:\Users\ADMINI~1\AppData\Local\Temp\cco9rtsT.s 			page 44


1503:Drivers/STM32F0xx_HAL_Driver/Inc/stm32f0xx_ll_usart.h **** __STATIC_INLINE uint32_t LL_USART_GetHWFlowCtrl(USART_TypeDef *USARTx)
1504:Drivers/STM32F0xx_HAL_Driver/Inc/stm32f0xx_ll_usart.h **** {
1505:Drivers/STM32F0xx_HAL_Driver/Inc/stm32f0xx_ll_usart.h ****   return (uint32_t)(READ_BIT(USARTx->CR3, USART_CR3_RTSE | USART_CR3_CTSE));
1506:Drivers/STM32F0xx_HAL_Driver/Inc/stm32f0xx_ll_usart.h **** }
1507:Drivers/STM32F0xx_HAL_Driver/Inc/stm32f0xx_ll_usart.h **** 
1508:Drivers/STM32F0xx_HAL_Driver/Inc/stm32f0xx_ll_usart.h **** /**
1509:Drivers/STM32F0xx_HAL_Driver/Inc/stm32f0xx_ll_usart.h ****   * @brief  Enable One bit sampling method
1510:Drivers/STM32F0xx_HAL_Driver/Inc/stm32f0xx_ll_usart.h ****   * @rmtoll CR3          ONEBIT        LL_USART_EnableOneBitSamp
1511:Drivers/STM32F0xx_HAL_Driver/Inc/stm32f0xx_ll_usart.h ****   * @param  USARTx USART Instance
1512:Drivers/STM32F0xx_HAL_Driver/Inc/stm32f0xx_ll_usart.h ****   * @retval None
1513:Drivers/STM32F0xx_HAL_Driver/Inc/stm32f0xx_ll_usart.h ****   */
1514:Drivers/STM32F0xx_HAL_Driver/Inc/stm32f0xx_ll_usart.h **** __STATIC_INLINE void LL_USART_EnableOneBitSamp(USART_TypeDef *USARTx)
1515:Drivers/STM32F0xx_HAL_Driver/Inc/stm32f0xx_ll_usart.h **** {
1516:Drivers/STM32F0xx_HAL_Driver/Inc/stm32f0xx_ll_usart.h ****   SET_BIT(USARTx->CR3, USART_CR3_ONEBIT);
1517:Drivers/STM32F0xx_HAL_Driver/Inc/stm32f0xx_ll_usart.h **** }
1518:Drivers/STM32F0xx_HAL_Driver/Inc/stm32f0xx_ll_usart.h **** 
1519:Drivers/STM32F0xx_HAL_Driver/Inc/stm32f0xx_ll_usart.h **** /**
1520:Drivers/STM32F0xx_HAL_Driver/Inc/stm32f0xx_ll_usart.h ****   * @brief  Disable One bit sampling method
1521:Drivers/STM32F0xx_HAL_Driver/Inc/stm32f0xx_ll_usart.h ****   * @rmtoll CR3          ONEBIT        LL_USART_DisableOneBitSamp
1522:Drivers/STM32F0xx_HAL_Driver/Inc/stm32f0xx_ll_usart.h ****   * @param  USARTx USART Instance
1523:Drivers/STM32F0xx_HAL_Driver/Inc/stm32f0xx_ll_usart.h ****   * @retval None
1524:Drivers/STM32F0xx_HAL_Driver/Inc/stm32f0xx_ll_usart.h ****   */
1525:Drivers/STM32F0xx_HAL_Driver/Inc/stm32f0xx_ll_usart.h **** __STATIC_INLINE void LL_USART_DisableOneBitSamp(USART_TypeDef *USARTx)
1526:Drivers/STM32F0xx_HAL_Driver/Inc/stm32f0xx_ll_usart.h **** {
1527:Drivers/STM32F0xx_HAL_Driver/Inc/stm32f0xx_ll_usart.h ****   CLEAR_BIT(USARTx->CR3, USART_CR3_ONEBIT);
1528:Drivers/STM32F0xx_HAL_Driver/Inc/stm32f0xx_ll_usart.h **** }
1529:Drivers/STM32F0xx_HAL_Driver/Inc/stm32f0xx_ll_usart.h **** 
1530:Drivers/STM32F0xx_HAL_Driver/Inc/stm32f0xx_ll_usart.h **** /**
1531:Drivers/STM32F0xx_HAL_Driver/Inc/stm32f0xx_ll_usart.h ****   * @brief  Indicate if One bit sampling method is enabled
1532:Drivers/STM32F0xx_HAL_Driver/Inc/stm32f0xx_ll_usart.h ****   * @rmtoll CR3          ONEBIT        LL_USART_IsEnabledOneBitSamp
1533:Drivers/STM32F0xx_HAL_Driver/Inc/stm32f0xx_ll_usart.h ****   * @param  USARTx USART Instance
1534:Drivers/STM32F0xx_HAL_Driver/Inc/stm32f0xx_ll_usart.h ****   * @retval State of bit (1 or 0).
1535:Drivers/STM32F0xx_HAL_Driver/Inc/stm32f0xx_ll_usart.h ****   */
1536:Drivers/STM32F0xx_HAL_Driver/Inc/stm32f0xx_ll_usart.h **** __STATIC_INLINE uint32_t LL_USART_IsEnabledOneBitSamp(USART_TypeDef *USARTx)
1537:Drivers/STM32F0xx_HAL_Driver/Inc/stm32f0xx_ll_usart.h **** {
1538:Drivers/STM32F0xx_HAL_Driver/Inc/stm32f0xx_ll_usart.h ****   return ((READ_BIT(USARTx->CR3, USART_CR3_ONEBIT) == (USART_CR3_ONEBIT)) ? 1UL : 0UL);
1539:Drivers/STM32F0xx_HAL_Driver/Inc/stm32f0xx_ll_usart.h **** }
1540:Drivers/STM32F0xx_HAL_Driver/Inc/stm32f0xx_ll_usart.h **** 
1541:Drivers/STM32F0xx_HAL_Driver/Inc/stm32f0xx_ll_usart.h **** /**
1542:Drivers/STM32F0xx_HAL_Driver/Inc/stm32f0xx_ll_usart.h ****   * @brief  Enable Overrun detection
1543:Drivers/STM32F0xx_HAL_Driver/Inc/stm32f0xx_ll_usart.h ****   * @rmtoll CR3          OVRDIS        LL_USART_EnableOverrunDetect
1544:Drivers/STM32F0xx_HAL_Driver/Inc/stm32f0xx_ll_usart.h ****   * @param  USARTx USART Instance
1545:Drivers/STM32F0xx_HAL_Driver/Inc/stm32f0xx_ll_usart.h ****   * @retval None
1546:Drivers/STM32F0xx_HAL_Driver/Inc/stm32f0xx_ll_usart.h ****   */
1547:Drivers/STM32F0xx_HAL_Driver/Inc/stm32f0xx_ll_usart.h **** __STATIC_INLINE void LL_USART_EnableOverrunDetect(USART_TypeDef *USARTx)
1548:Drivers/STM32F0xx_HAL_Driver/Inc/stm32f0xx_ll_usart.h **** {
1549:Drivers/STM32F0xx_HAL_Driver/Inc/stm32f0xx_ll_usart.h ****   CLEAR_BIT(USARTx->CR3, USART_CR3_OVRDIS);
1550:Drivers/STM32F0xx_HAL_Driver/Inc/stm32f0xx_ll_usart.h **** }
1551:Drivers/STM32F0xx_HAL_Driver/Inc/stm32f0xx_ll_usart.h **** 
1552:Drivers/STM32F0xx_HAL_Driver/Inc/stm32f0xx_ll_usart.h **** /**
1553:Drivers/STM32F0xx_HAL_Driver/Inc/stm32f0xx_ll_usart.h ****   * @brief  Disable Overrun detection
1554:Drivers/STM32F0xx_HAL_Driver/Inc/stm32f0xx_ll_usart.h ****   * @rmtoll CR3          OVRDIS        LL_USART_DisableOverrunDetect
1555:Drivers/STM32F0xx_HAL_Driver/Inc/stm32f0xx_ll_usart.h ****   * @param  USARTx USART Instance
1556:Drivers/STM32F0xx_HAL_Driver/Inc/stm32f0xx_ll_usart.h ****   * @retval None
1557:Drivers/STM32F0xx_HAL_Driver/Inc/stm32f0xx_ll_usart.h ****   */
1558:Drivers/STM32F0xx_HAL_Driver/Inc/stm32f0xx_ll_usart.h **** __STATIC_INLINE void LL_USART_DisableOverrunDetect(USART_TypeDef *USARTx)
1559:Drivers/STM32F0xx_HAL_Driver/Inc/stm32f0xx_ll_usart.h **** {
ARM GAS  C:\Users\ADMINI~1\AppData\Local\Temp\cco9rtsT.s 			page 45


1560:Drivers/STM32F0xx_HAL_Driver/Inc/stm32f0xx_ll_usart.h ****   SET_BIT(USARTx->CR3, USART_CR3_OVRDIS);
1561:Drivers/STM32F0xx_HAL_Driver/Inc/stm32f0xx_ll_usart.h **** }
1562:Drivers/STM32F0xx_HAL_Driver/Inc/stm32f0xx_ll_usart.h **** 
1563:Drivers/STM32F0xx_HAL_Driver/Inc/stm32f0xx_ll_usart.h **** /**
1564:Drivers/STM32F0xx_HAL_Driver/Inc/stm32f0xx_ll_usart.h ****   * @brief  Indicate if Overrun detection is enabled
1565:Drivers/STM32F0xx_HAL_Driver/Inc/stm32f0xx_ll_usart.h ****   * @rmtoll CR3          OVRDIS        LL_USART_IsEnabledOverrunDetect
1566:Drivers/STM32F0xx_HAL_Driver/Inc/stm32f0xx_ll_usart.h ****   * @param  USARTx USART Instance
1567:Drivers/STM32F0xx_HAL_Driver/Inc/stm32f0xx_ll_usart.h ****   * @retval State of bit (1 or 0).
1568:Drivers/STM32F0xx_HAL_Driver/Inc/stm32f0xx_ll_usart.h ****   */
1569:Drivers/STM32F0xx_HAL_Driver/Inc/stm32f0xx_ll_usart.h **** __STATIC_INLINE uint32_t LL_USART_IsEnabledOverrunDetect(USART_TypeDef *USARTx)
