ARM GAS  C:\Users\ADMINI~1\AppData\Local\Temp\ccU28qn6.s 			page 1


   1              		.cpu cortex-m0
   2              		.arch armv6s-m
   3              		.fpu softvfp
   4              		.eabi_attribute 20, 1
   5              		.eabi_attribute 21, 1
   6              		.eabi_attribute 23, 3
   7              		.eabi_attribute 24, 1
   8              		.eabi_attribute 25, 1
   9              		.eabi_attribute 26, 1
  10              		.eabi_attribute 30, 1
  11              		.eabi_attribute 34, 0
  12              		.eabi_attribute 18, 4
  13              		.file	"i2c.c"
  14              		.text
  15              	.Ltext0:
  16              		.cfi_sections	.debug_frame
  17              		.section	.text.MX_I2C1_Init,"ax",%progbits
  18              		.align	1
  19              		.global	MX_I2C1_Init
  20              		.syntax unified
  21              		.code	16
  22              		.thumb_func
  24              	MX_I2C1_Init:
  25              	.LFB40:
  26              		.file 1 "Src/i2c.c"
   1:Src/i2c.c     **** /* USER CODE BEGIN Header */
   2:Src/i2c.c     **** /**
   3:Src/i2c.c     ****   ******************************************************************************
   4:Src/i2c.c     ****   * @file    i2c.c
   5:Src/i2c.c     ****   * @brief   This file provides code for the configuration
   6:Src/i2c.c     ****   *          of the I2C instances.
   7:Src/i2c.c     ****   ******************************************************************************
   8:Src/i2c.c     ****   * @attention
   9:Src/i2c.c     ****   *
  10:Src/i2c.c     ****   * Copyright (c) 2022 STMicroelectronics.
  11:Src/i2c.c     ****   * All rights reserved.
  12:Src/i2c.c     ****   *
  13:Src/i2c.c     ****   * This software is licensed under terms that can be found in the LICENSE file
  14:Src/i2c.c     ****   * in the root directory of this software component.
  15:Src/i2c.c     ****   * If no LICENSE file comes with this software, it is provided AS-IS.
  16:Src/i2c.c     ****   *
  17:Src/i2c.c     ****   ******************************************************************************
  18:Src/i2c.c     ****   */
  19:Src/i2c.c     **** /* USER CODE END Header */
  20:Src/i2c.c     **** /* Includes ------------------------------------------------------------------*/
  21:Src/i2c.c     **** #include "i2c.h"
  22:Src/i2c.c     **** 
  23:Src/i2c.c     **** /* USER CODE BEGIN 0 */
  24:Src/i2c.c     **** uint8_t i2cDataRx[8];
  25:Src/i2c.c     **** uint8_t i2cDataTx[8];
  26:Src/i2c.c     **** 
  27:Src/i2c.c     **** /* USER CODE END 0 */
  28:Src/i2c.c     **** 
  29:Src/i2c.c     **** I2C_HandleTypeDef hi2c1;
  30:Src/i2c.c     **** 
  31:Src/i2c.c     **** /* I2C1 init function */
  32:Src/i2c.c     **** void MX_I2C1_Init(void)
ARM GAS  C:\Users\ADMINI~1\AppData\Local\Temp\ccU28qn6.s 			page 2


  33:Src/i2c.c     **** {
  27              		.loc 1 33 1 view -0
  28              		.cfi_startproc
  29              		@ args = 0, pretend = 0, frame = 0
  30              		@ frame_needed = 0, uses_anonymous_args = 0
  31 0000 10B5     		push	{r4, lr}
  32              	.LCFI0:
  33              		.cfi_def_cfa_offset 8
  34              		.cfi_offset 4, -8
  35              		.cfi_offset 14, -4
  34:Src/i2c.c     **** 
  35:Src/i2c.c     ****   /* USER CODE BEGIN I2C1_Init 0 */
  36:Src/i2c.c     **** 
  37:Src/i2c.c     ****   /* USER CODE END I2C1_Init 0 */
  38:Src/i2c.c     **** 
  39:Src/i2c.c     ****   /* USER CODE BEGIN I2C1_Init 1 */
  40:Src/i2c.c     **** 
  41:Src/i2c.c     ****   /* USER CODE END I2C1_Init 1 */
  42:Src/i2c.c     ****   hi2c1.Instance = I2C1;
  36              		.loc 1 42 3 view .LVU1
  37              		.loc 1 42 18 is_stmt 0 view .LVU2
  38 0002 1548     		ldr	r0, .L8
  39 0004 154B     		ldr	r3, .L8+4
  40 0006 0360     		str	r3, [r0]
  43:Src/i2c.c     ****   hi2c1.Init.Timing = 0x2000090E;
  41              		.loc 1 43 3 is_stmt 1 view .LVU3
  42              		.loc 1 43 21 is_stmt 0 view .LVU4
  43 0008 154B     		ldr	r3, .L8+8
  44 000a 4360     		str	r3, [r0, #4]
  44:Src/i2c.c     ****   hi2c1.Init.OwnAddress1 = 0;
  45              		.loc 1 44 3 is_stmt 1 view .LVU5
  46              		.loc 1 44 26 is_stmt 0 view .LVU6
  47 000c 0023     		movs	r3, #0
  48 000e 8360     		str	r3, [r0, #8]
  45:Src/i2c.c     ****   hi2c1.Init.AddressingMode = I2C_ADDRESSINGMODE_7BIT;
  49              		.loc 1 45 3 is_stmt 1 view .LVU7
  50              		.loc 1 45 29 is_stmt 0 view .LVU8
  51 0010 0122     		movs	r2, #1
  52 0012 C260     		str	r2, [r0, #12]
  46:Src/i2c.c     ****   hi2c1.Init.DualAddressMode = I2C_DUALADDRESS_ENABLE;
  53              		.loc 1 46 3 is_stmt 1 view .LVU9
  54              		.loc 1 46 30 is_stmt 0 view .LVU10
  55 0014 8022     		movs	r2, #128
  56 0016 1202     		lsls	r2, r2, #8
  57 0018 0261     		str	r2, [r0, #16]
  47:Src/i2c.c     ****   hi2c1.Init.OwnAddress2 = 0;
  58              		.loc 1 47 3 is_stmt 1 view .LVU11
  59              		.loc 1 47 26 is_stmt 0 view .LVU12
  60 001a 4361     		str	r3, [r0, #20]
  48:Src/i2c.c     ****   hi2c1.Init.OwnAddress2Masks = I2C_OA2_NOMASK;
  61              		.loc 1 48 3 is_stmt 1 view .LVU13
  62              		.loc 1 48 31 is_stmt 0 view .LVU14
  63 001c 8361     		str	r3, [r0, #24]
  49:Src/i2c.c     ****   hi2c1.Init.GeneralCallMode = I2C_GENERALCALL_DISABLE;
  64              		.loc 1 49 3 is_stmt 1 view .LVU15
  65              		.loc 1 49 30 is_stmt 0 view .LVU16
  66 001e C361     		str	r3, [r0, #28]
ARM GAS  C:\Users\ADMINI~1\AppData\Local\Temp\ccU28qn6.s 			page 3


  50:Src/i2c.c     ****   hi2c1.Init.NoStretchMode = I2C_NOSTRETCH_DISABLE;
  67              		.loc 1 50 3 is_stmt 1 view .LVU17
  68              		.loc 1 50 28 is_stmt 0 view .LVU18
  69 0020 0362     		str	r3, [r0, #32]
  51:Src/i2c.c     ****   if (HAL_I2C_Init(&hi2c1) != HAL_OK)
  70              		.loc 1 51 3 is_stmt 1 view .LVU19
  71              		.loc 1 51 7 is_stmt 0 view .LVU20
  72 0022 FFF7FEFF 		bl	HAL_I2C_Init
  73              	.LVL0:
  74              		.loc 1 51 6 view .LVU21
  75 0026 0028     		cmp	r0, #0
  76 0028 0CD1     		bne	.L5
  77              	.L2:
  52:Src/i2c.c     ****   {
  53:Src/i2c.c     ****     Error_Handler();
  54:Src/i2c.c     ****   }
  55:Src/i2c.c     **** 
  56:Src/i2c.c     ****   /** Configure Analogue filter
  57:Src/i2c.c     ****   */
  58:Src/i2c.c     ****   if (HAL_I2CEx_ConfigAnalogFilter(&hi2c1, I2C_ANALOGFILTER_ENABLE) != HAL_OK)
  78              		.loc 1 58 3 is_stmt 1 view .LVU22
  79              		.loc 1 58 7 is_stmt 0 view .LVU23
  80 002a 0021     		movs	r1, #0
  81 002c 0A48     		ldr	r0, .L8
  82 002e FFF7FEFF 		bl	HAL_I2CEx_ConfigAnalogFilter
  83              	.LVL1:
  84              		.loc 1 58 6 view .LVU24
  85 0032 0028     		cmp	r0, #0
  86 0034 09D1     		bne	.L6
  87              	.L3:
  59:Src/i2c.c     ****   {
  60:Src/i2c.c     ****     Error_Handler();
  61:Src/i2c.c     ****   }
  62:Src/i2c.c     **** 
  63:Src/i2c.c     ****   /** Configure Digital filter
  64:Src/i2c.c     ****   */
  65:Src/i2c.c     ****   if (HAL_I2CEx_ConfigDigitalFilter(&hi2c1, 0) != HAL_OK)
  88              		.loc 1 65 3 is_stmt 1 view .LVU25
  89              		.loc 1 65 7 is_stmt 0 view .LVU26
  90 0036 0021     		movs	r1, #0
  91 0038 0748     		ldr	r0, .L8
  92 003a FFF7FEFF 		bl	HAL_I2CEx_ConfigDigitalFilter
  93              	.LVL2:
  94              		.loc 1 65 6 view .LVU27
  95 003e 0028     		cmp	r0, #0
  96 0040 06D1     		bne	.L7
  97              	.L1:
  66:Src/i2c.c     ****   {
  67:Src/i2c.c     ****     Error_Handler();
  68:Src/i2c.c     ****   }
  69:Src/i2c.c     ****   /* USER CODE BEGIN I2C1_Init 2 */
  70:Src/i2c.c     **** 
  71:Src/i2c.c     ****   /* USER CODE END I2C1_Init 2 */
  72:Src/i2c.c     **** 
  73:Src/i2c.c     **** }
  98              		.loc 1 73 1 view .LVU28
  99              		@ sp needed
ARM GAS  C:\Users\ADMINI~1\AppData\Local\Temp\ccU28qn6.s 			page 4


 100 0042 10BD     		pop	{r4, pc}
 101              	.L5:
  53:Src/i2c.c     ****   }
 102              		.loc 1 53 5 is_stmt 1 view .LVU29
 103 0044 FFF7FEFF 		bl	Error_Handler
 104              	.LVL3:
 105 0048 EFE7     		b	.L2
 106              	.L6:
  60:Src/i2c.c     ****   }
 107              		.loc 1 60 5 view .LVU30
 108 004a FFF7FEFF 		bl	Error_Handler
 109              	.LVL4:
 110 004e F2E7     		b	.L3
 111              	.L7:
  67:Src/i2c.c     ****   }
 112              		.loc 1 67 5 view .LVU31
 113 0050 FFF7FEFF 		bl	Error_Handler
 114              	.LVL5:
 115              		.loc 1 73 1 is_stmt 0 view .LVU32
 116 0054 F5E7     		b	.L1
 117              	.L9:
 118 0056 C046     		.align	2
 119              	.L8:
 120 0058 00000000 		.word	.LANCHOR0
 121 005c 00540040 		.word	1073763328
 122 0060 0E090020 		.word	536873230
 123              		.cfi_endproc
 124              	.LFE40:
 126              		.section	.text.HAL_I2C_MspInit,"ax",%progbits
 127              		.align	1
 128              		.global	HAL_I2C_MspInit
 129              		.syntax unified
 130              		.code	16
 131              		.thumb_func
 133              	HAL_I2C_MspInit:
 134              	.LVL6:
 135              	.LFB41:
  74:Src/i2c.c     **** 
  75:Src/i2c.c     **** void HAL_I2C_MspInit(I2C_HandleTypeDef* i2cHandle)
  76:Src/i2c.c     **** {
 136              		.loc 1 76 1 is_stmt 1 view -0
 137              		.cfi_startproc
 138              		@ args = 0, pretend = 0, frame = 32
 139              		@ frame_needed = 0, uses_anonymous_args = 0
 140              		.loc 1 76 1 is_stmt 0 view .LVU34
 141 0000 10B5     		push	{r4, lr}
 142              	.LCFI1:
 143              		.cfi_def_cfa_offset 8
 144              		.cfi_offset 4, -8
 145              		.cfi_offset 14, -4
 146 0002 88B0     		sub	sp, sp, #32
 147              	.LCFI2:
 148              		.cfi_def_cfa_offset 40
 149 0004 0400     		movs	r4, r0
  77:Src/i2c.c     **** 
  78:Src/i2c.c     ****   GPIO_InitTypeDef GPIO_InitStruct = {0};
 150              		.loc 1 78 3 is_stmt 1 view .LVU35
ARM GAS  C:\Users\ADMINI~1\AppData\Local\Temp\ccU28qn6.s 			page 5


 151              		.loc 1 78 20 is_stmt 0 view .LVU36
 152 0006 1422     		movs	r2, #20
 153 0008 0021     		movs	r1, #0
 154 000a 03A8     		add	r0, sp, #12
 155              	.LVL7:
 156              		.loc 1 78 20 view .LVU37
 157 000c FFF7FEFF 		bl	memset
 158              	.LVL8:
  79:Src/i2c.c     ****   if(i2cHandle->Instance==I2C1)
 159              		.loc 1 79 3 is_stmt 1 view .LVU38
 160              		.loc 1 79 15 is_stmt 0 view .LVU39
 161 0010 2268     		ldr	r2, [r4]
 162              		.loc 1 79 5 view .LVU40
 163 0012 184B     		ldr	r3, .L13
 164 0014 9A42     		cmp	r2, r3
 165 0016 01D0     		beq	.L12
 166              	.LVL9:
 167              	.L10:
  80:Src/i2c.c     ****   {
  81:Src/i2c.c     ****   /* USER CODE BEGIN I2C1_MspInit 0 */
  82:Src/i2c.c     **** 
  83:Src/i2c.c     ****   /* USER CODE END I2C1_MspInit 0 */
  84:Src/i2c.c     **** 
  85:Src/i2c.c     ****     __HAL_RCC_GPIOA_CLK_ENABLE();
  86:Src/i2c.c     ****     /**I2C1 GPIO Configuration
  87:Src/i2c.c     ****     PA9     ------> I2C1_SCL
  88:Src/i2c.c     ****     PA10     ------> I2C1_SDA
  89:Src/i2c.c     ****     */
  90:Src/i2c.c     ****     GPIO_InitStruct.Pin = GPIO_PIN_9|GPIO_PIN_10;
  91:Src/i2c.c     ****     GPIO_InitStruct.Mode = GPIO_MODE_AF_OD;
  92:Src/i2c.c     ****     GPIO_InitStruct.Pull = GPIO_PULLUP;
  93:Src/i2c.c     ****     GPIO_InitStruct.Speed = GPIO_SPEED_FREQ_HIGH;
  94:Src/i2c.c     ****     GPIO_InitStruct.Alternate = GPIO_AF4_I2C1;
  95:Src/i2c.c     ****     HAL_GPIO_Init(GPIOA, &GPIO_InitStruct);
  96:Src/i2c.c     **** 
  97:Src/i2c.c     ****     /* I2C1 clock enable */
  98:Src/i2c.c     ****     __HAL_RCC_I2C1_CLK_ENABLE();
  99:Src/i2c.c     **** 
 100:Src/i2c.c     ****     /* I2C1 interrupt Init */
 101:Src/i2c.c     ****     HAL_NVIC_SetPriority(I2C1_IRQn, 0, 0);
 102:Src/i2c.c     ****     HAL_NVIC_EnableIRQ(I2C1_IRQn);
 103:Src/i2c.c     ****   /* USER CODE BEGIN I2C1_MspInit 1 */
 104:Src/i2c.c     **** 
 105:Src/i2c.c     ****   /* USER CODE END I2C1_MspInit 1 */
 106:Src/i2c.c     ****   }
 107:Src/i2c.c     **** }
 168              		.loc 1 107 1 view .LVU41
 169 0018 08B0     		add	sp, sp, #32
 170              		@ sp needed
 171 001a 10BD     		pop	{r4, pc}
 172              	.LVL10:
 173              	.L12:
  85:Src/i2c.c     ****     /**I2C1 GPIO Configuration
 174              		.loc 1 85 5 is_stmt 1 view .LVU42
 175              	.LBB2:
  85:Src/i2c.c     ****     /**I2C1 GPIO Configuration
 176              		.loc 1 85 5 view .LVU43
ARM GAS  C:\Users\ADMINI~1\AppData\Local\Temp\ccU28qn6.s 			page 6


  85:Src/i2c.c     ****     /**I2C1 GPIO Configuration
 177              		.loc 1 85 5 view .LVU44
 178 001c 164C     		ldr	r4, .L13+4
 179              	.LVL11:
  85:Src/i2c.c     ****     /**I2C1 GPIO Configuration
 180              		.loc 1 85 5 is_stmt 0 view .LVU45
 181 001e 6269     		ldr	r2, [r4, #20]
 182 0020 8021     		movs	r1, #128
 183 0022 8902     		lsls	r1, r1, #10
 184 0024 0A43     		orrs	r2, r1
 185 0026 6261     		str	r2, [r4, #20]
  85:Src/i2c.c     ****     /**I2C1 GPIO Configuration
 186              		.loc 1 85 5 is_stmt 1 view .LVU46
 187 0028 6369     		ldr	r3, [r4, #20]
 188 002a 0B40     		ands	r3, r1
 189 002c 0193     		str	r3, [sp, #4]
  85:Src/i2c.c     ****     /**I2C1 GPIO Configuration
 190              		.loc 1 85 5 view .LVU47
 191 002e 019B     		ldr	r3, [sp, #4]
 192              	.LBE2:
  85:Src/i2c.c     ****     /**I2C1 GPIO Configuration
 193              		.loc 1 85 5 view .LVU48
  90:Src/i2c.c     ****     GPIO_InitStruct.Mode = GPIO_MODE_AF_OD;
 194              		.loc 1 90 5 view .LVU49
  90:Src/i2c.c     ****     GPIO_InitStruct.Mode = GPIO_MODE_AF_OD;
 195              		.loc 1 90 25 is_stmt 0 view .LVU50
 196 0030 C023     		movs	r3, #192
 197 0032 DB00     		lsls	r3, r3, #3
 198 0034 0393     		str	r3, [sp, #12]
  91:Src/i2c.c     ****     GPIO_InitStruct.Pull = GPIO_PULLUP;
 199              		.loc 1 91 5 is_stmt 1 view .LVU51
  91:Src/i2c.c     ****     GPIO_InitStruct.Pull = GPIO_PULLUP;
 200              		.loc 1 91 26 is_stmt 0 view .LVU52
 201 0036 1223     		movs	r3, #18
 202 0038 0493     		str	r3, [sp, #16]
  92:Src/i2c.c     ****     GPIO_InitStruct.Speed = GPIO_SPEED_FREQ_HIGH;
 203              		.loc 1 92 5 is_stmt 1 view .LVU53
  92:Src/i2c.c     ****     GPIO_InitStruct.Speed = GPIO_SPEED_FREQ_HIGH;
 204              		.loc 1 92 26 is_stmt 0 view .LVU54
 205 003a 113B     		subs	r3, r3, #17
 206 003c 0593     		str	r3, [sp, #20]
  93:Src/i2c.c     ****     GPIO_InitStruct.Alternate = GPIO_AF4_I2C1;
 207              		.loc 1 93 5 is_stmt 1 view .LVU55
  93:Src/i2c.c     ****     GPIO_InitStruct.Alternate = GPIO_AF4_I2C1;
 208              		.loc 1 93 27 is_stmt 0 view .LVU56
 209 003e 0233     		adds	r3, r3, #2
 210 0040 0693     		str	r3, [sp, #24]
  94:Src/i2c.c     ****     HAL_GPIO_Init(GPIOA, &GPIO_InitStruct);
 211              		.loc 1 94 5 is_stmt 1 view .LVU57
  94:Src/i2c.c     ****     HAL_GPIO_Init(GPIOA, &GPIO_InitStruct);
 212              		.loc 1 94 31 is_stmt 0 view .LVU58
 213 0042 0133     		adds	r3, r3, #1
 214 0044 0793     		str	r3, [sp, #28]
  95:Src/i2c.c     **** 
 215              		.loc 1 95 5 is_stmt 1 view .LVU59
 216 0046 9020     		movs	r0, #144
 217 0048 03A9     		add	r1, sp, #12
ARM GAS  C:\Users\ADMINI~1\AppData\Local\Temp\ccU28qn6.s 			page 7


 218 004a C005     		lsls	r0, r0, #23
 219 004c FFF7FEFF 		bl	HAL_GPIO_Init
 220              	.LVL12:
  98:Src/i2c.c     **** 
 221              		.loc 1 98 5 view .LVU60
 222              	.LBB3:
  98:Src/i2c.c     **** 
 223              		.loc 1 98 5 view .LVU61
  98:Src/i2c.c     **** 
 224              		.loc 1 98 5 view .LVU62
 225 0050 E269     		ldr	r2, [r4, #28]
 226 0052 8021     		movs	r1, #128
 227 0054 8903     		lsls	r1, r1, #14
 228 0056 0A43     		orrs	r2, r1
 229 0058 E261     		str	r2, [r4, #28]
  98:Src/i2c.c     **** 
 230              		.loc 1 98 5 view .LVU63
 231 005a E369     		ldr	r3, [r4, #28]
 232 005c 0B40     		ands	r3, r1
 233 005e 0293     		str	r3, [sp, #8]
  98:Src/i2c.c     **** 
 234              		.loc 1 98 5 view .LVU64
 235 0060 029B     		ldr	r3, [sp, #8]
 236              	.LBE3:
  98:Src/i2c.c     **** 
 237              		.loc 1 98 5 view .LVU65
 101:Src/i2c.c     ****     HAL_NVIC_EnableIRQ(I2C1_IRQn);
 238              		.loc 1 101 5 view .LVU66
 239 0062 0022     		movs	r2, #0
 240 0064 0021     		movs	r1, #0
 241 0066 1720     		movs	r0, #23
 242 0068 FFF7FEFF 		bl	HAL_NVIC_SetPriority
 243              	.LVL13:
 102:Src/i2c.c     ****   /* USER CODE BEGIN I2C1_MspInit 1 */
 244              		.loc 1 102 5 view .LVU67
 245 006c 1720     		movs	r0, #23
 246 006e FFF7FEFF 		bl	HAL_NVIC_EnableIRQ
 247              	.LVL14:
 248              		.loc 1 107 1 is_stmt 0 view .LVU68
 249 0072 D1E7     		b	.L10
 250              	.L14:
 251              		.align	2
 252              	.L13:
 253 0074 00540040 		.word	1073763328
 254 0078 00100240 		.word	1073876992
 255              		.cfi_endproc
 256              	.LFE41:
 258              		.section	.text.HAL_I2C_MspDeInit,"ax",%progbits
 259              		.align	1
 260              		.global	HAL_I2C_MspDeInit
 261              		.syntax unified
 262              		.code	16
 263              		.thumb_func
 265              	HAL_I2C_MspDeInit:
 266              	.LVL15:
 267              	.LFB42:
 108:Src/i2c.c     **** 
ARM GAS  C:\Users\ADMINI~1\AppData\Local\Temp\ccU28qn6.s 			page 8


 109:Src/i2c.c     **** void HAL_I2C_MspDeInit(I2C_HandleTypeDef* i2cHandle)
 110:Src/i2c.c     **** {
 268              		.loc 1 110 1 is_stmt 1 view -0
 269              		.cfi_startproc
 270              		@ args = 0, pretend = 0, frame = 0
 271              		@ frame_needed = 0, uses_anonymous_args = 0
 272              		.loc 1 110 1 is_stmt 0 view .LVU70
 273 0000 10B5     		push	{r4, lr}
 274              	.LCFI3:
 275              		.cfi_def_cfa_offset 8
 276              		.cfi_offset 4, -8
 277              		.cfi_offset 14, -4
 111:Src/i2c.c     **** 
 112:Src/i2c.c     ****   if(i2cHandle->Instance==I2C1)
 278              		.loc 1 112 3 is_stmt 1 view .LVU71
 279              		.loc 1 112 15 is_stmt 0 view .LVU72
 280 0002 0268     		ldr	r2, [r0]
 281              		.loc 1 112 5 view .LVU73
 282 0004 0C4B     		ldr	r3, .L18
 283 0006 9A42     		cmp	r2, r3
 284 0008 00D0     		beq	.L17
 285              	.LVL16:
 286              	.L15:
 113:Src/i2c.c     ****   {
 114:Src/i2c.c     ****   /* USER CODE BEGIN I2C1_MspDeInit 0 */
 115:Src/i2c.c     **** 
 116:Src/i2c.c     ****   /* USER CODE END I2C1_MspDeInit 0 */
 117:Src/i2c.c     ****     /* Peripheral clock disable */
 118:Src/i2c.c     ****     __HAL_RCC_I2C1_CLK_DISABLE();
 119:Src/i2c.c     **** 
 120:Src/i2c.c     ****     /**I2C1 GPIO Configuration
 121:Src/i2c.c     ****     PA9     ------> I2C1_SCL
 122:Src/i2c.c     ****     PA10     ------> I2C1_SDA
 123:Src/i2c.c     ****     */
 124:Src/i2c.c     ****     HAL_GPIO_DeInit(GPIOA, GPIO_PIN_9);
 125:Src/i2c.c     **** 
 126:Src/i2c.c     ****     HAL_GPIO_DeInit(GPIOA, GPIO_PIN_10);
 127:Src/i2c.c     **** 
 128:Src/i2c.c     ****     /* I2C1 interrupt Deinit */
 129:Src/i2c.c     ****     HAL_NVIC_DisableIRQ(I2C1_IRQn);
 130:Src/i2c.c     ****   /* USER CODE BEGIN I2C1_MspDeInit 1 */
 131:Src/i2c.c     **** 
 132:Src/i2c.c     ****   /* USER CODE END I2C1_MspDeInit 1 */
 133:Src/i2c.c     ****   }
 134:Src/i2c.c     **** }
 287              		.loc 1 134 1 view .LVU74
 288              		@ sp needed
 289 000a 10BD     		pop	{r4, pc}
 290              	.LVL17:
 291              	.L17:
 118:Src/i2c.c     **** 
 292              		.loc 1 118 5 is_stmt 1 view .LVU75
 293 000c 0B4A     		ldr	r2, .L18+4
 294 000e D369     		ldr	r3, [r2, #28]
 295 0010 0B49     		ldr	r1, .L18+8
 296 0012 0B40     		ands	r3, r1
 297 0014 D361     		str	r3, [r2, #28]
ARM GAS  C:\Users\ADMINI~1\AppData\Local\Temp\ccU28qn6.s 			page 9


 124:Src/i2c.c     **** 
 298              		.loc 1 124 5 view .LVU76
 299 0016 8021     		movs	r1, #128
 300 0018 9024     		movs	r4, #144
 301 001a E405     		lsls	r4, r4, #23
 302 001c 8900     		lsls	r1, r1, #2
 303 001e 2000     		movs	r0, r4
 304              	.LVL18:
 124:Src/i2c.c     **** 
 305              		.loc 1 124 5 is_stmt 0 view .LVU77
 306 0020 FFF7FEFF 		bl	HAL_GPIO_DeInit
 307              	.LVL19:
 126:Src/i2c.c     **** 
 308              		.loc 1 126 5 is_stmt 1 view .LVU78
 309 0024 8021     		movs	r1, #128
 310 0026 C900     		lsls	r1, r1, #3
 311 0028 2000     		movs	r0, r4
 312 002a FFF7FEFF 		bl	HAL_GPIO_DeInit
 313              	.LVL20:
 129:Src/i2c.c     ****   /* USER CODE BEGIN I2C1_MspDeInit 1 */
 314              		.loc 1 129 5 view .LVU79
 315 002e 1720     		movs	r0, #23
 316 0030 FFF7FEFF 		bl	HAL_NVIC_DisableIRQ
 317              	.LVL21:
 318              		.loc 1 134 1 is_stmt 0 view .LVU80
 319 0034 E9E7     		b	.L15
 320              	.L19:
 321 0036 C046     		.align	2
 322              	.L18:
 323 0038 00540040 		.word	1073763328
 324 003c 00100240 		.word	1073876992
 325 0040 FFFFDFFF 		.word	-2097153
 326              		.cfi_endproc
 327              	.LFE42:
 329              		.section	.text.MY_I2C1_Init,"ax",%progbits
 330              		.align	1
 331              		.global	MY_I2C1_Init
 332              		.syntax unified
 333              		.code	16
 334              		.thumb_func
 336              	MY_I2C1_Init:
 337              	.LVL22:
 338              	.LFB43:
 135:Src/i2c.c     **** 
 136:Src/i2c.c     **** /* USER CODE BEGIN 1 */
 137:Src/i2c.c     **** void MY_I2C1_Init(uint32_t _id)
 138:Src/i2c.c     **** {
 339              		.loc 1 138 1 is_stmt 1 view -0
 340              		.cfi_startproc
 341              		@ args = 0, pretend = 0, frame = 0
 342              		@ frame_needed = 0, uses_anonymous_args = 0
 343              		.loc 1 138 1 is_stmt 0 view .LVU82
 344 0000 10B5     		push	{r4, lr}
 345              	.LCFI4:
 346              		.cfi_def_cfa_offset 8
 347              		.cfi_offset 4, -8
 348              		.cfi_offset 14, -4
ARM GAS  C:\Users\ADMINI~1\AppData\Local\Temp\ccU28qn6.s 			page 10


 139:Src/i2c.c     **** 
 140:Src/i2c.c     ****     /* USER CODE BEGIN I2C1_Init 0 */
 141:Src/i2c.c     ****  
 142:Src/i2c.c     ****     /* USER CODE END I2C1_Init 0 */
 143:Src/i2c.c     **** 
 144:Src/i2c.c     ****     /* USER CODE BEGIN I2C1_Init 1 */
 145:Src/i2c.c     **** 
 146:Src/i2c.c     ****     /* USER CODE END I2C1_Init 1 */
 147:Src/i2c.c     ****   hi2c1.Instance = I2C1;
 349              		.loc 1 147 3 is_stmt 1 view .LVU83
 350              		.loc 1 147 18 is_stmt 0 view .LVU84
 351 0002 154B     		ldr	r3, .L27
 352 0004 154A     		ldr	r2, .L27+4
 353 0006 1A60     		str	r2, [r3]
 148:Src/i2c.c     ****   hi2c1.Init.Timing = 0x2000090E;
 354              		.loc 1 148 3 is_stmt 1 view .LVU85
 355              		.loc 1 148 21 is_stmt 0 view .LVU86
 356 0008 154A     		ldr	r2, .L27+8
 357 000a 5A60     		str	r2, [r3, #4]
 149:Src/i2c.c     ****   hi2c1.Init.OwnAddress1 = _id;
 358              		.loc 1 149 3 is_stmt 1 view .LVU87
 359              		.loc 1 149 26 is_stmt 0 view .LVU88
 360 000c 9860     		str	r0, [r3, #8]
 150:Src/i2c.c     ****   hi2c1.Init.AddressingMode = I2C_ADDRESSINGMODE_7BIT;
 361              		.loc 1 150 3 is_stmt 1 view .LVU89
 362              		.loc 1 150 29 is_stmt 0 view .LVU90
 363 000e 0122     		movs	r2, #1
 364 0010 DA60     		str	r2, [r3, #12]
 151:Src/i2c.c     ****   hi2c1.Init.DualAddressMode = I2C_DUALADDRESS_ENABLE;
 365              		.loc 1 151 3 is_stmt 1 view .LVU91
 366              		.loc 1 151 30 is_stmt 0 view .LVU92
 367 0012 8022     		movs	r2, #128
 368 0014 1202     		lsls	r2, r2, #8
 369 0016 1A61     		str	r2, [r3, #16]
 152:Src/i2c.c     ****   hi2c1.Init.OwnAddress2 = 0;
 370              		.loc 1 152 3 is_stmt 1 view .LVU93
 371              		.loc 1 152 26 is_stmt 0 view .LVU94
 372 0018 0022     		movs	r2, #0
 373 001a 5A61     		str	r2, [r3, #20]
 153:Src/i2c.c     ****   hi2c1.Init.OwnAddress2Masks = I2C_OA2_NOMASK;
 374              		.loc 1 153 3 is_stmt 1 view .LVU95
 375              		.loc 1 153 31 is_stmt 0 view .LVU96
 376 001c 9A61     		str	r2, [r3, #24]
 154:Src/i2c.c     ****   hi2c1.Init.GeneralCallMode = I2C_GENERALCALL_DISABLE;
 377              		.loc 1 154 3 is_stmt 1 view .LVU97
 378              		.loc 1 154 30 is_stmt 0 view .LVU98
 379 001e DA61     		str	r2, [r3, #28]
 155:Src/i2c.c     ****   hi2c1.Init.NoStretchMode = I2C_NOSTRETCH_DISABLE;
 380              		.loc 1 155 3 is_stmt 1 view .LVU99
 381              		.loc 1 155 28 is_stmt 0 view .LVU100
 382 0020 1A62     		str	r2, [r3, #32]
 156:Src/i2c.c     ****   if (HAL_I2C_Init(&hi2c1) != HAL_OK)
 383              		.loc 1 156 3 is_stmt 1 view .LVU101
 384              		.loc 1 156 7 is_stmt 0 view .LVU102
 385 0022 1800     		movs	r0, r3
 386              	.LVL23:
 387              		.loc 1 156 7 view .LVU103
ARM GAS  C:\Users\ADMINI~1\AppData\Local\Temp\ccU28qn6.s 			page 11


 388 0024 FFF7FEFF 		bl	HAL_I2C_Init
 389              	.LVL24:
 390              		.loc 1 156 6 view .LVU104
 391 0028 0028     		cmp	r0, #0
 392 002a 0CD1     		bne	.L24
 393              	.L21:
 157:Src/i2c.c     ****   {
 158:Src/i2c.c     ****     Error_Handler();
 159:Src/i2c.c     ****   }
 160:Src/i2c.c     **** 
 161:Src/i2c.c     ****   /** Configure Analogue filter
 162:Src/i2c.c     ****   */
 163:Src/i2c.c     ****   if (HAL_I2CEx_ConfigAnalogFilter(&hi2c1, I2C_ANALOGFILTER_ENABLE) != HAL_OK)
 394              		.loc 1 163 3 is_stmt 1 view .LVU105
 395              		.loc 1 163 7 is_stmt 0 view .LVU106
 396 002c 0021     		movs	r1, #0
 397 002e 0A48     		ldr	r0, .L27
 398 0030 FFF7FEFF 		bl	HAL_I2CEx_ConfigAnalogFilter
 399              	.LVL25:
 400              		.loc 1 163 6 view .LVU107
 401 0034 0028     		cmp	r0, #0
 402 0036 09D1     		bne	.L25
 403              	.L22:
 164:Src/i2c.c     ****   {
 165:Src/i2c.c     ****     Error_Handler();
 166:Src/i2c.c     ****   }
 167:Src/i2c.c     **** 
 168:Src/i2c.c     ****   /** Configure Digital filter
 169:Src/i2c.c     ****   */
 170:Src/i2c.c     ****   if (HAL_I2CEx_ConfigDigitalFilter(&hi2c1, 0) != HAL_OK)
 404              		.loc 1 170 3 is_stmt 1 view .LVU108
 405              		.loc 1 170 7 is_stmt 0 view .LVU109
 406 0038 0021     		movs	r1, #0
 407 003a 0748     		ldr	r0, .L27
 408 003c FFF7FEFF 		bl	HAL_I2CEx_ConfigDigitalFilter
 409              	.LVL26:
 410              		.loc 1 170 6 view .LVU110
 411 0040 0028     		cmp	r0, #0
 412 0042 06D1     		bne	.L26
 413              	.L20:
 171:Src/i2c.c     ****   {
 172:Src/i2c.c     ****     Error_Handler();
 173:Src/i2c.c     ****   }
 174:Src/i2c.c     ****     /* USER CODE BEGIN I2C1_Init 2 */
 175:Src/i2c.c     **** 
 176:Src/i2c.c     ****     /* USER CODE END I2C1_Init 2 */
 177:Src/i2c.c     **** 
 178:Src/i2c.c     **** }
 414              		.loc 1 178 1 view .LVU111
 415              		@ sp needed
 416 0044 10BD     		pop	{r4, pc}
 417              	.L24:
 158:Src/i2c.c     ****   }
 418              		.loc 1 158 5 is_stmt 1 view .LVU112
 419 0046 FFF7FEFF 		bl	Error_Handler
 420              	.LVL27:
 421 004a EFE7     		b	.L21
ARM GAS  C:\Users\ADMINI~1\AppData\Local\Temp\ccU28qn6.s 			page 12


 422              	.L25:
 165:Src/i2c.c     ****   }
 423              		.loc 1 165 5 view .LVU113
 424 004c FFF7FEFF 		bl	Error_Handler
 425              	.LVL28:
 426 0050 F2E7     		b	.L22
 427              	.L26:
 172:Src/i2c.c     ****   }
 428              		.loc 1 172 5 view .LVU114
 429 0052 FFF7FEFF 		bl	Error_Handler
 430              	.LVL29:
 431              		.loc 1 178 1 is_stmt 0 view .LVU115
 432 0056 F5E7     		b	.L20
 433              	.L28:
 434              		.align	2
 435              	.L27:
 436 0058 00000000 		.word	.LANCHOR0
 437 005c 00540040 		.word	1073763328
 438 0060 0E090020 		.word	536873230
 439              		.cfi_endproc
 440              	.LFE43:
 442              		.global	hi2c1
 443              		.global	i2cDataTx
 444              		.global	i2cDataRx
 445              		.section	.bss.hi2c1,"aw",%nobits
 446              		.align	2
 447              		.set	.LANCHOR0,. + 0
 450              	hi2c1:
 451 0000 00000000 		.space	76
 451      00000000 
 451      00000000 
 451      00000000 
 451      00000000 
 452              		.section	.bss.i2cDataRx,"aw",%nobits
 453              		.align	2
 456              	i2cDataRx:
 457 0000 00000000 		.space	8
 457      00000000 
 458              		.section	.bss.i2cDataTx,"aw",%nobits
 459              		.align	2
 462              	i2cDataTx:
 463 0000 00000000 		.space	8
 463      00000000 
 464              		.text
 465              	.Letext0:
 466              		.file 2 "c:\\program files (x86)\\gnu arm embedded toolchain\\10 2021.10\\arm-none-eabi\\include\\
 467              		.file 3 "c:\\program files (x86)\\gnu arm embedded toolchain\\10 2021.10\\arm-none-eabi\\include\\
 468              		.file 4 "Drivers/CMSIS/Device/ST/STM32F0xx/Include/stm32f042x6.h"
 469              		.file 5 "Drivers/STM32F0xx_HAL_Driver/Inc/stm32f0xx_hal_def.h"
 470              		.file 6 "Drivers/STM32F0xx_HAL_Driver/Inc/stm32f0xx_hal_gpio.h"
 471              		.file 7 "Drivers/STM32F0xx_HAL_Driver/Inc/stm32f0xx_hal_dma.h"
 472              		.file 8 "Drivers/STM32F0xx_HAL_Driver/Inc/stm32f0xx_hal_i2c.h"
 473              		.file 9 "Inc/i2c.h"
 474              		.file 10 "Drivers/STM32F0xx_HAL_Driver/Inc/stm32f0xx_hal_i2c_ex.h"
 475              		.file 11 "Inc/main.h"
 476              		.file 12 "Drivers/STM32F0xx_HAL_Driver/Inc/stm32f0xx_hal_cortex.h"
 477              		.file 13 "<built-in>"
ARM GAS  C:\Users\ADMINI~1\AppData\Local\Temp\ccU28qn6.s 			page 13


ARM GAS  C:\Users\ADMINI~1\AppData\Local\Temp\ccU28qn6.s 			page 14

