ARM GAS  C:\Users\ADMINI~1\AppData\Local\Temp\ccBhKHjg.s 			page 1


   1              		.cpu cortex-m4
   2              		.arch armv7e-m
   3              		.fpu fpv4-sp-d16
   4              		.eabi_attribute 27, 1
   5              		.eabi_attribute 28, 1
   6              		.eabi_attribute 20, 1
   7              		.eabi_attribute 21, 1
   8              		.eabi_attribute 23, 3
   9              		.eabi_attribute 24, 1
  10              		.eabi_attribute 25, 1
  11              		.eabi_attribute 26, 1
  12              		.eabi_attribute 30, 1
  13              		.eabi_attribute 34, 1
  14              		.eabi_attribute 18, 4
  15              		.file	"usbd_winUsb.c"
  16              		.text
  17              	.Ltext0:
  18              		.cfi_sections	.debug_frame
  19              		.section	.text.USBD_WinUsb_EP0_RxReady,"ax",%progbits
  20              		.align	1
  21              		.syntax unified
  22              		.thumb
  23              		.thumb_func
  25              	USBD_WinUsb_EP0_RxReady:
  26              	.LVL0:
  27              	.LFB144:
  28              		.file 1 "Middlewares/ST/STM32_USB_Device_Library/Class/winUsb/Src/usbd_winUsb.c"
   1:Middlewares/ST/STM32_USB_Device_Library/Class/winUsb/Src/usbd_winUsb.c **** /**
   2:Middlewares/ST/STM32_USB_Device_Library/Class/winUsb/Src/usbd_winUsb.c ****   ******************************************************************************
   3:Middlewares/ST/STM32_USB_Device_Library/Class/winUsb/Src/usbd_winUsb.c ****   * @file    usbd_cdc.c
   4:Middlewares/ST/STM32_USB_Device_Library/Class/winUsb/Src/usbd_winUsb.c ****   * @author  MCD Application Team
   5:Middlewares/ST/STM32_USB_Device_Library/Class/winUsb/Src/usbd_winUsb.c ****   * @brief   This file provides the high layer firmware functions to manage the
   6:Middlewares/ST/STM32_USB_Device_Library/Class/winUsb/Src/usbd_winUsb.c ****   *          following functionalities of the USB CDC Class:
   7:Middlewares/ST/STM32_USB_Device_Library/Class/winUsb/Src/usbd_winUsb.c ****   *           - Initialization and Configuration of high and low layer
   8:Middlewares/ST/STM32_USB_Device_Library/Class/winUsb/Src/usbd_winUsb.c ****   *           - Enumeration as CDC Device (and enumeration for each implemented memory interface)
   9:Middlewares/ST/STM32_USB_Device_Library/Class/winUsb/Src/usbd_winUsb.c ****   *           - OUT/IN data transfer
  10:Middlewares/ST/STM32_USB_Device_Library/Class/winUsb/Src/usbd_winUsb.c ****   *           - Command IN transfer (class requests management)
  11:Middlewares/ST/STM32_USB_Device_Library/Class/winUsb/Src/usbd_winUsb.c ****   *           - Error management
  12:Middlewares/ST/STM32_USB_Device_Library/Class/winUsb/Src/usbd_winUsb.c ****   *
  13:Middlewares/ST/STM32_USB_Device_Library/Class/winUsb/Src/usbd_winUsb.c ****   ******************************************************************************
  14:Middlewares/ST/STM32_USB_Device_Library/Class/winUsb/Src/usbd_winUsb.c ****   * @attention
  15:Middlewares/ST/STM32_USB_Device_Library/Class/winUsb/Src/usbd_winUsb.c ****   *
  16:Middlewares/ST/STM32_USB_Device_Library/Class/winUsb/Src/usbd_winUsb.c ****   * Copyright (c) 2015 STMicroelectronics.
  17:Middlewares/ST/STM32_USB_Device_Library/Class/winUsb/Src/usbd_winUsb.c ****   * All rights reserved.
  18:Middlewares/ST/STM32_USB_Device_Library/Class/winUsb/Src/usbd_winUsb.c ****   *
  19:Middlewares/ST/STM32_USB_Device_Library/Class/winUsb/Src/usbd_winUsb.c ****   * This software is licensed under terms that can be found in the LICENSE file
  20:Middlewares/ST/STM32_USB_Device_Library/Class/winUsb/Src/usbd_winUsb.c ****   * in the root directory of this software component.
  21:Middlewares/ST/STM32_USB_Device_Library/Class/winUsb/Src/usbd_winUsb.c ****   * If no LICENSE file comes with this software, it is provided AS-IS.
  22:Middlewares/ST/STM32_USB_Device_Library/Class/winUsb/Src/usbd_winUsb.c ****   *
  23:Middlewares/ST/STM32_USB_Device_Library/Class/winUsb/Src/usbd_winUsb.c ****   ******************************************************************************
  24:Middlewares/ST/STM32_USB_Device_Library/Class/winUsb/Src/usbd_winUsb.c ****   *  @verbatim
  25:Middlewares/ST/STM32_USB_Device_Library/Class/winUsb/Src/usbd_winUsb.c ****   *
  26:Middlewares/ST/STM32_USB_Device_Library/Class/winUsb/Src/usbd_winUsb.c ****   *          ===================================================================
  27:Middlewares/ST/STM32_USB_Device_Library/Class/winUsb/Src/usbd_winUsb.c ****   *                                CDC Class Driver Description
  28:Middlewares/ST/STM32_USB_Device_Library/Class/winUsb/Src/usbd_winUsb.c ****   *          ===================================================================
  29:Middlewares/ST/STM32_USB_Device_Library/Class/winUsb/Src/usbd_winUsb.c ****   *           This driver manages the "Universal Serial Bus Class Definitions for Communications De
  30:Middlewares/ST/STM32_USB_Device_Library/Class/winUsb/Src/usbd_winUsb.c ****   *           Revision 1.2 November 16, 2007" and the sub-protocol specification of "Universal Seri
ARM GAS  C:\Users\ADMINI~1\AppData\Local\Temp\ccBhKHjg.s 			page 2


  31:Middlewares/ST/STM32_USB_Device_Library/Class/winUsb/Src/usbd_winUsb.c ****   *           Communications Class Subclass Specification for PSTN Devices Revision 1.2 February 9,
  32:Middlewares/ST/STM32_USB_Device_Library/Class/winUsb/Src/usbd_winUsb.c ****   *           This driver implements the following aspects of the specification:
  33:Middlewares/ST/STM32_USB_Device_Library/Class/winUsb/Src/usbd_winUsb.c ****   *             - Device descriptor management
  34:Middlewares/ST/STM32_USB_Device_Library/Class/winUsb/Src/usbd_winUsb.c ****   *             - Configuration descriptor management
  35:Middlewares/ST/STM32_USB_Device_Library/Class/winUsb/Src/usbd_winUsb.c ****   *             - Enumeration as CDC device with 2 data endpoints (IN and OUT) and 1 command endpoi
  36:Middlewares/ST/STM32_USB_Device_Library/Class/winUsb/Src/usbd_winUsb.c ****   *             - Requests management (as described in section 6.2 in specification)
  37:Middlewares/ST/STM32_USB_Device_Library/Class/winUsb/Src/usbd_winUsb.c ****   *             - Abstract Control Model compliant
  38:Middlewares/ST/STM32_USB_Device_Library/Class/winUsb/Src/usbd_winUsb.c ****   *             - Union Functional collection (using 1 IN endpoint for control)
  39:Middlewares/ST/STM32_USB_Device_Library/Class/winUsb/Src/usbd_winUsb.c ****   *             - Data interface class
  40:Middlewares/ST/STM32_USB_Device_Library/Class/winUsb/Src/usbd_winUsb.c ****   *
  41:Middlewares/ST/STM32_USB_Device_Library/Class/winUsb/Src/usbd_winUsb.c ****   *           These aspects may be enriched or modified for a specific user application.
  42:Middlewares/ST/STM32_USB_Device_Library/Class/winUsb/Src/usbd_winUsb.c ****   *
  43:Middlewares/ST/STM32_USB_Device_Library/Class/winUsb/Src/usbd_winUsb.c ****   *            This driver doesn't implement the following aspects of the specification
  44:Middlewares/ST/STM32_USB_Device_Library/Class/winUsb/Src/usbd_winUsb.c ****   *            (but it is possible to manage these features with some modifications on this driver)
  45:Middlewares/ST/STM32_USB_Device_Library/Class/winUsb/Src/usbd_winUsb.c ****   *             - Any class-specific aspect relative to communication classes should be managed by 
  46:Middlewares/ST/STM32_USB_Device_Library/Class/winUsb/Src/usbd_winUsb.c ****   *             - All communication classes other than PSTN are not managed
  47:Middlewares/ST/STM32_USB_Device_Library/Class/winUsb/Src/usbd_winUsb.c ****   *
  48:Middlewares/ST/STM32_USB_Device_Library/Class/winUsb/Src/usbd_winUsb.c ****   *  @endverbatim
  49:Middlewares/ST/STM32_USB_Device_Library/Class/winUsb/Src/usbd_winUsb.c ****   *
  50:Middlewares/ST/STM32_USB_Device_Library/Class/winUsb/Src/usbd_winUsb.c ****   ******************************************************************************
  51:Middlewares/ST/STM32_USB_Device_Library/Class/winUsb/Src/usbd_winUsb.c ****   */
  52:Middlewares/ST/STM32_USB_Device_Library/Class/winUsb/Src/usbd_winUsb.c **** 
  53:Middlewares/ST/STM32_USB_Device_Library/Class/winUsb/Src/usbd_winUsb.c **** /* BSPDependencies
  54:Middlewares/ST/STM32_USB_Device_Library/Class/winUsb/Src/usbd_winUsb.c **** - "stm32xxxxx_{eval}{discovery}{nucleo_144}.c"
  55:Middlewares/ST/STM32_USB_Device_Library/Class/winUsb/Src/usbd_winUsb.c **** - "stm32xxxxx_{eval}{discovery}_io.c"
  56:Middlewares/ST/STM32_USB_Device_Library/Class/winUsb/Src/usbd_winUsb.c **** EndBSPDependencies */
  57:Middlewares/ST/STM32_USB_Device_Library/Class/winUsb/Src/usbd_winUsb.c **** 
  58:Middlewares/ST/STM32_USB_Device_Library/Class/winUsb/Src/usbd_winUsb.c **** /* Includes ------------------------------------------------------------------*/
  59:Middlewares/ST/STM32_USB_Device_Library/Class/winUsb/Src/usbd_winUsb.c **** #include "usbd_winUsb.h"
  60:Middlewares/ST/STM32_USB_Device_Library/Class/winUsb/Src/usbd_winUsb.c **** #include "usbd_ctlreq.h"
  61:Middlewares/ST/STM32_USB_Device_Library/Class/winUsb/Src/usbd_winUsb.c **** #include "usbd_desc.h"
  62:Middlewares/ST/STM32_USB_Device_Library/Class/winUsb/Src/usbd_winUsb.c **** #include <stdio.h>
  63:Middlewares/ST/STM32_USB_Device_Library/Class/winUsb/Src/usbd_winUsb.c **** 
  64:Middlewares/ST/STM32_USB_Device_Library/Class/winUsb/Src/usbd_winUsb.c **** /** @addtogroup STM32_USB_DEVICE_LIBRARY
  65:Middlewares/ST/STM32_USB_Device_Library/Class/winUsb/Src/usbd_winUsb.c ****   * @{
  66:Middlewares/ST/STM32_USB_Device_Library/Class/winUsb/Src/usbd_winUsb.c ****   */
  67:Middlewares/ST/STM32_USB_Device_Library/Class/winUsb/Src/usbd_winUsb.c **** static uint8_t USBD_WinUsb_Init(USBD_HandleTypeDef *pdev, uint8_t cfgidx);
  68:Middlewares/ST/STM32_USB_Device_Library/Class/winUsb/Src/usbd_winUsb.c **** static uint8_t USBD_WinUsb_DeInit(USBD_HandleTypeDef *pdev, uint8_t cfgidx);
  69:Middlewares/ST/STM32_USB_Device_Library/Class/winUsb/Src/usbd_winUsb.c **** static uint8_t USBD_WinUsb_Setup(USBD_HandleTypeDef *pdev, USBD_SetupReqTypedef *req);
  70:Middlewares/ST/STM32_USB_Device_Library/Class/winUsb/Src/usbd_winUsb.c **** static uint8_t USBD_WinUsb_DataIn(USBD_HandleTypeDef *pdev, uint8_t epnum);
  71:Middlewares/ST/STM32_USB_Device_Library/Class/winUsb/Src/usbd_winUsb.c **** static uint8_t USBD_WinUsb_DataOut(USBD_HandleTypeDef *pdev, uint8_t epnum);
  72:Middlewares/ST/STM32_USB_Device_Library/Class/winUsb/Src/usbd_winUsb.c **** static uint8_t USBD_WinUsb_EP0_RxReady(USBD_HandleTypeDef *pdev);
  73:Middlewares/ST/STM32_USB_Device_Library/Class/winUsb/Src/usbd_winUsb.c **** 
  74:Middlewares/ST/STM32_USB_Device_Library/Class/winUsb/Src/usbd_winUsb.c **** 
  75:Middlewares/ST/STM32_USB_Device_Library/Class/winUsb/Src/usbd_winUsb.c **** /** @defgroup USBD_CDC
  76:Middlewares/ST/STM32_USB_Device_Library/Class/winUsb/Src/usbd_winUsb.c ****   * @brief usbd core module
  77:Middlewares/ST/STM32_USB_Device_Library/Class/winUsb/Src/usbd_winUsb.c ****   * @{
  78:Middlewares/ST/STM32_USB_Device_Library/Class/winUsb/Src/usbd_winUsb.c ****   */
  79:Middlewares/ST/STM32_USB_Device_Library/Class/winUsb/Src/usbd_winUsb.c **** 
  80:Middlewares/ST/STM32_USB_Device_Library/Class/winUsb/Src/usbd_winUsb.c **** USBD_ClassTypeDef  USBD_WinUsb =
  81:Middlewares/ST/STM32_USB_Device_Library/Class/winUsb/Src/usbd_winUsb.c **** {
  82:Middlewares/ST/STM32_USB_Device_Library/Class/winUsb/Src/usbd_winUsb.c ****   USBD_WinUsb_Init,
  83:Middlewares/ST/STM32_USB_Device_Library/Class/winUsb/Src/usbd_winUsb.c ****   USBD_WinUsb_DeInit,
  84:Middlewares/ST/STM32_USB_Device_Library/Class/winUsb/Src/usbd_winUsb.c ****   USBD_WinUsb_Setup,
  85:Middlewares/ST/STM32_USB_Device_Library/Class/winUsb/Src/usbd_winUsb.c ****   NULL,                 /* EP0_TxSent */
  86:Middlewares/ST/STM32_USB_Device_Library/Class/winUsb/Src/usbd_winUsb.c ****   USBD_WinUsb_EP0_RxReady,
  87:Middlewares/ST/STM32_USB_Device_Library/Class/winUsb/Src/usbd_winUsb.c ****   USBD_WinUsb_DataIn,
ARM GAS  C:\Users\ADMINI~1\AppData\Local\Temp\ccBhKHjg.s 			page 3


  88:Middlewares/ST/STM32_USB_Device_Library/Class/winUsb/Src/usbd_winUsb.c ****   USBD_WinUsb_DataOut,
  89:Middlewares/ST/STM32_USB_Device_Library/Class/winUsb/Src/usbd_winUsb.c ****   NULL,
  90:Middlewares/ST/STM32_USB_Device_Library/Class/winUsb/Src/usbd_winUsb.c ****   NULL,
  91:Middlewares/ST/STM32_USB_Device_Library/Class/winUsb/Src/usbd_winUsb.c ****   NULL,
  92:Middlewares/ST/STM32_USB_Device_Library/Class/winUsb/Src/usbd_winUsb.c **** #ifdef USE_USBD_COMPOSITE
  93:Middlewares/ST/STM32_USB_Device_Library/Class/winUsb/Src/usbd_winUsb.c ****   NULL,
  94:Middlewares/ST/STM32_USB_Device_Library/Class/winUsb/Src/usbd_winUsb.c ****   NULL,
  95:Middlewares/ST/STM32_USB_Device_Library/Class/winUsb/Src/usbd_winUsb.c ****   NULL,
  96:Middlewares/ST/STM32_USB_Device_Library/Class/winUsb/Src/usbd_winUsb.c ****   NULL,
  97:Middlewares/ST/STM32_USB_Device_Library/Class/winUsb/Src/usbd_winUsb.c **** #else
  98:Middlewares/ST/STM32_USB_Device_Library/Class/winUsb/Src/usbd_winUsb.c ****   USBD_WinUsb_GetHSCfgDesc,
  99:Middlewares/ST/STM32_USB_Device_Library/Class/winUsb/Src/usbd_winUsb.c ****   USBD_WinUsb_GetFSCfgDesc,
 100:Middlewares/ST/STM32_USB_Device_Library/Class/winUsb/Src/usbd_winUsb.c ****   USBD_WinUsb_GetOtherSpeedCfgDesc,
 101:Middlewares/ST/STM32_USB_Device_Library/Class/winUsb/Src/usbd_winUsb.c ****   USBD_WinUsb_GetDeviceQualifierDescriptor,
 102:Middlewares/ST/STM32_USB_Device_Library/Class/winUsb/Src/usbd_winUsb.c **** #endif /* USE_USBD_COMPOSITE  */
 103:Middlewares/ST/STM32_USB_Device_Library/Class/winUsb/Src/usbd_winUsb.c ****   USBD_UsrStrDescriptor
 104:Middlewares/ST/STM32_USB_Device_Library/Class/winUsb/Src/usbd_winUsb.c **** };
 105:Middlewares/ST/STM32_USB_Device_Library/Class/winUsb/Src/usbd_winUsb.c **** 
 106:Middlewares/ST/STM32_USB_Device_Library/Class/winUsb/Src/usbd_winUsb.c **** 
 107:Middlewares/ST/STM32_USB_Device_Library/Class/winUsb/Src/usbd_winUsb.c **** #define NUM_INTERFACES 1
 108:Middlewares/ST/STM32_USB_Device_Library/Class/winUsb/Src/usbd_winUsb.c **** 
 109:Middlewares/ST/STM32_USB_Device_Library/Class/winUsb/Src/usbd_winUsb.c **** #if NUM_INTERFACES == 2
 110:Middlewares/ST/STM32_USB_Device_Library/Class/winUsb/Src/usbd_winUsb.c **** #define USB_WINUSBCOMM_COMPAT_ID_OS_DESC_SIZ       (16 + 24 + 24)
 111:Middlewares/ST/STM32_USB_Device_Library/Class/winUsb/Src/usbd_winUsb.c **** #else
 112:Middlewares/ST/STM32_USB_Device_Library/Class/winUsb/Src/usbd_winUsb.c **** #define USB_WINUSBCOMM_COMPAT_ID_OS_DESC_SIZ       (16 + 24)
 113:Middlewares/ST/STM32_USB_Device_Library/Class/winUsb/Src/usbd_winUsb.c **** #endif
 114:Middlewares/ST/STM32_USB_Device_Library/Class/winUsb/Src/usbd_winUsb.c **** 
 115:Middlewares/ST/STM32_USB_Device_Library/Class/winUsb/Src/usbd_winUsb.c **** 
 116:Middlewares/ST/STM32_USB_Device_Library/Class/winUsb/Src/usbd_winUsb.c **** // This associates winusb driver with the device
 117:Middlewares/ST/STM32_USB_Device_Library/Class/winUsb/Src/usbd_winUsb.c **** __ALIGN_BEGIN uint8_t USBD_WinUSBComm_Extended_Compat_ID_OS_Desc[USB_WINUSBCOMM_COMPAT_ID_OS_DESC_S
 118:Middlewares/ST/STM32_USB_Device_Library/Class/winUsb/Src/usbd_winUsb.c **** {
 119:Middlewares/ST/STM32_USB_Device_Library/Class/winUsb/Src/usbd_winUsb.c ****                                                     //    +-- Offset in descriptor
 120:Middlewares/ST/STM32_USB_Device_Library/Class/winUsb/Src/usbd_winUsb.c ****                                                     //    |             +-- Size
 121:Middlewares/ST/STM32_USB_Device_Library/Class/winUsb/Src/usbd_winUsb.c ****                                                     //    v             v
 122:Middlewares/ST/STM32_USB_Device_Library/Class/winUsb/Src/usbd_winUsb.c ****   USB_WINUSBCOMM_COMPAT_ID_OS_DESC_SIZ, 0, 0, 0,    //    0 dwLength    4 DWORD The length, in byte
 123:Middlewares/ST/STM32_USB_Device_Library/Class/winUsb/Src/usbd_winUsb.c ****   0x00, 0x01,                                       //    4 bcdVersion  2 BCD The descriptor’s ve
 124:Middlewares/ST/STM32_USB_Device_Library/Class/winUsb/Src/usbd_winUsb.c ****   0x04, 0x00,                                       //    6 wIndex      2 WORD  An index that ident
 125:Middlewares/ST/STM32_USB_Device_Library/Class/winUsb/Src/usbd_winUsb.c ****   NUM_INTERFACES,                                   //    8 bCount      1 BYTE  The number of custo
 126:Middlewares/ST/STM32_USB_Device_Library/Class/winUsb/Src/usbd_winUsb.c ****   0, 0, 0, 0, 0, 0, 0,                              //    9 RESERVED    7 BYTEs Reserved
 127:Middlewares/ST/STM32_USB_Device_Library/Class/winUsb/Src/usbd_winUsb.c ****                                                     //    =====================
 128:Middlewares/ST/STM32_USB_Device_Library/Class/winUsb/Src/usbd_winUsb.c ****                                                     //                 16
 129:Middlewares/ST/STM32_USB_Device_Library/Class/winUsb/Src/usbd_winUsb.c **** 
 130:Middlewares/ST/STM32_USB_Device_Library/Class/winUsb/Src/usbd_winUsb.c ****                                                     //   +-- Offset from function section start
 131:Middlewares/ST/STM32_USB_Device_Library/Class/winUsb/Src/usbd_winUsb.c ****                                                     //   |                        +-- Size
 132:Middlewares/ST/STM32_USB_Device_Library/Class/winUsb/Src/usbd_winUsb.c ****                                                     //   v                        v
 133:Middlewares/ST/STM32_USB_Device_Library/Class/winUsb/Src/usbd_winUsb.c ****   2,                                                //   0  bFirstInterfaceNumber 1 BYTE  The inter
 134:Middlewares/ST/STM32_USB_Device_Library/Class/winUsb/Src/usbd_winUsb.c ****   0,                                                //   1  RESERVED              1 BYTE  Reserved
 135:Middlewares/ST/STM32_USB_Device_Library/Class/winUsb/Src/usbd_winUsb.c ****   0x57, 0x49, 0x4E, 0x55, 0x53, 0x42, 0x00, 0x00,   //   2  compatibleID          8 BYTEs The funct
 136:Middlewares/ST/STM32_USB_Device_Library/Class/winUsb/Src/usbd_winUsb.c ****   0, 0, 0, 0, 0, 0, 0, 0,                           //  10  subCompatibleID       8 BYTEs The funct
 137:Middlewares/ST/STM32_USB_Device_Library/Class/winUsb/Src/usbd_winUsb.c ****   0, 0, 0, 0, 0, 0,                                 //  18  RESERVED              6 BYTEs Reserved
 138:Middlewares/ST/STM32_USB_Device_Library/Class/winUsb/Src/usbd_winUsb.c ****                                                     //  =================================
 139:Middlewares/ST/STM32_USB_Device_Library/Class/winUsb/Src/usbd_winUsb.c ****                                                     //                           24
 140:Middlewares/ST/STM32_USB_Device_Library/Class/winUsb/Src/usbd_winUsb.c **** #if NUM_INTERFACES == 2
 141:Middlewares/ST/STM32_USB_Device_Library/Class/winUsb/Src/usbd_winUsb.c ****                                                     //   +-- Offset from function section start
 142:Middlewares/ST/STM32_USB_Device_Library/Class/winUsb/Src/usbd_winUsb.c ****                                                     //   |                        +-- Size
 143:Middlewares/ST/STM32_USB_Device_Library/Class/winUsb/Src/usbd_winUsb.c ****                                                     //   v                        v
 144:Middlewares/ST/STM32_USB_Device_Library/Class/winUsb/Src/usbd_winUsb.c ****   2,                                                //   0  bFirstInterfaceNumber 1 BYTE  The inter
ARM GAS  C:\Users\ADMINI~1\AppData\Local\Temp\ccBhKHjg.s 			page 4


 145:Middlewares/ST/STM32_USB_Device_Library/Class/winUsb/Src/usbd_winUsb.c ****   0,                                                //   1  RESERVED              1 BYTE  Reserved
 146:Middlewares/ST/STM32_USB_Device_Library/Class/winUsb/Src/usbd_winUsb.c ****   0x57, 0x49, 0x4E, 0x55, 0x53, 0x42, 0x00, 0x00,   //   2  compatibleID          8 BYTEs The funct
 147:Middlewares/ST/STM32_USB_Device_Library/Class/winUsb/Src/usbd_winUsb.c ****   0, 0, 0, 0, 0, 0, 0, 0,                           //  10  subCompatibleID       8 BYTEs The funct
 148:Middlewares/ST/STM32_USB_Device_Library/Class/winUsb/Src/usbd_winUsb.c ****   0, 0, 0, 0, 0, 0,                                 //  18  RESERVED              6 BYTEs Reserved
 149:Middlewares/ST/STM32_USB_Device_Library/Class/winUsb/Src/usbd_winUsb.c ****                                                     //  =================================
 150:Middlewares/ST/STM32_USB_Device_Library/Class/winUsb/Src/usbd_winUsb.c ****                                                     //                           24
 151:Middlewares/ST/STM32_USB_Device_Library/Class/winUsb/Src/usbd_winUsb.c **** #endif
 152:Middlewares/ST/STM32_USB_Device_Library/Class/winUsb/Src/usbd_winUsb.c **** };
 153:Middlewares/ST/STM32_USB_Device_Library/Class/winUsb/Src/usbd_winUsb.c **** // Properties are added to:
 154:Middlewares/ST/STM32_USB_Device_Library/Class/winUsb/Src/usbd_winUsb.c **** // HKEY_LOCAL_MACHINE\SYSTEM\CurrentControlSet\Enum\USB\VID_xxxx&PID_xxxx\sssssssss\Device Paramete
 155:Middlewares/ST/STM32_USB_Device_Library/Class/winUsb/Src/usbd_winUsb.c **** // Use USBDeview or similar to uninstall
 156:Middlewares/ST/STM32_USB_Device_Library/Class/winUsb/Src/usbd_winUsb.c **** 
 157:Middlewares/ST/STM32_USB_Device_Library/Class/winUsb/Src/usbd_winUsb.c **** __ALIGN_BEGIN uint8_t USBD_WinUSBComm_Extended_Properties_OS_Desc[0xB6]  __ALIGN_END =
 158:Middlewares/ST/STM32_USB_Device_Library/Class/winUsb/Src/usbd_winUsb.c **** {
 159:Middlewares/ST/STM32_USB_Device_Library/Class/winUsb/Src/usbd_winUsb.c ****   0xB6, 0x00, 0x00, 0x00,   // 0 dwLength   4 DWORD The length, in bytes, of the complete extended 
 160:Middlewares/ST/STM32_USB_Device_Library/Class/winUsb/Src/usbd_winUsb.c ****   0x00, 0x01,               // 4 bcdVersion 2 BCD   The descriptor’s version number, in binary co
 161:Middlewares/ST/STM32_USB_Device_Library/Class/winUsb/Src/usbd_winUsb.c ****   0x05, 0x00,               // 6 wIndex     2 WORD  The index for extended properties OS descriptor
 162:Middlewares/ST/STM32_USB_Device_Library/Class/winUsb/Src/usbd_winUsb.c ****   0x02, 0x00,               // 8 wCount     2 WORD  The number of custom property sections that fol
 163:Middlewares/ST/STM32_USB_Device_Library/Class/winUsb/Src/usbd_winUsb.c ****                             // ====================
 164:Middlewares/ST/STM32_USB_Device_Library/Class/winUsb/Src/usbd_winUsb.c ****                             //             10
 165:Middlewares/ST/STM32_USB_Device_Library/Class/winUsb/Src/usbd_winUsb.c **** ///////////////////////////////////////////////////////////////////////////////////////////////////
 166:Middlewares/ST/STM32_USB_Device_Library/Class/winUsb/Src/usbd_winUsb.c ****   0x84, 0x00, 0x00, 0x00,   //  0       dwSize                  4 DWORD             The size of thi
 167:Middlewares/ST/STM32_USB_Device_Library/Class/winUsb/Src/usbd_winUsb.c ****   0x01, 0x00, 0x00, 0x00,   //  4       dwPropertyDataType      4 DWORD             Property data f
 168:Middlewares/ST/STM32_USB_Device_Library/Class/winUsb/Src/usbd_winUsb.c ****   0x28, 0x00,               //  8       wPropertyNameLength     2 DWORD             Property name l
 169:Middlewares/ST/STM32_USB_Device_Library/Class/winUsb/Src/usbd_winUsb.c ****                             // ========================================
 170:Middlewares/ST/STM32_USB_Device_Library/Class/winUsb/Src/usbd_winUsb.c ****                             //                                 10
 171:Middlewares/ST/STM32_USB_Device_Library/Class/winUsb/Src/usbd_winUsb.c ****                             // 10       bPropertyName         PNL WCHAR[]           The property na
 172:Middlewares/ST/STM32_USB_Device_Library/Class/winUsb/Src/usbd_winUsb.c ****   'D',0, 'e',0, 'v',0, 'i',0, 'c',0, 'e',0, 'I',0, 'n',0,
 173:Middlewares/ST/STM32_USB_Device_Library/Class/winUsb/Src/usbd_winUsb.c ****   't',0, 'e',0, 'r',0, 'f',0, 'a',0, 'c',0, 'e',0, 'G',0,
 174:Middlewares/ST/STM32_USB_Device_Library/Class/winUsb/Src/usbd_winUsb.c ****   'U',0, 'I',0, 'D',0, 0,0,
 175:Middlewares/ST/STM32_USB_Device_Library/Class/winUsb/Src/usbd_winUsb.c ****                             // ========================================
 176:Middlewares/ST/STM32_USB_Device_Library/Class/winUsb/Src/usbd_winUsb.c ****                             //                                 40 (0x28)
 177:Middlewares/ST/STM32_USB_Device_Library/Class/winUsb/Src/usbd_winUsb.c **** 
 178:Middlewares/ST/STM32_USB_Device_Library/Class/winUsb/Src/usbd_winUsb.c ****   0x4E, 0x00, 0x00, 0x00,   // 10 + PNL dwPropertyDataLength    4 DWORD             Length of the b
 179:Middlewares/ST/STM32_USB_Device_Library/Class/winUsb/Src/usbd_winUsb.c ****                             // ========================================
 180:Middlewares/ST/STM32_USB_Device_Library/Class/winUsb/Src/usbd_winUsb.c ****                             //                                  4
 181:Middlewares/ST/STM32_USB_Device_Library/Class/winUsb/Src/usbd_winUsb.c ****     // 14 + PNL bPropertyData         PDL Format-dependent  Property data
 182:Middlewares/ST/STM32_USB_Device_Library/Class/winUsb/Src/usbd_winUsb.c ****   '{',0, 'E',0, 'A',0, '0',0, 'B',0, 'D',0, '5',0, 'C',0,
 183:Middlewares/ST/STM32_USB_Device_Library/Class/winUsb/Src/usbd_winUsb.c ****   '3',0, '-',0, '5',0, '0',0, 'F',0, '3',0, '-',0, '4',0,
 184:Middlewares/ST/STM32_USB_Device_Library/Class/winUsb/Src/usbd_winUsb.c ****   '8',0, '8',0, '8',0, '-',0, '8',0, '4',0, 'B',0, '4',0,
 185:Middlewares/ST/STM32_USB_Device_Library/Class/winUsb/Src/usbd_winUsb.c ****   '-',0, '7',0, '4',0, 'E',0, '5',0, '0',0, 'E',0, '1',0,
 186:Middlewares/ST/STM32_USB_Device_Library/Class/winUsb/Src/usbd_winUsb.c ****   '6',0, '4',0, '9',0, 'D',0, 'B',0, '}',0,  0 ,0,
 187:Middlewares/ST/STM32_USB_Device_Library/Class/winUsb/Src/usbd_winUsb.c ****                             // ========================================
 188:Middlewares/ST/STM32_USB_Device_Library/Class/winUsb/Src/usbd_winUsb.c ****                             //                                 78 (0x4E)
 189:Middlewares/ST/STM32_USB_Device_Library/Class/winUsb/Src/usbd_winUsb.c **** ///////////////////////////////////////////////////////////////////////////////////////////////////
 190:Middlewares/ST/STM32_USB_Device_Library/Class/winUsb/Src/usbd_winUsb.c ****   0x3E, 0x00, 0x00, 0x00,   //  0 dwSize 0x00000030 (62 bytes)
 191:Middlewares/ST/STM32_USB_Device_Library/Class/winUsb/Src/usbd_winUsb.c ****   0x01, 0x00, 0x00, 0x00,   //  4 dwPropertyDataType 0x00000001 (Unicode string)
 192:Middlewares/ST/STM32_USB_Device_Library/Class/winUsb/Src/usbd_winUsb.c ****   0x0C, 0x00,               //  8 wPropertyNameLength 0x000C (12 bytes)
 193:Middlewares/ST/STM32_USB_Device_Library/Class/winUsb/Src/usbd_winUsb.c ****                             // ========================================
 194:Middlewares/ST/STM32_USB_Device_Library/Class/winUsb/Src/usbd_winUsb.c ****                             //                                  10
 195:Middlewares/ST/STM32_USB_Device_Library/Class/winUsb/Src/usbd_winUsb.c ****   'L',0, 'a',0, 'b',0, 'e',0, 'l',0, 0,0,
 196:Middlewares/ST/STM32_USB_Device_Library/Class/winUsb/Src/usbd_winUsb.c ****                             // 10 bPropertyName “Label”
 197:Middlewares/ST/STM32_USB_Device_Library/Class/winUsb/Src/usbd_winUsb.c ****                             // ========================================
 198:Middlewares/ST/STM32_USB_Device_Library/Class/winUsb/Src/usbd_winUsb.c ****                             //                                  12
 199:Middlewares/ST/STM32_USB_Device_Library/Class/winUsb/Src/usbd_winUsb.c ****   0x24, 0x00, 0x00, 0x00,   // 22 dwPropertyDataLength 0x00000016 (36 bytes)
 200:Middlewares/ST/STM32_USB_Device_Library/Class/winUsb/Src/usbd_winUsb.c ****                             // ========================================
 201:Middlewares/ST/STM32_USB_Device_Library/Class/winUsb/Src/usbd_winUsb.c ****                             //                                  4
ARM GAS  C:\Users\ADMINI~1\AppData\Local\Temp\ccBhKHjg.s 			page 5


 202:Middlewares/ST/STM32_USB_Device_Library/Class/winUsb/Src/usbd_winUsb.c ****   'O',0, 'D',0, 'r',0, 'i',0, 'v',0, 'e',0, 0,0
 203:Middlewares/ST/STM32_USB_Device_Library/Class/winUsb/Src/usbd_winUsb.c ****                             // 26 bPropertyData “ODrive”
 204:Middlewares/ST/STM32_USB_Device_Library/Class/winUsb/Src/usbd_winUsb.c ****                             // ========================================
 205:Middlewares/ST/STM32_USB_Device_Library/Class/winUsb/Src/usbd_winUsb.c ****                             //                                  14
 206:Middlewares/ST/STM32_USB_Device_Library/Class/winUsb/Src/usbd_winUsb.c **** 
 207:Middlewares/ST/STM32_USB_Device_Library/Class/winUsb/Src/usbd_winUsb.c **** };
 208:Middlewares/ST/STM32_USB_Device_Library/Class/winUsb/Src/usbd_winUsb.c **** 
 209:Middlewares/ST/STM32_USB_Device_Library/Class/winUsb/Src/usbd_winUsb.c **** static uint8_t  USBD_WinUSBComm_GetMSExtendedCompatIDOSDescriptor (USBD_HandleTypeDef *pdev, USBD_S
 210:Middlewares/ST/STM32_USB_Device_Library/Class/winUsb/Src/usbd_winUsb.c **** {
 211:Middlewares/ST/STM32_USB_Device_Library/Class/winUsb/Src/usbd_winUsb.c ****   switch (req->wIndex)
 212:Middlewares/ST/STM32_USB_Device_Library/Class/winUsb/Src/usbd_winUsb.c ****   {
 213:Middlewares/ST/STM32_USB_Device_Library/Class/winUsb/Src/usbd_winUsb.c ****   case 0x04:
 214:Middlewares/ST/STM32_USB_Device_Library/Class/winUsb/Src/usbd_winUsb.c ****     USBD_CtlSendData (pdev, USBD_WinUSBComm_Extended_Compat_ID_OS_Desc, req->wLength);
 215:Middlewares/ST/STM32_USB_Device_Library/Class/winUsb/Src/usbd_winUsb.c ****     break;
 216:Middlewares/ST/STM32_USB_Device_Library/Class/winUsb/Src/usbd_winUsb.c ****   default:
 217:Middlewares/ST/STM32_USB_Device_Library/Class/winUsb/Src/usbd_winUsb.c ****    USBD_CtlError(pdev , req);
 218:Middlewares/ST/STM32_USB_Device_Library/Class/winUsb/Src/usbd_winUsb.c ****    return USBD_FAIL;
 219:Middlewares/ST/STM32_USB_Device_Library/Class/winUsb/Src/usbd_winUsb.c ****   }
 220:Middlewares/ST/STM32_USB_Device_Library/Class/winUsb/Src/usbd_winUsb.c ****   return USBD_OK;
 221:Middlewares/ST/STM32_USB_Device_Library/Class/winUsb/Src/usbd_winUsb.c **** }
 222:Middlewares/ST/STM32_USB_Device_Library/Class/winUsb/Src/usbd_winUsb.c **** static uint8_t  USBD_WinUSBComm_GetMSExtendedPropertiesOSDescriptor (USBD_HandleTypeDef *pdev, USBD
 223:Middlewares/ST/STM32_USB_Device_Library/Class/winUsb/Src/usbd_winUsb.c **** {
 224:Middlewares/ST/STM32_USB_Device_Library/Class/winUsb/Src/usbd_winUsb.c ****   uint8_t byInterfaceIndex = (uint8_t)req->wValue;
 225:Middlewares/ST/STM32_USB_Device_Library/Class/winUsb/Src/usbd_winUsb.c ****   if ( req->wIndex != 0x05 )
 226:Middlewares/ST/STM32_USB_Device_Library/Class/winUsb/Src/usbd_winUsb.c ****   {
 227:Middlewares/ST/STM32_USB_Device_Library/Class/winUsb/Src/usbd_winUsb.c ****     USBD_CtlError(pdev , req);
 228:Middlewares/ST/STM32_USB_Device_Library/Class/winUsb/Src/usbd_winUsb.c ****     return USBD_FAIL;
 229:Middlewares/ST/STM32_USB_Device_Library/Class/winUsb/Src/usbd_winUsb.c ****   }
 230:Middlewares/ST/STM32_USB_Device_Library/Class/winUsb/Src/usbd_winUsb.c ****   switch ( byInterfaceIndex )
 231:Middlewares/ST/STM32_USB_Device_Library/Class/winUsb/Src/usbd_winUsb.c ****   {
 232:Middlewares/ST/STM32_USB_Device_Library/Class/winUsb/Src/usbd_winUsb.c ****   case 0:
 233:Middlewares/ST/STM32_USB_Device_Library/Class/winUsb/Src/usbd_winUsb.c **** #if NUM_INTERFACES == 2
 234:Middlewares/ST/STM32_USB_Device_Library/Class/winUsb/Src/usbd_winUsb.c ****   case 1:
 235:Middlewares/ST/STM32_USB_Device_Library/Class/winUsb/Src/usbd_winUsb.c **** #endif
 236:Middlewares/ST/STM32_USB_Device_Library/Class/winUsb/Src/usbd_winUsb.c ****     USBD_CtlSendData (pdev, USBD_WinUSBComm_Extended_Properties_OS_Desc, req->wLength);
 237:Middlewares/ST/STM32_USB_Device_Library/Class/winUsb/Src/usbd_winUsb.c ****     break;
 238:Middlewares/ST/STM32_USB_Device_Library/Class/winUsb/Src/usbd_winUsb.c ****   default:
 239:Middlewares/ST/STM32_USB_Device_Library/Class/winUsb/Src/usbd_winUsb.c ****     USBD_CtlError(pdev , req);
 240:Middlewares/ST/STM32_USB_Device_Library/Class/winUsb/Src/usbd_winUsb.c ****     return USBD_FAIL;
 241:Middlewares/ST/STM32_USB_Device_Library/Class/winUsb/Src/usbd_winUsb.c ****   }
 242:Middlewares/ST/STM32_USB_Device_Library/Class/winUsb/Src/usbd_winUsb.c ****   return USBD_OK;
 243:Middlewares/ST/STM32_USB_Device_Library/Class/winUsb/Src/usbd_winUsb.c **** }
 244:Middlewares/ST/STM32_USB_Device_Library/Class/winUsb/Src/usbd_winUsb.c **** static uint8_t  USBD_WinUSBComm_SetupVendorDevice(USBD_HandleTypeDef *pdev, USBD_SetupReqTypedef *r
 245:Middlewares/ST/STM32_USB_Device_Library/Class/winUsb/Src/usbd_winUsb.c **** {
 246:Middlewares/ST/STM32_USB_Device_Library/Class/winUsb/Src/usbd_winUsb.c ****   USBD_CtlError(pdev , req);
 247:Middlewares/ST/STM32_USB_Device_Library/Class/winUsb/Src/usbd_winUsb.c ****   return USBD_FAIL;
 248:Middlewares/ST/STM32_USB_Device_Library/Class/winUsb/Src/usbd_winUsb.c **** }
 249:Middlewares/ST/STM32_USB_Device_Library/Class/winUsb/Src/usbd_winUsb.c **** static uint8_t  USBD_WinUSBComm_SetupVendorInterface(USBD_HandleTypeDef *pdev, USBD_SetupReqTypedef
 250:Middlewares/ST/STM32_USB_Device_Library/Class/winUsb/Src/usbd_winUsb.c **** {
 251:Middlewares/ST/STM32_USB_Device_Library/Class/winUsb/Src/usbd_winUsb.c ****   USBD_CtlError(pdev , req);
 252:Middlewares/ST/STM32_USB_Device_Library/Class/winUsb/Src/usbd_winUsb.c ****   // TODO: check if this is important
 253:Middlewares/ST/STM32_USB_Device_Library/Class/winUsb/Src/usbd_winUsb.c ****   return USBD_FAIL;
 254:Middlewares/ST/STM32_USB_Device_Library/Class/winUsb/Src/usbd_winUsb.c **** }
 255:Middlewares/ST/STM32_USB_Device_Library/Class/winUsb/Src/usbd_winUsb.c **** uint8_t  USBD_WinUSBComm_SetupVendor(USBD_HandleTypeDef *pdev, USBD_SetupReqTypedef *req)
 256:Middlewares/ST/STM32_USB_Device_Library/Class/winUsb/Src/usbd_winUsb.c **** {
 257:Middlewares/ST/STM32_USB_Device_Library/Class/winUsb/Src/usbd_winUsb.c ****   switch ( req->bmRequest & USB_REQ_RECIPIENT_MASK )
 258:Middlewares/ST/STM32_USB_Device_Library/Class/winUsb/Src/usbd_winUsb.c ****   {
ARM GAS  C:\Users\ADMINI~1\AppData\Local\Temp\ccBhKHjg.s 			page 6


 259:Middlewares/ST/STM32_USB_Device_Library/Class/winUsb/Src/usbd_winUsb.c ****   case USB_REQ_RECIPIENT_DEVICE:
 260:Middlewares/ST/STM32_USB_Device_Library/Class/winUsb/Src/usbd_winUsb.c ****     return ( MS_VendorCode == req->bRequest ) ? USBD_WinUSBComm_GetMSExtendedCompatIDOSDescriptor(p
 261:Middlewares/ST/STM32_USB_Device_Library/Class/winUsb/Src/usbd_winUsb.c ****   case USB_REQ_RECIPIENT_INTERFACE:
 262:Middlewares/ST/STM32_USB_Device_Library/Class/winUsb/Src/usbd_winUsb.c ****     return ( MS_VendorCode == req->bRequest ) ? USBD_WinUSBComm_GetMSExtendedPropertiesOSDescriptor
 263:Middlewares/ST/STM32_USB_Device_Library/Class/winUsb/Src/usbd_winUsb.c ****   case USB_REQ_RECIPIENT_ENDPOINT:
 264:Middlewares/ST/STM32_USB_Device_Library/Class/winUsb/Src/usbd_winUsb.c ****     // fall through
 265:Middlewares/ST/STM32_USB_Device_Library/Class/winUsb/Src/usbd_winUsb.c ****   default:
 266:Middlewares/ST/STM32_USB_Device_Library/Class/winUsb/Src/usbd_winUsb.c ****     break;
 267:Middlewares/ST/STM32_USB_Device_Library/Class/winUsb/Src/usbd_winUsb.c ****   }
 268:Middlewares/ST/STM32_USB_Device_Library/Class/winUsb/Src/usbd_winUsb.c ****   USBD_CtlError(pdev , req);
 269:Middlewares/ST/STM32_USB_Device_Library/Class/winUsb/Src/usbd_winUsb.c ****   return USBD_FAIL;
 270:Middlewares/ST/STM32_USB_Device_Library/Class/winUsb/Src/usbd_winUsb.c **** }
 271:Middlewares/ST/STM32_USB_Device_Library/Class/winUsb/Src/usbd_winUsb.c **** static uint8_t WinUsbInEpAdd = WIN_USB_EPIN_ADDR;
 272:Middlewares/ST/STM32_USB_Device_Library/Class/winUsb/Src/usbd_winUsb.c **** static uint8_t WinUsbOutEpAdd = WIN_USB_EPOUT_ADDR;
 273:Middlewares/ST/STM32_USB_Device_Library/Class/winUsb/Src/usbd_winUsb.c **** 
 274:Middlewares/ST/STM32_USB_Device_Library/Class/winUsb/Src/usbd_winUsb.c **** 
 275:Middlewares/ST/STM32_USB_Device_Library/Class/winUsb/Src/usbd_winUsb.c **** static uint8_t USBD_WinUsb_Init(USBD_HandleTypeDef *pdev, uint8_t cfgidx)
 276:Middlewares/ST/STM32_USB_Device_Library/Class/winUsb/Src/usbd_winUsb.c **** {
 277:Middlewares/ST/STM32_USB_Device_Library/Class/winUsb/Src/usbd_winUsb.c ****   UNUSED(cfgidx);
 278:Middlewares/ST/STM32_USB_Device_Library/Class/winUsb/Src/usbd_winUsb.c ****   USBD_WinUsb_HandleTypeDef *hcdc;
 279:Middlewares/ST/STM32_USB_Device_Library/Class/winUsb/Src/usbd_winUsb.c **** 
 280:Middlewares/ST/STM32_USB_Device_Library/Class/winUsb/Src/usbd_winUsb.c ****   hcdc = (USBD_WinUsb_HandleTypeDef *)USBD_malloc(sizeof(USBD_WinUsb_HandleTypeDef));
 281:Middlewares/ST/STM32_USB_Device_Library/Class/winUsb/Src/usbd_winUsb.c **** 
 282:Middlewares/ST/STM32_USB_Device_Library/Class/winUsb/Src/usbd_winUsb.c ****   if (hcdc == NULL)
 283:Middlewares/ST/STM32_USB_Device_Library/Class/winUsb/Src/usbd_winUsb.c ****   {
 284:Middlewares/ST/STM32_USB_Device_Library/Class/winUsb/Src/usbd_winUsb.c ****     pdev->pClassDataCmsit[pdev->classId] = NULL;
 285:Middlewares/ST/STM32_USB_Device_Library/Class/winUsb/Src/usbd_winUsb.c ****     return (uint8_t)USBD_EMEM;
 286:Middlewares/ST/STM32_USB_Device_Library/Class/winUsb/Src/usbd_winUsb.c ****   }
 287:Middlewares/ST/STM32_USB_Device_Library/Class/winUsb/Src/usbd_winUsb.c **** 
 288:Middlewares/ST/STM32_USB_Device_Library/Class/winUsb/Src/usbd_winUsb.c ****   (void)USBD_memset(hcdc, 0, sizeof(USBD_WinUsb_HandleTypeDef));
 289:Middlewares/ST/STM32_USB_Device_Library/Class/winUsb/Src/usbd_winUsb.c **** 
 290:Middlewares/ST/STM32_USB_Device_Library/Class/winUsb/Src/usbd_winUsb.c ****   pdev->pClassDataCmsit[pdev->classId] = (void *)hcdc;
 291:Middlewares/ST/STM32_USB_Device_Library/Class/winUsb/Src/usbd_winUsb.c ****   pdev->pClassData = pdev->pClassDataCmsit[pdev->classId];
 292:Middlewares/ST/STM32_USB_Device_Library/Class/winUsb/Src/usbd_winUsb.c **** 
 293:Middlewares/ST/STM32_USB_Device_Library/Class/winUsb/Src/usbd_winUsb.c ****   USBD_LL_OpenEP(pdev,WIN_USB_EPIN_ADDR,USBD_EP_TYPE_BULK,WIN_DATA_FS_IN_PACKET_SIZE);
 294:Middlewares/ST/STM32_USB_Device_Library/Class/winUsb/Src/usbd_winUsb.c ****   USBD_LL_OpenEP(pdev,WIN_USB_EPOUT_ADDR,USBD_EP_TYPE_BULK,WIN_DATA_FS_OUT_PACKET_SIZE);
 295:Middlewares/ST/STM32_USB_Device_Library/Class/winUsb/Src/usbd_winUsb.c ****   
 296:Middlewares/ST/STM32_USB_Device_Library/Class/winUsb/Src/usbd_winUsb.c ****   pdev->ep_in[WinUsbInEpAdd & 0xFU].is_used = 1U;
 297:Middlewares/ST/STM32_USB_Device_Library/Class/winUsb/Src/usbd_winUsb.c ****   pdev->ep_in[WinUsbOutEpAdd & 0xFU].is_used = 1U;
 298:Middlewares/ST/STM32_USB_Device_Library/Class/winUsb/Src/usbd_winUsb.c **** 
 299:Middlewares/ST/STM32_USB_Device_Library/Class/winUsb/Src/usbd_winUsb.c **** 
 300:Middlewares/ST/STM32_USB_Device_Library/Class/winUsb/Src/usbd_winUsb.c ****   hcdc->RxBuffer = NULL;
 301:Middlewares/ST/STM32_USB_Device_Library/Class/winUsb/Src/usbd_winUsb.c **** 
 302:Middlewares/ST/STM32_USB_Device_Library/Class/winUsb/Src/usbd_winUsb.c ****   /* Init  physical Interface components */
 303:Middlewares/ST/STM32_USB_Device_Library/Class/winUsb/Src/usbd_winUsb.c ****   ((USBD_WinUsb_ItfTypeDef *)pdev->pUserData[pdev->classId])->Init();
 304:Middlewares/ST/STM32_USB_Device_Library/Class/winUsb/Src/usbd_winUsb.c **** 
 305:Middlewares/ST/STM32_USB_Device_Library/Class/winUsb/Src/usbd_winUsb.c ****   /* Init Xfer states */
 306:Middlewares/ST/STM32_USB_Device_Library/Class/winUsb/Src/usbd_winUsb.c ****   hcdc->TxState = 0U;
 307:Middlewares/ST/STM32_USB_Device_Library/Class/winUsb/Src/usbd_winUsb.c ****   hcdc->RxState = 0U;
 308:Middlewares/ST/STM32_USB_Device_Library/Class/winUsb/Src/usbd_winUsb.c **** 
 309:Middlewares/ST/STM32_USB_Device_Library/Class/winUsb/Src/usbd_winUsb.c ****   if (hcdc->RxBuffer == NULL)
 310:Middlewares/ST/STM32_USB_Device_Library/Class/winUsb/Src/usbd_winUsb.c ****   {
 311:Middlewares/ST/STM32_USB_Device_Library/Class/winUsb/Src/usbd_winUsb.c ****     return (uint8_t)USBD_EMEM;
 312:Middlewares/ST/STM32_USB_Device_Library/Class/winUsb/Src/usbd_winUsb.c ****   }
 313:Middlewares/ST/STM32_USB_Device_Library/Class/winUsb/Src/usbd_winUsb.c **** 
 314:Middlewares/ST/STM32_USB_Device_Library/Class/winUsb/Src/usbd_winUsb.c ****   USBD_LL_PrepareReceive(pdev,
 315:Middlewares/ST/STM32_USB_Device_Library/Class/winUsb/Src/usbd_winUsb.c ****                           WIN_USB_EPOUT_ADDR,
ARM GAS  C:\Users\ADMINI~1\AppData\Local\Temp\ccBhKHjg.s 			page 7


 316:Middlewares/ST/STM32_USB_Device_Library/Class/winUsb/Src/usbd_winUsb.c ****                           hcdc->RxBuffer,
 317:Middlewares/ST/STM32_USB_Device_Library/Class/winUsb/Src/usbd_winUsb.c ****                           WIN_DATA_FS_OUT_PACKET_SIZE);
 318:Middlewares/ST/STM32_USB_Device_Library/Class/winUsb/Src/usbd_winUsb.c ****   return (uint8_t)USBD_OK;
 319:Middlewares/ST/STM32_USB_Device_Library/Class/winUsb/Src/usbd_winUsb.c **** 
 320:Middlewares/ST/STM32_USB_Device_Library/Class/winUsb/Src/usbd_winUsb.c **** }
 321:Middlewares/ST/STM32_USB_Device_Library/Class/winUsb/Src/usbd_winUsb.c **** 
 322:Middlewares/ST/STM32_USB_Device_Library/Class/winUsb/Src/usbd_winUsb.c **** static uint8_t USBD_WinUsb_DeInit(USBD_HandleTypeDef *pdev, uint8_t cfgidx)
 323:Middlewares/ST/STM32_USB_Device_Library/Class/winUsb/Src/usbd_winUsb.c **** {
 324:Middlewares/ST/STM32_USB_Device_Library/Class/winUsb/Src/usbd_winUsb.c ****   UNUSED(cfgidx);
 325:Middlewares/ST/STM32_USB_Device_Library/Class/winUsb/Src/usbd_winUsb.c **** 	/* Close EP IN */
 326:Middlewares/ST/STM32_USB_Device_Library/Class/winUsb/Src/usbd_winUsb.c ****   USBD_LL_CloseEP(pdev,WinUsbInEpAdd);
 327:Middlewares/ST/STM32_USB_Device_Library/Class/winUsb/Src/usbd_winUsb.c ****   pdev->ep_out[WinUsbInEpAdd & 0xFU].is_used = 0U;  
 328:Middlewares/ST/STM32_USB_Device_Library/Class/winUsb/Src/usbd_winUsb.c ****   /* Close EP OUT */
 329:Middlewares/ST/STM32_USB_Device_Library/Class/winUsb/Src/usbd_winUsb.c ****   USBD_LL_CloseEP(pdev,WinUsbOutEpAdd); 
 330:Middlewares/ST/STM32_USB_Device_Library/Class/winUsb/Src/usbd_winUsb.c ****   pdev->ep_out[WinUsbOutEpAdd & 0xFU].is_used = 0U;
 331:Middlewares/ST/STM32_USB_Device_Library/Class/winUsb/Src/usbd_winUsb.c **** 
 332:Middlewares/ST/STM32_USB_Device_Library/Class/winUsb/Src/usbd_winUsb.c **** 
 333:Middlewares/ST/STM32_USB_Device_Library/Class/winUsb/Src/usbd_winUsb.c ****   /* DeInit  physical Interface components */
 334:Middlewares/ST/STM32_USB_Device_Library/Class/winUsb/Src/usbd_winUsb.c ****   if (pdev->pClassDataCmsit[pdev->classId] != NULL)
 335:Middlewares/ST/STM32_USB_Device_Library/Class/winUsb/Src/usbd_winUsb.c ****   {
 336:Middlewares/ST/STM32_USB_Device_Library/Class/winUsb/Src/usbd_winUsb.c ****     ((USBD_WinUsb_ItfTypeDef *)pdev->pUserData[pdev->classId])->DeInit();
 337:Middlewares/ST/STM32_USB_Device_Library/Class/winUsb/Src/usbd_winUsb.c ****     (void)USBD_free(pdev->pClassDataCmsit[pdev->classId]);
 338:Middlewares/ST/STM32_USB_Device_Library/Class/winUsb/Src/usbd_winUsb.c ****     pdev->pClassDataCmsit[pdev->classId] = NULL;
 339:Middlewares/ST/STM32_USB_Device_Library/Class/winUsb/Src/usbd_winUsb.c ****     pdev->pClassData = NULL;
 340:Middlewares/ST/STM32_USB_Device_Library/Class/winUsb/Src/usbd_winUsb.c ****   }
 341:Middlewares/ST/STM32_USB_Device_Library/Class/winUsb/Src/usbd_winUsb.c **** 	return (uint8_t)USBD_OK;
 342:Middlewares/ST/STM32_USB_Device_Library/Class/winUsb/Src/usbd_winUsb.c **** 
 343:Middlewares/ST/STM32_USB_Device_Library/Class/winUsb/Src/usbd_winUsb.c **** }
 344:Middlewares/ST/STM32_USB_Device_Library/Class/winUsb/Src/usbd_winUsb.c **** static uint8_t USBD_WinUsb_Setup(USBD_HandleTypeDef *pdev, USBD_SetupReqTypedef *req)
 345:Middlewares/ST/STM32_USB_Device_Library/Class/winUsb/Src/usbd_winUsb.c **** {
 346:Middlewares/ST/STM32_USB_Device_Library/Class/winUsb/Src/usbd_winUsb.c **** 	USBD_WinUsb_HandleTypeDef *hcdc = (USBD_WinUsb_HandleTypeDef *)pdev->pClassDataCmsit[pdev->classId
 347:Middlewares/ST/STM32_USB_Device_Library/Class/winUsb/Src/usbd_winUsb.c ****   uint16_t len;
 348:Middlewares/ST/STM32_USB_Device_Library/Class/winUsb/Src/usbd_winUsb.c ****   uint8_t ifalt = 0U;
 349:Middlewares/ST/STM32_USB_Device_Library/Class/winUsb/Src/usbd_winUsb.c ****   uint16_t status_info = 0U;
 350:Middlewares/ST/STM32_USB_Device_Library/Class/winUsb/Src/usbd_winUsb.c ****   USBD_StatusTypeDef ret = USBD_OK;
 351:Middlewares/ST/STM32_USB_Device_Library/Class/winUsb/Src/usbd_winUsb.c **** 
 352:Middlewares/ST/STM32_USB_Device_Library/Class/winUsb/Src/usbd_winUsb.c ****   if (hcdc == NULL)
 353:Middlewares/ST/STM32_USB_Device_Library/Class/winUsb/Src/usbd_winUsb.c ****   {
 354:Middlewares/ST/STM32_USB_Device_Library/Class/winUsb/Src/usbd_winUsb.c ****     return (uint8_t)USBD_FAIL;
 355:Middlewares/ST/STM32_USB_Device_Library/Class/winUsb/Src/usbd_winUsb.c ****   }
 356:Middlewares/ST/STM32_USB_Device_Library/Class/winUsb/Src/usbd_winUsb.c ****  printf("bmRequest=%x\r\n",req->bmRequest);
 357:Middlewares/ST/STM32_USB_Device_Library/Class/winUsb/Src/usbd_winUsb.c ****   switch (req->bmRequest & USB_REQ_TYPE_MASK)
 358:Middlewares/ST/STM32_USB_Device_Library/Class/winUsb/Src/usbd_winUsb.c ****   {
 359:Middlewares/ST/STM32_USB_Device_Library/Class/winUsb/Src/usbd_winUsb.c ****     case USB_REQ_TYPE_CLASS:
 360:Middlewares/ST/STM32_USB_Device_Library/Class/winUsb/Src/usbd_winUsb.c ****       if (req->wLength != 0U)
 361:Middlewares/ST/STM32_USB_Device_Library/Class/winUsb/Src/usbd_winUsb.c ****       {
 362:Middlewares/ST/STM32_USB_Device_Library/Class/winUsb/Src/usbd_winUsb.c ****         if ((req->bmRequest & 0x80U) != 0U)
 363:Middlewares/ST/STM32_USB_Device_Library/Class/winUsb/Src/usbd_winUsb.c ****         {
 364:Middlewares/ST/STM32_USB_Device_Library/Class/winUsb/Src/usbd_winUsb.c ****           printf("control......1\r\n");
 365:Middlewares/ST/STM32_USB_Device_Library/Class/winUsb/Src/usbd_winUsb.c ****           /* ((USBD_CDC_ItfTypeDef *)pdev->pUserData[pdev->classId])->Control(req->bRequest,
 366:Middlewares/ST/STM32_USB_Device_Library/Class/winUsb/Src/usbd_winUsb.c ****                                                                            (uint8_t *)hcdc->data,
 367:Middlewares/ST/STM32_USB_Device_Library/Class/winUsb/Src/usbd_winUsb.c ****                                                                            req->wLength);
 368:Middlewares/ST/STM32_USB_Device_Library/Class/winUsb/Src/usbd_winUsb.c **** 
 369:Middlewares/ST/STM32_USB_Device_Library/Class/winUsb/Src/usbd_winUsb.c ****           len = MIN(CDC_REQ_MAX_DATA_SIZE, req->wLength);
 370:Middlewares/ST/STM32_USB_Device_Library/Class/winUsb/Src/usbd_winUsb.c ****           (void)USBD_CtlSendData(pdev, (uint8_t *)hcdc->data, len); */
 371:Middlewares/ST/STM32_USB_Device_Library/Class/winUsb/Src/usbd_winUsb.c ****         }
 372:Middlewares/ST/STM32_USB_Device_Library/Class/winUsb/Src/usbd_winUsb.c ****         else
ARM GAS  C:\Users\ADMINI~1\AppData\Local\Temp\ccBhKHjg.s 			page 8


 373:Middlewares/ST/STM32_USB_Device_Library/Class/winUsb/Src/usbd_winUsb.c ****         {
 374:Middlewares/ST/STM32_USB_Device_Library/Class/winUsb/Src/usbd_winUsb.c ****           hcdc->CmdOpCode = req->bRequest;
 375:Middlewares/ST/STM32_USB_Device_Library/Class/winUsb/Src/usbd_winUsb.c ****           hcdc->CmdLength = (uint8_t)MIN(req->wLength, USB_MAX_EP0_SIZE);
 376:Middlewares/ST/STM32_USB_Device_Library/Class/winUsb/Src/usbd_winUsb.c **** 
 377:Middlewares/ST/STM32_USB_Device_Library/Class/winUsb/Src/usbd_winUsb.c ****           (void)USBD_CtlPrepareRx(pdev, (uint8_t *)hcdc->data, hcdc->CmdLength);
 378:Middlewares/ST/STM32_USB_Device_Library/Class/winUsb/Src/usbd_winUsb.c ****         }
 379:Middlewares/ST/STM32_USB_Device_Library/Class/winUsb/Src/usbd_winUsb.c ****       }
 380:Middlewares/ST/STM32_USB_Device_Library/Class/winUsb/Src/usbd_winUsb.c ****       else
 381:Middlewares/ST/STM32_USB_Device_Library/Class/winUsb/Src/usbd_winUsb.c ****       {
 382:Middlewares/ST/STM32_USB_Device_Library/Class/winUsb/Src/usbd_winUsb.c ****         printf("control......2\r\n");
 383:Middlewares/ST/STM32_USB_Device_Library/Class/winUsb/Src/usbd_winUsb.c ****         // ((USBD_CDC_ItfTypeDef *)pdev->pUserData[pdev->classId])->Control(req->bRequest,(uint8_t 
 384:Middlewares/ST/STM32_USB_Device_Library/Class/winUsb/Src/usbd_winUsb.c ****       }
 385:Middlewares/ST/STM32_USB_Device_Library/Class/winUsb/Src/usbd_winUsb.c ****       break;
 386:Middlewares/ST/STM32_USB_Device_Library/Class/winUsb/Src/usbd_winUsb.c **** 
 387:Middlewares/ST/STM32_USB_Device_Library/Class/winUsb/Src/usbd_winUsb.c ****     case USB_REQ_TYPE_STANDARD:
 388:Middlewares/ST/STM32_USB_Device_Library/Class/winUsb/Src/usbd_winUsb.c ****       switch (req->bRequest)
 389:Middlewares/ST/STM32_USB_Device_Library/Class/winUsb/Src/usbd_winUsb.c ****       {
 390:Middlewares/ST/STM32_USB_Device_Library/Class/winUsb/Src/usbd_winUsb.c ****         case USB_REQ_GET_STATUS:
 391:Middlewares/ST/STM32_USB_Device_Library/Class/winUsb/Src/usbd_winUsb.c ****           if (pdev->dev_state == USBD_STATE_CONFIGURED)
 392:Middlewares/ST/STM32_USB_Device_Library/Class/winUsb/Src/usbd_winUsb.c ****           {
 393:Middlewares/ST/STM32_USB_Device_Library/Class/winUsb/Src/usbd_winUsb.c ****             (void)USBD_CtlSendData(pdev, (uint8_t *)&status_info, 2U);
 394:Middlewares/ST/STM32_USB_Device_Library/Class/winUsb/Src/usbd_winUsb.c ****           }
 395:Middlewares/ST/STM32_USB_Device_Library/Class/winUsb/Src/usbd_winUsb.c ****           else
 396:Middlewares/ST/STM32_USB_Device_Library/Class/winUsb/Src/usbd_winUsb.c ****           {
 397:Middlewares/ST/STM32_USB_Device_Library/Class/winUsb/Src/usbd_winUsb.c ****             USBD_CtlError(pdev, req);
 398:Middlewares/ST/STM32_USB_Device_Library/Class/winUsb/Src/usbd_winUsb.c ****             ret = USBD_FAIL;
 399:Middlewares/ST/STM32_USB_Device_Library/Class/winUsb/Src/usbd_winUsb.c ****           }
 400:Middlewares/ST/STM32_USB_Device_Library/Class/winUsb/Src/usbd_winUsb.c ****           break;
 401:Middlewares/ST/STM32_USB_Device_Library/Class/winUsb/Src/usbd_winUsb.c **** 
 402:Middlewares/ST/STM32_USB_Device_Library/Class/winUsb/Src/usbd_winUsb.c ****         case USB_REQ_GET_INTERFACE:
 403:Middlewares/ST/STM32_USB_Device_Library/Class/winUsb/Src/usbd_winUsb.c ****           if (pdev->dev_state == USBD_STATE_CONFIGURED)
 404:Middlewares/ST/STM32_USB_Device_Library/Class/winUsb/Src/usbd_winUsb.c ****           {
 405:Middlewares/ST/STM32_USB_Device_Library/Class/winUsb/Src/usbd_winUsb.c ****             (void)USBD_CtlSendData(pdev, &ifalt, 1U);
 406:Middlewares/ST/STM32_USB_Device_Library/Class/winUsb/Src/usbd_winUsb.c ****           }
 407:Middlewares/ST/STM32_USB_Device_Library/Class/winUsb/Src/usbd_winUsb.c ****           else
 408:Middlewares/ST/STM32_USB_Device_Library/Class/winUsb/Src/usbd_winUsb.c ****           {
 409:Middlewares/ST/STM32_USB_Device_Library/Class/winUsb/Src/usbd_winUsb.c ****             USBD_CtlError(pdev, req);
 410:Middlewares/ST/STM32_USB_Device_Library/Class/winUsb/Src/usbd_winUsb.c ****             ret = USBD_FAIL;
 411:Middlewares/ST/STM32_USB_Device_Library/Class/winUsb/Src/usbd_winUsb.c ****           }
 412:Middlewares/ST/STM32_USB_Device_Library/Class/winUsb/Src/usbd_winUsb.c ****           break;
 413:Middlewares/ST/STM32_USB_Device_Library/Class/winUsb/Src/usbd_winUsb.c **** 
 414:Middlewares/ST/STM32_USB_Device_Library/Class/winUsb/Src/usbd_winUsb.c ****         case USB_REQ_SET_INTERFACE:
 415:Middlewares/ST/STM32_USB_Device_Library/Class/winUsb/Src/usbd_winUsb.c ****           if (pdev->dev_state != USBD_STATE_CONFIGURED)
 416:Middlewares/ST/STM32_USB_Device_Library/Class/winUsb/Src/usbd_winUsb.c ****           {
 417:Middlewares/ST/STM32_USB_Device_Library/Class/winUsb/Src/usbd_winUsb.c ****             USBD_CtlError(pdev, req);
 418:Middlewares/ST/STM32_USB_Device_Library/Class/winUsb/Src/usbd_winUsb.c ****             ret = USBD_FAIL;
 419:Middlewares/ST/STM32_USB_Device_Library/Class/winUsb/Src/usbd_winUsb.c ****           }
 420:Middlewares/ST/STM32_USB_Device_Library/Class/winUsb/Src/usbd_winUsb.c ****           break;
 421:Middlewares/ST/STM32_USB_Device_Library/Class/winUsb/Src/usbd_winUsb.c **** 
 422:Middlewares/ST/STM32_USB_Device_Library/Class/winUsb/Src/usbd_winUsb.c ****         case USB_REQ_CLEAR_FEATURE:
 423:Middlewares/ST/STM32_USB_Device_Library/Class/winUsb/Src/usbd_winUsb.c ****           break;
 424:Middlewares/ST/STM32_USB_Device_Library/Class/winUsb/Src/usbd_winUsb.c **** 
 425:Middlewares/ST/STM32_USB_Device_Library/Class/winUsb/Src/usbd_winUsb.c ****         default:
 426:Middlewares/ST/STM32_USB_Device_Library/Class/winUsb/Src/usbd_winUsb.c ****           USBD_CtlError(pdev, req);
 427:Middlewares/ST/STM32_USB_Device_Library/Class/winUsb/Src/usbd_winUsb.c ****           ret = USBD_FAIL;
 428:Middlewares/ST/STM32_USB_Device_Library/Class/winUsb/Src/usbd_winUsb.c ****           break;
 429:Middlewares/ST/STM32_USB_Device_Library/Class/winUsb/Src/usbd_winUsb.c ****       }     
ARM GAS  C:\Users\ADMINI~1\AppData\Local\Temp\ccBhKHjg.s 			page 9


 430:Middlewares/ST/STM32_USB_Device_Library/Class/winUsb/Src/usbd_winUsb.c ****       break;
 431:Middlewares/ST/STM32_USB_Device_Library/Class/winUsb/Src/usbd_winUsb.c ****      case USB_REQ_TYPE_VENDOR:{
 432:Middlewares/ST/STM32_USB_Device_Library/Class/winUsb/Src/usbd_winUsb.c ****         USBD_WinUSBComm_SetupVendor(pdev, req);
 433:Middlewares/ST/STM32_USB_Device_Library/Class/winUsb/Src/usbd_winUsb.c ****       }break;
 434:Middlewares/ST/STM32_USB_Device_Library/Class/winUsb/Src/usbd_winUsb.c **** 
 435:Middlewares/ST/STM32_USB_Device_Library/Class/winUsb/Src/usbd_winUsb.c ****     default:
 436:Middlewares/ST/STM32_USB_Device_Library/Class/winUsb/Src/usbd_winUsb.c ****       USBD_CtlError(pdev, req);
 437:Middlewares/ST/STM32_USB_Device_Library/Class/winUsb/Src/usbd_winUsb.c ****       ret = USBD_FAIL;
 438:Middlewares/ST/STM32_USB_Device_Library/Class/winUsb/Src/usbd_winUsb.c ****       break;
 439:Middlewares/ST/STM32_USB_Device_Library/Class/winUsb/Src/usbd_winUsb.c ****   }
 440:Middlewares/ST/STM32_USB_Device_Library/Class/winUsb/Src/usbd_winUsb.c **** 
 441:Middlewares/ST/STM32_USB_Device_Library/Class/winUsb/Src/usbd_winUsb.c ****   return (uint8_t)ret;
 442:Middlewares/ST/STM32_USB_Device_Library/Class/winUsb/Src/usbd_winUsb.c **** 
 443:Middlewares/ST/STM32_USB_Device_Library/Class/winUsb/Src/usbd_winUsb.c **** }
 444:Middlewares/ST/STM32_USB_Device_Library/Class/winUsb/Src/usbd_winUsb.c **** static uint8_t USBD_WinUsb_DataIn(USBD_HandleTypeDef *pdev, uint8_t epnum)
 445:Middlewares/ST/STM32_USB_Device_Library/Class/winUsb/Src/usbd_winUsb.c **** {
 446:Middlewares/ST/STM32_USB_Device_Library/Class/winUsb/Src/usbd_winUsb.c ****   USBD_WinUsb_HandleTypeDef *hcdc;
 447:Middlewares/ST/STM32_USB_Device_Library/Class/winUsb/Src/usbd_winUsb.c ****   PCD_HandleTypeDef *hpcd = (PCD_HandleTypeDef *)pdev->pData;
 448:Middlewares/ST/STM32_USB_Device_Library/Class/winUsb/Src/usbd_winUsb.c **** 
 449:Middlewares/ST/STM32_USB_Device_Library/Class/winUsb/Src/usbd_winUsb.c ****   if (pdev->pClassDataCmsit[pdev->classId] == NULL)
 450:Middlewares/ST/STM32_USB_Device_Library/Class/winUsb/Src/usbd_winUsb.c ****   {
 451:Middlewares/ST/STM32_USB_Device_Library/Class/winUsb/Src/usbd_winUsb.c ****     return (uint8_t)USBD_FAIL;
 452:Middlewares/ST/STM32_USB_Device_Library/Class/winUsb/Src/usbd_winUsb.c ****   }
 453:Middlewares/ST/STM32_USB_Device_Library/Class/winUsb/Src/usbd_winUsb.c **** 
 454:Middlewares/ST/STM32_USB_Device_Library/Class/winUsb/Src/usbd_winUsb.c ****   hcdc = (USBD_WinUsb_HandleTypeDef *)pdev->pClassDataCmsit[pdev->classId];
 455:Middlewares/ST/STM32_USB_Device_Library/Class/winUsb/Src/usbd_winUsb.c **** 
 456:Middlewares/ST/STM32_USB_Device_Library/Class/winUsb/Src/usbd_winUsb.c ****   if ((pdev->ep_in[epnum & 0xFU].total_length > 0U) &&
 457:Middlewares/ST/STM32_USB_Device_Library/Class/winUsb/Src/usbd_winUsb.c ****       ((pdev->ep_in[epnum & 0xFU].total_length % hpcd->IN_ep[epnum & 0xFU].maxpacket) == 0U))
 458:Middlewares/ST/STM32_USB_Device_Library/Class/winUsb/Src/usbd_winUsb.c ****   {
 459:Middlewares/ST/STM32_USB_Device_Library/Class/winUsb/Src/usbd_winUsb.c ****     /* Update the packet total length */
 460:Middlewares/ST/STM32_USB_Device_Library/Class/winUsb/Src/usbd_winUsb.c ****     pdev->ep_in[epnum & 0xFU].total_length = 0U;
 461:Middlewares/ST/STM32_USB_Device_Library/Class/winUsb/Src/usbd_winUsb.c **** 
 462:Middlewares/ST/STM32_USB_Device_Library/Class/winUsb/Src/usbd_winUsb.c ****     /* Send ZLP */
 463:Middlewares/ST/STM32_USB_Device_Library/Class/winUsb/Src/usbd_winUsb.c ****     (void)USBD_LL_Transmit(pdev, epnum, NULL, 0U);
 464:Middlewares/ST/STM32_USB_Device_Library/Class/winUsb/Src/usbd_winUsb.c ****   }
 465:Middlewares/ST/STM32_USB_Device_Library/Class/winUsb/Src/usbd_winUsb.c ****   else
 466:Middlewares/ST/STM32_USB_Device_Library/Class/winUsb/Src/usbd_winUsb.c ****   {
 467:Middlewares/ST/STM32_USB_Device_Library/Class/winUsb/Src/usbd_winUsb.c ****     hcdc->TxState = 0U;
 468:Middlewares/ST/STM32_USB_Device_Library/Class/winUsb/Src/usbd_winUsb.c **** 
 469:Middlewares/ST/STM32_USB_Device_Library/Class/winUsb/Src/usbd_winUsb.c ****     if (((USBD_WinUsb_ItfTypeDef *)pdev->pUserData[pdev->classId])->TransmitCplt != NULL)
 470:Middlewares/ST/STM32_USB_Device_Library/Class/winUsb/Src/usbd_winUsb.c ****     {
 471:Middlewares/ST/STM32_USB_Device_Library/Class/winUsb/Src/usbd_winUsb.c ****       ((USBD_WinUsb_ItfTypeDef *)pdev->pUserData[pdev->classId])->TransmitCplt(hcdc->TxBuffer, &hcd
 472:Middlewares/ST/STM32_USB_Device_Library/Class/winUsb/Src/usbd_winUsb.c ****     }
 473:Middlewares/ST/STM32_USB_Device_Library/Class/winUsb/Src/usbd_winUsb.c ****   }
 474:Middlewares/ST/STM32_USB_Device_Library/Class/winUsb/Src/usbd_winUsb.c **** 
 475:Middlewares/ST/STM32_USB_Device_Library/Class/winUsb/Src/usbd_winUsb.c ****   return (uint8_t)USBD_OK;	
 476:Middlewares/ST/STM32_USB_Device_Library/Class/winUsb/Src/usbd_winUsb.c **** 
 477:Middlewares/ST/STM32_USB_Device_Library/Class/winUsb/Src/usbd_winUsb.c **** }
 478:Middlewares/ST/STM32_USB_Device_Library/Class/winUsb/Src/usbd_winUsb.c **** 
 479:Middlewares/ST/STM32_USB_Device_Library/Class/winUsb/Src/usbd_winUsb.c **** static uint8_t USBD_WinUsb_DataOut(USBD_HandleTypeDef *pdev, uint8_t epnum)
 480:Middlewares/ST/STM32_USB_Device_Library/Class/winUsb/Src/usbd_winUsb.c **** {
 481:Middlewares/ST/STM32_USB_Device_Library/Class/winUsb/Src/usbd_winUsb.c ****   USBD_WinUsb_HandleTypeDef *hcdc = (USBD_WinUsb_HandleTypeDef *)pdev->pClassDataCmsit[pdev->classI
 482:Middlewares/ST/STM32_USB_Device_Library/Class/winUsb/Src/usbd_winUsb.c **** 
 483:Middlewares/ST/STM32_USB_Device_Library/Class/winUsb/Src/usbd_winUsb.c ****   if (pdev->pClassDataCmsit[pdev->classId] == NULL)
 484:Middlewares/ST/STM32_USB_Device_Library/Class/winUsb/Src/usbd_winUsb.c ****   {
 485:Middlewares/ST/STM32_USB_Device_Library/Class/winUsb/Src/usbd_winUsb.c ****     return (uint8_t)USBD_FAIL;
 486:Middlewares/ST/STM32_USB_Device_Library/Class/winUsb/Src/usbd_winUsb.c ****   }
ARM GAS  C:\Users\ADMINI~1\AppData\Local\Temp\ccBhKHjg.s 			page 10


 487:Middlewares/ST/STM32_USB_Device_Library/Class/winUsb/Src/usbd_winUsb.c **** 
 488:Middlewares/ST/STM32_USB_Device_Library/Class/winUsb/Src/usbd_winUsb.c ****   /* Get the received data length */
 489:Middlewares/ST/STM32_USB_Device_Library/Class/winUsb/Src/usbd_winUsb.c ****   hcdc->RxLength = USBD_LL_GetRxDataSize(pdev, epnum);
 490:Middlewares/ST/STM32_USB_Device_Library/Class/winUsb/Src/usbd_winUsb.c **** 
 491:Middlewares/ST/STM32_USB_Device_Library/Class/winUsb/Src/usbd_winUsb.c ****   /* USB data will be immediately processed, this allow next USB traffic being
 492:Middlewares/ST/STM32_USB_Device_Library/Class/winUsb/Src/usbd_winUsb.c ****   NAKed till the end of the application Xfer */
 493:Middlewares/ST/STM32_USB_Device_Library/Class/winUsb/Src/usbd_winUsb.c **** 
 494:Middlewares/ST/STM32_USB_Device_Library/Class/winUsb/Src/usbd_winUsb.c ****   ((USBD_WinUsb_ItfTypeDef *)pdev->pUserData[pdev->classId])->Receive(hcdc->RxBuffer, &hcdc->RxLeng
 495:Middlewares/ST/STM32_USB_Device_Library/Class/winUsb/Src/usbd_winUsb.c **** 
 496:Middlewares/ST/STM32_USB_Device_Library/Class/winUsb/Src/usbd_winUsb.c ****   return (uint8_t)USBD_OK;
 497:Middlewares/ST/STM32_USB_Device_Library/Class/winUsb/Src/usbd_winUsb.c **** 
 498:Middlewares/ST/STM32_USB_Device_Library/Class/winUsb/Src/usbd_winUsb.c **** }
 499:Middlewares/ST/STM32_USB_Device_Library/Class/winUsb/Src/usbd_winUsb.c **** static uint8_t USBD_WinUsb_EP0_RxReady(USBD_HandleTypeDef *pdev)
 500:Middlewares/ST/STM32_USB_Device_Library/Class/winUsb/Src/usbd_winUsb.c **** {
  29              		.loc 1 500 1 view -0
  30              		.cfi_startproc
  31              		@ args = 0, pretend = 0, frame = 0
  32              		@ frame_needed = 0, uses_anonymous_args = 0
  33              		@ link register save eliminated.
 501:Middlewares/ST/STM32_USB_Device_Library/Class/winUsb/Src/usbd_winUsb.c **** 	return (uint8_t)USBD_OK;
  34              		.loc 1 501 2 view .LVU1
 502:Middlewares/ST/STM32_USB_Device_Library/Class/winUsb/Src/usbd_winUsb.c **** 
 503:Middlewares/ST/STM32_USB_Device_Library/Class/winUsb/Src/usbd_winUsb.c **** }
  35              		.loc 1 503 1 is_stmt 0 view .LVU2
  36 0000 0020     		movs	r0, #0
  37              	.LVL1:
  38              		.loc 1 503 1 view .LVU3
  39 0002 7047     		bx	lr
  40              		.cfi_endproc
  41              	.LFE144:
  43              		.section	.text.WinUsb_DeInit_FS,"ax",%progbits
  44              		.align	1
  45              		.syntax unified
  46              		.thumb
  47              		.thumb_func
  49              	WinUsb_DeInit_FS:
  50              	.LFB149:
 504:Middlewares/ST/STM32_USB_Device_Library/Class/winUsb/Src/usbd_winUsb.c **** 
 505:Middlewares/ST/STM32_USB_Device_Library/Class/winUsb/Src/usbd_winUsb.c **** uint8_t WinUsbRxBufferFS[winAPP_RX_DATA_SIZE];
 506:Middlewares/ST/STM32_USB_Device_Library/Class/winUsb/Src/usbd_winUsb.c **** uint8_t WinUsbTxBufferFS[winAPP_TX_DATA_SIZE];
 507:Middlewares/ST/STM32_USB_Device_Library/Class/winUsb/Src/usbd_winUsb.c **** extern USBD_HandleTypeDef hUsbDeviceFS;
 508:Middlewares/ST/STM32_USB_Device_Library/Class/winUsb/Src/usbd_winUsb.c **** 
 509:Middlewares/ST/STM32_USB_Device_Library/Class/winUsb/Src/usbd_winUsb.c **** uint8_t USBD_WinUsb_SetTxBuffer(USBD_HandleTypeDef *pdev,
 510:Middlewares/ST/STM32_USB_Device_Library/Class/winUsb/Src/usbd_winUsb.c ****                              uint8_t *pbuff, uint32_t length)
 511:Middlewares/ST/STM32_USB_Device_Library/Class/winUsb/Src/usbd_winUsb.c **** {
 512:Middlewares/ST/STM32_USB_Device_Library/Class/winUsb/Src/usbd_winUsb.c ****   USBD_WinUsb_HandleTypeDef *hcdc = (USBD_WinUsb_HandleTypeDef *)pdev->pClassDataCmsit[pdev->classI
 513:Middlewares/ST/STM32_USB_Device_Library/Class/winUsb/Src/usbd_winUsb.c **** 
 514:Middlewares/ST/STM32_USB_Device_Library/Class/winUsb/Src/usbd_winUsb.c ****   if (hcdc == NULL)
 515:Middlewares/ST/STM32_USB_Device_Library/Class/winUsb/Src/usbd_winUsb.c ****   {
 516:Middlewares/ST/STM32_USB_Device_Library/Class/winUsb/Src/usbd_winUsb.c ****     return (uint8_t)USBD_FAIL;
 517:Middlewares/ST/STM32_USB_Device_Library/Class/winUsb/Src/usbd_winUsb.c ****   }
 518:Middlewares/ST/STM32_USB_Device_Library/Class/winUsb/Src/usbd_winUsb.c **** 
 519:Middlewares/ST/STM32_USB_Device_Library/Class/winUsb/Src/usbd_winUsb.c ****   hcdc->TxBuffer = pbuff;
 520:Middlewares/ST/STM32_USB_Device_Library/Class/winUsb/Src/usbd_winUsb.c ****   hcdc->TxLength = length;
 521:Middlewares/ST/STM32_USB_Device_Library/Class/winUsb/Src/usbd_winUsb.c **** 
 522:Middlewares/ST/STM32_USB_Device_Library/Class/winUsb/Src/usbd_winUsb.c ****   return (uint8_t)USBD_OK;
 523:Middlewares/ST/STM32_USB_Device_Library/Class/winUsb/Src/usbd_winUsb.c **** }
ARM GAS  C:\Users\ADMINI~1\AppData\Local\Temp\ccBhKHjg.s 			page 11


 524:Middlewares/ST/STM32_USB_Device_Library/Class/winUsb/Src/usbd_winUsb.c **** uint8_t USBD_WinUsb_SetRxBuffer(USBD_HandleTypeDef *pdev, uint8_t *pbuff)
 525:Middlewares/ST/STM32_USB_Device_Library/Class/winUsb/Src/usbd_winUsb.c **** {
 526:Middlewares/ST/STM32_USB_Device_Library/Class/winUsb/Src/usbd_winUsb.c **** 	USBD_WinUsb_HandleTypeDef *hcdc = (USBD_WinUsb_HandleTypeDef *)pdev->pClassDataCmsit[pdev->classId
 527:Middlewares/ST/STM32_USB_Device_Library/Class/winUsb/Src/usbd_winUsb.c **** 
 528:Middlewares/ST/STM32_USB_Device_Library/Class/winUsb/Src/usbd_winUsb.c **** 	if (hcdc == NULL)
 529:Middlewares/ST/STM32_USB_Device_Library/Class/winUsb/Src/usbd_winUsb.c **** 	{
 530:Middlewares/ST/STM32_USB_Device_Library/Class/winUsb/Src/usbd_winUsb.c **** 	 	return (uint8_t)USBD_FAIL;
 531:Middlewares/ST/STM32_USB_Device_Library/Class/winUsb/Src/usbd_winUsb.c **** 	}
 532:Middlewares/ST/STM32_USB_Device_Library/Class/winUsb/Src/usbd_winUsb.c **** 
 533:Middlewares/ST/STM32_USB_Device_Library/Class/winUsb/Src/usbd_winUsb.c **** 	hcdc->RxBuffer = pbuff;
 534:Middlewares/ST/STM32_USB_Device_Library/Class/winUsb/Src/usbd_winUsb.c **** 
 535:Middlewares/ST/STM32_USB_Device_Library/Class/winUsb/Src/usbd_winUsb.c **** 	return (uint8_t)USBD_OK;
 536:Middlewares/ST/STM32_USB_Device_Library/Class/winUsb/Src/usbd_winUsb.c **** }
 537:Middlewares/ST/STM32_USB_Device_Library/Class/winUsb/Src/usbd_winUsb.c **** 
 538:Middlewares/ST/STM32_USB_Device_Library/Class/winUsb/Src/usbd_winUsb.c **** uint8_t USBD_WinUsb_ReceivePacket(USBD_HandleTypeDef *pdev)
 539:Middlewares/ST/STM32_USB_Device_Library/Class/winUsb/Src/usbd_winUsb.c **** {
 540:Middlewares/ST/STM32_USB_Device_Library/Class/winUsb/Src/usbd_winUsb.c ****   USBD_WinUsb_HandleTypeDef *hcdc = (USBD_WinUsb_HandleTypeDef *)pdev->pClassDataCmsit[pdev->classI
 541:Middlewares/ST/STM32_USB_Device_Library/Class/winUsb/Src/usbd_winUsb.c **** 
 542:Middlewares/ST/STM32_USB_Device_Library/Class/winUsb/Src/usbd_winUsb.c ****   if (pdev->pClassDataCmsit[pdev->classId] == NULL)
 543:Middlewares/ST/STM32_USB_Device_Library/Class/winUsb/Src/usbd_winUsb.c ****   {
 544:Middlewares/ST/STM32_USB_Device_Library/Class/winUsb/Src/usbd_winUsb.c ****     return (uint8_t)USBD_FAIL;
 545:Middlewares/ST/STM32_USB_Device_Library/Class/winUsb/Src/usbd_winUsb.c ****   }
 546:Middlewares/ST/STM32_USB_Device_Library/Class/winUsb/Src/usbd_winUsb.c **** 
 547:Middlewares/ST/STM32_USB_Device_Library/Class/winUsb/Src/usbd_winUsb.c ****  
 548:Middlewares/ST/STM32_USB_Device_Library/Class/winUsb/Src/usbd_winUsb.c ****     /* Prepare Out endpoint to receive next packet */
 549:Middlewares/ST/STM32_USB_Device_Library/Class/winUsb/Src/usbd_winUsb.c ****  (void)USBD_LL_PrepareReceive(pdev, WinUsbOutEpAdd, hcdc->RxBuffer,WIN_DATA_FS_OUT_PACKET_SIZE);
 550:Middlewares/ST/STM32_USB_Device_Library/Class/winUsb/Src/usbd_winUsb.c **** 
 551:Middlewares/ST/STM32_USB_Device_Library/Class/winUsb/Src/usbd_winUsb.c ****   return (uint8_t)USBD_OK;
 552:Middlewares/ST/STM32_USB_Device_Library/Class/winUsb/Src/usbd_winUsb.c **** }
 553:Middlewares/ST/STM32_USB_Device_Library/Class/winUsb/Src/usbd_winUsb.c **** static int8_t WinUsb_Init_FS(void)
 554:Middlewares/ST/STM32_USB_Device_Library/Class/winUsb/Src/usbd_winUsb.c **** {
 555:Middlewares/ST/STM32_USB_Device_Library/Class/winUsb/Src/usbd_winUsb.c ****   /* USER CODE BEGIN 3 */
 556:Middlewares/ST/STM32_USB_Device_Library/Class/winUsb/Src/usbd_winUsb.c ****   /* Set Application Buffers */
 557:Middlewares/ST/STM32_USB_Device_Library/Class/winUsb/Src/usbd_winUsb.c ****   USBD_WinUsb_SetTxBuffer(&hUsbDeviceFS, WinUsbTxBufferFS, 0);
 558:Middlewares/ST/STM32_USB_Device_Library/Class/winUsb/Src/usbd_winUsb.c ****   USBD_WinUsb_SetRxBuffer(&hUsbDeviceFS, WinUsbRxBufferFS);
 559:Middlewares/ST/STM32_USB_Device_Library/Class/winUsb/Src/usbd_winUsb.c ****   return (USBD_OK);
 560:Middlewares/ST/STM32_USB_Device_Library/Class/winUsb/Src/usbd_winUsb.c ****   /* USER CODE END 3 */
 561:Middlewares/ST/STM32_USB_Device_Library/Class/winUsb/Src/usbd_winUsb.c **** }
 562:Middlewares/ST/STM32_USB_Device_Library/Class/winUsb/Src/usbd_winUsb.c **** static int8_t WinUsb_DeInit_FS(void)
 563:Middlewares/ST/STM32_USB_Device_Library/Class/winUsb/Src/usbd_winUsb.c **** {
  51              		.loc 1 563 1 is_stmt 1 view -0
  52              		.cfi_startproc
  53              		@ args = 0, pretend = 0, frame = 0
  54              		@ frame_needed = 0, uses_anonymous_args = 0
  55              		@ link register save eliminated.
 564:Middlewares/ST/STM32_USB_Device_Library/Class/winUsb/Src/usbd_winUsb.c ****   /* USER CODE BEGIN 4 */
 565:Middlewares/ST/STM32_USB_Device_Library/Class/winUsb/Src/usbd_winUsb.c ****   return (USBD_OK);
  56              		.loc 1 565 3 view .LVU5
 566:Middlewares/ST/STM32_USB_Device_Library/Class/winUsb/Src/usbd_winUsb.c ****   /* USER CODE END 4 */
 567:Middlewares/ST/STM32_USB_Device_Library/Class/winUsb/Src/usbd_winUsb.c **** }
  57              		.loc 1 567 1 is_stmt 0 view .LVU6
  58 0000 0020     		movs	r0, #0
  59 0002 7047     		bx	lr
  60              		.cfi_endproc
  61              	.LFE149:
  63              		.section	.text.WinUsb_TransmitCplt_FS,"ax",%progbits
  64              		.align	1
ARM GAS  C:\Users\ADMINI~1\AppData\Local\Temp\ccBhKHjg.s 			page 12


  65              		.syntax unified
  66              		.thumb
  67              		.thumb_func
  69              	WinUsb_TransmitCplt_FS:
  70              	.LVL2:
  71              	.LFB151:
 568:Middlewares/ST/STM32_USB_Device_Library/Class/winUsb/Src/usbd_winUsb.c **** 
 569:Middlewares/ST/STM32_USB_Device_Library/Class/winUsb/Src/usbd_winUsb.c **** static int8_t WinUsb_Receive_FS(uint8_t* Buf, uint32_t *Len)
 570:Middlewares/ST/STM32_USB_Device_Library/Class/winUsb/Src/usbd_winUsb.c **** {
 571:Middlewares/ST/STM32_USB_Device_Library/Class/winUsb/Src/usbd_winUsb.c ****   /* USER CODE BEGIN 6 */
 572:Middlewares/ST/STM32_USB_Device_Library/Class/winUsb/Src/usbd_winUsb.c ****   int i;
 573:Middlewares/ST/STM32_USB_Device_Library/Class/winUsb/Src/usbd_winUsb.c ****   for(i=0 ; i<*Len; i++)
 574:Middlewares/ST/STM32_USB_Device_Library/Class/winUsb/Src/usbd_winUsb.c ****     printf("%.2x ",Buf[i]);
 575:Middlewares/ST/STM32_USB_Device_Library/Class/winUsb/Src/usbd_winUsb.c ****   printf("\r\n");
 576:Middlewares/ST/STM32_USB_Device_Library/Class/winUsb/Src/usbd_winUsb.c ****   USBD_WinUsb_SetRxBuffer(&hUsbDeviceFS, &Buf[0]);
 577:Middlewares/ST/STM32_USB_Device_Library/Class/winUsb/Src/usbd_winUsb.c ****   USBD_WinUsb_ReceivePacket(&hUsbDeviceFS);
 578:Middlewares/ST/STM32_USB_Device_Library/Class/winUsb/Src/usbd_winUsb.c ****   return (USBD_OK);
 579:Middlewares/ST/STM32_USB_Device_Library/Class/winUsb/Src/usbd_winUsb.c ****   /* USER CODE END 6 */
 580:Middlewares/ST/STM32_USB_Device_Library/Class/winUsb/Src/usbd_winUsb.c **** }
 581:Middlewares/ST/STM32_USB_Device_Library/Class/winUsb/Src/usbd_winUsb.c **** static int8_t WinUsb_TransmitCplt_FS(uint8_t *Buf, uint32_t *Len, uint8_t epnum)
 582:Middlewares/ST/STM32_USB_Device_Library/Class/winUsb/Src/usbd_winUsb.c **** {
  72              		.loc 1 582 1 is_stmt 1 view -0
  73              		.cfi_startproc
  74              		@ args = 0, pretend = 0, frame = 0
  75              		@ frame_needed = 0, uses_anonymous_args = 0
  76              		@ link register save eliminated.
 583:Middlewares/ST/STM32_USB_Device_Library/Class/winUsb/Src/usbd_winUsb.c ****   uint8_t result = USBD_OK;
  77              		.loc 1 583 3 view .LVU8
 584:Middlewares/ST/STM32_USB_Device_Library/Class/winUsb/Src/usbd_winUsb.c ****   /* USER CODE BEGIN 13 */
 585:Middlewares/ST/STM32_USB_Device_Library/Class/winUsb/Src/usbd_winUsb.c ****   UNUSED(Buf);
  78              		.loc 1 585 3 view .LVU9
 586:Middlewares/ST/STM32_USB_Device_Library/Class/winUsb/Src/usbd_winUsb.c ****   UNUSED(Len);
  79              		.loc 1 586 3 view .LVU10
 587:Middlewares/ST/STM32_USB_Device_Library/Class/winUsb/Src/usbd_winUsb.c ****   UNUSED(epnum);
  80              		.loc 1 587 3 view .LVU11
 588:Middlewares/ST/STM32_USB_Device_Library/Class/winUsb/Src/usbd_winUsb.c ****   /* USER CODE END 13 */
 589:Middlewares/ST/STM32_USB_Device_Library/Class/winUsb/Src/usbd_winUsb.c ****   return result;
  81              		.loc 1 589 3 view .LVU12
 590:Middlewares/ST/STM32_USB_Device_Library/Class/winUsb/Src/usbd_winUsb.c **** }
  82              		.loc 1 590 1 is_stmt 0 view .LVU13
  83 0000 0020     		movs	r0, #0
  84              	.LVL3:
  85              		.loc 1 590 1 view .LVU14
  86 0002 7047     		bx	lr
  87              		.cfi_endproc
  88              	.LFE151:
  90              		.section	.text.USBD_WinUsb_DataOut,"ax",%progbits
  91              		.align	1
  92              		.syntax unified
  93              		.thumb
  94              		.thumb_func
  96              	USBD_WinUsb_DataOut:
  97              	.LVL4:
  98              	.LFB143:
 480:Middlewares/ST/STM32_USB_Device_Library/Class/winUsb/Src/usbd_winUsb.c ****   USBD_WinUsb_HandleTypeDef *hcdc = (USBD_WinUsb_HandleTypeDef *)pdev->pClassDataCmsit[pdev->classI
  99              		.loc 1 480 1 is_stmt 1 view -0
 100              		.cfi_startproc
ARM GAS  C:\Users\ADMINI~1\AppData\Local\Temp\ccBhKHjg.s 			page 13


 101              		@ args = 0, pretend = 0, frame = 0
 102              		@ frame_needed = 0, uses_anonymous_args = 0
 480:Middlewares/ST/STM32_USB_Device_Library/Class/winUsb/Src/usbd_winUsb.c ****   USBD_WinUsb_HandleTypeDef *hcdc = (USBD_WinUsb_HandleTypeDef *)pdev->pClassDataCmsit[pdev->classI
 103              		.loc 1 480 1 is_stmt 0 view .LVU16
 104 0000 38B5     		push	{r3, r4, r5, lr}
 105              	.LCFI0:
 106              		.cfi_def_cfa_offset 16
 107              		.cfi_offset 3, -16
 108              		.cfi_offset 4, -12
 109              		.cfi_offset 5, -8
 110              		.cfi_offset 14, -4
 481:Middlewares/ST/STM32_USB_Device_Library/Class/winUsb/Src/usbd_winUsb.c **** 
 111              		.loc 1 481 3 is_stmt 1 view .LVU17
 481:Middlewares/ST/STM32_USB_Device_Library/Class/winUsb/Src/usbd_winUsb.c **** 
 112              		.loc 1 481 92 is_stmt 0 view .LVU18
 113 0002 D0F8F832 		ldr	r3, [r0, #760]
 481:Middlewares/ST/STM32_USB_Device_Library/Class/winUsb/Src/usbd_winUsb.c **** 
 114              		.loc 1 481 30 view .LVU19
 115 0006 B233     		adds	r3, r3, #178
 116 0008 00EB8303 		add	r3, r0, r3, lsl #2
 117 000c 5D68     		ldr	r5, [r3, #4]
 118              	.LVL5:
 483:Middlewares/ST/STM32_USB_Device_Library/Class/winUsb/Src/usbd_winUsb.c ****   {
 119              		.loc 1 483 3 is_stmt 1 view .LVU20
 483:Middlewares/ST/STM32_USB_Device_Library/Class/winUsb/Src/usbd_winUsb.c ****   {
 120              		.loc 1 483 6 is_stmt 0 view .LVU21
 121 000e 95B1     		cbz	r5, .L6
 122 0010 0446     		mov	r4, r0
 489:Middlewares/ST/STM32_USB_Device_Library/Class/winUsb/Src/usbd_winUsb.c **** 
 123              		.loc 1 489 3 is_stmt 1 view .LVU22
 489:Middlewares/ST/STM32_USB_Device_Library/Class/winUsb/Src/usbd_winUsb.c **** 
 124              		.loc 1 489 20 is_stmt 0 view .LVU23
 125 0012 FFF7FEFF 		bl	USBD_LL_GetRxDataSize
 126              	.LVL6:
 489:Middlewares/ST/STM32_USB_Device_Library/Class/winUsb/Src/usbd_winUsb.c **** 
 127              		.loc 1 489 18 view .LVU24
 128 0016 C5F80C02 		str	r0, [r5, #524]
 494:Middlewares/ST/STM32_USB_Device_Library/Class/winUsb/Src/usbd_winUsb.c **** 
 129              		.loc 1 494 3 is_stmt 1 view .LVU25
 494:Middlewares/ST/STM32_USB_Device_Library/Class/winUsb/Src/usbd_winUsb.c **** 
 130              		.loc 1 494 50 is_stmt 0 view .LVU26
 131 001a D4F8F832 		ldr	r3, [r4, #760]
 494:Middlewares/ST/STM32_USB_Device_Library/Class/winUsb/Src/usbd_winUsb.c **** 
 132              		.loc 1 494 45 view .LVU27
 133 001e B633     		adds	r3, r3, #182
 134 0020 04EB8304 		add	r4, r4, r3, lsl #2
 135              	.LVL7:
 494:Middlewares/ST/STM32_USB_Device_Library/Class/winUsb/Src/usbd_winUsb.c **** 
 136              		.loc 1 494 45 view .LVU28
 137 0024 6368     		ldr	r3, [r4, #4]
 494:Middlewares/ST/STM32_USB_Device_Library/Class/winUsb/Src/usbd_winUsb.c **** 
 138              		.loc 1 494 61 view .LVU29
 139 0026 DB68     		ldr	r3, [r3, #12]
 494:Middlewares/ST/STM32_USB_Device_Library/Class/winUsb/Src/usbd_winUsb.c **** 
 140              		.loc 1 494 4 view .LVU30
 141 0028 05F50371 		add	r1, r5, #524
 142 002c D5F80402 		ldr	r0, [r5, #516]
ARM GAS  C:\Users\ADMINI~1\AppData\Local\Temp\ccBhKHjg.s 			page 14


 143 0030 9847     		blx	r3
 144              	.LVL8:
 496:Middlewares/ST/STM32_USB_Device_Library/Class/winUsb/Src/usbd_winUsb.c **** 
 145              		.loc 1 496 3 is_stmt 1 view .LVU31
 496:Middlewares/ST/STM32_USB_Device_Library/Class/winUsb/Src/usbd_winUsb.c **** 
 146              		.loc 1 496 10 is_stmt 0 view .LVU32
 147 0032 0020     		movs	r0, #0
 148              	.L5:
 498:Middlewares/ST/STM32_USB_Device_Library/Class/winUsb/Src/usbd_winUsb.c **** static uint8_t USBD_WinUsb_EP0_RxReady(USBD_HandleTypeDef *pdev)
 149              		.loc 1 498 1 view .LVU33
 150 0034 38BD     		pop	{r3, r4, r5, pc}
 151              	.LVL9:
 152              	.L6:
 485:Middlewares/ST/STM32_USB_Device_Library/Class/winUsb/Src/usbd_winUsb.c ****   }
 153              		.loc 1 485 12 view .LVU34
 154 0036 0320     		movs	r0, #3
 155              	.LVL10:
 485:Middlewares/ST/STM32_USB_Device_Library/Class/winUsb/Src/usbd_winUsb.c ****   }
 156              		.loc 1 485 12 view .LVU35
 157 0038 FCE7     		b	.L5
 158              		.cfi_endproc
 159              	.LFE143:
 161              		.section	.text.USBD_WinUsb_DataIn,"ax",%progbits
 162              		.align	1
 163              		.syntax unified
 164              		.thumb
 165              		.thumb_func
 167              	USBD_WinUsb_DataIn:
 168              	.LVL11:
 169              	.LFB142:
 445:Middlewares/ST/STM32_USB_Device_Library/Class/winUsb/Src/usbd_winUsb.c ****   USBD_WinUsb_HandleTypeDef *hcdc;
 170              		.loc 1 445 1 is_stmt 1 view -0
 171              		.cfi_startproc
 172              		@ args = 0, pretend = 0, frame = 0
 173              		@ frame_needed = 0, uses_anonymous_args = 0
 445:Middlewares/ST/STM32_USB_Device_Library/Class/winUsb/Src/usbd_winUsb.c ****   USBD_WinUsb_HandleTypeDef *hcdc;
 174              		.loc 1 445 1 is_stmt 0 view .LVU37
 175 0000 38B5     		push	{r3, r4, r5, lr}
 176              	.LCFI1:
 177              		.cfi_def_cfa_offset 16
 178              		.cfi_offset 3, -16
 179              		.cfi_offset 4, -12
 180              		.cfi_offset 5, -8
 181              		.cfi_offset 14, -4
 446:Middlewares/ST/STM32_USB_Device_Library/Class/winUsb/Src/usbd_winUsb.c ****   PCD_HandleTypeDef *hpcd = (PCD_HandleTypeDef *)pdev->pData;
 182              		.loc 1 446 3 is_stmt 1 view .LVU38
 447:Middlewares/ST/STM32_USB_Device_Library/Class/winUsb/Src/usbd_winUsb.c **** 
 183              		.loc 1 447 3 view .LVU39
 447:Middlewares/ST/STM32_USB_Device_Library/Class/winUsb/Src/usbd_winUsb.c **** 
 184              		.loc 1 447 22 is_stmt 0 view .LVU40
 185 0002 D0F8EC52 		ldr	r5, [r0, #748]
 186              	.LVL12:
 449:Middlewares/ST/STM32_USB_Device_Library/Class/winUsb/Src/usbd_winUsb.c ****   {
 187              		.loc 1 449 3 is_stmt 1 view .LVU41
 449:Middlewares/ST/STM32_USB_Device_Library/Class/winUsb/Src/usbd_winUsb.c ****   {
 188              		.loc 1 449 33 is_stmt 0 view .LVU42
 189 0006 D0F8F832 		ldr	r3, [r0, #760]
ARM GAS  C:\Users\ADMINI~1\AppData\Local\Temp\ccBhKHjg.s 			page 15


 449:Middlewares/ST/STM32_USB_Device_Library/Class/winUsb/Src/usbd_winUsb.c ****   {
 190              		.loc 1 449 28 view .LVU43
 191 000a B233     		adds	r3, r3, #178
 192 000c 00EB8303 		add	r3, r0, r3, lsl #2
 193 0010 5C68     		ldr	r4, [r3, #4]
 449:Middlewares/ST/STM32_USB_Device_Library/Class/winUsb/Src/usbd_winUsb.c ****   {
 194              		.loc 1 449 6 view .LVU44
 195 0012 84B3     		cbz	r4, .L11
 454:Middlewares/ST/STM32_USB_Device_Library/Class/winUsb/Src/usbd_winUsb.c **** 
 196              		.loc 1 454 3 is_stmt 1 view .LVU45
 197              	.LVL13:
 456:Middlewares/ST/STM32_USB_Device_Library/Class/winUsb/Src/usbd_winUsb.c ****       ((pdev->ep_in[epnum & 0xFU].total_length % hpcd->IN_ep[epnum & 0xFU].maxpacket) == 0U))
 198              		.loc 1 456 3 view .LVU46
 456:Middlewares/ST/STM32_USB_Device_Library/Class/winUsb/Src/usbd_winUsb.c ****       ((pdev->ep_in[epnum & 0xFU].total_length % hpcd->IN_ep[epnum & 0xFU].maxpacket) == 0U))
 199              		.loc 1 456 26 is_stmt 0 view .LVU47
 200 0014 01F00F03 		and	r3, r1, #15
 456:Middlewares/ST/STM32_USB_Device_Library/Class/winUsb/Src/usbd_winUsb.c ****       ((pdev->ep_in[epnum & 0xFU].total_length % hpcd->IN_ep[epnum & 0xFU].maxpacket) == 0U))
 201              		.loc 1 456 33 view .LVU48
 202 0018 03EB8302 		add	r2, r3, r3, lsl #2
 203 001c 00EB8202 		add	r2, r0, r2, lsl #2
 204 0020 9269     		ldr	r2, [r2, #24]
 456:Middlewares/ST/STM32_USB_Device_Library/Class/winUsb/Src/usbd_winUsb.c ****       ((pdev->ep_in[epnum & 0xFU].total_length % hpcd->IN_ep[epnum & 0xFU].maxpacket) == 0U))
 205              		.loc 1 456 6 view .LVU49
 206 0022 4AB1     		cbz	r2, .L10
 457:Middlewares/ST/STM32_USB_Device_Library/Class/winUsb/Src/usbd_winUsb.c ****   {
 207              		.loc 1 457 75 discriminator 1 view .LVU50
 208 0024 03EBC30C 		add	ip, r3, r3, lsl #3
 209 0028 05EB8C05 		add	r5, r5, ip, lsl #2
 210              	.LVL14:
 457:Middlewares/ST/STM32_USB_Device_Library/Class/winUsb/Src/usbd_winUsb.c ****   {
 211              		.loc 1 457 75 discriminator 1 view .LVU51
 212 002c AD6C     		ldr	r5, [r5, #72]
 457:Middlewares/ST/STM32_USB_Device_Library/Class/winUsb/Src/usbd_winUsb.c ****   {
 213              		.loc 1 457 48 discriminator 1 view .LVU52
 214 002e B2FBF5FC 		udiv	ip, r2, r5
 215 0032 05FB1C22 		mls	r2, r5, ip, r2
 456:Middlewares/ST/STM32_USB_Device_Library/Class/winUsb/Src/usbd_winUsb.c ****       ((pdev->ep_in[epnum & 0xFU].total_length % hpcd->IN_ep[epnum & 0xFU].maxpacket) == 0U))
 216              		.loc 1 456 53 discriminator 1 view .LVU53
 217 0036 92B1     		cbz	r2, .L14
 218              	.L10:
 467:Middlewares/ST/STM32_USB_Device_Library/Class/winUsb/Src/usbd_winUsb.c **** 
 219              		.loc 1 467 5 is_stmt 1 view .LVU54
 467:Middlewares/ST/STM32_USB_Device_Library/Class/winUsb/Src/usbd_winUsb.c **** 
 220              		.loc 1 467 19 is_stmt 0 view .LVU55
 221 0038 0023     		movs	r3, #0
 222 003a C4F81432 		str	r3, [r4, #532]
 223              	.LVL15:
 469:Middlewares/ST/STM32_USB_Device_Library/Class/winUsb/Src/usbd_winUsb.c ****     {
 224              		.loc 1 469 5 is_stmt 1 view .LVU56
 469:Middlewares/ST/STM32_USB_Device_Library/Class/winUsb/Src/usbd_winUsb.c ****     {
 225              		.loc 1 469 56 is_stmt 0 view .LVU57
 226 003e D0F8F832 		ldr	r3, [r0, #760]
 469:Middlewares/ST/STM32_USB_Device_Library/Class/winUsb/Src/usbd_winUsb.c ****     {
 227              		.loc 1 469 51 view .LVU58
 228 0042 B633     		adds	r3, r3, #182
 229 0044 00EB8300 		add	r0, r0, r3, lsl #2
 230              	.LVL16:
ARM GAS  C:\Users\ADMINI~1\AppData\Local\Temp\ccBhKHjg.s 			page 16


 469:Middlewares/ST/STM32_USB_Device_Library/Class/winUsb/Src/usbd_winUsb.c ****     {
 231              		.loc 1 469 51 view .LVU59
 232 0048 4368     		ldr	r3, [r0, #4]
 469:Middlewares/ST/STM32_USB_Device_Library/Class/winUsb/Src/usbd_winUsb.c ****     {
 233              		.loc 1 469 67 view .LVU60
 234 004a 1B69     		ldr	r3, [r3, #16]
 469:Middlewares/ST/STM32_USB_Device_Library/Class/winUsb/Src/usbd_winUsb.c ****     {
 235              		.loc 1 469 8 view .LVU61
 236 004c ABB1     		cbz	r3, .L12
 471:Middlewares/ST/STM32_USB_Device_Library/Class/winUsb/Src/usbd_winUsb.c ****     }
 237              		.loc 1 471 7 is_stmt 1 view .LVU62
 471:Middlewares/ST/STM32_USB_Device_Library/Class/winUsb/Src/usbd_winUsb.c ****     }
 238              		.loc 1 471 8 is_stmt 0 view .LVU63
 239 004e 0A46     		mov	r2, r1
 240 0050 04F50471 		add	r1, r4, #528
 241              	.LVL17:
 471:Middlewares/ST/STM32_USB_Device_Library/Class/winUsb/Src/usbd_winUsb.c ****     }
 242              		.loc 1 471 8 view .LVU64
 243 0054 D4F80802 		ldr	r0, [r4, #520]
 244 0058 9847     		blx	r3
 245              	.LVL18:
 475:Middlewares/ST/STM32_USB_Device_Library/Class/winUsb/Src/usbd_winUsb.c **** 
 246              		.loc 1 475 10 view .LVU65
 247 005a 0020     		movs	r0, #0
 248              	.LVL19:
 249              	.L9:
 477:Middlewares/ST/STM32_USB_Device_Library/Class/winUsb/Src/usbd_winUsb.c **** 
 250              		.loc 1 477 1 view .LVU66
 251 005c 38BD     		pop	{r3, r4, r5, pc}
 252              	.LVL20:
 253              	.L14:
 460:Middlewares/ST/STM32_USB_Device_Library/Class/winUsb/Src/usbd_winUsb.c **** 
 254              		.loc 1 460 5 is_stmt 1 view .LVU67
 460:Middlewares/ST/STM32_USB_Device_Library/Class/winUsb/Src/usbd_winUsb.c **** 
 255              		.loc 1 460 44 is_stmt 0 view .LVU68
 256 005e 03EB8303 		add	r3, r3, r3, lsl #2
 257 0062 00EB8303 		add	r3, r0, r3, lsl #2
 258 0066 0024     		movs	r4, #0
 259              	.LVL21:
 460:Middlewares/ST/STM32_USB_Device_Library/Class/winUsb/Src/usbd_winUsb.c **** 
 260              		.loc 1 460 44 view .LVU69
 261 0068 9C61     		str	r4, [r3, #24]
 262              	.LVL22:
 463:Middlewares/ST/STM32_USB_Device_Library/Class/winUsb/Src/usbd_winUsb.c ****   }
 263              		.loc 1 463 5 is_stmt 1 view .LVU70
 463:Middlewares/ST/STM32_USB_Device_Library/Class/winUsb/Src/usbd_winUsb.c ****   }
 264              		.loc 1 463 11 is_stmt 0 view .LVU71
 265 006a 2346     		mov	r3, r4
 266 006c 2246     		mov	r2, r4
 267 006e FFF7FEFF 		bl	USBD_LL_Transmit
 268              	.LVL23:
 475:Middlewares/ST/STM32_USB_Device_Library/Class/winUsb/Src/usbd_winUsb.c **** 
 269              		.loc 1 475 10 view .LVU72
 270 0072 2046     		mov	r0, r4
 463:Middlewares/ST/STM32_USB_Device_Library/Class/winUsb/Src/usbd_winUsb.c ****   }
 271              		.loc 1 463 5 view .LVU73
 272 0074 F2E7     		b	.L9
ARM GAS  C:\Users\ADMINI~1\AppData\Local\Temp\ccBhKHjg.s 			page 17


 273              	.LVL24:
 274              	.L11:
 451:Middlewares/ST/STM32_USB_Device_Library/Class/winUsb/Src/usbd_winUsb.c ****   }
 275              		.loc 1 451 12 view .LVU74
 276 0076 0320     		movs	r0, #3
 277              	.LVL25:
 451:Middlewares/ST/STM32_USB_Device_Library/Class/winUsb/Src/usbd_winUsb.c ****   }
 278              		.loc 1 451 12 view .LVU75
 279 0078 F0E7     		b	.L9
 280              	.LVL26:
 281              	.L12:
 475:Middlewares/ST/STM32_USB_Device_Library/Class/winUsb/Src/usbd_winUsb.c **** 
 282              		.loc 1 475 10 view .LVU76
 283 007a 0020     		movs	r0, #0
 284 007c EEE7     		b	.L9
 285              		.cfi_endproc
 286              	.LFE142:
 288              		.section	.text.USBD_WinUSBComm_GetMSExtendedCompatIDOSDescriptor,"ax",%progbits
 289              		.align	1
 290              		.syntax unified
 291              		.thumb
 292              		.thumb_func
 294              	USBD_WinUSBComm_GetMSExtendedCompatIDOSDescriptor:
 295              	.LVL27:
 296              	.LFB134:
 210:Middlewares/ST/STM32_USB_Device_Library/Class/winUsb/Src/usbd_winUsb.c ****   switch (req->wIndex)
 297              		.loc 1 210 1 is_stmt 1 view -0
 298              		.cfi_startproc
 299              		@ args = 0, pretend = 0, frame = 0
 300              		@ frame_needed = 0, uses_anonymous_args = 0
 210:Middlewares/ST/STM32_USB_Device_Library/Class/winUsb/Src/usbd_winUsb.c ****   switch (req->wIndex)
 301              		.loc 1 210 1 is_stmt 0 view .LVU78
 302 0000 08B5     		push	{r3, lr}
 303              	.LCFI2:
 304              		.cfi_def_cfa_offset 8
 305              		.cfi_offset 3, -8
 306              		.cfi_offset 14, -4
 211:Middlewares/ST/STM32_USB_Device_Library/Class/winUsb/Src/usbd_winUsb.c ****   {
 307              		.loc 1 211 3 is_stmt 1 view .LVU79
 211:Middlewares/ST/STM32_USB_Device_Library/Class/winUsb/Src/usbd_winUsb.c ****   {
 308              		.loc 1 211 14 is_stmt 0 view .LVU80
 309 0002 8B88     		ldrh	r3, [r1, #4]
 211:Middlewares/ST/STM32_USB_Device_Library/Class/winUsb/Src/usbd_winUsb.c ****   {
 310              		.loc 1 211 3 view .LVU81
 311 0004 042B     		cmp	r3, #4
 312 0006 03D0     		beq	.L19
 217:Middlewares/ST/STM32_USB_Device_Library/Class/winUsb/Src/usbd_winUsb.c ****    return USBD_FAIL;
 313              		.loc 1 217 4 is_stmt 1 view .LVU82
 314 0008 FFF7FEFF 		bl	USBD_CtlError
 315              	.LVL28:
 218:Middlewares/ST/STM32_USB_Device_Library/Class/winUsb/Src/usbd_winUsb.c ****   }
 316              		.loc 1 218 4 view .LVU83
 218:Middlewares/ST/STM32_USB_Device_Library/Class/winUsb/Src/usbd_winUsb.c ****   }
 317              		.loc 1 218 11 is_stmt 0 view .LVU84
 318 000c 0320     		movs	r0, #3
 319              	.L17:
 221:Middlewares/ST/STM32_USB_Device_Library/Class/winUsb/Src/usbd_winUsb.c **** static uint8_t  USBD_WinUSBComm_GetMSExtendedPropertiesOSDescriptor (USBD_HandleTypeDef *pdev, USBD
ARM GAS  C:\Users\ADMINI~1\AppData\Local\Temp\ccBhKHjg.s 			page 18


 320              		.loc 1 221 1 view .LVU85
 321 000e 08BD     		pop	{r3, pc}
 322              	.LVL29:
 323              	.L19:
 214:Middlewares/ST/STM32_USB_Device_Library/Class/winUsb/Src/usbd_winUsb.c ****     break;
 324              		.loc 1 214 5 is_stmt 1 view .LVU86
 325 0010 CA88     		ldrh	r2, [r1, #6]
 326 0012 0249     		ldr	r1, .L20
 327              	.LVL30:
 214:Middlewares/ST/STM32_USB_Device_Library/Class/winUsb/Src/usbd_winUsb.c ****     break;
 328              		.loc 1 214 5 is_stmt 0 view .LVU87
 329 0014 FFF7FEFF 		bl	USBD_CtlSendData
 330              	.LVL31:
 215:Middlewares/ST/STM32_USB_Device_Library/Class/winUsb/Src/usbd_winUsb.c ****   default:
 331              		.loc 1 215 5 is_stmt 1 view .LVU88
 220:Middlewares/ST/STM32_USB_Device_Library/Class/winUsb/Src/usbd_winUsb.c **** }
 332              		.loc 1 220 3 view .LVU89
 220:Middlewares/ST/STM32_USB_Device_Library/Class/winUsb/Src/usbd_winUsb.c **** }
 333              		.loc 1 220 10 is_stmt 0 view .LVU90
 334 0018 0020     		movs	r0, #0
 335 001a F8E7     		b	.L17
 336              	.L21:
 337              		.align	2
 338              	.L20:
 339 001c 00000000 		.word	.LANCHOR0
 340              		.cfi_endproc
 341              	.LFE134:
 343              		.section	.text.USBD_WinUSBComm_SetupVendorDevice,"ax",%progbits
 344              		.align	1
 345              		.syntax unified
 346              		.thumb
 347              		.thumb_func
 349              	USBD_WinUSBComm_SetupVendorDevice:
 350              	.LVL32:
 351              	.LFB136:
 245:Middlewares/ST/STM32_USB_Device_Library/Class/winUsb/Src/usbd_winUsb.c ****   USBD_CtlError(pdev , req);
 352              		.loc 1 245 1 is_stmt 1 view -0
 353              		.cfi_startproc
 354              		@ args = 0, pretend = 0, frame = 0
 355              		@ frame_needed = 0, uses_anonymous_args = 0
 245:Middlewares/ST/STM32_USB_Device_Library/Class/winUsb/Src/usbd_winUsb.c ****   USBD_CtlError(pdev , req);
 356              		.loc 1 245 1 is_stmt 0 view .LVU92
 357 0000 08B5     		push	{r3, lr}
 358              	.LCFI3:
 359              		.cfi_def_cfa_offset 8
 360              		.cfi_offset 3, -8
 361              		.cfi_offset 14, -4
 246:Middlewares/ST/STM32_USB_Device_Library/Class/winUsb/Src/usbd_winUsb.c ****   return USBD_FAIL;
 362              		.loc 1 246 3 is_stmt 1 view .LVU93
 363 0002 FFF7FEFF 		bl	USBD_CtlError
 364              	.LVL33:
 247:Middlewares/ST/STM32_USB_Device_Library/Class/winUsb/Src/usbd_winUsb.c **** }
 365              		.loc 1 247 3 view .LVU94
 248:Middlewares/ST/STM32_USB_Device_Library/Class/winUsb/Src/usbd_winUsb.c **** static uint8_t  USBD_WinUSBComm_SetupVendorInterface(USBD_HandleTypeDef *pdev, USBD_SetupReqTypedef
 366              		.loc 1 248 1 is_stmt 0 view .LVU95
 367 0006 0320     		movs	r0, #3
 368 0008 08BD     		pop	{r3, pc}
ARM GAS  C:\Users\ADMINI~1\AppData\Local\Temp\ccBhKHjg.s 			page 19


 369              		.cfi_endproc
 370              	.LFE136:
 372              		.section	.text.USBD_WinUSBComm_GetMSExtendedPropertiesOSDescriptor,"ax",%progbits
 373              		.align	1
 374              		.syntax unified
 375              		.thumb
 376              		.thumb_func
 378              	USBD_WinUSBComm_GetMSExtendedPropertiesOSDescriptor:
 379              	.LVL34:
 380              	.LFB135:
 223:Middlewares/ST/STM32_USB_Device_Library/Class/winUsb/Src/usbd_winUsb.c ****   uint8_t byInterfaceIndex = (uint8_t)req->wValue;
 381              		.loc 1 223 1 is_stmt 1 view -0
 382              		.cfi_startproc
 383              		@ args = 0, pretend = 0, frame = 0
 384              		@ frame_needed = 0, uses_anonymous_args = 0
 223:Middlewares/ST/STM32_USB_Device_Library/Class/winUsb/Src/usbd_winUsb.c ****   uint8_t byInterfaceIndex = (uint8_t)req->wValue;
 385              		.loc 1 223 1 is_stmt 0 view .LVU97
 386 0000 10B5     		push	{r4, lr}
 387              	.LCFI4:
 388              		.cfi_def_cfa_offset 8
 389              		.cfi_offset 4, -8
 390              		.cfi_offset 14, -4
 224:Middlewares/ST/STM32_USB_Device_Library/Class/winUsb/Src/usbd_winUsb.c ****   if ( req->wIndex != 0x05 )
 391              		.loc 1 224 3 is_stmt 1 view .LVU98
 224:Middlewares/ST/STM32_USB_Device_Library/Class/winUsb/Src/usbd_winUsb.c ****   if ( req->wIndex != 0x05 )
 392              		.loc 1 224 11 is_stmt 0 view .LVU99
 393 0002 8C78     		ldrb	r4, [r1, #2]	@ zero_extendqisi2
 394              	.LVL35:
 225:Middlewares/ST/STM32_USB_Device_Library/Class/winUsb/Src/usbd_winUsb.c ****   {
 395              		.loc 1 225 3 is_stmt 1 view .LVU100
 225:Middlewares/ST/STM32_USB_Device_Library/Class/winUsb/Src/usbd_winUsb.c ****   {
 396              		.loc 1 225 11 is_stmt 0 view .LVU101
 397 0004 8B88     		ldrh	r3, [r1, #4]
 225:Middlewares/ST/STM32_USB_Device_Library/Class/winUsb/Src/usbd_winUsb.c ****   {
 398              		.loc 1 225 6 view .LVU102
 399 0006 052B     		cmp	r3, #5
 400 0008 06D1     		bne	.L29
 230:Middlewares/ST/STM32_USB_Device_Library/Class/winUsb/Src/usbd_winUsb.c ****   {
 401              		.loc 1 230 3 is_stmt 1 view .LVU103
 402 000a 4CB9     		cbnz	r4, .L27
 236:Middlewares/ST/STM32_USB_Device_Library/Class/winUsb/Src/usbd_winUsb.c ****     break;
 403              		.loc 1 236 5 view .LVU104
 404 000c CA88     		ldrh	r2, [r1, #6]
 405 000e 0649     		ldr	r1, .L30
 406              	.LVL36:
 236:Middlewares/ST/STM32_USB_Device_Library/Class/winUsb/Src/usbd_winUsb.c ****     break;
 407              		.loc 1 236 5 is_stmt 0 view .LVU105
 408 0010 FFF7FEFF 		bl	USBD_CtlSendData
 409              	.LVL37:
 237:Middlewares/ST/STM32_USB_Device_Library/Class/winUsb/Src/usbd_winUsb.c ****   default:
 410              		.loc 1 237 5 is_stmt 1 view .LVU106
 242:Middlewares/ST/STM32_USB_Device_Library/Class/winUsb/Src/usbd_winUsb.c **** }
 411              		.loc 1 242 3 view .LVU107
 412              	.L26:
 243:Middlewares/ST/STM32_USB_Device_Library/Class/winUsb/Src/usbd_winUsb.c **** static uint8_t  USBD_WinUSBComm_SetupVendorDevice(USBD_HandleTypeDef *pdev, USBD_SetupReqTypedef *r
 413              		.loc 1 243 1 is_stmt 0 view .LVU108
 414 0014 2046     		mov	r0, r4
ARM GAS  C:\Users\ADMINI~1\AppData\Local\Temp\ccBhKHjg.s 			page 20


 415 0016 10BD     		pop	{r4, pc}
 416              	.LVL38:
 417              	.L29:
 227:Middlewares/ST/STM32_USB_Device_Library/Class/winUsb/Src/usbd_winUsb.c ****     return USBD_FAIL;
 418              		.loc 1 227 5 is_stmt 1 view .LVU109
 419 0018 FFF7FEFF 		bl	USBD_CtlError
 420              	.LVL39:
 228:Middlewares/ST/STM32_USB_Device_Library/Class/winUsb/Src/usbd_winUsb.c ****   }
 421              		.loc 1 228 5 view .LVU110
 228:Middlewares/ST/STM32_USB_Device_Library/Class/winUsb/Src/usbd_winUsb.c ****   }
 422              		.loc 1 228 12 is_stmt 0 view .LVU111
 423 001c 0324     		movs	r4, #3
 424              	.LVL40:
 228:Middlewares/ST/STM32_USB_Device_Library/Class/winUsb/Src/usbd_winUsb.c ****   }
 425              		.loc 1 228 12 view .LVU112
 426 001e F9E7     		b	.L26
 427              	.LVL41:
 428              	.L27:
 239:Middlewares/ST/STM32_USB_Device_Library/Class/winUsb/Src/usbd_winUsb.c ****     return USBD_FAIL;
 429              		.loc 1 239 5 is_stmt 1 view .LVU113
 430 0020 FFF7FEFF 		bl	USBD_CtlError
 431              	.LVL42:
 240:Middlewares/ST/STM32_USB_Device_Library/Class/winUsb/Src/usbd_winUsb.c ****   }
 432              		.loc 1 240 5 view .LVU114
 240:Middlewares/ST/STM32_USB_Device_Library/Class/winUsb/Src/usbd_winUsb.c ****   }
 433              		.loc 1 240 12 is_stmt 0 view .LVU115
 434 0024 0324     		movs	r4, #3
 435              	.LVL43:
 240:Middlewares/ST/STM32_USB_Device_Library/Class/winUsb/Src/usbd_winUsb.c ****   }
 436              		.loc 1 240 12 view .LVU116
 437 0026 F5E7     		b	.L26
 438              	.L31:
 439              		.align	2
 440              	.L30:
 441 0028 00000000 		.word	.LANCHOR1
 442              		.cfi_endproc
 443              	.LFE135:
 445              		.section	.text.USBD_WinUSBComm_SetupVendorInterface,"ax",%progbits
 446              		.align	1
 447              		.syntax unified
 448              		.thumb
 449              		.thumb_func
 451              	USBD_WinUSBComm_SetupVendorInterface:
 452              	.LVL44:
 453              	.LFB137:
 250:Middlewares/ST/STM32_USB_Device_Library/Class/winUsb/Src/usbd_winUsb.c ****   USBD_CtlError(pdev , req);
 454              		.loc 1 250 1 is_stmt 1 view -0
 455              		.cfi_startproc
 456              		@ args = 0, pretend = 0, frame = 0
 457              		@ frame_needed = 0, uses_anonymous_args = 0
 250:Middlewares/ST/STM32_USB_Device_Library/Class/winUsb/Src/usbd_winUsb.c ****   USBD_CtlError(pdev , req);
 458              		.loc 1 250 1 is_stmt 0 view .LVU118
 459 0000 08B5     		push	{r3, lr}
 460              	.LCFI5:
 461              		.cfi_def_cfa_offset 8
 462              		.cfi_offset 3, -8
 463              		.cfi_offset 14, -4
ARM GAS  C:\Users\ADMINI~1\AppData\Local\Temp\ccBhKHjg.s 			page 21


 251:Middlewares/ST/STM32_USB_Device_Library/Class/winUsb/Src/usbd_winUsb.c ****   // TODO: check if this is important
 464              		.loc 1 251 3 is_stmt 1 view .LVU119
 465 0002 FFF7FEFF 		bl	USBD_CtlError
 466              	.LVL45:
 253:Middlewares/ST/STM32_USB_Device_Library/Class/winUsb/Src/usbd_winUsb.c **** }
 467              		.loc 1 253 3 view .LVU120
 254:Middlewares/ST/STM32_USB_Device_Library/Class/winUsb/Src/usbd_winUsb.c **** uint8_t  USBD_WinUSBComm_SetupVendor(USBD_HandleTypeDef *pdev, USBD_SetupReqTypedef *req)
 468              		.loc 1 254 1 is_stmt 0 view .LVU121
 469 0006 0320     		movs	r0, #3
 470 0008 08BD     		pop	{r3, pc}
 471              		.cfi_endproc
 472              	.LFE137:
 474              		.section	.text.USBD_WinUsb_DeInit,"ax",%progbits
 475              		.align	1
 476              		.syntax unified
 477              		.thumb
 478              		.thumb_func
 480              	USBD_WinUsb_DeInit:
 481              	.LVL46:
 482              	.LFB140:
 323:Middlewares/ST/STM32_USB_Device_Library/Class/winUsb/Src/usbd_winUsb.c ****   UNUSED(cfgidx);
 483              		.loc 1 323 1 is_stmt 1 view -0
 484              		.cfi_startproc
 485              		@ args = 0, pretend = 0, frame = 0
 486              		@ frame_needed = 0, uses_anonymous_args = 0
 323:Middlewares/ST/STM32_USB_Device_Library/Class/winUsb/Src/usbd_winUsb.c ****   UNUSED(cfgidx);
 487              		.loc 1 323 1 is_stmt 0 view .LVU123
 488 0000 38B5     		push	{r3, r4, r5, lr}
 489              	.LCFI6:
 490              		.cfi_def_cfa_offset 16
 491              		.cfi_offset 3, -16
 492              		.cfi_offset 4, -12
 493              		.cfi_offset 5, -8
 494              		.cfi_offset 14, -4
 495 0002 0446     		mov	r4, r0
 324:Middlewares/ST/STM32_USB_Device_Library/Class/winUsb/Src/usbd_winUsb.c **** 	/* Close EP IN */
 496              		.loc 1 324 3 is_stmt 1 view .LVU124
 326:Middlewares/ST/STM32_USB_Device_Library/Class/winUsb/Src/usbd_winUsb.c ****   pdev->ep_out[WinUsbInEpAdd & 0xFU].is_used = 0U;  
 497              		.loc 1 326 3 view .LVU125
 498 0004 8321     		movs	r1, #131
 499              	.LVL47:
 326:Middlewares/ST/STM32_USB_Device_Library/Class/winUsb/Src/usbd_winUsb.c ****   pdev->ep_out[WinUsbInEpAdd & 0xFU].is_used = 0U;  
 500              		.loc 1 326 3 is_stmt 0 view .LVU126
 501 0006 FFF7FEFF 		bl	USBD_LL_CloseEP
 502              	.LVL48:
 327:Middlewares/ST/STM32_USB_Device_Library/Class/winUsb/Src/usbd_winUsb.c ****   /* Close EP OUT */
 503              		.loc 1 327 3 is_stmt 1 view .LVU127
 327:Middlewares/ST/STM32_USB_Device_Library/Class/winUsb/Src/usbd_winUsb.c ****   /* Close EP OUT */
 504              		.loc 1 327 46 is_stmt 0 view .LVU128
 505 000a 0025     		movs	r5, #0
 506 000c A4F8A051 		strh	r5, [r4, #416]	@ movhi
 329:Middlewares/ST/STM32_USB_Device_Library/Class/winUsb/Src/usbd_winUsb.c ****   pdev->ep_out[WinUsbOutEpAdd & 0xFU].is_used = 0U;
 507              		.loc 1 329 3 is_stmt 1 view .LVU129
 508 0010 0321     		movs	r1, #3
 509 0012 2046     		mov	r0, r4
 510 0014 FFF7FEFF 		bl	USBD_LL_CloseEP
 511              	.LVL49:
ARM GAS  C:\Users\ADMINI~1\AppData\Local\Temp\ccBhKHjg.s 			page 22


 330:Middlewares/ST/STM32_USB_Device_Library/Class/winUsb/Src/usbd_winUsb.c **** 
 512              		.loc 1 330 3 view .LVU130
 330:Middlewares/ST/STM32_USB_Device_Library/Class/winUsb/Src/usbd_winUsb.c **** 
 513              		.loc 1 330 47 is_stmt 0 view .LVU131
 514 0018 A4F8A051 		strh	r5, [r4, #416]	@ movhi
 334:Middlewares/ST/STM32_USB_Device_Library/Class/winUsb/Src/usbd_winUsb.c ****   {
 515              		.loc 1 334 3 is_stmt 1 view .LVU132
 334:Middlewares/ST/STM32_USB_Device_Library/Class/winUsb/Src/usbd_winUsb.c ****   {
 516              		.loc 1 334 33 is_stmt 0 view .LVU133
 517 001c D4F8F832 		ldr	r3, [r4, #760]
 334:Middlewares/ST/STM32_USB_Device_Library/Class/winUsb/Src/usbd_winUsb.c ****   {
 518              		.loc 1 334 28 view .LVU134
 519 0020 03F1B202 		add	r2, r3, #178
 520 0024 04EB8202 		add	r2, r4, r2, lsl #2
 521 0028 5268     		ldr	r2, [r2, #4]
 334:Middlewares/ST/STM32_USB_Device_Library/Class/winUsb/Src/usbd_winUsb.c ****   {
 522              		.loc 1 334 6 view .LVU135
 523 002a AAB1     		cbz	r2, .L35
 336:Middlewares/ST/STM32_USB_Device_Library/Class/winUsb/Src/usbd_winUsb.c ****     (void)USBD_free(pdev->pClassDataCmsit[pdev->classId]);
 524              		.loc 1 336 5 is_stmt 1 view .LVU136
 336:Middlewares/ST/STM32_USB_Device_Library/Class/winUsb/Src/usbd_winUsb.c ****     (void)USBD_free(pdev->pClassDataCmsit[pdev->classId]);
 525              		.loc 1 336 47 is_stmt 0 view .LVU137
 526 002c B633     		adds	r3, r3, #182
 527 002e 04EB8303 		add	r3, r4, r3, lsl #2
 528 0032 5B68     		ldr	r3, [r3, #4]
 336:Middlewares/ST/STM32_USB_Device_Library/Class/winUsb/Src/usbd_winUsb.c ****     (void)USBD_free(pdev->pClassDataCmsit[pdev->classId]);
 529              		.loc 1 336 63 view .LVU138
 530 0034 5B68     		ldr	r3, [r3, #4]
 336:Middlewares/ST/STM32_USB_Device_Library/Class/winUsb/Src/usbd_winUsb.c ****     (void)USBD_free(pdev->pClassDataCmsit[pdev->classId]);
 531              		.loc 1 336 6 view .LVU139
 532 0036 9847     		blx	r3
 533              	.LVL50:
 337:Middlewares/ST/STM32_USB_Device_Library/Class/winUsb/Src/usbd_winUsb.c ****     pdev->pClassDataCmsit[pdev->classId] = NULL;
 534              		.loc 1 337 5 is_stmt 1 view .LVU140
 337:Middlewares/ST/STM32_USB_Device_Library/Class/winUsb/Src/usbd_winUsb.c ****     pdev->pClassDataCmsit[pdev->classId] = NULL;
 535              		.loc 1 337 47 is_stmt 0 view .LVU141
 536 0038 D4F8F832 		ldr	r3, [r4, #760]
 337:Middlewares/ST/STM32_USB_Device_Library/Class/winUsb/Src/usbd_winUsb.c ****     pdev->pClassDataCmsit[pdev->classId] = NULL;
 537              		.loc 1 337 5 view .LVU142
 538 003c B233     		adds	r3, r3, #178
 539 003e 04EB8303 		add	r3, r4, r3, lsl #2
 540 0042 5868     		ldr	r0, [r3, #4]
 541 0044 FFF7FEFF 		bl	free
 542              	.LVL51:
 338:Middlewares/ST/STM32_USB_Device_Library/Class/winUsb/Src/usbd_winUsb.c ****     pdev->pClassData = NULL;
 543              		.loc 1 338 5 is_stmt 1 view .LVU143
 338:Middlewares/ST/STM32_USB_Device_Library/Class/winUsb/Src/usbd_winUsb.c ****     pdev->pClassData = NULL;
 544              		.loc 1 338 31 is_stmt 0 view .LVU144
 545 0048 D4F8F832 		ldr	r3, [r4, #760]
 338:Middlewares/ST/STM32_USB_Device_Library/Class/winUsb/Src/usbd_winUsb.c ****     pdev->pClassData = NULL;
 546              		.loc 1 338 42 view .LVU145
 547 004c B233     		adds	r3, r3, #178
 548 004e 04EB8303 		add	r3, r4, r3, lsl #2
 549 0052 5D60     		str	r5, [r3, #4]
 339:Middlewares/ST/STM32_USB_Device_Library/Class/winUsb/Src/usbd_winUsb.c ****   }
 550              		.loc 1 339 5 is_stmt 1 view .LVU146
 339:Middlewares/ST/STM32_USB_Device_Library/Class/winUsb/Src/usbd_winUsb.c ****   }
ARM GAS  C:\Users\ADMINI~1\AppData\Local\Temp\ccBhKHjg.s 			page 23


 551              		.loc 1 339 22 is_stmt 0 view .LVU147
 552 0054 C4F8C852 		str	r5, [r4, #712]
 553              	.L35:
 341:Middlewares/ST/STM32_USB_Device_Library/Class/winUsb/Src/usbd_winUsb.c **** 
 554              		.loc 1 341 2 is_stmt 1 view .LVU148
 343:Middlewares/ST/STM32_USB_Device_Library/Class/winUsb/Src/usbd_winUsb.c **** static uint8_t USBD_WinUsb_Setup(USBD_HandleTypeDef *pdev, USBD_SetupReqTypedef *req)
 555              		.loc 1 343 1 is_stmt 0 view .LVU149
 556 0058 0020     		movs	r0, #0
 557 005a 38BD     		pop	{r3, r4, r5, pc}
 343:Middlewares/ST/STM32_USB_Device_Library/Class/winUsb/Src/usbd_winUsb.c **** static uint8_t USBD_WinUsb_Setup(USBD_HandleTypeDef *pdev, USBD_SetupReqTypedef *req)
 558              		.loc 1 343 1 view .LVU150
 559              		.cfi_endproc
 560              	.LFE140:
 562              		.section	.text.USBD_WinUsb_Init,"ax",%progbits
 563              		.align	1
 564              		.syntax unified
 565              		.thumb
 566              		.thumb_func
 568              	USBD_WinUsb_Init:
 569              	.LVL52:
 570              	.LFB139:
 276:Middlewares/ST/STM32_USB_Device_Library/Class/winUsb/Src/usbd_winUsb.c ****   UNUSED(cfgidx);
 571              		.loc 1 276 1 is_stmt 1 view -0
 572              		.cfi_startproc
 573              		@ args = 0, pretend = 0, frame = 0
 574              		@ frame_needed = 0, uses_anonymous_args = 0
 276:Middlewares/ST/STM32_USB_Device_Library/Class/winUsb/Src/usbd_winUsb.c ****   UNUSED(cfgidx);
 575              		.loc 1 276 1 is_stmt 0 view .LVU152
 576 0000 70B5     		push	{r4, r5, r6, lr}
 577              	.LCFI7:
 578              		.cfi_def_cfa_offset 16
 579              		.cfi_offset 4, -16
 580              		.cfi_offset 5, -12
 581              		.cfi_offset 6, -8
 582              		.cfi_offset 14, -4
 583 0002 0446     		mov	r4, r0
 277:Middlewares/ST/STM32_USB_Device_Library/Class/winUsb/Src/usbd_winUsb.c ****   USBD_WinUsb_HandleTypeDef *hcdc;
 584              		.loc 1 277 3 is_stmt 1 view .LVU153
 278:Middlewares/ST/STM32_USB_Device_Library/Class/winUsb/Src/usbd_winUsb.c **** 
 585              		.loc 1 278 3 view .LVU154
 280:Middlewares/ST/STM32_USB_Device_Library/Class/winUsb/Src/usbd_winUsb.c **** 
 586              		.loc 1 280 3 view .LVU155
 280:Middlewares/ST/STM32_USB_Device_Library/Class/winUsb/Src/usbd_winUsb.c **** 
 587              		.loc 1 280 39 is_stmt 0 view .LVU156
 588 0004 4FF40770 		mov	r0, #540
 589              	.LVL53:
 280:Middlewares/ST/STM32_USB_Device_Library/Class/winUsb/Src/usbd_winUsb.c **** 
 590              		.loc 1 280 39 view .LVU157
 591 0008 FFF7FEFF 		bl	malloc
 592              	.LVL54:
 282:Middlewares/ST/STM32_USB_Device_Library/Class/winUsb/Src/usbd_winUsb.c ****   {
 593              		.loc 1 282 3 is_stmt 1 view .LVU158
 282:Middlewares/ST/STM32_USB_Device_Library/Class/winUsb/Src/usbd_winUsb.c ****   {
 594              		.loc 1 282 6 is_stmt 0 view .LVU159
 595 000c A8B3     		cbz	r0, .L42
 596 000e 0546     		mov	r5, r0
 288:Middlewares/ST/STM32_USB_Device_Library/Class/winUsb/Src/usbd_winUsb.c **** 
ARM GAS  C:\Users\ADMINI~1\AppData\Local\Temp\ccBhKHjg.s 			page 24


 597              		.loc 1 288 3 is_stmt 1 view .LVU160
 288:Middlewares/ST/STM32_USB_Device_Library/Class/winUsb/Src/usbd_winUsb.c **** 
 598              		.loc 1 288 9 is_stmt 0 view .LVU161
 599 0010 4FF40772 		mov	r2, #540
 600 0014 0021     		movs	r1, #0
 601 0016 FFF7FEFF 		bl	memset
 602              	.LVL55:
 290:Middlewares/ST/STM32_USB_Device_Library/Class/winUsb/Src/usbd_winUsb.c ****   pdev->pClassData = pdev->pClassDataCmsit[pdev->classId];
 603              		.loc 1 290 3 is_stmt 1 view .LVU162
 290:Middlewares/ST/STM32_USB_Device_Library/Class/winUsb/Src/usbd_winUsb.c ****   pdev->pClassData = pdev->pClassDataCmsit[pdev->classId];
 604              		.loc 1 290 29 is_stmt 0 view .LVU163
 605 001a D4F8F832 		ldr	r3, [r4, #760]
 290:Middlewares/ST/STM32_USB_Device_Library/Class/winUsb/Src/usbd_winUsb.c ****   pdev->pClassData = pdev->pClassDataCmsit[pdev->classId];
 606              		.loc 1 290 40 view .LVU164
 607 001e B233     		adds	r3, r3, #178
 608 0020 04EB8303 		add	r3, r4, r3, lsl #2
 609 0024 5D60     		str	r5, [r3, #4]
 291:Middlewares/ST/STM32_USB_Device_Library/Class/winUsb/Src/usbd_winUsb.c **** 
 610              		.loc 1 291 3 is_stmt 1 view .LVU165
 291:Middlewares/ST/STM32_USB_Device_Library/Class/winUsb/Src/usbd_winUsb.c **** 
 611              		.loc 1 291 20 is_stmt 0 view .LVU166
 612 0026 C4F8C852 		str	r5, [r4, #712]
 293:Middlewares/ST/STM32_USB_Device_Library/Class/winUsb/Src/usbd_winUsb.c ****   USBD_LL_OpenEP(pdev,WIN_USB_EPOUT_ADDR,USBD_EP_TYPE_BULK,WIN_DATA_FS_OUT_PACKET_SIZE);
 613              		.loc 1 293 3 is_stmt 1 view .LVU167
 614 002a 4023     		movs	r3, #64
 615 002c 0222     		movs	r2, #2
 616 002e 8321     		movs	r1, #131
 617 0030 2046     		mov	r0, r4
 618 0032 FFF7FEFF 		bl	USBD_LL_OpenEP
 619              	.LVL56:
 294:Middlewares/ST/STM32_USB_Device_Library/Class/winUsb/Src/usbd_winUsb.c ****   
 620              		.loc 1 294 3 view .LVU168
 621 0036 4023     		movs	r3, #64
 622 0038 0222     		movs	r2, #2
 623 003a 0321     		movs	r1, #3
 624 003c 2046     		mov	r0, r4
 625 003e FFF7FEFF 		bl	USBD_LL_OpenEP
 626              	.LVL57:
 296:Middlewares/ST/STM32_USB_Device_Library/Class/winUsb/Src/usbd_winUsb.c ****   pdev->ep_in[WinUsbOutEpAdd & 0xFU].is_used = 1U;
 627              		.loc 1 296 3 view .LVU169
 296:Middlewares/ST/STM32_USB_Device_Library/Class/winUsb/Src/usbd_winUsb.c ****   pdev->ep_in[WinUsbOutEpAdd & 0xFU].is_used = 1U;
 628              		.loc 1 296 45 is_stmt 0 view .LVU170
 629 0042 0123     		movs	r3, #1
 630 0044 A4F86030 		strh	r3, [r4, #96]	@ movhi
 297:Middlewares/ST/STM32_USB_Device_Library/Class/winUsb/Src/usbd_winUsb.c **** 
 631              		.loc 1 297 3 is_stmt 1 view .LVU171
 300:Middlewares/ST/STM32_USB_Device_Library/Class/winUsb/Src/usbd_winUsb.c **** 
 632              		.loc 1 300 3 view .LVU172
 300:Middlewares/ST/STM32_USB_Device_Library/Class/winUsb/Src/usbd_winUsb.c **** 
 633              		.loc 1 300 18 is_stmt 0 view .LVU173
 634 0048 0026     		movs	r6, #0
 635 004a C5F80462 		str	r6, [r5, #516]
 303:Middlewares/ST/STM32_USB_Device_Library/Class/winUsb/Src/usbd_winUsb.c **** 
 636              		.loc 1 303 3 is_stmt 1 view .LVU174
 303:Middlewares/ST/STM32_USB_Device_Library/Class/winUsb/Src/usbd_winUsb.c **** 
 637              		.loc 1 303 50 is_stmt 0 view .LVU175
 638 004e D4F8F832 		ldr	r3, [r4, #760]
ARM GAS  C:\Users\ADMINI~1\AppData\Local\Temp\ccBhKHjg.s 			page 25


 303:Middlewares/ST/STM32_USB_Device_Library/Class/winUsb/Src/usbd_winUsb.c **** 
 639              		.loc 1 303 45 view .LVU176
 640 0052 B633     		adds	r3, r3, #182
 641 0054 04EB8303 		add	r3, r4, r3, lsl #2
 642 0058 5B68     		ldr	r3, [r3, #4]
 303:Middlewares/ST/STM32_USB_Device_Library/Class/winUsb/Src/usbd_winUsb.c **** 
 643              		.loc 1 303 61 view .LVU177
 644 005a 1B68     		ldr	r3, [r3]
 303:Middlewares/ST/STM32_USB_Device_Library/Class/winUsb/Src/usbd_winUsb.c **** 
 645              		.loc 1 303 4 view .LVU178
 646 005c 9847     		blx	r3
 647              	.LVL58:
 306:Middlewares/ST/STM32_USB_Device_Library/Class/winUsb/Src/usbd_winUsb.c ****   hcdc->RxState = 0U;
 648              		.loc 1 306 3 is_stmt 1 view .LVU179
 306:Middlewares/ST/STM32_USB_Device_Library/Class/winUsb/Src/usbd_winUsb.c ****   hcdc->RxState = 0U;
 649              		.loc 1 306 17 is_stmt 0 view .LVU180
 650 005e C5F81462 		str	r6, [r5, #532]
 307:Middlewares/ST/STM32_USB_Device_Library/Class/winUsb/Src/usbd_winUsb.c **** 
 651              		.loc 1 307 3 is_stmt 1 view .LVU181
 307:Middlewares/ST/STM32_USB_Device_Library/Class/winUsb/Src/usbd_winUsb.c **** 
 652              		.loc 1 307 17 is_stmt 0 view .LVU182
 653 0062 C5F81862 		str	r6, [r5, #536]
 309:Middlewares/ST/STM32_USB_Device_Library/Class/winUsb/Src/usbd_winUsb.c ****   {
 654              		.loc 1 309 3 is_stmt 1 view .LVU183
 309:Middlewares/ST/STM32_USB_Device_Library/Class/winUsb/Src/usbd_winUsb.c ****   {
 655              		.loc 1 309 11 is_stmt 0 view .LVU184
 656 0066 D5F80422 		ldr	r2, [r5, #516]
 309:Middlewares/ST/STM32_USB_Device_Library/Class/winUsb/Src/usbd_winUsb.c ****   {
 657              		.loc 1 309 6 view .LVU185
 658 006a 7AB1     		cbz	r2, .L40
 314:Middlewares/ST/STM32_USB_Device_Library/Class/winUsb/Src/usbd_winUsb.c ****                           WIN_USB_EPOUT_ADDR,
 659              		.loc 1 314 3 is_stmt 1 view .LVU186
 660 006c 4023     		movs	r3, #64
 661 006e 0321     		movs	r1, #3
 662 0070 2046     		mov	r0, r4
 663 0072 FFF7FEFF 		bl	USBD_LL_PrepareReceive
 664              	.LVL59:
 318:Middlewares/ST/STM32_USB_Device_Library/Class/winUsb/Src/usbd_winUsb.c **** 
 665              		.loc 1 318 3 view .LVU187
 318:Middlewares/ST/STM32_USB_Device_Library/Class/winUsb/Src/usbd_winUsb.c **** 
 666              		.loc 1 318 10 is_stmt 0 view .LVU188
 667 0076 3046     		mov	r0, r6
 668              	.LVL60:
 669              	.L39:
 320:Middlewares/ST/STM32_USB_Device_Library/Class/winUsb/Src/usbd_winUsb.c **** 
 670              		.loc 1 320 1 view .LVU189
 671 0078 70BD     		pop	{r4, r5, r6, pc}
 672              	.LVL61:
 673              	.L42:
 284:Middlewares/ST/STM32_USB_Device_Library/Class/winUsb/Src/usbd_winUsb.c ****     return (uint8_t)USBD_EMEM;
 674              		.loc 1 284 5 is_stmt 1 view .LVU190
 284:Middlewares/ST/STM32_USB_Device_Library/Class/winUsb/Src/usbd_winUsb.c ****     return (uint8_t)USBD_EMEM;
 675              		.loc 1 284 31 is_stmt 0 view .LVU191
 676 007a D4F8F832 		ldr	r3, [r4, #760]
 284:Middlewares/ST/STM32_USB_Device_Library/Class/winUsb/Src/usbd_winUsb.c ****     return (uint8_t)USBD_EMEM;
 677              		.loc 1 284 42 view .LVU192
 678 007e B233     		adds	r3, r3, #178
ARM GAS  C:\Users\ADMINI~1\AppData\Local\Temp\ccBhKHjg.s 			page 26


 679 0080 04EB8304 		add	r4, r4, r3, lsl #2
 680              	.LVL62:
 284:Middlewares/ST/STM32_USB_Device_Library/Class/winUsb/Src/usbd_winUsb.c ****     return (uint8_t)USBD_EMEM;
 681              		.loc 1 284 42 view .LVU193
 682 0084 0023     		movs	r3, #0
 683 0086 6360     		str	r3, [r4, #4]
 285:Middlewares/ST/STM32_USB_Device_Library/Class/winUsb/Src/usbd_winUsb.c ****   }
 684              		.loc 1 285 5 is_stmt 1 view .LVU194
 285:Middlewares/ST/STM32_USB_Device_Library/Class/winUsb/Src/usbd_winUsb.c ****   }
 685              		.loc 1 285 12 is_stmt 0 view .LVU195
 686 0088 0220     		movs	r0, #2
 687              	.LVL63:
 285:Middlewares/ST/STM32_USB_Device_Library/Class/winUsb/Src/usbd_winUsb.c ****   }
 688              		.loc 1 285 12 view .LVU196
 689 008a F5E7     		b	.L39
 690              	.LVL64:
 691              	.L40:
 311:Middlewares/ST/STM32_USB_Device_Library/Class/winUsb/Src/usbd_winUsb.c ****   }
 692              		.loc 1 311 12 view .LVU197
 693 008c 0220     		movs	r0, #2
 694 008e F3E7     		b	.L39
 695              		.cfi_endproc
 696              	.LFE139:
 698              		.section	.text.USBD_WinUSBComm_SetupVendor,"ax",%progbits
 699              		.align	1
 700              		.global	USBD_WinUSBComm_SetupVendor
 701              		.syntax unified
 702              		.thumb
 703              		.thumb_func
 705              	USBD_WinUSBComm_SetupVendor:
 706              	.LVL65:
 707              	.LFB138:
 256:Middlewares/ST/STM32_USB_Device_Library/Class/winUsb/Src/usbd_winUsb.c ****   switch ( req->bmRequest & USB_REQ_RECIPIENT_MASK )
 708              		.loc 1 256 1 is_stmt 1 view -0
 709              		.cfi_startproc
 710              		@ args = 0, pretend = 0, frame = 0
 711              		@ frame_needed = 0, uses_anonymous_args = 0
 256:Middlewares/ST/STM32_USB_Device_Library/Class/winUsb/Src/usbd_winUsb.c ****   switch ( req->bmRequest & USB_REQ_RECIPIENT_MASK )
 712              		.loc 1 256 1 is_stmt 0 view .LVU199
 713 0000 08B5     		push	{r3, lr}
 714              	.LCFI8:
 715              		.cfi_def_cfa_offset 8
 716              		.cfi_offset 3, -8
 717              		.cfi_offset 14, -4
 257:Middlewares/ST/STM32_USB_Device_Library/Class/winUsb/Src/usbd_winUsb.c ****   {
 718              		.loc 1 257 3 is_stmt 1 view .LVU200
 257:Middlewares/ST/STM32_USB_Device_Library/Class/winUsb/Src/usbd_winUsb.c ****   {
 719              		.loc 1 257 15 is_stmt 0 view .LVU201
 720 0002 0B78     		ldrb	r3, [r1]	@ zero_extendqisi2
 257:Middlewares/ST/STM32_USB_Device_Library/Class/winUsb/Src/usbd_winUsb.c ****   {
 721              		.loc 1 257 3 view .LVU202
 722 0004 13F00303 		ands	r3, r3, #3
 723 0008 05D0     		beq	.L44
 724 000a 012B     		cmp	r3, #1
 725 000c 0CD0     		beq	.L45
 266:Middlewares/ST/STM32_USB_Device_Library/Class/winUsb/Src/usbd_winUsb.c ****   }
 726              		.loc 1 266 5 is_stmt 1 view .LVU203
ARM GAS  C:\Users\ADMINI~1\AppData\Local\Temp\ccBhKHjg.s 			page 27


 268:Middlewares/ST/STM32_USB_Device_Library/Class/winUsb/Src/usbd_winUsb.c ****   return USBD_FAIL;
 727              		.loc 1 268 3 view .LVU204
 728 000e FFF7FEFF 		bl	USBD_CtlError
 729              	.LVL66:
 269:Middlewares/ST/STM32_USB_Device_Library/Class/winUsb/Src/usbd_winUsb.c **** }
 730              		.loc 1 269 3 view .LVU205
 269:Middlewares/ST/STM32_USB_Device_Library/Class/winUsb/Src/usbd_winUsb.c **** }
 731              		.loc 1 269 10 is_stmt 0 view .LVU206
 732 0012 0320     		movs	r0, #3
 733              	.L48:
 270:Middlewares/ST/STM32_USB_Device_Library/Class/winUsb/Src/usbd_winUsb.c **** static uint8_t WinUsbInEpAdd = WIN_USB_EPIN_ADDR;
 734              		.loc 1 270 1 view .LVU207
 735 0014 08BD     		pop	{r3, pc}
 736              	.LVL67:
 737              	.L44:
 260:Middlewares/ST/STM32_USB_Device_Library/Class/winUsb/Src/usbd_winUsb.c ****   case USB_REQ_RECIPIENT_INTERFACE:
 738              		.loc 1 260 5 is_stmt 1 view .LVU208
 260:Middlewares/ST/STM32_USB_Device_Library/Class/winUsb/Src/usbd_winUsb.c ****   case USB_REQ_RECIPIENT_INTERFACE:
 739              		.loc 1 260 34 is_stmt 0 view .LVU209
 740 0016 4B78     		ldrb	r3, [r1, #1]	@ zero_extendqisi2
 260:Middlewares/ST/STM32_USB_Device_Library/Class/winUsb/Src/usbd_winUsb.c ****   case USB_REQ_RECIPIENT_INTERFACE:
 741              		.loc 1 260 110 view .LVU210
 742 0018 502B     		cmp	r3, #80
 743 001a 02D0     		beq	.L52
 260:Middlewares/ST/STM32_USB_Device_Library/Class/winUsb/Src/usbd_winUsb.c ****   case USB_REQ_RECIPIENT_INTERFACE:
 744              		.loc 1 260 112 discriminator 2 view .LVU211
 745 001c FFF7FEFF 		bl	USBD_WinUSBComm_SetupVendorDevice
 746              	.LVL68:
 260:Middlewares/ST/STM32_USB_Device_Library/Class/winUsb/Src/usbd_winUsb.c ****   case USB_REQ_RECIPIENT_INTERFACE:
 747              		.loc 1 260 112 discriminator 2 view .LVU212
 748 0020 F8E7     		b	.L48
 749              	.LVL69:
 750              	.L52:
 260:Middlewares/ST/STM32_USB_Device_Library/Class/winUsb/Src/usbd_winUsb.c ****   case USB_REQ_RECIPIENT_INTERFACE:
 751              		.loc 1 260 49 discriminator 1 view .LVU213
 752 0022 FFF7FEFF 		bl	USBD_WinUSBComm_GetMSExtendedCompatIDOSDescriptor
 753              	.LVL70:
 260:Middlewares/ST/STM32_USB_Device_Library/Class/winUsb/Src/usbd_winUsb.c ****   case USB_REQ_RECIPIENT_INTERFACE:
 754              		.loc 1 260 49 discriminator 1 view .LVU214
 755 0026 F5E7     		b	.L48
 756              	.LVL71:
 757              	.L45:
 262:Middlewares/ST/STM32_USB_Device_Library/Class/winUsb/Src/usbd_winUsb.c ****   case USB_REQ_RECIPIENT_ENDPOINT:
 758              		.loc 1 262 5 is_stmt 1 view .LVU215
 262:Middlewares/ST/STM32_USB_Device_Library/Class/winUsb/Src/usbd_winUsb.c ****   case USB_REQ_RECIPIENT_ENDPOINT:
 759              		.loc 1 262 34 is_stmt 0 view .LVU216
 760 0028 4B78     		ldrb	r3, [r1, #1]	@ zero_extendqisi2
 262:Middlewares/ST/STM32_USB_Device_Library/Class/winUsb/Src/usbd_winUsb.c ****   case USB_REQ_RECIPIENT_ENDPOINT:
 761              		.loc 1 262 112 view .LVU217
 762 002a 502B     		cmp	r3, #80
 763 002c 02D0     		beq	.L53
 262:Middlewares/ST/STM32_USB_Device_Library/Class/winUsb/Src/usbd_winUsb.c ****   case USB_REQ_RECIPIENT_ENDPOINT:
 764              		.loc 1 262 114 discriminator 2 view .LVU218
 765 002e FFF7FEFF 		bl	USBD_WinUSBComm_SetupVendorInterface
 766              	.LVL72:
 262:Middlewares/ST/STM32_USB_Device_Library/Class/winUsb/Src/usbd_winUsb.c ****   case USB_REQ_RECIPIENT_ENDPOINT:
 767              		.loc 1 262 114 discriminator 2 view .LVU219
ARM GAS  C:\Users\ADMINI~1\AppData\Local\Temp\ccBhKHjg.s 			page 28


 768 0032 EFE7     		b	.L48
 769              	.LVL73:
 770              	.L53:
 262:Middlewares/ST/STM32_USB_Device_Library/Class/winUsb/Src/usbd_winUsb.c ****   case USB_REQ_RECIPIENT_ENDPOINT:
 771              		.loc 1 262 49 discriminator 1 view .LVU220
 772 0034 FFF7FEFF 		bl	USBD_WinUSBComm_GetMSExtendedPropertiesOSDescriptor
 773              	.LVL74:
 262:Middlewares/ST/STM32_USB_Device_Library/Class/winUsb/Src/usbd_winUsb.c ****   case USB_REQ_RECIPIENT_ENDPOINT:
 774              		.loc 1 262 49 discriminator 1 view .LVU221
 775 0038 ECE7     		b	.L48
 776              		.cfi_endproc
 777              	.LFE138:
 779              		.section	.rodata.USBD_WinUsb_Setup.str1.4,"aMS",%progbits,1
 780              		.align	2
 781              	.LC0:
 782 0000 626D5265 		.ascii	"bmRequest=%x\015\012\000"
 782      71756573 
 782      743D2578 
 782      0D0A00
 783 000f 00       		.align	2
 784              	.LC1:
 785 0010 636F6E74 		.ascii	"control......1\015\000"
 785      726F6C2E 
 785      2E2E2E2E 
 785      2E310D00 
 786              		.align	2
 787              	.LC2:
 788 0020 636F6E74 		.ascii	"control......2\015\000"
 788      726F6C2E 
 788      2E2E2E2E 
 788      2E320D00 
 789              		.section	.text.USBD_WinUsb_Setup,"ax",%progbits
 790              		.align	1
 791              		.syntax unified
 792              		.thumb
 793              		.thumb_func
 795              	USBD_WinUsb_Setup:
 796              	.LVL75:
 797              	.LFB141:
 345:Middlewares/ST/STM32_USB_Device_Library/Class/winUsb/Src/usbd_winUsb.c **** 	USBD_WinUsb_HandleTypeDef *hcdc = (USBD_WinUsb_HandleTypeDef *)pdev->pClassDataCmsit[pdev->classId
 798              		.loc 1 345 1 is_stmt 1 view -0
 799              		.cfi_startproc
 800              		@ args = 0, pretend = 0, frame = 8
 801              		@ frame_needed = 0, uses_anonymous_args = 0
 345:Middlewares/ST/STM32_USB_Device_Library/Class/winUsb/Src/usbd_winUsb.c **** 	USBD_WinUsb_HandleTypeDef *hcdc = (USBD_WinUsb_HandleTypeDef *)pdev->pClassDataCmsit[pdev->classId
 802              		.loc 1 345 1 is_stmt 0 view .LVU223
 803 0000 F0B5     		push	{r4, r5, r6, r7, lr}
 804              	.LCFI9:
 805              		.cfi_def_cfa_offset 20
 806              		.cfi_offset 4, -20
 807              		.cfi_offset 5, -16
 808              		.cfi_offset 6, -12
 809              		.cfi_offset 7, -8
 810              		.cfi_offset 14, -4
 811 0002 83B0     		sub	sp, sp, #12
 812              	.LCFI10:
 813              		.cfi_def_cfa_offset 32
ARM GAS  C:\Users\ADMINI~1\AppData\Local\Temp\ccBhKHjg.s 			page 29


 346:Middlewares/ST/STM32_USB_Device_Library/Class/winUsb/Src/usbd_winUsb.c ****   uint16_t len;
 814              		.loc 1 346 2 is_stmt 1 view .LVU224
 346:Middlewares/ST/STM32_USB_Device_Library/Class/winUsb/Src/usbd_winUsb.c ****   uint16_t len;
 815              		.loc 1 346 91 is_stmt 0 view .LVU225
 816 0004 D0F8F832 		ldr	r3, [r0, #760]
 346:Middlewares/ST/STM32_USB_Device_Library/Class/winUsb/Src/usbd_winUsb.c ****   uint16_t len;
 817              		.loc 1 346 29 view .LVU226
 818 0008 B233     		adds	r3, r3, #178
 819 000a 00EB8303 		add	r3, r0, r3, lsl #2
 820 000e 5F68     		ldr	r7, [r3, #4]
 821              	.LVL76:
 347:Middlewares/ST/STM32_USB_Device_Library/Class/winUsb/Src/usbd_winUsb.c ****   uint8_t ifalt = 0U;
 822              		.loc 1 347 3 is_stmt 1 view .LVU227
 348:Middlewares/ST/STM32_USB_Device_Library/Class/winUsb/Src/usbd_winUsb.c ****   uint16_t status_info = 0U;
 823              		.loc 1 348 3 view .LVU228
 348:Middlewares/ST/STM32_USB_Device_Library/Class/winUsb/Src/usbd_winUsb.c ****   uint16_t status_info = 0U;
 824              		.loc 1 348 11 is_stmt 0 view .LVU229
 825 0010 0023     		movs	r3, #0
 826 0012 8DF80730 		strb	r3, [sp, #7]
 349:Middlewares/ST/STM32_USB_Device_Library/Class/winUsb/Src/usbd_winUsb.c ****   USBD_StatusTypeDef ret = USBD_OK;
 827              		.loc 1 349 3 is_stmt 1 view .LVU230
 349:Middlewares/ST/STM32_USB_Device_Library/Class/winUsb/Src/usbd_winUsb.c ****   USBD_StatusTypeDef ret = USBD_OK;
 828              		.loc 1 349 12 is_stmt 0 view .LVU231
 829 0016 ADF80430 		strh	r3, [sp, #4]	@ movhi
 350:Middlewares/ST/STM32_USB_Device_Library/Class/winUsb/Src/usbd_winUsb.c **** 
 830              		.loc 1 350 3 is_stmt 1 view .LVU232
 831              	.LVL77:
 352:Middlewares/ST/STM32_USB_Device_Library/Class/winUsb/Src/usbd_winUsb.c ****   {
 832              		.loc 1 352 3 view .LVU233
 352:Middlewares/ST/STM32_USB_Device_Library/Class/winUsb/Src/usbd_winUsb.c ****   {
 833              		.loc 1 352 6 is_stmt 0 view .LVU234
 834 001a 002F     		cmp	r7, #0
 835 001c 7BD0     		beq	.L70
 836 001e 0446     		mov	r4, r0
 837 0020 0D46     		mov	r5, r1
 356:Middlewares/ST/STM32_USB_Device_Library/Class/winUsb/Src/usbd_winUsb.c ****   switch (req->bmRequest & USB_REQ_TYPE_MASK)
 838              		.loc 1 356 2 is_stmt 1 view .LVU235
 839 0022 0978     		ldrb	r1, [r1]	@ zero_extendqisi2
 840              	.LVL78:
 356:Middlewares/ST/STM32_USB_Device_Library/Class/winUsb/Src/usbd_winUsb.c ****   switch (req->bmRequest & USB_REQ_TYPE_MASK)
 841              		.loc 1 356 2 is_stmt 0 view .LVU236
 842 0024 3D48     		ldr	r0, .L78
 843              	.LVL79:
 356:Middlewares/ST/STM32_USB_Device_Library/Class/winUsb/Src/usbd_winUsb.c ****   switch (req->bmRequest & USB_REQ_TYPE_MASK)
 844              		.loc 1 356 2 view .LVU237
 845 0026 FFF7FEFF 		bl	printf
 846              	.LVL80:
 357:Middlewares/ST/STM32_USB_Device_Library/Class/winUsb/Src/usbd_winUsb.c ****   {
 847              		.loc 1 357 3 is_stmt 1 view .LVU238
 357:Middlewares/ST/STM32_USB_Device_Library/Class/winUsb/Src/usbd_winUsb.c ****   {
 848              		.loc 1 357 14 is_stmt 0 view .LVU239
 849 002a 2B78     		ldrb	r3, [r5]	@ zero_extendqisi2
 850 002c 03F06006 		and	r6, r3, #96
 357:Middlewares/ST/STM32_USB_Device_Library/Class/winUsb/Src/usbd_winUsb.c ****   {
 851              		.loc 1 357 3 view .LVU240
 852 0030 202E     		cmp	r6, #32
 853 0032 08D0     		beq	.L56
ARM GAS  C:\Users\ADMINI~1\AppData\Local\Temp\ccBhKHjg.s 			page 30


 854 0034 402E     		cmp	r6, #64
 855 0036 66D0     		beq	.L57
 856 0038 2EB3     		cbz	r6, .L74
 436:Middlewares/ST/STM32_USB_Device_Library/Class/winUsb/Src/usbd_winUsb.c ****       ret = USBD_FAIL;
 857              		.loc 1 436 7 is_stmt 1 view .LVU241
 858 003a 2946     		mov	r1, r5
 859 003c 2046     		mov	r0, r4
 860 003e FFF7FEFF 		bl	USBD_CtlError
 861              	.LVL81:
 437:Middlewares/ST/STM32_USB_Device_Library/Class/winUsb/Src/usbd_winUsb.c ****       break;
 862              		.loc 1 437 7 view .LVU242
 438:Middlewares/ST/STM32_USB_Device_Library/Class/winUsb/Src/usbd_winUsb.c ****   }
 863              		.loc 1 438 7 view .LVU243
 437:Middlewares/ST/STM32_USB_Device_Library/Class/winUsb/Src/usbd_winUsb.c ****       break;
 864              		.loc 1 437 11 is_stmt 0 view .LVU244
 865 0042 0326     		movs	r6, #3
 438:Middlewares/ST/STM32_USB_Device_Library/Class/winUsb/Src/usbd_winUsb.c ****   }
 866              		.loc 1 438 7 view .LVU245
 867 0044 64E0     		b	.L55
 868              	.LVL82:
 869              	.L56:
 360:Middlewares/ST/STM32_USB_Device_Library/Class/winUsb/Src/usbd_winUsb.c ****       {
 870              		.loc 1 360 7 is_stmt 1 view .LVU246
 360:Middlewares/ST/STM32_USB_Device_Library/Class/winUsb/Src/usbd_winUsb.c ****       {
 871              		.loc 1 360 14 is_stmt 0 view .LVU247
 872 0046 EA88     		ldrh	r2, [r5, #6]
 360:Middlewares/ST/STM32_USB_Device_Library/Class/winUsb/Src/usbd_winUsb.c ****       {
 873              		.loc 1 360 10 view .LVU248
 874 0048 C2B1     		cbz	r2, .L60
 362:Middlewares/ST/STM32_USB_Device_Library/Class/winUsb/Src/usbd_winUsb.c ****         {
 875              		.loc 1 362 9 is_stmt 1 view .LVU249
 362:Middlewares/ST/STM32_USB_Device_Library/Class/winUsb/Src/usbd_winUsb.c ****         {
 876              		.loc 1 362 12 is_stmt 0 view .LVU250
 877 004a 13F0800F 		tst	r3, #128
 878 004e 0ED1     		bne	.L75
 374:Middlewares/ST/STM32_USB_Device_Library/Class/winUsb/Src/usbd_winUsb.c ****           hcdc->CmdLength = (uint8_t)MIN(req->wLength, USB_MAX_EP0_SIZE);
 879              		.loc 1 374 11 is_stmt 1 view .LVU251
 374:Middlewares/ST/STM32_USB_Device_Library/Class/winUsb/Src/usbd_winUsb.c ****           hcdc->CmdLength = (uint8_t)MIN(req->wLength, USB_MAX_EP0_SIZE);
 880              		.loc 1 374 32 is_stmt 0 view .LVU252
 881 0050 6B78     		ldrb	r3, [r5, #1]	@ zero_extendqisi2
 374:Middlewares/ST/STM32_USB_Device_Library/Class/winUsb/Src/usbd_winUsb.c ****           hcdc->CmdLength = (uint8_t)MIN(req->wLength, USB_MAX_EP0_SIZE);
 882              		.loc 1 374 27 view .LVU253
 883 0052 87F80032 		strb	r3, [r7, #512]
 375:Middlewares/ST/STM32_USB_Device_Library/Class/winUsb/Src/usbd_winUsb.c **** 
 884              		.loc 1 375 11 is_stmt 1 view .LVU254
 375:Middlewares/ST/STM32_USB_Device_Library/Class/winUsb/Src/usbd_winUsb.c **** 
 885              		.loc 1 375 38 is_stmt 0 view .LVU255
 886 0056 EA88     		ldrh	r2, [r5, #6]
 375:Middlewares/ST/STM32_USB_Device_Library/Class/winUsb/Src/usbd_winUsb.c **** 
 887              		.loc 1 375 29 view .LVU256
 888 0058 3F2A     		cmp	r2, #63
 889 005a 0DD8     		bhi	.L71
 375:Middlewares/ST/STM32_USB_Device_Library/Class/winUsb/Src/usbd_winUsb.c **** 
 890              		.loc 1 375 29 discriminator 1 view .LVU257
 891 005c D2B2     		uxtb	r2, r2
 892              	.L62:
 375:Middlewares/ST/STM32_USB_Device_Library/Class/winUsb/Src/usbd_winUsb.c **** 
ARM GAS  C:\Users\ADMINI~1\AppData\Local\Temp\ccBhKHjg.s 			page 31


 893              		.loc 1 375 27 discriminator 4 view .LVU258
 894 005e 87F80122 		strb	r2, [r7, #513]
 377:Middlewares/ST/STM32_USB_Device_Library/Class/winUsb/Src/usbd_winUsb.c ****         }
 895              		.loc 1 377 11 is_stmt 1 discriminator 4 view .LVU259
 377:Middlewares/ST/STM32_USB_Device_Library/Class/winUsb/Src/usbd_winUsb.c ****         }
 896              		.loc 1 377 17 is_stmt 0 discriminator 4 view .LVU260
 897 0062 3946     		mov	r1, r7
 898 0064 2046     		mov	r0, r4
 899 0066 FFF7FEFF 		bl	USBD_CtlPrepareRx
 900              	.LVL83:
 350:Middlewares/ST/STM32_USB_Device_Library/Class/winUsb/Src/usbd_winUsb.c **** 
 901              		.loc 1 350 22 discriminator 4 view .LVU261
 902 006a 0026     		movs	r6, #0
 903 006c 50E0     		b	.L55
 904              	.L75:
 364:Middlewares/ST/STM32_USB_Device_Library/Class/winUsb/Src/usbd_winUsb.c ****           /* ((USBD_CDC_ItfTypeDef *)pdev->pUserData[pdev->classId])->Control(req->bRequest,
 905              		.loc 1 364 11 is_stmt 1 view .LVU262
 906 006e 2C48     		ldr	r0, .L78+4
 907 0070 FFF7FEFF 		bl	puts
 908              	.LVL84:
 350:Middlewares/ST/STM32_USB_Device_Library/Class/winUsb/Src/usbd_winUsb.c **** 
 909              		.loc 1 350 22 is_stmt 0 view .LVU263
 910 0074 0026     		movs	r6, #0
 911 0076 4BE0     		b	.L55
 912              	.L71:
 375:Middlewares/ST/STM32_USB_Device_Library/Class/winUsb/Src/usbd_winUsb.c **** 
 913              		.loc 1 375 29 view .LVU264
 914 0078 4022     		movs	r2, #64
 915 007a F0E7     		b	.L62
 916              	.L60:
 382:Middlewares/ST/STM32_USB_Device_Library/Class/winUsb/Src/usbd_winUsb.c ****         // ((USBD_CDC_ItfTypeDef *)pdev->pUserData[pdev->classId])->Control(req->bRequest,(uint8_t 
 917              		.loc 1 382 9 is_stmt 1 view .LVU265
 918 007c 2948     		ldr	r0, .L78+8
 919 007e FFF7FEFF 		bl	puts
 920              	.LVL85:
 350:Middlewares/ST/STM32_USB_Device_Library/Class/winUsb/Src/usbd_winUsb.c **** 
 921              		.loc 1 350 22 is_stmt 0 view .LVU266
 922 0082 0026     		movs	r6, #0
 923 0084 44E0     		b	.L55
 924              	.L74:
 388:Middlewares/ST/STM32_USB_Device_Library/Class/winUsb/Src/usbd_winUsb.c ****       {
 925              		.loc 1 388 7 is_stmt 1 view .LVU267
 388:Middlewares/ST/STM32_USB_Device_Library/Class/winUsb/Src/usbd_winUsb.c ****       {
 926              		.loc 1 388 18 is_stmt 0 view .LVU268
 927 0086 6F78     		ldrb	r7, [r5, #1]	@ zero_extendqisi2
 928              	.LVL86:
 388:Middlewares/ST/STM32_USB_Device_Library/Class/winUsb/Src/usbd_winUsb.c ****       {
 929              		.loc 1 388 18 view .LVU269
 930 0088 0B2F     		cmp	r7, #11
 931 008a 36D8     		bhi	.L63
 932 008c DFE807F0 		tbb	[pc, r7]
 933              	.L65:
 934 0090 06       		.byte	(.L67-.L65)/2
 935 0091 40       		.byte	(.L55-.L65)/2
 936 0092 35       		.byte	(.L63-.L65)/2
 937 0093 35       		.byte	(.L63-.L65)/2
 938 0094 35       		.byte	(.L63-.L65)/2
ARM GAS  C:\Users\ADMINI~1\AppData\Local\Temp\ccBhKHjg.s 			page 32


 939 0095 35       		.byte	(.L63-.L65)/2
 940 0096 35       		.byte	(.L63-.L65)/2
 941 0097 35       		.byte	(.L63-.L65)/2
 942 0098 35       		.byte	(.L63-.L65)/2
 943 0099 35       		.byte	(.L63-.L65)/2
 944 009a 18       		.byte	(.L66-.L65)/2
 945 009b 2A       		.byte	(.L64-.L65)/2
 946              		.p2align 1
 947              	.L67:
 391:Middlewares/ST/STM32_USB_Device_Library/Class/winUsb/Src/usbd_winUsb.c ****           {
 948              		.loc 1 391 11 is_stmt 1 view .LVU270
 391:Middlewares/ST/STM32_USB_Device_Library/Class/winUsb/Src/usbd_winUsb.c ****           {
 949              		.loc 1 391 19 is_stmt 0 view .LVU271
 950 009c 94F89C32 		ldrb	r3, [r4, #668]	@ zero_extendqisi2
 951 00a0 DBB2     		uxtb	r3, r3
 391:Middlewares/ST/STM32_USB_Device_Library/Class/winUsb/Src/usbd_winUsb.c ****           {
 952              		.loc 1 391 14 view .LVU272
 953 00a2 032B     		cmp	r3, #3
 954 00a4 05D0     		beq	.L76
 397:Middlewares/ST/STM32_USB_Device_Library/Class/winUsb/Src/usbd_winUsb.c ****             ret = USBD_FAIL;
 955              		.loc 1 397 13 is_stmt 1 view .LVU273
 956 00a6 2946     		mov	r1, r5
 957 00a8 2046     		mov	r0, r4
 958 00aa FFF7FEFF 		bl	USBD_CtlError
 959              	.LVL87:
 398:Middlewares/ST/STM32_USB_Device_Library/Class/winUsb/Src/usbd_winUsb.c ****           }
 960              		.loc 1 398 13 view .LVU274
 398:Middlewares/ST/STM32_USB_Device_Library/Class/winUsb/Src/usbd_winUsb.c ****           }
 961              		.loc 1 398 17 is_stmt 0 view .LVU275
 962 00ae 0326     		movs	r6, #3
 963 00b0 2EE0     		b	.L55
 964              	.LVL88:
 965              	.L76:
 393:Middlewares/ST/STM32_USB_Device_Library/Class/winUsb/Src/usbd_winUsb.c ****           }
 966              		.loc 1 393 13 is_stmt 1 view .LVU276
 393:Middlewares/ST/STM32_USB_Device_Library/Class/winUsb/Src/usbd_winUsb.c ****           }
 967              		.loc 1 393 19 is_stmt 0 view .LVU277
 968 00b2 0222     		movs	r2, #2
 969 00b4 01A9     		add	r1, sp, #4
 970 00b6 2046     		mov	r0, r4
 971 00b8 FFF7FEFF 		bl	USBD_CtlSendData
 972              	.LVL89:
 350:Middlewares/ST/STM32_USB_Device_Library/Class/winUsb/Src/usbd_winUsb.c **** 
 973              		.loc 1 350 22 view .LVU278
 974 00bc 3E46     		mov	r6, r7
 975 00be 27E0     		b	.L55
 976              	.L66:
 403:Middlewares/ST/STM32_USB_Device_Library/Class/winUsb/Src/usbd_winUsb.c ****           {
 977              		.loc 1 403 11 is_stmt 1 view .LVU279
 403:Middlewares/ST/STM32_USB_Device_Library/Class/winUsb/Src/usbd_winUsb.c ****           {
 978              		.loc 1 403 19 is_stmt 0 view .LVU280
 979 00c0 94F89C32 		ldrb	r3, [r4, #668]	@ zero_extendqisi2
 980 00c4 DBB2     		uxtb	r3, r3
 403:Middlewares/ST/STM32_USB_Device_Library/Class/winUsb/Src/usbd_winUsb.c ****           {
 981              		.loc 1 403 14 view .LVU281
 982 00c6 032B     		cmp	r3, #3
 983 00c8 05D0     		beq	.L77
ARM GAS  C:\Users\ADMINI~1\AppData\Local\Temp\ccBhKHjg.s 			page 33


 409:Middlewares/ST/STM32_USB_Device_Library/Class/winUsb/Src/usbd_winUsb.c ****             ret = USBD_FAIL;
 984              		.loc 1 409 13 is_stmt 1 view .LVU282
 985 00ca 2946     		mov	r1, r5
 986 00cc 2046     		mov	r0, r4
 987 00ce FFF7FEFF 		bl	USBD_CtlError
 988              	.LVL90:
 410:Middlewares/ST/STM32_USB_Device_Library/Class/winUsb/Src/usbd_winUsb.c ****           }
 989              		.loc 1 410 13 view .LVU283
 410:Middlewares/ST/STM32_USB_Device_Library/Class/winUsb/Src/usbd_winUsb.c ****           }
 990              		.loc 1 410 17 is_stmt 0 view .LVU284
 991 00d2 0326     		movs	r6, #3
 992 00d4 1CE0     		b	.L55
 993              	.LVL91:
 994              	.L77:
 405:Middlewares/ST/STM32_USB_Device_Library/Class/winUsb/Src/usbd_winUsb.c ****           }
 995              		.loc 1 405 13 is_stmt 1 view .LVU285
 405:Middlewares/ST/STM32_USB_Device_Library/Class/winUsb/Src/usbd_winUsb.c ****           }
 996              		.loc 1 405 19 is_stmt 0 view .LVU286
 997 00d6 0122     		movs	r2, #1
 998 00d8 0DF10701 		add	r1, sp, #7
 999 00dc 2046     		mov	r0, r4
 1000 00de FFF7FEFF 		bl	USBD_CtlSendData
 1001              	.LVL92:
 1002 00e2 15E0     		b	.L55
 1003              	.L64:
 415:Middlewares/ST/STM32_USB_Device_Library/Class/winUsb/Src/usbd_winUsb.c ****           {
 1004              		.loc 1 415 11 is_stmt 1 view .LVU287
 415:Middlewares/ST/STM32_USB_Device_Library/Class/winUsb/Src/usbd_winUsb.c ****           {
 1005              		.loc 1 415 19 is_stmt 0 view .LVU288
 1006 00e4 94F89C32 		ldrb	r3, [r4, #668]	@ zero_extendqisi2
 1007 00e8 DBB2     		uxtb	r3, r3
 415:Middlewares/ST/STM32_USB_Device_Library/Class/winUsb/Src/usbd_winUsb.c ****           {
 1008              		.loc 1 415 14 view .LVU289
 1009 00ea 032B     		cmp	r3, #3
 1010 00ec 10D0     		beq	.L55
 417:Middlewares/ST/STM32_USB_Device_Library/Class/winUsb/Src/usbd_winUsb.c ****             ret = USBD_FAIL;
 1011              		.loc 1 417 13 is_stmt 1 view .LVU290
 1012 00ee 2946     		mov	r1, r5
 1013 00f0 2046     		mov	r0, r4
 1014 00f2 FFF7FEFF 		bl	USBD_CtlError
 1015              	.LVL93:
 418:Middlewares/ST/STM32_USB_Device_Library/Class/winUsb/Src/usbd_winUsb.c ****           }
 1016              		.loc 1 418 13 view .LVU291
 418:Middlewares/ST/STM32_USB_Device_Library/Class/winUsb/Src/usbd_winUsb.c ****           }
 1017              		.loc 1 418 17 is_stmt 0 view .LVU292
 1018 00f6 0326     		movs	r6, #3
 1019 00f8 0AE0     		b	.L55
 1020              	.LVL94:
 1021              	.L63:
 426:Middlewares/ST/STM32_USB_Device_Library/Class/winUsb/Src/usbd_winUsb.c ****           ret = USBD_FAIL;
 1022              		.loc 1 426 11 is_stmt 1 view .LVU293
 1023 00fa 2946     		mov	r1, r5
 1024 00fc 2046     		mov	r0, r4
 1025 00fe FFF7FEFF 		bl	USBD_CtlError
 1026              	.LVL95:
 427:Middlewares/ST/STM32_USB_Device_Library/Class/winUsb/Src/usbd_winUsb.c ****           break;
 1027              		.loc 1 427 11 view .LVU294
ARM GAS  C:\Users\ADMINI~1\AppData\Local\Temp\ccBhKHjg.s 			page 34


 428:Middlewares/ST/STM32_USB_Device_Library/Class/winUsb/Src/usbd_winUsb.c ****       }     
 1028              		.loc 1 428 11 view .LVU295
 427:Middlewares/ST/STM32_USB_Device_Library/Class/winUsb/Src/usbd_winUsb.c ****           break;
 1029              		.loc 1 427 15 is_stmt 0 view .LVU296
 1030 0102 0326     		movs	r6, #3
 428:Middlewares/ST/STM32_USB_Device_Library/Class/winUsb/Src/usbd_winUsb.c ****       }     
 1031              		.loc 1 428 11 view .LVU297
 1032 0104 04E0     		b	.L55
 1033              	.LVL96:
 1034              	.L57:
 432:Middlewares/ST/STM32_USB_Device_Library/Class/winUsb/Src/usbd_winUsb.c ****       }break;
 1035              		.loc 1 432 9 is_stmt 1 view .LVU298
 1036 0106 2946     		mov	r1, r5
 1037 0108 2046     		mov	r0, r4
 1038 010a FFF7FEFF 		bl	USBD_WinUSBComm_SetupVendor
 1039              	.LVL97:
 433:Middlewares/ST/STM32_USB_Device_Library/Class/winUsb/Src/usbd_winUsb.c **** 
 1040              		.loc 1 433 8 view .LVU299
 350:Middlewares/ST/STM32_USB_Device_Library/Class/winUsb/Src/usbd_winUsb.c **** 
 1041              		.loc 1 350 22 is_stmt 0 view .LVU300
 1042 010e 0026     		movs	r6, #0
 1043              	.LVL98:
 1044              	.L55:
 443:Middlewares/ST/STM32_USB_Device_Library/Class/winUsb/Src/usbd_winUsb.c **** static uint8_t USBD_WinUsb_DataIn(USBD_HandleTypeDef *pdev, uint8_t epnum)
 1045              		.loc 1 443 1 view .LVU301
 1046 0110 3046     		mov	r0, r6
 1047 0112 03B0     		add	sp, sp, #12
 1048              	.LCFI11:
 1049              		.cfi_remember_state
 1050              		.cfi_def_cfa_offset 20
 1051              		@ sp needed
 1052 0114 F0BD     		pop	{r4, r5, r6, r7, pc}
 1053              	.LVL99:
 1054              	.L70:
 1055              	.LCFI12:
 1056              		.cfi_restore_state
 354:Middlewares/ST/STM32_USB_Device_Library/Class/winUsb/Src/usbd_winUsb.c ****   }
 1057              		.loc 1 354 12 view .LVU302
 1058 0116 0326     		movs	r6, #3
 1059 0118 FAE7     		b	.L55
 1060              	.L79:
 1061 011a 00BF     		.align	2
 1062              	.L78:
 1063 011c 00000000 		.word	.LC0
 1064 0120 10000000 		.word	.LC1
 1065 0124 20000000 		.word	.LC2
 1066              		.cfi_endproc
 1067              	.LFE141:
 1069              		.section	.text.USBD_WinUsb_SetTxBuffer,"ax",%progbits
 1070              		.align	1
 1071              		.global	USBD_WinUsb_SetTxBuffer
 1072              		.syntax unified
 1073              		.thumb
 1074              		.thumb_func
 1076              	USBD_WinUsb_SetTxBuffer:
 1077              	.LVL100:
 1078              	.LFB145:
ARM GAS  C:\Users\ADMINI~1\AppData\Local\Temp\ccBhKHjg.s 			page 35


 511:Middlewares/ST/STM32_USB_Device_Library/Class/winUsb/Src/usbd_winUsb.c ****   USBD_WinUsb_HandleTypeDef *hcdc = (USBD_WinUsb_HandleTypeDef *)pdev->pClassDataCmsit[pdev->classI
 1079              		.loc 1 511 1 is_stmt 1 view -0
 1080              		.cfi_startproc
 1081              		@ args = 0, pretend = 0, frame = 0
 1082              		@ frame_needed = 0, uses_anonymous_args = 0
 1083              		@ link register save eliminated.
 512:Middlewares/ST/STM32_USB_Device_Library/Class/winUsb/Src/usbd_winUsb.c **** 
 1084              		.loc 1 512 3 view .LVU304
 512:Middlewares/ST/STM32_USB_Device_Library/Class/winUsb/Src/usbd_winUsb.c **** 
 1085              		.loc 1 512 92 is_stmt 0 view .LVU305
 1086 0000 D0F8F832 		ldr	r3, [r0, #760]
 512:Middlewares/ST/STM32_USB_Device_Library/Class/winUsb/Src/usbd_winUsb.c **** 
 1087              		.loc 1 512 30 view .LVU306
 1088 0004 B233     		adds	r3, r3, #178
 1089 0006 00EB8300 		add	r0, r0, r3, lsl #2
 1090              	.LVL101:
 512:Middlewares/ST/STM32_USB_Device_Library/Class/winUsb/Src/usbd_winUsb.c **** 
 1091              		.loc 1 512 30 view .LVU307
 1092 000a 4368     		ldr	r3, [r0, #4]
 1093              	.LVL102:
 514:Middlewares/ST/STM32_USB_Device_Library/Class/winUsb/Src/usbd_winUsb.c ****   {
 1094              		.loc 1 514 3 is_stmt 1 view .LVU308
 514:Middlewares/ST/STM32_USB_Device_Library/Class/winUsb/Src/usbd_winUsb.c ****   {
 1095              		.loc 1 514 6 is_stmt 0 view .LVU309
 1096 000c 2BB1     		cbz	r3, .L82
 519:Middlewares/ST/STM32_USB_Device_Library/Class/winUsb/Src/usbd_winUsb.c ****   hcdc->TxLength = length;
 1097              		.loc 1 519 3 is_stmt 1 view .LVU310
 519:Middlewares/ST/STM32_USB_Device_Library/Class/winUsb/Src/usbd_winUsb.c ****   hcdc->TxLength = length;
 1098              		.loc 1 519 18 is_stmt 0 view .LVU311
 1099 000e C3F80812 		str	r1, [r3, #520]
 520:Middlewares/ST/STM32_USB_Device_Library/Class/winUsb/Src/usbd_winUsb.c **** 
 1100              		.loc 1 520 3 is_stmt 1 view .LVU312
 520:Middlewares/ST/STM32_USB_Device_Library/Class/winUsb/Src/usbd_winUsb.c **** 
 1101              		.loc 1 520 18 is_stmt 0 view .LVU313
 1102 0012 C3F81022 		str	r2, [r3, #528]
 522:Middlewares/ST/STM32_USB_Device_Library/Class/winUsb/Src/usbd_winUsb.c **** }
 1103              		.loc 1 522 3 is_stmt 1 view .LVU314
 522:Middlewares/ST/STM32_USB_Device_Library/Class/winUsb/Src/usbd_winUsb.c **** }
 1104              		.loc 1 522 10 is_stmt 0 view .LVU315
 1105 0016 0020     		movs	r0, #0
 1106 0018 7047     		bx	lr
 1107              	.L82:
 516:Middlewares/ST/STM32_USB_Device_Library/Class/winUsb/Src/usbd_winUsb.c ****   }
 1108              		.loc 1 516 12 view .LVU316
 1109 001a 0320     		movs	r0, #3
 523:Middlewares/ST/STM32_USB_Device_Library/Class/winUsb/Src/usbd_winUsb.c **** uint8_t USBD_WinUsb_SetRxBuffer(USBD_HandleTypeDef *pdev, uint8_t *pbuff)
 1110              		.loc 1 523 1 view .LVU317
 1111 001c 7047     		bx	lr
 1112              		.cfi_endproc
 1113              	.LFE145:
 1115              		.section	.text.USBD_WinUsb_SetRxBuffer,"ax",%progbits
 1116              		.align	1
 1117              		.global	USBD_WinUsb_SetRxBuffer
 1118              		.syntax unified
 1119              		.thumb
 1120              		.thumb_func
 1122              	USBD_WinUsb_SetRxBuffer:
ARM GAS  C:\Users\ADMINI~1\AppData\Local\Temp\ccBhKHjg.s 			page 36


 1123              	.LVL103:
 1124              	.LFB146:
 525:Middlewares/ST/STM32_USB_Device_Library/Class/winUsb/Src/usbd_winUsb.c **** 	USBD_WinUsb_HandleTypeDef *hcdc = (USBD_WinUsb_HandleTypeDef *)pdev->pClassDataCmsit[pdev->classId
 1125              		.loc 1 525 1 is_stmt 1 view -0
 1126              		.cfi_startproc
 1127              		@ args = 0, pretend = 0, frame = 0
 1128              		@ frame_needed = 0, uses_anonymous_args = 0
 1129              		@ link register save eliminated.
 526:Middlewares/ST/STM32_USB_Device_Library/Class/winUsb/Src/usbd_winUsb.c **** 
 1130              		.loc 1 526 2 view .LVU319
 526:Middlewares/ST/STM32_USB_Device_Library/Class/winUsb/Src/usbd_winUsb.c **** 
 1131              		.loc 1 526 91 is_stmt 0 view .LVU320
 1132 0000 D0F8F832 		ldr	r3, [r0, #760]
 526:Middlewares/ST/STM32_USB_Device_Library/Class/winUsb/Src/usbd_winUsb.c **** 
 1133              		.loc 1 526 29 view .LVU321
 1134 0004 B233     		adds	r3, r3, #178
 1135 0006 00EB8300 		add	r0, r0, r3, lsl #2
 1136              	.LVL104:
 526:Middlewares/ST/STM32_USB_Device_Library/Class/winUsb/Src/usbd_winUsb.c **** 
 1137              		.loc 1 526 29 view .LVU322
 1138 000a 4368     		ldr	r3, [r0, #4]
 1139              	.LVL105:
 528:Middlewares/ST/STM32_USB_Device_Library/Class/winUsb/Src/usbd_winUsb.c **** 	{
 1140              		.loc 1 528 2 is_stmt 1 view .LVU323
 528:Middlewares/ST/STM32_USB_Device_Library/Class/winUsb/Src/usbd_winUsb.c **** 	{
 1141              		.loc 1 528 5 is_stmt 0 view .LVU324
 1142 000c 1BB1     		cbz	r3, .L85
 533:Middlewares/ST/STM32_USB_Device_Library/Class/winUsb/Src/usbd_winUsb.c **** 
 1143              		.loc 1 533 2 is_stmt 1 view .LVU325
 533:Middlewares/ST/STM32_USB_Device_Library/Class/winUsb/Src/usbd_winUsb.c **** 
 1144              		.loc 1 533 17 is_stmt 0 view .LVU326
 1145 000e C3F80412 		str	r1, [r3, #516]
 535:Middlewares/ST/STM32_USB_Device_Library/Class/winUsb/Src/usbd_winUsb.c **** }
 1146              		.loc 1 535 2 is_stmt 1 view .LVU327
 535:Middlewares/ST/STM32_USB_Device_Library/Class/winUsb/Src/usbd_winUsb.c **** }
 1147              		.loc 1 535 9 is_stmt 0 view .LVU328
 1148 0012 0020     		movs	r0, #0
 1149 0014 7047     		bx	lr
 1150              	.L85:
 530:Middlewares/ST/STM32_USB_Device_Library/Class/winUsb/Src/usbd_winUsb.c **** 	}
 1151              		.loc 1 530 11 view .LVU329
 1152 0016 0320     		movs	r0, #3
 536:Middlewares/ST/STM32_USB_Device_Library/Class/winUsb/Src/usbd_winUsb.c **** 
 1153              		.loc 1 536 1 view .LVU330
 1154 0018 7047     		bx	lr
 1155              		.cfi_endproc
 1156              	.LFE146:
 1158              		.section	.text.WinUsb_Init_FS,"ax",%progbits
 1159              		.align	1
 1160              		.syntax unified
 1161              		.thumb
 1162              		.thumb_func
 1164              	WinUsb_Init_FS:
 1165              	.LFB148:
 554:Middlewares/ST/STM32_USB_Device_Library/Class/winUsb/Src/usbd_winUsb.c ****   /* USER CODE BEGIN 3 */
 1166              		.loc 1 554 1 is_stmt 1 view -0
 1167              		.cfi_startproc
ARM GAS  C:\Users\ADMINI~1\AppData\Local\Temp\ccBhKHjg.s 			page 37


 1168              		@ args = 0, pretend = 0, frame = 0
 1169              		@ frame_needed = 0, uses_anonymous_args = 0
 1170 0000 10B5     		push	{r4, lr}
 1171              	.LCFI13:
 1172              		.cfi_def_cfa_offset 8
 1173              		.cfi_offset 4, -8
 1174              		.cfi_offset 14, -4
 557:Middlewares/ST/STM32_USB_Device_Library/Class/winUsb/Src/usbd_winUsb.c ****   USBD_WinUsb_SetRxBuffer(&hUsbDeviceFS, WinUsbRxBufferFS);
 1175              		.loc 1 557 3 view .LVU332
 1176 0002 064C     		ldr	r4, .L88
 1177 0004 0022     		movs	r2, #0
 1178 0006 0649     		ldr	r1, .L88+4
 1179 0008 2046     		mov	r0, r4
 1180 000a FFF7FEFF 		bl	USBD_WinUsb_SetTxBuffer
 1181              	.LVL106:
 558:Middlewares/ST/STM32_USB_Device_Library/Class/winUsb/Src/usbd_winUsb.c ****   return (USBD_OK);
 1182              		.loc 1 558 3 view .LVU333
 1183 000e 0549     		ldr	r1, .L88+8
 1184 0010 2046     		mov	r0, r4
 1185 0012 FFF7FEFF 		bl	USBD_WinUsb_SetRxBuffer
 1186              	.LVL107:
 559:Middlewares/ST/STM32_USB_Device_Library/Class/winUsb/Src/usbd_winUsb.c ****   /* USER CODE END 3 */
 1187              		.loc 1 559 3 view .LVU334
 561:Middlewares/ST/STM32_USB_Device_Library/Class/winUsb/Src/usbd_winUsb.c **** static int8_t WinUsb_DeInit_FS(void)
 1188              		.loc 1 561 1 is_stmt 0 view .LVU335
 1189 0016 0020     		movs	r0, #0
 1190 0018 10BD     		pop	{r4, pc}
 1191              	.L89:
 1192 001a 00BF     		.align	2
 1193              	.L88:
 1194 001c 00000000 		.word	hUsbDeviceFS
 1195 0020 00000000 		.word	.LANCHOR2
 1196 0024 00000000 		.word	.LANCHOR3
 1197              		.cfi_endproc
 1198              	.LFE148:
 1200              		.section	.text.USBD_WinUsb_ReceivePacket,"ax",%progbits
 1201              		.align	1
 1202              		.global	USBD_WinUsb_ReceivePacket
 1203              		.syntax unified
 1204              		.thumb
 1205              		.thumb_func
 1207              	USBD_WinUsb_ReceivePacket:
 1208              	.LVL108:
 1209              	.LFB147:
 539:Middlewares/ST/STM32_USB_Device_Library/Class/winUsb/Src/usbd_winUsb.c ****   USBD_WinUsb_HandleTypeDef *hcdc = (USBD_WinUsb_HandleTypeDef *)pdev->pClassDataCmsit[pdev->classI
 1210              		.loc 1 539 1 is_stmt 1 view -0
 1211              		.cfi_startproc
 1212              		@ args = 0, pretend = 0, frame = 0
 1213              		@ frame_needed = 0, uses_anonymous_args = 0
 539:Middlewares/ST/STM32_USB_Device_Library/Class/winUsb/Src/usbd_winUsb.c ****   USBD_WinUsb_HandleTypeDef *hcdc = (USBD_WinUsb_HandleTypeDef *)pdev->pClassDataCmsit[pdev->classI
 1214              		.loc 1 539 1 is_stmt 0 view .LVU337
 1215 0000 08B5     		push	{r3, lr}
 1216              	.LCFI14:
 1217              		.cfi_def_cfa_offset 8
 1218              		.cfi_offset 3, -8
 1219              		.cfi_offset 14, -4
 540:Middlewares/ST/STM32_USB_Device_Library/Class/winUsb/Src/usbd_winUsb.c **** 
ARM GAS  C:\Users\ADMINI~1\AppData\Local\Temp\ccBhKHjg.s 			page 38


 1220              		.loc 1 540 3 is_stmt 1 view .LVU338
 540:Middlewares/ST/STM32_USB_Device_Library/Class/winUsb/Src/usbd_winUsb.c **** 
 1221              		.loc 1 540 92 is_stmt 0 view .LVU339
 1222 0002 D0F8F832 		ldr	r3, [r0, #760]
 540:Middlewares/ST/STM32_USB_Device_Library/Class/winUsb/Src/usbd_winUsb.c **** 
 1223              		.loc 1 540 30 view .LVU340
 1224 0006 B233     		adds	r3, r3, #178
 1225 0008 00EB8303 		add	r3, r0, r3, lsl #2
 1226 000c 5A68     		ldr	r2, [r3, #4]
 1227              	.LVL109:
 542:Middlewares/ST/STM32_USB_Device_Library/Class/winUsb/Src/usbd_winUsb.c ****   {
 1228              		.loc 1 542 3 is_stmt 1 view .LVU341
 542:Middlewares/ST/STM32_USB_Device_Library/Class/winUsb/Src/usbd_winUsb.c ****   {
 1229              		.loc 1 542 6 is_stmt 0 view .LVU342
 1230 000e 3AB1     		cbz	r2, .L92
 549:Middlewares/ST/STM32_USB_Device_Library/Class/winUsb/Src/usbd_winUsb.c **** 
 1231              		.loc 1 549 2 is_stmt 1 view .LVU343
 549:Middlewares/ST/STM32_USB_Device_Library/Class/winUsb/Src/usbd_winUsb.c **** 
 1232              		.loc 1 549 8 is_stmt 0 view .LVU344
 1233 0010 4023     		movs	r3, #64
 1234 0012 D2F80422 		ldr	r2, [r2, #516]
 1235              	.LVL110:
 549:Middlewares/ST/STM32_USB_Device_Library/Class/winUsb/Src/usbd_winUsb.c **** 
 1236              		.loc 1 549 8 view .LVU345
 1237 0016 0321     		movs	r1, #3
 1238 0018 FFF7FEFF 		bl	USBD_LL_PrepareReceive
 1239              	.LVL111:
 551:Middlewares/ST/STM32_USB_Device_Library/Class/winUsb/Src/usbd_winUsb.c **** }
 1240              		.loc 1 551 3 is_stmt 1 view .LVU346
 551:Middlewares/ST/STM32_USB_Device_Library/Class/winUsb/Src/usbd_winUsb.c **** }
 1241              		.loc 1 551 10 is_stmt 0 view .LVU347
 1242 001c 0020     		movs	r0, #0
 1243              	.L91:
 552:Middlewares/ST/STM32_USB_Device_Library/Class/winUsb/Src/usbd_winUsb.c **** static int8_t WinUsb_Init_FS(void)
 1244              		.loc 1 552 1 view .LVU348
 1245 001e 08BD     		pop	{r3, pc}
 1246              	.LVL112:
 1247              	.L92:
 544:Middlewares/ST/STM32_USB_Device_Library/Class/winUsb/Src/usbd_winUsb.c ****   }
 1248              		.loc 1 544 12 view .LVU349
 1249 0020 0320     		movs	r0, #3
 1250              	.LVL113:
 544:Middlewares/ST/STM32_USB_Device_Library/Class/winUsb/Src/usbd_winUsb.c ****   }
 1251              		.loc 1 544 12 view .LVU350
 1252 0022 FCE7     		b	.L91
 1253              		.cfi_endproc
 1254              	.LFE147:
 1256              		.section	.rodata.WinUsb_Receive_FS.str1.4,"aMS",%progbits,1
 1257              		.align	2
 1258              	.LC3:
 1259 0000 252E3278 		.ascii	"%.2x \000"
 1259      2000
 1260 0006 0000     		.align	2
 1261              	.LC4:
 1262 0008 0D00     		.ascii	"\015\000"
 1263              		.section	.text.WinUsb_Receive_FS,"ax",%progbits
 1264              		.align	1
ARM GAS  C:\Users\ADMINI~1\AppData\Local\Temp\ccBhKHjg.s 			page 39


 1265              		.syntax unified
 1266              		.thumb
 1267              		.thumb_func
 1269              	WinUsb_Receive_FS:
 1270              	.LVL114:
 1271              	.LFB150:
 570:Middlewares/ST/STM32_USB_Device_Library/Class/winUsb/Src/usbd_winUsb.c ****   /* USER CODE BEGIN 6 */
 1272              		.loc 1 570 1 is_stmt 1 view -0
 1273              		.cfi_startproc
 1274              		@ args = 0, pretend = 0, frame = 0
 1275              		@ frame_needed = 0, uses_anonymous_args = 0
 570:Middlewares/ST/STM32_USB_Device_Library/Class/winUsb/Src/usbd_winUsb.c ****   /* USER CODE BEGIN 6 */
 1276              		.loc 1 570 1 is_stmt 0 view .LVU352
 1277 0000 70B5     		push	{r4, r5, r6, lr}
 1278              	.LCFI15:
 1279              		.cfi_def_cfa_offset 16
 1280              		.cfi_offset 4, -16
 1281              		.cfi_offset 5, -12
 1282              		.cfi_offset 6, -8
 1283              		.cfi_offset 14, -4
 1284 0002 0546     		mov	r5, r0
 1285 0004 0E46     		mov	r6, r1
 572:Middlewares/ST/STM32_USB_Device_Library/Class/winUsb/Src/usbd_winUsb.c ****   for(i=0 ; i<*Len; i++)
 1286              		.loc 1 572 3 is_stmt 1 view .LVU353
 573:Middlewares/ST/STM32_USB_Device_Library/Class/winUsb/Src/usbd_winUsb.c ****     printf("%.2x ",Buf[i]);
 1287              		.loc 1 573 3 view .LVU354
 1288              	.LVL115:
 573:Middlewares/ST/STM32_USB_Device_Library/Class/winUsb/Src/usbd_winUsb.c ****     printf("%.2x ",Buf[i]);
 1289              		.loc 1 573 8 is_stmt 0 view .LVU355
 1290 0006 0024     		movs	r4, #0
 573:Middlewares/ST/STM32_USB_Device_Library/Class/winUsb/Src/usbd_winUsb.c ****     printf("%.2x ",Buf[i]);
 1291              		.loc 1 573 3 view .LVU356
 1292 0008 04E0     		b	.L95
 1293              	.LVL116:
 1294              	.L96:
 574:Middlewares/ST/STM32_USB_Device_Library/Class/winUsb/Src/usbd_winUsb.c ****   printf("\r\n");
 1295              		.loc 1 574 5 is_stmt 1 discriminator 3 view .LVU357
 1296 000a 295D     		ldrb	r1, [r5, r4]	@ zero_extendqisi2
 1297 000c 0948     		ldr	r0, .L98
 1298 000e FFF7FEFF 		bl	printf
 1299              	.LVL117:
 573:Middlewares/ST/STM32_USB_Device_Library/Class/winUsb/Src/usbd_winUsb.c ****     printf("%.2x ",Buf[i]);
 1300              		.loc 1 573 21 discriminator 3 view .LVU358
 573:Middlewares/ST/STM32_USB_Device_Library/Class/winUsb/Src/usbd_winUsb.c ****     printf("%.2x ",Buf[i]);
 1301              		.loc 1 573 22 is_stmt 0 discriminator 3 view .LVU359
 1302 0012 0134     		adds	r4, r4, #1
 1303              	.LVL118:
 1304              	.L95:
 573:Middlewares/ST/STM32_USB_Device_Library/Class/winUsb/Src/usbd_winUsb.c ****     printf("%.2x ",Buf[i]);
 1305              		.loc 1 573 13 is_stmt 1 discriminator 1 view .LVU360
 573:Middlewares/ST/STM32_USB_Device_Library/Class/winUsb/Src/usbd_winUsb.c ****     printf("%.2x ",Buf[i]);
 1306              		.loc 1 573 15 is_stmt 0 discriminator 1 view .LVU361
 1307 0014 3368     		ldr	r3, [r6]
 573:Middlewares/ST/STM32_USB_Device_Library/Class/winUsb/Src/usbd_winUsb.c ****     printf("%.2x ",Buf[i]);
 1308              		.loc 1 573 3 discriminator 1 view .LVU362
 1309 0016 A342     		cmp	r3, r4
 1310 0018 F7D8     		bhi	.L96
ARM GAS  C:\Users\ADMINI~1\AppData\Local\Temp\ccBhKHjg.s 			page 40


 575:Middlewares/ST/STM32_USB_Device_Library/Class/winUsb/Src/usbd_winUsb.c ****   USBD_WinUsb_SetRxBuffer(&hUsbDeviceFS, &Buf[0]);
 1311              		.loc 1 575 3 is_stmt 1 view .LVU363
 1312 001a 0748     		ldr	r0, .L98+4
 1313 001c FFF7FEFF 		bl	puts
 1314              	.LVL119:
 576:Middlewares/ST/STM32_USB_Device_Library/Class/winUsb/Src/usbd_winUsb.c ****   USBD_WinUsb_ReceivePacket(&hUsbDeviceFS);
 1315              		.loc 1 576 3 view .LVU364
 1316 0020 064C     		ldr	r4, .L98+8
 1317              	.LVL120:
 576:Middlewares/ST/STM32_USB_Device_Library/Class/winUsb/Src/usbd_winUsb.c ****   USBD_WinUsb_ReceivePacket(&hUsbDeviceFS);
 1318              		.loc 1 576 3 is_stmt 0 view .LVU365
 1319 0022 2946     		mov	r1, r5
 1320 0024 2046     		mov	r0, r4
 1321 0026 FFF7FEFF 		bl	USBD_WinUsb_SetRxBuffer
 1322              	.LVL121:
 577:Middlewares/ST/STM32_USB_Device_Library/Class/winUsb/Src/usbd_winUsb.c ****   return (USBD_OK);
 1323              		.loc 1 577 3 is_stmt 1 view .LVU366
 1324 002a 2046     		mov	r0, r4
 1325 002c FFF7FEFF 		bl	USBD_WinUsb_ReceivePacket
 1326              	.LVL122:
 578:Middlewares/ST/STM32_USB_Device_Library/Class/winUsb/Src/usbd_winUsb.c ****   /* USER CODE END 6 */
 1327              		.loc 1 578 3 view .LVU367
 580:Middlewares/ST/STM32_USB_Device_Library/Class/winUsb/Src/usbd_winUsb.c **** static int8_t WinUsb_TransmitCplt_FS(uint8_t *Buf, uint32_t *Len, uint8_t epnum)
 1328              		.loc 1 580 1 is_stmt 0 view .LVU368
 1329 0030 0020     		movs	r0, #0
 1330 0032 70BD     		pop	{r4, r5, r6, pc}
 1331              	.LVL123:
 1332              	.L99:
 580:Middlewares/ST/STM32_USB_Device_Library/Class/winUsb/Src/usbd_winUsb.c **** static int8_t WinUsb_TransmitCplt_FS(uint8_t *Buf, uint32_t *Len, uint8_t epnum)
 1333              		.loc 1 580 1 view .LVU369
 1334              		.align	2
 1335              	.L98:
 1336 0034 00000000 		.word	.LC3
 1337 0038 08000000 		.word	.LC4
 1338 003c 00000000 		.word	hUsbDeviceFS
 1339              		.cfi_endproc
 1340              	.LFE150:
 1342              		.section	.text.USBD_WinUsb_RegisterInterface,"ax",%progbits
 1343              		.align	1
 1344              		.global	USBD_WinUsb_RegisterInterface
 1345              		.syntax unified
 1346              		.thumb
 1347              		.thumb_func
 1349              	USBD_WinUsb_RegisterInterface:
 1350              	.LVL124:
 1351              	.LFB152:
 591:Middlewares/ST/STM32_USB_Device_Library/Class/winUsb/Src/usbd_winUsb.c **** USBD_WinUsb_ItfTypeDef USBD_WinUsb_Interface_fops_FS =
 592:Middlewares/ST/STM32_USB_Device_Library/Class/winUsb/Src/usbd_winUsb.c **** {
 593:Middlewares/ST/STM32_USB_Device_Library/Class/winUsb/Src/usbd_winUsb.c ****   WinUsb_Init_FS,
 594:Middlewares/ST/STM32_USB_Device_Library/Class/winUsb/Src/usbd_winUsb.c ****   WinUsb_DeInit_FS,
 595:Middlewares/ST/STM32_USB_Device_Library/Class/winUsb/Src/usbd_winUsb.c ****   NULL,
 596:Middlewares/ST/STM32_USB_Device_Library/Class/winUsb/Src/usbd_winUsb.c ****   WinUsb_Receive_FS,
 597:Middlewares/ST/STM32_USB_Device_Library/Class/winUsb/Src/usbd_winUsb.c ****   WinUsb_TransmitCplt_FS
 598:Middlewares/ST/STM32_USB_Device_Library/Class/winUsb/Src/usbd_winUsb.c **** };
 599:Middlewares/ST/STM32_USB_Device_Library/Class/winUsb/Src/usbd_winUsb.c **** 
 600:Middlewares/ST/STM32_USB_Device_Library/Class/winUsb/Src/usbd_winUsb.c **** 
 601:Middlewares/ST/STM32_USB_Device_Library/Class/winUsb/Src/usbd_winUsb.c **** uint8_t USBD_WinUsb_RegisterInterface(USBD_HandleTypeDef *pdev,
ARM GAS  C:\Users\ADMINI~1\AppData\Local\Temp\ccBhKHjg.s 			page 41


 602:Middlewares/ST/STM32_USB_Device_Library/Class/winUsb/Src/usbd_winUsb.c ****                                    USBD_WinUsb_ItfTypeDef *fops)
 603:Middlewares/ST/STM32_USB_Device_Library/Class/winUsb/Src/usbd_winUsb.c **** {
 1352              		.loc 1 603 1 is_stmt 1 view -0
 1353              		.cfi_startproc
 1354              		@ args = 0, pretend = 0, frame = 0
 1355              		@ frame_needed = 0, uses_anonymous_args = 0
 1356              		@ link register save eliminated.
 604:Middlewares/ST/STM32_USB_Device_Library/Class/winUsb/Src/usbd_winUsb.c ****   if (fops == NULL)
 1357              		.loc 1 604 3 view .LVU371
 1358              		.loc 1 604 6 is_stmt 0 view .LVU372
 1359 0000 81B1     		cbz	r1, .L102
 603:Middlewares/ST/STM32_USB_Device_Library/Class/winUsb/Src/usbd_winUsb.c ****   if (fops == NULL)
 1360              		.loc 1 603 1 view .LVU373
 1361 0002 10B4     		push	{r4}
 1362              	.LCFI16:
 1363              		.cfi_def_cfa_offset 4
 1364              		.cfi_offset 4, -4
 605:Middlewares/ST/STM32_USB_Device_Library/Class/winUsb/Src/usbd_winUsb.c ****   {
 606:Middlewares/ST/STM32_USB_Device_Library/Class/winUsb/Src/usbd_winUsb.c ****     return (uint8_t)USBD_FAIL;
 607:Middlewares/ST/STM32_USB_Device_Library/Class/winUsb/Src/usbd_winUsb.c ****   }
 608:Middlewares/ST/STM32_USB_Device_Library/Class/winUsb/Src/usbd_winUsb.c ****   
 609:Middlewares/ST/STM32_USB_Device_Library/Class/winUsb/Src/usbd_winUsb.c ****   pdev->classId --;
 1365              		.loc 1 609 3 is_stmt 1 view .LVU374
 1366              		.loc 1 609 7 is_stmt 0 view .LVU375
 1367 0004 D0F8F832 		ldr	r3, [r0, #760]
 1368              		.loc 1 609 17 view .LVU376
 1369 0008 5A1E     		subs	r2, r3, #1
 1370 000a C0F8F822 		str	r2, [r0, #760]
 610:Middlewares/ST/STM32_USB_Device_Library/Class/winUsb/Src/usbd_winUsb.c ****   pdev->pUserData[pdev->classId] = fops;
 1371              		.loc 1 610 3 is_stmt 1 view .LVU377
 1372              		.loc 1 610 34 is_stmt 0 view .LVU378
 1373 000e 03F1B502 		add	r2, r3, #181
 1374 0012 00EB8202 		add	r2, r0, r2, lsl #2
 1375 0016 5160     		str	r1, [r2, #4]
 611:Middlewares/ST/STM32_USB_Device_Library/Class/winUsb/Src/usbd_winUsb.c ****  
 612:Middlewares/ST/STM32_USB_Device_Library/Class/winUsb/Src/usbd_winUsb.c ****   pdev->classId ++;
 1376              		.loc 1 612 3 is_stmt 1 view .LVU379
 1377              		.loc 1 612 17 is_stmt 0 view .LVU380
 1378 0018 C0F8F832 		str	r3, [r0, #760]
 613:Middlewares/ST/STM32_USB_Device_Library/Class/winUsb/Src/usbd_winUsb.c ****   return (uint8_t)USBD_OK;
 1379              		.loc 1 613 3 is_stmt 1 view .LVU381
 1380              		.loc 1 613 10 is_stmt 0 view .LVU382
 1381 001c 0020     		movs	r0, #0
 1382              	.LVL125:
 614:Middlewares/ST/STM32_USB_Device_Library/Class/winUsb/Src/usbd_winUsb.c **** }
 1383              		.loc 1 614 1 view .LVU383
 1384 001e 5DF8044B 		ldr	r4, [sp], #4
 1385              	.LCFI17:
 1386              		.cfi_restore 4
 1387              		.cfi_def_cfa_offset 0
 1388 0022 7047     		bx	lr
 1389              	.LVL126:
 1390              	.L102:
 606:Middlewares/ST/STM32_USB_Device_Library/Class/winUsb/Src/usbd_winUsb.c ****   }
 1391              		.loc 1 606 12 view .LVU384
 1392 0024 0320     		movs	r0, #3
 1393              	.LVL127:
ARM GAS  C:\Users\ADMINI~1\AppData\Local\Temp\ccBhKHjg.s 			page 42


 1394              		.loc 1 614 1 view .LVU385
 1395 0026 7047     		bx	lr
 1396              		.cfi_endproc
 1397              	.LFE152:
 1399              		.global	USBD_WinUsb_Interface_fops_FS
 1400              		.global	WinUsbTxBufferFS
 1401              		.global	WinUsbRxBufferFS
 1402              		.global	USBD_WinUSBComm_Extended_Properties_OS_Desc
 1403              		.global	USBD_WinUSBComm_Extended_Compat_ID_OS_Desc
 1404              		.global	USBD_WinUsb
 1405              		.section	.bss.WinUsbRxBufferFS,"aw",%nobits
 1406              		.align	2
 1407              		.set	.LANCHOR3,. + 0
 1410              	WinUsbRxBufferFS:
 1411 0000 00000000 		.space	2048
 1411      00000000 
 1411      00000000 
 1411      00000000 
 1411      00000000 
 1412              		.section	.bss.WinUsbTxBufferFS,"aw",%nobits
 1413              		.align	2
 1414              		.set	.LANCHOR2,. + 0
 1417              	WinUsbTxBufferFS:
 1418 0000 00000000 		.space	2048
 1418      00000000 
 1418      00000000 
 1418      00000000 
 1418      00000000 
 1419              		.section	.data.USBD_WinUSBComm_Extended_Compat_ID_OS_Desc,"aw"
 1420              		.align	2
 1421              		.set	.LANCHOR0,. + 0
 1424              	USBD_WinUSBComm_Extended_Compat_ID_OS_Desc:
 1425 0000 28000000 		.ascii	"(\000\000\000\000\001\004\000\001\000\000\000\000\000"
 1425      00010400 
 1425      01000000 
 1425      0000
 1426 000e 00000200 		.ascii	"\000\000\002\000WINUSB\000\000\000\000\000\000\000\000"
 1426      57494E55 
 1426      53420000 
 1426      00000000 
 1426      0000
 1427 0020 00000000 		.ascii	"\000\000\000\000\000\000\000\000"
 1427      00000000 
 1428              		.section	.data.USBD_WinUSBComm_Extended_Properties_OS_Desc,"aw"
 1429              		.align	2
 1430              		.set	.LANCHOR1,. + 0
 1433              	USBD_WinUSBComm_Extended_Properties_OS_Desc:
 1434 0000 B6000000 		.ascii	"\266\000\000\000\000\001\005\000\002\000\204\000\000"
 1434      00010500 
 1434      02008400 
 1434      00
 1435 000d 00010000 		.ascii	"\000\001\000\000\000(\000D\000e\000v\000i\000c\000e"
 1435      00280044 
 1435      00650076 
 1435      00690063 
 1435      0065
 1436 001f 0049006E 		.ascii	"\000I\000n\000t\000e\000r\000f\000a\000c\000e\000G\000"
ARM GAS  C:\Users\ADMINI~1\AppData\Local\Temp\ccBhKHjg.s 			page 43


 1436      00740065 
 1436      00720066 
 1436      00610063 
 1436      00650047 
 1437 0034 55004900 		.ascii	"U\000I\000D\000\000\000N\000\000\000{\000E\000A\000"
 1437      44000000 
 1437      4E000000 
 1437      7B004500 
 1437      4100
 1438 0046 30004200 		.ascii	"0\000B\000D\0005\000C\0003\000-\0005\0000\000F\0003"
 1438      44003500 
 1438      43003300 
 1438      2D003500 
 1438      30004600 
 1439 005b 002D0034 		.ascii	"\000-\0004\0008\0008\0008\000-\0008\0004\000B\0004\000"
 1439      00380038 
 1439      0038002D 
 1439      00380034 
 1439      00420034 
 1440 0070 2D003700 		.ascii	"-\0007\0004\000E\0005\0000\000E\0001\0006\0004\0009"
 1440      34004500 
 1440      35003000 
 1440      45003100 
 1440      36003400 
 1441 0085 00440042 		.ascii	"\000D\000B\000}\000\000\000>\000\000\000\001\000\000"
 1441      007D0000 
 1441      003E0000 
 1441      00010000 
 1442 0095 000C004C 		.ascii	"\000\014\000L\000a\000b\000e\000l\000\000\000$\000\000"
 1442      00610062 
 1442      0065006C 
 1442      00000024 
 1442      0000
 1443 00a7 004F0044 		.ascii	"\000O\000D\000r\000i\000v\000e\000\000\000"
 1443      00720069 
 1443      00760065 
 1443      000000
 1444              		.section	.data.USBD_WinUsb,"aw"
 1445              		.align	2
 1448              	USBD_WinUsb:
 1449 0000 00000000 		.word	USBD_WinUsb_Init
 1450 0004 00000000 		.word	USBD_WinUsb_DeInit
 1451 0008 00000000 		.word	USBD_WinUsb_Setup
 1452 000c 00000000 		.word	0
 1453 0010 00000000 		.word	USBD_WinUsb_EP0_RxReady
 1454 0014 00000000 		.word	USBD_WinUsb_DataIn
 1455 0018 00000000 		.word	USBD_WinUsb_DataOut
 1456 001c 00000000 		.word	0
 1457 0020 00000000 		.word	0
 1458 0024 00000000 		.word	0
 1459 0028 00000000 		.word	0
 1460 002c 00000000 		.word	0
 1461 0030 00000000 		.word	0
 1462 0034 00000000 		.word	0
 1463 0038 00000000 		.word	USBD_UsrStrDescriptor
 1464              		.section	.data.USBD_WinUsb_Interface_fops_FS,"aw"
 1465              		.align	2
ARM GAS  C:\Users\ADMINI~1\AppData\Local\Temp\ccBhKHjg.s 			page 44


 1468              	USBD_WinUsb_Interface_fops_FS:
 1469 0000 00000000 		.word	WinUsb_Init_FS
 1470 0004 00000000 		.word	WinUsb_DeInit_FS
 1471 0008 00000000 		.word	0
 1472 000c 00000000 		.word	WinUsb_Receive_FS
 1473 0010 00000000 		.word	WinUsb_TransmitCplt_FS
 1474              		.text
 1475              	.Letext0:
 1476              		.file 2 "c:\\program files (x86)\\gnu arm embedded toolchain\\10 2021.10\\arm-none-eabi\\include\\
 1477              		.file 3 "c:\\program files (x86)\\gnu arm embedded toolchain\\10 2021.10\\arm-none-eabi\\include\\
 1478              		.file 4 "Drivers/CMSIS/Device/ST/STM32F4xx/Include/stm32f405xx.h"
 1479              		.file 5 "Drivers/STM32F4xx_HAL_Driver/Inc/stm32f4xx_hal_def.h"
 1480              		.file 6 "Drivers/STM32F4xx_HAL_Driver/Inc/stm32f4xx_ll_usb.h"
 1481              		.file 7 "Drivers/STM32F4xx_HAL_Driver/Inc/stm32f4xx_hal_pcd.h"
 1482              		.file 8 "Middlewares/ST/STM32_USB_Device_Library/Core/Inc/usbd_def.h"
 1483              		.file 9 "Middlewares/ST/STM32_USB_Device_Library/Class/winUsb/Inc/usbd_winUsb.h"
 1484              		.file 10 "c:\\program files (x86)\\gnu arm embedded toolchain\\10 2021.10\\arm-none-eabi\\include\
 1485              		.file 11 "Middlewares/ST/STM32_USB_Device_Library/Core/Inc/usbd_core.h"
 1486              		.file 12 "Middlewares/ST/STM32_USB_Device_Library/Core/Inc/usbd_ctlreq.h"
 1487              		.file 13 "Middlewares/ST/STM32_USB_Device_Library/Core/Inc/usbd_ioreq.h"
 1488              		.file 14 "c:\\program files (x86)\\gnu arm embedded toolchain\\10 2021.10\\arm-none-eabi\\include\
 1489              		.file 15 "<built-in>"
ARM GAS  C:\Users\ADMINI~1\AppData\Local\Temp\ccBhKHjg.s 			page 45

