ARM GAS  C:\Users\ADMINI~1\AppData\Local\Temp\ccJZf5de.s 			page 1


   1              		.cpu cortex-m0
   2              		.arch armv6s-m
   3              		.fpu softvfp
   4              		.eabi_attribute 20, 1
   5              		.eabi_attribute 21, 1
   6              		.eabi_attribute 23, 3
   7              		.eabi_attribute 24, 1
   8              		.eabi_attribute 25, 1
   9              		.eabi_attribute 26, 1
  10              		.eabi_attribute 30, 1
  11              		.eabi_attribute 34, 0
  12              		.eabi_attribute 18, 4
  13              		.file	"i2c.c"
  14              		.text
  15              	.Ltext0:
  16              		.cfi_sections	.debug_frame
  17              		.section	.text.MX_I2C1_Init,"ax",%progbits
  18              		.align	1
  19              		.global	MX_I2C1_Init
  20              		.syntax unified
  21              		.code	16
  22              		.thumb_func
  24              	MX_I2C1_Init:
  25              	.LFB1020:
  26              		.file 1 "Src/i2c.c"
   1:Src/i2c.c     **** /* USER CODE BEGIN Header */
   2:Src/i2c.c     **** /**
   3:Src/i2c.c     ****   ******************************************************************************
   4:Src/i2c.c     ****   * @file    i2c.c
   5:Src/i2c.c     ****   * @brief   This file provides code for the configuration
   6:Src/i2c.c     ****   *          of the I2C instances.
   7:Src/i2c.c     ****   ******************************************************************************
   8:Src/i2c.c     ****   * @attention
   9:Src/i2c.c     ****   *
  10:Src/i2c.c     ****   * Copyright (c) 2022 STMicroelectronics.
  11:Src/i2c.c     ****   * All rights reserved.
  12:Src/i2c.c     ****   *
  13:Src/i2c.c     ****   * This software is licensed under terms that can be found in the LICENSE file
  14:Src/i2c.c     ****   * in the root directory of this software component.
  15:Src/i2c.c     ****   * If no LICENSE file comes with this software, it is provided AS-IS.
  16:Src/i2c.c     ****   *
  17:Src/i2c.c     ****   ******************************************************************************
  18:Src/i2c.c     ****   */
  19:Src/i2c.c     **** /* USER CODE END Header */
  20:Src/i2c.c     **** /* Includes ------------------------------------------------------------------*/
  21:Src/i2c.c     **** #include "i2c.h"
  22:Src/i2c.c     **** 
  23:Src/i2c.c     **** /* USER CODE BEGIN 0 */
  24:Src/i2c.c     **** uint8_t i2cDataRx[8];
  25:Src/i2c.c     **** uint8_t i2cDataTx[8];
  26:Src/i2c.c     **** 
  27:Src/i2c.c     **** /* USER CODE END 0 */
  28:Src/i2c.c     **** 
  29:Src/i2c.c     **** /* I2C1 init function */
  30:Src/i2c.c     **** void MX_I2C1_Init(void)
  31:Src/i2c.c     **** {
  27              		.loc 1 31 1 view -0
ARM GAS  C:\Users\ADMINI~1\AppData\Local\Temp\ccJZf5de.s 			page 2


  28              		.cfi_startproc
  29              		@ args = 0, pretend = 0, frame = 64
  30              		@ frame_needed = 0, uses_anonymous_args = 0
  31 0000 F0B5     		push	{r4, r5, r6, r7, lr}
  32              	.LCFI0:
  33              		.cfi_def_cfa_offset 20
  34              		.cfi_offset 4, -20
  35              		.cfi_offset 5, -16
  36              		.cfi_offset 6, -12
  37              		.cfi_offset 7, -8
  38              		.cfi_offset 14, -4
  39 0002 CE46     		mov	lr, r9
  40 0004 4746     		mov	r7, r8
  41 0006 80B5     		push	{r7, lr}
  42              	.LCFI1:
  43              		.cfi_def_cfa_offset 28
  44              		.cfi_offset 8, -28
  45              		.cfi_offset 9, -24
  46 0008 91B0     		sub	sp, sp, #68
  47              	.LCFI2:
  48              		.cfi_def_cfa_offset 96
  32:Src/i2c.c     **** 
  33:Src/i2c.c     ****   /* USER CODE BEGIN I2C1_Init 0 */
  34:Src/i2c.c     **** 
  35:Src/i2c.c     ****   /* USER CODE END I2C1_Init 0 */
  36:Src/i2c.c     **** 
  37:Src/i2c.c     ****   LL_I2C_InitTypeDef I2C_InitStruct = {0};
  49              		.loc 1 37 3 view .LVU1
  50              		.loc 1 37 22 is_stmt 0 view .LVU2
  51 000a 1C22     		movs	r2, #28
  52 000c 0021     		movs	r1, #0
  53 000e 09A8     		add	r0, sp, #36
  54 0010 FFF7FEFF 		bl	memset
  55              	.LVL0:
  38:Src/i2c.c     **** 
  39:Src/i2c.c     ****   LL_GPIO_InitTypeDef GPIO_InitStruct = {0};
  56              		.loc 1 39 3 is_stmt 1 view .LVU3
  57              		.loc 1 39 23 is_stmt 0 view .LVU4
  58 0014 1822     		movs	r2, #24
  59 0016 0021     		movs	r1, #0
  60 0018 03A8     		add	r0, sp, #12
  61 001a FFF7FEFF 		bl	memset
  62              	.LVL1:
  40:Src/i2c.c     **** 
  41:Src/i2c.c     ****   LL_AHB1_GRP1_EnableClock(LL_AHB1_GRP1_PERIPH_GPIOA);
  63              		.loc 1 41 3 is_stmt 1 view .LVU5
  64              	.LBB108:
  65              	.LBI108:
  66              		.file 2 "Drivers/STM32F0xx_HAL_Driver/Inc/stm32f0xx_ll_bus.h"
   1:Drivers/STM32F0xx_HAL_Driver/Inc/stm32f0xx_ll_bus.h **** /**
   2:Drivers/STM32F0xx_HAL_Driver/Inc/stm32f0xx_ll_bus.h ****   ******************************************************************************
   3:Drivers/STM32F0xx_HAL_Driver/Inc/stm32f0xx_ll_bus.h ****   * @file    stm32f0xx_ll_bus.h
   4:Drivers/STM32F0xx_HAL_Driver/Inc/stm32f0xx_ll_bus.h ****   * @author  MCD Application Team
   5:Drivers/STM32F0xx_HAL_Driver/Inc/stm32f0xx_ll_bus.h ****   * @brief   Header file of BUS LL module.
   6:Drivers/STM32F0xx_HAL_Driver/Inc/stm32f0xx_ll_bus.h **** 
   7:Drivers/STM32F0xx_HAL_Driver/Inc/stm32f0xx_ll_bus.h ****   @verbatim                
   8:Drivers/STM32F0xx_HAL_Driver/Inc/stm32f0xx_ll_bus.h ****                       ##### RCC Limitations #####
ARM GAS  C:\Users\ADMINI~1\AppData\Local\Temp\ccJZf5de.s 			page 3


   9:Drivers/STM32F0xx_HAL_Driver/Inc/stm32f0xx_ll_bus.h ****   ==============================================================================
  10:Drivers/STM32F0xx_HAL_Driver/Inc/stm32f0xx_ll_bus.h ****     [..]  
  11:Drivers/STM32F0xx_HAL_Driver/Inc/stm32f0xx_ll_bus.h ****       A delay between an RCC peripheral clock enable and the effective peripheral 
  12:Drivers/STM32F0xx_HAL_Driver/Inc/stm32f0xx_ll_bus.h ****       enabling should be taken into account in order to manage the peripheral read/write 
  13:Drivers/STM32F0xx_HAL_Driver/Inc/stm32f0xx_ll_bus.h ****       from/to registers.
  14:Drivers/STM32F0xx_HAL_Driver/Inc/stm32f0xx_ll_bus.h ****       (+) This delay depends on the peripheral mapping.
  15:Drivers/STM32F0xx_HAL_Driver/Inc/stm32f0xx_ll_bus.h ****         (++) AHB & APB peripherals, 1 dummy read is necessary
  16:Drivers/STM32F0xx_HAL_Driver/Inc/stm32f0xx_ll_bus.h **** 
  17:Drivers/STM32F0xx_HAL_Driver/Inc/stm32f0xx_ll_bus.h ****     [..]  
  18:Drivers/STM32F0xx_HAL_Driver/Inc/stm32f0xx_ll_bus.h ****       Workarounds:
  19:Drivers/STM32F0xx_HAL_Driver/Inc/stm32f0xx_ll_bus.h ****       (#) For AHB & APB peripherals, a dummy read to the peripheral register has been
  20:Drivers/STM32F0xx_HAL_Driver/Inc/stm32f0xx_ll_bus.h ****           inserted in each LL_{BUS}_GRP{x}_EnableClock() function.
  21:Drivers/STM32F0xx_HAL_Driver/Inc/stm32f0xx_ll_bus.h **** 
  22:Drivers/STM32F0xx_HAL_Driver/Inc/stm32f0xx_ll_bus.h ****   @endverbatim
  23:Drivers/STM32F0xx_HAL_Driver/Inc/stm32f0xx_ll_bus.h ****   ******************************************************************************
  24:Drivers/STM32F0xx_HAL_Driver/Inc/stm32f0xx_ll_bus.h ****   * @attention
  25:Drivers/STM32F0xx_HAL_Driver/Inc/stm32f0xx_ll_bus.h ****   *
  26:Drivers/STM32F0xx_HAL_Driver/Inc/stm32f0xx_ll_bus.h ****   * <h2><center>&copy; Copyright (c) 2016 STMicroelectronics.
  27:Drivers/STM32F0xx_HAL_Driver/Inc/stm32f0xx_ll_bus.h ****   * All rights reserved.</center></h2>
  28:Drivers/STM32F0xx_HAL_Driver/Inc/stm32f0xx_ll_bus.h ****   *
  29:Drivers/STM32F0xx_HAL_Driver/Inc/stm32f0xx_ll_bus.h ****   * This software component is licensed by ST under BSD 3-Clause license,
  30:Drivers/STM32F0xx_HAL_Driver/Inc/stm32f0xx_ll_bus.h ****   * the "License"; You may not use this file except in compliance with the
  31:Drivers/STM32F0xx_HAL_Driver/Inc/stm32f0xx_ll_bus.h ****   * License. You may obtain a copy of the License at:
  32:Drivers/STM32F0xx_HAL_Driver/Inc/stm32f0xx_ll_bus.h ****   *                        opensource.org/licenses/BSD-3-Clause
  33:Drivers/STM32F0xx_HAL_Driver/Inc/stm32f0xx_ll_bus.h ****   *
  34:Drivers/STM32F0xx_HAL_Driver/Inc/stm32f0xx_ll_bus.h ****   ******************************************************************************
  35:Drivers/STM32F0xx_HAL_Driver/Inc/stm32f0xx_ll_bus.h ****   */
  36:Drivers/STM32F0xx_HAL_Driver/Inc/stm32f0xx_ll_bus.h **** 
  37:Drivers/STM32F0xx_HAL_Driver/Inc/stm32f0xx_ll_bus.h **** /* Define to prevent recursive inclusion -------------------------------------*/
  38:Drivers/STM32F0xx_HAL_Driver/Inc/stm32f0xx_ll_bus.h **** #ifndef __STM32F0xx_LL_BUS_H
  39:Drivers/STM32F0xx_HAL_Driver/Inc/stm32f0xx_ll_bus.h **** #define __STM32F0xx_LL_BUS_H
  40:Drivers/STM32F0xx_HAL_Driver/Inc/stm32f0xx_ll_bus.h **** 
  41:Drivers/STM32F0xx_HAL_Driver/Inc/stm32f0xx_ll_bus.h **** #ifdef __cplusplus
  42:Drivers/STM32F0xx_HAL_Driver/Inc/stm32f0xx_ll_bus.h **** extern "C" {
  43:Drivers/STM32F0xx_HAL_Driver/Inc/stm32f0xx_ll_bus.h **** #endif
  44:Drivers/STM32F0xx_HAL_Driver/Inc/stm32f0xx_ll_bus.h **** 
  45:Drivers/STM32F0xx_HAL_Driver/Inc/stm32f0xx_ll_bus.h **** /* Includes ------------------------------------------------------------------*/
  46:Drivers/STM32F0xx_HAL_Driver/Inc/stm32f0xx_ll_bus.h **** #include "stm32f0xx.h"
  47:Drivers/STM32F0xx_HAL_Driver/Inc/stm32f0xx_ll_bus.h **** 
  48:Drivers/STM32F0xx_HAL_Driver/Inc/stm32f0xx_ll_bus.h **** /** @addtogroup STM32F0xx_LL_Driver
  49:Drivers/STM32F0xx_HAL_Driver/Inc/stm32f0xx_ll_bus.h ****   * @{
  50:Drivers/STM32F0xx_HAL_Driver/Inc/stm32f0xx_ll_bus.h ****   */
  51:Drivers/STM32F0xx_HAL_Driver/Inc/stm32f0xx_ll_bus.h **** 
  52:Drivers/STM32F0xx_HAL_Driver/Inc/stm32f0xx_ll_bus.h **** #if defined(RCC)
  53:Drivers/STM32F0xx_HAL_Driver/Inc/stm32f0xx_ll_bus.h **** 
  54:Drivers/STM32F0xx_HAL_Driver/Inc/stm32f0xx_ll_bus.h **** /** @defgroup BUS_LL BUS
  55:Drivers/STM32F0xx_HAL_Driver/Inc/stm32f0xx_ll_bus.h ****   * @{
  56:Drivers/STM32F0xx_HAL_Driver/Inc/stm32f0xx_ll_bus.h ****   */
  57:Drivers/STM32F0xx_HAL_Driver/Inc/stm32f0xx_ll_bus.h **** 
  58:Drivers/STM32F0xx_HAL_Driver/Inc/stm32f0xx_ll_bus.h **** /* Private types -------------------------------------------------------------*/
  59:Drivers/STM32F0xx_HAL_Driver/Inc/stm32f0xx_ll_bus.h **** /* Private variables ---------------------------------------------------------*/
  60:Drivers/STM32F0xx_HAL_Driver/Inc/stm32f0xx_ll_bus.h **** 
  61:Drivers/STM32F0xx_HAL_Driver/Inc/stm32f0xx_ll_bus.h **** /* Private constants ---------------------------------------------------------*/
  62:Drivers/STM32F0xx_HAL_Driver/Inc/stm32f0xx_ll_bus.h **** 
  63:Drivers/STM32F0xx_HAL_Driver/Inc/stm32f0xx_ll_bus.h **** /* Private macros ------------------------------------------------------------*/
  64:Drivers/STM32F0xx_HAL_Driver/Inc/stm32f0xx_ll_bus.h **** 
  65:Drivers/STM32F0xx_HAL_Driver/Inc/stm32f0xx_ll_bus.h **** /* Exported types ------------------------------------------------------------*/
ARM GAS  C:\Users\ADMINI~1\AppData\Local\Temp\ccJZf5de.s 			page 4


  66:Drivers/STM32F0xx_HAL_Driver/Inc/stm32f0xx_ll_bus.h **** /* Exported constants --------------------------------------------------------*/
  67:Drivers/STM32F0xx_HAL_Driver/Inc/stm32f0xx_ll_bus.h **** /** @defgroup BUS_LL_Exported_Constants BUS Exported Constants
  68:Drivers/STM32F0xx_HAL_Driver/Inc/stm32f0xx_ll_bus.h ****   * @{
  69:Drivers/STM32F0xx_HAL_Driver/Inc/stm32f0xx_ll_bus.h ****   */
  70:Drivers/STM32F0xx_HAL_Driver/Inc/stm32f0xx_ll_bus.h **** 
  71:Drivers/STM32F0xx_HAL_Driver/Inc/stm32f0xx_ll_bus.h **** /** @defgroup BUS_LL_EC_AHB1_GRP1_PERIPH  AHB1 GRP1 PERIPH
  72:Drivers/STM32F0xx_HAL_Driver/Inc/stm32f0xx_ll_bus.h ****   * @{
  73:Drivers/STM32F0xx_HAL_Driver/Inc/stm32f0xx_ll_bus.h ****   */
  74:Drivers/STM32F0xx_HAL_Driver/Inc/stm32f0xx_ll_bus.h **** #define LL_AHB1_GRP1_PERIPH_ALL            (uint32_t)0xFFFFFFFFU
  75:Drivers/STM32F0xx_HAL_Driver/Inc/stm32f0xx_ll_bus.h **** #define LL_AHB1_GRP1_PERIPH_DMA1           RCC_AHBENR_DMA1EN
  76:Drivers/STM32F0xx_HAL_Driver/Inc/stm32f0xx_ll_bus.h **** #if defined(DMA2)
  77:Drivers/STM32F0xx_HAL_Driver/Inc/stm32f0xx_ll_bus.h **** #define LL_AHB1_GRP1_PERIPH_DMA2           RCC_AHBENR_DMA2EN
  78:Drivers/STM32F0xx_HAL_Driver/Inc/stm32f0xx_ll_bus.h **** #endif /*DMA2*/
  79:Drivers/STM32F0xx_HAL_Driver/Inc/stm32f0xx_ll_bus.h **** #define LL_AHB1_GRP1_PERIPH_SRAM           RCC_AHBENR_SRAMEN
  80:Drivers/STM32F0xx_HAL_Driver/Inc/stm32f0xx_ll_bus.h **** #define LL_AHB1_GRP1_PERIPH_FLASH          RCC_AHBENR_FLITFEN
  81:Drivers/STM32F0xx_HAL_Driver/Inc/stm32f0xx_ll_bus.h **** #define LL_AHB1_GRP1_PERIPH_CRC            RCC_AHBENR_CRCEN
  82:Drivers/STM32F0xx_HAL_Driver/Inc/stm32f0xx_ll_bus.h **** #define LL_AHB1_GRP1_PERIPH_GPIOA          RCC_AHBENR_GPIOAEN
  83:Drivers/STM32F0xx_HAL_Driver/Inc/stm32f0xx_ll_bus.h **** #define LL_AHB1_GRP1_PERIPH_GPIOB          RCC_AHBENR_GPIOBEN
  84:Drivers/STM32F0xx_HAL_Driver/Inc/stm32f0xx_ll_bus.h **** #define LL_AHB1_GRP1_PERIPH_GPIOC          RCC_AHBENR_GPIOCEN
  85:Drivers/STM32F0xx_HAL_Driver/Inc/stm32f0xx_ll_bus.h **** #if defined(GPIOD)
  86:Drivers/STM32F0xx_HAL_Driver/Inc/stm32f0xx_ll_bus.h **** #define LL_AHB1_GRP1_PERIPH_GPIOD          RCC_AHBENR_GPIODEN
  87:Drivers/STM32F0xx_HAL_Driver/Inc/stm32f0xx_ll_bus.h **** #endif /*GPIOD*/
  88:Drivers/STM32F0xx_HAL_Driver/Inc/stm32f0xx_ll_bus.h **** #if defined(GPIOE)
  89:Drivers/STM32F0xx_HAL_Driver/Inc/stm32f0xx_ll_bus.h **** #define LL_AHB1_GRP1_PERIPH_GPIOE          RCC_AHBENR_GPIOEEN
  90:Drivers/STM32F0xx_HAL_Driver/Inc/stm32f0xx_ll_bus.h **** #endif /*GPIOE*/
  91:Drivers/STM32F0xx_HAL_Driver/Inc/stm32f0xx_ll_bus.h **** #define LL_AHB1_GRP1_PERIPH_GPIOF          RCC_AHBENR_GPIOFEN
  92:Drivers/STM32F0xx_HAL_Driver/Inc/stm32f0xx_ll_bus.h **** #if defined(TSC)
  93:Drivers/STM32F0xx_HAL_Driver/Inc/stm32f0xx_ll_bus.h **** #define LL_AHB1_GRP1_PERIPH_TSC            RCC_AHBENR_TSCEN
  94:Drivers/STM32F0xx_HAL_Driver/Inc/stm32f0xx_ll_bus.h **** #endif /*TSC*/
  95:Drivers/STM32F0xx_HAL_Driver/Inc/stm32f0xx_ll_bus.h **** /**
  96:Drivers/STM32F0xx_HAL_Driver/Inc/stm32f0xx_ll_bus.h ****   * @}
  97:Drivers/STM32F0xx_HAL_Driver/Inc/stm32f0xx_ll_bus.h ****   */
  98:Drivers/STM32F0xx_HAL_Driver/Inc/stm32f0xx_ll_bus.h **** 
  99:Drivers/STM32F0xx_HAL_Driver/Inc/stm32f0xx_ll_bus.h **** /** @defgroup BUS_LL_EC_APB1_GRP1_PERIPH  APB1 GRP1 PERIPH
 100:Drivers/STM32F0xx_HAL_Driver/Inc/stm32f0xx_ll_bus.h ****   * @{
 101:Drivers/STM32F0xx_HAL_Driver/Inc/stm32f0xx_ll_bus.h ****   */
 102:Drivers/STM32F0xx_HAL_Driver/Inc/stm32f0xx_ll_bus.h **** #define LL_APB1_GRP1_PERIPH_ALL            (uint32_t)0xFFFFFFFFU
 103:Drivers/STM32F0xx_HAL_Driver/Inc/stm32f0xx_ll_bus.h **** #if defined(TIM2)
 104:Drivers/STM32F0xx_HAL_Driver/Inc/stm32f0xx_ll_bus.h **** #define LL_APB1_GRP1_PERIPH_TIM2           RCC_APB1ENR_TIM2EN
 105:Drivers/STM32F0xx_HAL_Driver/Inc/stm32f0xx_ll_bus.h **** #endif /*TIM2*/
 106:Drivers/STM32F0xx_HAL_Driver/Inc/stm32f0xx_ll_bus.h **** #define LL_APB1_GRP1_PERIPH_TIM3           RCC_APB1ENR_TIM3EN
 107:Drivers/STM32F0xx_HAL_Driver/Inc/stm32f0xx_ll_bus.h **** #if defined(TIM6)
 108:Drivers/STM32F0xx_HAL_Driver/Inc/stm32f0xx_ll_bus.h **** #define LL_APB1_GRP1_PERIPH_TIM6           RCC_APB1ENR_TIM6EN
 109:Drivers/STM32F0xx_HAL_Driver/Inc/stm32f0xx_ll_bus.h **** #endif /*TIM6*/
 110:Drivers/STM32F0xx_HAL_Driver/Inc/stm32f0xx_ll_bus.h **** #if defined(TIM7)
 111:Drivers/STM32F0xx_HAL_Driver/Inc/stm32f0xx_ll_bus.h **** #define LL_APB1_GRP1_PERIPH_TIM7           RCC_APB1ENR_TIM7EN
 112:Drivers/STM32F0xx_HAL_Driver/Inc/stm32f0xx_ll_bus.h **** #endif /*TIM7*/
 113:Drivers/STM32F0xx_HAL_Driver/Inc/stm32f0xx_ll_bus.h **** #define LL_APB1_GRP1_PERIPH_TIM14          RCC_APB1ENR_TIM14EN
 114:Drivers/STM32F0xx_HAL_Driver/Inc/stm32f0xx_ll_bus.h **** #define LL_APB1_GRP1_PERIPH_WWDG           RCC_APB1ENR_WWDGEN
 115:Drivers/STM32F0xx_HAL_Driver/Inc/stm32f0xx_ll_bus.h **** #if defined(SPI2)
 116:Drivers/STM32F0xx_HAL_Driver/Inc/stm32f0xx_ll_bus.h **** #define LL_APB1_GRP1_PERIPH_SPI2           RCC_APB1ENR_SPI2EN
 117:Drivers/STM32F0xx_HAL_Driver/Inc/stm32f0xx_ll_bus.h **** #endif /*SPI2*/
 118:Drivers/STM32F0xx_HAL_Driver/Inc/stm32f0xx_ll_bus.h **** #if defined(USART2)
 119:Drivers/STM32F0xx_HAL_Driver/Inc/stm32f0xx_ll_bus.h **** #define LL_APB1_GRP1_PERIPH_USART2         RCC_APB1ENR_USART2EN
 120:Drivers/STM32F0xx_HAL_Driver/Inc/stm32f0xx_ll_bus.h **** #endif /* USART2 */
 121:Drivers/STM32F0xx_HAL_Driver/Inc/stm32f0xx_ll_bus.h **** #if defined(USART3)
 122:Drivers/STM32F0xx_HAL_Driver/Inc/stm32f0xx_ll_bus.h **** #define LL_APB1_GRP1_PERIPH_USART3         RCC_APB1ENR_USART3EN
ARM GAS  C:\Users\ADMINI~1\AppData\Local\Temp\ccJZf5de.s 			page 5


 123:Drivers/STM32F0xx_HAL_Driver/Inc/stm32f0xx_ll_bus.h **** #endif /* USART3 */
 124:Drivers/STM32F0xx_HAL_Driver/Inc/stm32f0xx_ll_bus.h **** #if defined(USART4)
 125:Drivers/STM32F0xx_HAL_Driver/Inc/stm32f0xx_ll_bus.h **** #define LL_APB1_GRP1_PERIPH_USART4         RCC_APB1ENR_USART4EN
 126:Drivers/STM32F0xx_HAL_Driver/Inc/stm32f0xx_ll_bus.h **** #endif /* USART4 */
 127:Drivers/STM32F0xx_HAL_Driver/Inc/stm32f0xx_ll_bus.h **** #if defined(USART5)
 128:Drivers/STM32F0xx_HAL_Driver/Inc/stm32f0xx_ll_bus.h **** #define LL_APB1_GRP1_PERIPH_USART5         RCC_APB1ENR_USART5EN
 129:Drivers/STM32F0xx_HAL_Driver/Inc/stm32f0xx_ll_bus.h **** #endif /* USART5 */
 130:Drivers/STM32F0xx_HAL_Driver/Inc/stm32f0xx_ll_bus.h **** #define LL_APB1_GRP1_PERIPH_I2C1           RCC_APB1ENR_I2C1EN
 131:Drivers/STM32F0xx_HAL_Driver/Inc/stm32f0xx_ll_bus.h **** #if defined(I2C2)
 132:Drivers/STM32F0xx_HAL_Driver/Inc/stm32f0xx_ll_bus.h **** #define LL_APB1_GRP1_PERIPH_I2C2           RCC_APB1ENR_I2C2EN
 133:Drivers/STM32F0xx_HAL_Driver/Inc/stm32f0xx_ll_bus.h **** #endif /*I2C2*/
 134:Drivers/STM32F0xx_HAL_Driver/Inc/stm32f0xx_ll_bus.h **** #if defined(USB)
 135:Drivers/STM32F0xx_HAL_Driver/Inc/stm32f0xx_ll_bus.h **** #define LL_APB1_GRP1_PERIPH_USB            RCC_APB1ENR_USBEN
 136:Drivers/STM32F0xx_HAL_Driver/Inc/stm32f0xx_ll_bus.h **** #endif /* USB */
 137:Drivers/STM32F0xx_HAL_Driver/Inc/stm32f0xx_ll_bus.h **** #if defined(CAN)
 138:Drivers/STM32F0xx_HAL_Driver/Inc/stm32f0xx_ll_bus.h **** #define LL_APB1_GRP1_PERIPH_CAN            RCC_APB1ENR_CANEN
 139:Drivers/STM32F0xx_HAL_Driver/Inc/stm32f0xx_ll_bus.h **** #endif /*CAN*/
 140:Drivers/STM32F0xx_HAL_Driver/Inc/stm32f0xx_ll_bus.h **** #if defined(CRS)
 141:Drivers/STM32F0xx_HAL_Driver/Inc/stm32f0xx_ll_bus.h **** #define LL_APB1_GRP1_PERIPH_CRS            RCC_APB1ENR_CRSEN
 142:Drivers/STM32F0xx_HAL_Driver/Inc/stm32f0xx_ll_bus.h **** #endif /*CRS*/
 143:Drivers/STM32F0xx_HAL_Driver/Inc/stm32f0xx_ll_bus.h **** #define LL_APB1_GRP1_PERIPH_PWR            RCC_APB1ENR_PWREN
 144:Drivers/STM32F0xx_HAL_Driver/Inc/stm32f0xx_ll_bus.h **** #if defined(DAC)
 145:Drivers/STM32F0xx_HAL_Driver/Inc/stm32f0xx_ll_bus.h **** #define LL_APB1_GRP1_PERIPH_DAC1           RCC_APB1ENR_DACEN
 146:Drivers/STM32F0xx_HAL_Driver/Inc/stm32f0xx_ll_bus.h **** #endif /*DAC*/
 147:Drivers/STM32F0xx_HAL_Driver/Inc/stm32f0xx_ll_bus.h **** #if defined(CEC)
 148:Drivers/STM32F0xx_HAL_Driver/Inc/stm32f0xx_ll_bus.h **** #define LL_APB1_GRP1_PERIPH_CEC            RCC_APB1ENR_CECEN
 149:Drivers/STM32F0xx_HAL_Driver/Inc/stm32f0xx_ll_bus.h **** #endif /*CEC*/
 150:Drivers/STM32F0xx_HAL_Driver/Inc/stm32f0xx_ll_bus.h **** /**
 151:Drivers/STM32F0xx_HAL_Driver/Inc/stm32f0xx_ll_bus.h ****   * @}
 152:Drivers/STM32F0xx_HAL_Driver/Inc/stm32f0xx_ll_bus.h ****   */
 153:Drivers/STM32F0xx_HAL_Driver/Inc/stm32f0xx_ll_bus.h **** 
 154:Drivers/STM32F0xx_HAL_Driver/Inc/stm32f0xx_ll_bus.h **** /** @defgroup BUS_LL_EC_APB1_GRP2_PERIPH  APB1 GRP2 PERIPH
 155:Drivers/STM32F0xx_HAL_Driver/Inc/stm32f0xx_ll_bus.h ****   * @{
 156:Drivers/STM32F0xx_HAL_Driver/Inc/stm32f0xx_ll_bus.h ****   */
 157:Drivers/STM32F0xx_HAL_Driver/Inc/stm32f0xx_ll_bus.h **** #define LL_APB1_GRP2_PERIPH_ALL            (uint32_t)0xFFFFFFFFU
 158:Drivers/STM32F0xx_HAL_Driver/Inc/stm32f0xx_ll_bus.h **** #define LL_APB1_GRP2_PERIPH_SYSCFG         RCC_APB2ENR_SYSCFGEN
 159:Drivers/STM32F0xx_HAL_Driver/Inc/stm32f0xx_ll_bus.h **** #define LL_APB1_GRP2_PERIPH_ADC1           RCC_APB2ENR_ADC1EN
 160:Drivers/STM32F0xx_HAL_Driver/Inc/stm32f0xx_ll_bus.h **** #if defined(USART8)
 161:Drivers/STM32F0xx_HAL_Driver/Inc/stm32f0xx_ll_bus.h **** #define LL_APB1_GRP2_PERIPH_USART8         RCC_APB2ENR_USART8EN
 162:Drivers/STM32F0xx_HAL_Driver/Inc/stm32f0xx_ll_bus.h **** #endif /*USART8*/
 163:Drivers/STM32F0xx_HAL_Driver/Inc/stm32f0xx_ll_bus.h **** #if defined(USART7)
 164:Drivers/STM32F0xx_HAL_Driver/Inc/stm32f0xx_ll_bus.h **** #define LL_APB1_GRP2_PERIPH_USART7         RCC_APB2ENR_USART7EN
 165:Drivers/STM32F0xx_HAL_Driver/Inc/stm32f0xx_ll_bus.h **** #endif /*USART7*/
 166:Drivers/STM32F0xx_HAL_Driver/Inc/stm32f0xx_ll_bus.h **** #if defined(USART6)
 167:Drivers/STM32F0xx_HAL_Driver/Inc/stm32f0xx_ll_bus.h **** #define LL_APB1_GRP2_PERIPH_USART6         RCC_APB2ENR_USART6EN
 168:Drivers/STM32F0xx_HAL_Driver/Inc/stm32f0xx_ll_bus.h **** #endif /*USART6*/
 169:Drivers/STM32F0xx_HAL_Driver/Inc/stm32f0xx_ll_bus.h **** #define LL_APB1_GRP2_PERIPH_TIM1           RCC_APB2ENR_TIM1EN
 170:Drivers/STM32F0xx_HAL_Driver/Inc/stm32f0xx_ll_bus.h **** #define LL_APB1_GRP2_PERIPH_SPI1           RCC_APB2ENR_SPI1EN
 171:Drivers/STM32F0xx_HAL_Driver/Inc/stm32f0xx_ll_bus.h **** #define LL_APB1_GRP2_PERIPH_USART1         RCC_APB2ENR_USART1EN
 172:Drivers/STM32F0xx_HAL_Driver/Inc/stm32f0xx_ll_bus.h **** #if defined(TIM15)
 173:Drivers/STM32F0xx_HAL_Driver/Inc/stm32f0xx_ll_bus.h **** #define LL_APB1_GRP2_PERIPH_TIM15          RCC_APB2ENR_TIM15EN
 174:Drivers/STM32F0xx_HAL_Driver/Inc/stm32f0xx_ll_bus.h **** #endif /*TIM15*/
 175:Drivers/STM32F0xx_HAL_Driver/Inc/stm32f0xx_ll_bus.h **** #define LL_APB1_GRP2_PERIPH_TIM16          RCC_APB2ENR_TIM16EN
 176:Drivers/STM32F0xx_HAL_Driver/Inc/stm32f0xx_ll_bus.h **** #define LL_APB1_GRP2_PERIPH_TIM17          RCC_APB2ENR_TIM17EN
 177:Drivers/STM32F0xx_HAL_Driver/Inc/stm32f0xx_ll_bus.h **** #define LL_APB1_GRP2_PERIPH_DBGMCU         RCC_APB2ENR_DBGMCUEN
 178:Drivers/STM32F0xx_HAL_Driver/Inc/stm32f0xx_ll_bus.h **** /**
 179:Drivers/STM32F0xx_HAL_Driver/Inc/stm32f0xx_ll_bus.h ****   * @}
ARM GAS  C:\Users\ADMINI~1\AppData\Local\Temp\ccJZf5de.s 			page 6


 180:Drivers/STM32F0xx_HAL_Driver/Inc/stm32f0xx_ll_bus.h ****   */
 181:Drivers/STM32F0xx_HAL_Driver/Inc/stm32f0xx_ll_bus.h **** 
 182:Drivers/STM32F0xx_HAL_Driver/Inc/stm32f0xx_ll_bus.h **** /**
 183:Drivers/STM32F0xx_HAL_Driver/Inc/stm32f0xx_ll_bus.h ****   * @}
 184:Drivers/STM32F0xx_HAL_Driver/Inc/stm32f0xx_ll_bus.h ****   */
 185:Drivers/STM32F0xx_HAL_Driver/Inc/stm32f0xx_ll_bus.h **** 
 186:Drivers/STM32F0xx_HAL_Driver/Inc/stm32f0xx_ll_bus.h **** /* Exported macro ------------------------------------------------------------*/
 187:Drivers/STM32F0xx_HAL_Driver/Inc/stm32f0xx_ll_bus.h **** /* Exported functions --------------------------------------------------------*/
 188:Drivers/STM32F0xx_HAL_Driver/Inc/stm32f0xx_ll_bus.h **** /** @defgroup BUS_LL_Exported_Functions BUS Exported Functions
 189:Drivers/STM32F0xx_HAL_Driver/Inc/stm32f0xx_ll_bus.h ****   * @{
 190:Drivers/STM32F0xx_HAL_Driver/Inc/stm32f0xx_ll_bus.h ****   */
 191:Drivers/STM32F0xx_HAL_Driver/Inc/stm32f0xx_ll_bus.h **** 
 192:Drivers/STM32F0xx_HAL_Driver/Inc/stm32f0xx_ll_bus.h **** /** @defgroup BUS_LL_EF_AHB1 AHB1
 193:Drivers/STM32F0xx_HAL_Driver/Inc/stm32f0xx_ll_bus.h ****   * @{
 194:Drivers/STM32F0xx_HAL_Driver/Inc/stm32f0xx_ll_bus.h ****   */
 195:Drivers/STM32F0xx_HAL_Driver/Inc/stm32f0xx_ll_bus.h **** 
 196:Drivers/STM32F0xx_HAL_Driver/Inc/stm32f0xx_ll_bus.h **** /**
 197:Drivers/STM32F0xx_HAL_Driver/Inc/stm32f0xx_ll_bus.h ****   * @brief  Enable AHB1 peripherals clock.
 198:Drivers/STM32F0xx_HAL_Driver/Inc/stm32f0xx_ll_bus.h ****   * @rmtoll AHBENR       DMA1EN        LL_AHB1_GRP1_EnableClock\n
 199:Drivers/STM32F0xx_HAL_Driver/Inc/stm32f0xx_ll_bus.h ****   *         AHBENR       DMA2EN        LL_AHB1_GRP1_EnableClock\n
 200:Drivers/STM32F0xx_HAL_Driver/Inc/stm32f0xx_ll_bus.h ****   *         AHBENR       SRAMEN        LL_AHB1_GRP1_EnableClock\n
 201:Drivers/STM32F0xx_HAL_Driver/Inc/stm32f0xx_ll_bus.h ****   *         AHBENR       FLITFEN       LL_AHB1_GRP1_EnableClock\n
 202:Drivers/STM32F0xx_HAL_Driver/Inc/stm32f0xx_ll_bus.h ****   *         AHBENR       CRCEN         LL_AHB1_GRP1_EnableClock\n
 203:Drivers/STM32F0xx_HAL_Driver/Inc/stm32f0xx_ll_bus.h ****   *         AHBENR       GPIOAEN       LL_AHB1_GRP1_EnableClock\n
 204:Drivers/STM32F0xx_HAL_Driver/Inc/stm32f0xx_ll_bus.h ****   *         AHBENR       GPIOBEN       LL_AHB1_GRP1_EnableClock\n
 205:Drivers/STM32F0xx_HAL_Driver/Inc/stm32f0xx_ll_bus.h ****   *         AHBENR       GPIOCEN       LL_AHB1_GRP1_EnableClock\n
 206:Drivers/STM32F0xx_HAL_Driver/Inc/stm32f0xx_ll_bus.h ****   *         AHBENR       GPIODEN       LL_AHB1_GRP1_EnableClock\n
 207:Drivers/STM32F0xx_HAL_Driver/Inc/stm32f0xx_ll_bus.h ****   *         AHBENR       GPIOEEN       LL_AHB1_GRP1_EnableClock\n
 208:Drivers/STM32F0xx_HAL_Driver/Inc/stm32f0xx_ll_bus.h ****   *         AHBENR       GPIOFEN       LL_AHB1_GRP1_EnableClock\n
 209:Drivers/STM32F0xx_HAL_Driver/Inc/stm32f0xx_ll_bus.h ****   *         AHBENR       TSCEN         LL_AHB1_GRP1_EnableClock
 210:Drivers/STM32F0xx_HAL_Driver/Inc/stm32f0xx_ll_bus.h ****   * @param  Periphs This parameter can be a combination of the following values:
 211:Drivers/STM32F0xx_HAL_Driver/Inc/stm32f0xx_ll_bus.h ****   *         @arg @ref LL_AHB1_GRP1_PERIPH_DMA1
 212:Drivers/STM32F0xx_HAL_Driver/Inc/stm32f0xx_ll_bus.h ****   *         @arg @ref LL_AHB1_GRP1_PERIPH_DMA2 (*)
 213:Drivers/STM32F0xx_HAL_Driver/Inc/stm32f0xx_ll_bus.h ****   *         @arg @ref LL_AHB1_GRP1_PERIPH_SRAM
 214:Drivers/STM32F0xx_HAL_Driver/Inc/stm32f0xx_ll_bus.h ****   *         @arg @ref LL_AHB1_GRP1_PERIPH_FLASH
 215:Drivers/STM32F0xx_HAL_Driver/Inc/stm32f0xx_ll_bus.h ****   *         @arg @ref LL_AHB1_GRP1_PERIPH_CRC
 216:Drivers/STM32F0xx_HAL_Driver/Inc/stm32f0xx_ll_bus.h ****   *         @arg @ref LL_AHB1_GRP1_PERIPH_GPIOA
 217:Drivers/STM32F0xx_HAL_Driver/Inc/stm32f0xx_ll_bus.h ****   *         @arg @ref LL_AHB1_GRP1_PERIPH_GPIOB
 218:Drivers/STM32F0xx_HAL_Driver/Inc/stm32f0xx_ll_bus.h ****   *         @arg @ref LL_AHB1_GRP1_PERIPH_GPIOC
 219:Drivers/STM32F0xx_HAL_Driver/Inc/stm32f0xx_ll_bus.h ****   *         @arg @ref LL_AHB1_GRP1_PERIPH_GPIOD (*)
 220:Drivers/STM32F0xx_HAL_Driver/Inc/stm32f0xx_ll_bus.h ****   *         @arg @ref LL_AHB1_GRP1_PERIPH_GPIOE (*)
 221:Drivers/STM32F0xx_HAL_Driver/Inc/stm32f0xx_ll_bus.h ****   *         @arg @ref LL_AHB1_GRP1_PERIPH_GPIOF
 222:Drivers/STM32F0xx_HAL_Driver/Inc/stm32f0xx_ll_bus.h ****   *         @arg @ref LL_AHB1_GRP1_PERIPH_TSC (*)
 223:Drivers/STM32F0xx_HAL_Driver/Inc/stm32f0xx_ll_bus.h ****   *
 224:Drivers/STM32F0xx_HAL_Driver/Inc/stm32f0xx_ll_bus.h ****   *         (*) value not defined in all devices.
 225:Drivers/STM32F0xx_HAL_Driver/Inc/stm32f0xx_ll_bus.h ****   * @retval None
 226:Drivers/STM32F0xx_HAL_Driver/Inc/stm32f0xx_ll_bus.h **** */
 227:Drivers/STM32F0xx_HAL_Driver/Inc/stm32f0xx_ll_bus.h **** __STATIC_INLINE void LL_AHB1_GRP1_EnableClock(uint32_t Periphs)
  67              		.loc 2 227 22 view .LVU6
  68              	.LBB109:
 228:Drivers/STM32F0xx_HAL_Driver/Inc/stm32f0xx_ll_bus.h **** {
 229:Drivers/STM32F0xx_HAL_Driver/Inc/stm32f0xx_ll_bus.h ****   __IO uint32_t tmpreg;
  69              		.loc 2 229 3 view .LVU7
 230:Drivers/STM32F0xx_HAL_Driver/Inc/stm32f0xx_ll_bus.h ****   SET_BIT(RCC->AHBENR, Periphs);
  70              		.loc 2 230 3 view .LVU8
  71 001e 484C     		ldr	r4, .L2
  72 0020 6269     		ldr	r2, [r4, #20]
ARM GAS  C:\Users\ADMINI~1\AppData\Local\Temp\ccJZf5de.s 			page 7


  73 0022 8021     		movs	r1, #128
  74 0024 8902     		lsls	r1, r1, #10
  75 0026 0A43     		orrs	r2, r1
  76 0028 6261     		str	r2, [r4, #20]
 231:Drivers/STM32F0xx_HAL_Driver/Inc/stm32f0xx_ll_bus.h ****   /* Delay after an RCC peripheral clock enabling */
 232:Drivers/STM32F0xx_HAL_Driver/Inc/stm32f0xx_ll_bus.h ****   tmpreg = READ_BIT(RCC->AHBENR, Periphs);
  77              		.loc 2 232 3 view .LVU9
  78              		.loc 2 232 12 is_stmt 0 view .LVU10
  79 002a 6369     		ldr	r3, [r4, #20]
  80 002c 0B40     		ands	r3, r1
  81              		.loc 2 232 10 view .LVU11
  82 002e 0293     		str	r3, [sp, #8]
 233:Drivers/STM32F0xx_HAL_Driver/Inc/stm32f0xx_ll_bus.h ****   (void)tmpreg;
  83              		.loc 2 233 3 is_stmt 1 view .LVU12
  84 0030 029B     		ldr	r3, [sp, #8]
  85              	.LVL2:
  86              		.loc 2 233 3 is_stmt 0 view .LVU13
  87              	.LBE109:
  88              	.LBE108:
  42:Src/i2c.c     ****   /**I2C1 GPIO Configuration
  43:Src/i2c.c     ****   PA9   ------> I2C1_SCL
  44:Src/i2c.c     ****   PA10   ------> I2C1_SDA
  45:Src/i2c.c     ****   */
  46:Src/i2c.c     ****   GPIO_InitStruct.Pin = LL_GPIO_PIN_9;
  89              		.loc 1 46 3 is_stmt 1 view .LVU14
  90              		.loc 1 46 23 is_stmt 0 view .LVU15
  91 0032 8023     		movs	r3, #128
  92 0034 9B00     		lsls	r3, r3, #2
  93 0036 0393     		str	r3, [sp, #12]
  47:Src/i2c.c     ****   GPIO_InitStruct.Mode = LL_GPIO_MODE_ALTERNATE;
  94              		.loc 1 47 3 is_stmt 1 view .LVU16
  95              		.loc 1 47 24 is_stmt 0 view .LVU17
  96 0038 FF3B     		subs	r3, r3, #255
  97 003a FF3B     		subs	r3, r3, #255
  98 003c 9946     		mov	r9, r3
  99 003e 0493     		str	r3, [sp, #16]
  48:Src/i2c.c     ****   GPIO_InitStruct.Speed = LL_GPIO_SPEED_FREQ_HIGH;
 100              		.loc 1 48 3 is_stmt 1 view .LVU18
 101              		.loc 1 48 25 is_stmt 0 view .LVU19
 102 0040 0325     		movs	r5, #3
 103 0042 0595     		str	r5, [sp, #20]
  49:Src/i2c.c     ****   GPIO_InitStruct.OutputType = LL_GPIO_OUTPUT_OPENDRAIN;
 104              		.loc 1 49 3 is_stmt 1 view .LVU20
 105              		.loc 1 49 30 is_stmt 0 view .LVU21
 106 0044 0126     		movs	r6, #1
 107 0046 0696     		str	r6, [sp, #24]
  50:Src/i2c.c     ****   GPIO_InitStruct.Pull = LL_GPIO_PULL_NO;
 108              		.loc 1 50 3 is_stmt 1 view .LVU22
  51:Src/i2c.c     ****   GPIO_InitStruct.Alternate = LL_GPIO_AF_4;
 109              		.loc 1 51 3 view .LVU23
 110              		.loc 1 51 29 is_stmt 0 view .LVU24
 111 0048 0233     		adds	r3, r3, #2
 112 004a 9846     		mov	r8, r3
 113 004c 0893     		str	r3, [sp, #32]
  52:Src/i2c.c     ****   LL_GPIO_Init(GPIOA, &GPIO_InitStruct);
 114              		.loc 1 52 3 is_stmt 1 view .LVU25
 115 004e 9027     		movs	r7, #144
ARM GAS  C:\Users\ADMINI~1\AppData\Local\Temp\ccJZf5de.s 			page 8


 116 0050 FF05     		lsls	r7, r7, #23
 117 0052 03A9     		add	r1, sp, #12
 118 0054 3800     		movs	r0, r7
 119 0056 FFF7FEFF 		bl	LL_GPIO_Init
 120              	.LVL3:
  53:Src/i2c.c     **** 
  54:Src/i2c.c     ****   GPIO_InitStruct.Pin = LL_GPIO_PIN_10;
 121              		.loc 1 54 3 view .LVU26
 122              		.loc 1 54 23 is_stmt 0 view .LVU27
 123 005a 8023     		movs	r3, #128
 124 005c DB00     		lsls	r3, r3, #3
 125 005e 0393     		str	r3, [sp, #12]
  55:Src/i2c.c     ****   GPIO_InitStruct.Mode = LL_GPIO_MODE_ALTERNATE;
 126              		.loc 1 55 3 is_stmt 1 view .LVU28
 127              		.loc 1 55 24 is_stmt 0 view .LVU29
 128 0060 4B46     		mov	r3, r9
 129 0062 0493     		str	r3, [sp, #16]
  56:Src/i2c.c     ****   GPIO_InitStruct.Speed = LL_GPIO_SPEED_FREQ_HIGH;
 130              		.loc 1 56 3 is_stmt 1 view .LVU30
 131              		.loc 1 56 25 is_stmt 0 view .LVU31
 132 0064 0595     		str	r5, [sp, #20]
  57:Src/i2c.c     ****   GPIO_InitStruct.OutputType = LL_GPIO_OUTPUT_OPENDRAIN;
 133              		.loc 1 57 3 is_stmt 1 view .LVU32
 134              		.loc 1 57 30 is_stmt 0 view .LVU33
 135 0066 0696     		str	r6, [sp, #24]
  58:Src/i2c.c     ****   GPIO_InitStruct.Pull = LL_GPIO_PULL_NO;
 136              		.loc 1 58 3 is_stmt 1 view .LVU34
 137              		.loc 1 58 24 is_stmt 0 view .LVU35
 138 0068 0025     		movs	r5, #0
 139 006a 0795     		str	r5, [sp, #28]
  59:Src/i2c.c     ****   GPIO_InitStruct.Alternate = LL_GPIO_AF_4;
 140              		.loc 1 59 3 is_stmt 1 view .LVU36
 141              		.loc 1 59 29 is_stmt 0 view .LVU37
 142 006c 4346     		mov	r3, r8
 143 006e 0893     		str	r3, [sp, #32]
  60:Src/i2c.c     ****   LL_GPIO_Init(GPIOA, &GPIO_InitStruct);
 144              		.loc 1 60 3 is_stmt 1 view .LVU38
 145 0070 03A9     		add	r1, sp, #12
 146 0072 3800     		movs	r0, r7
 147 0074 FFF7FEFF 		bl	LL_GPIO_Init
 148              	.LVL4:
  61:Src/i2c.c     **** 
  62:Src/i2c.c     ****   /* Peripheral clock enable */
  63:Src/i2c.c     ****   LL_APB1_GRP1_EnableClock(LL_APB1_GRP1_PERIPH_I2C1);
 149              		.loc 1 63 3 view .LVU39
 150              	.LBB110:
 151              	.LBI110:
 234:Drivers/STM32F0xx_HAL_Driver/Inc/stm32f0xx_ll_bus.h **** }
 235:Drivers/STM32F0xx_HAL_Driver/Inc/stm32f0xx_ll_bus.h **** 
 236:Drivers/STM32F0xx_HAL_Driver/Inc/stm32f0xx_ll_bus.h **** /**
 237:Drivers/STM32F0xx_HAL_Driver/Inc/stm32f0xx_ll_bus.h ****   * @brief  Check if AHB1 peripheral clock is enabled or not
 238:Drivers/STM32F0xx_HAL_Driver/Inc/stm32f0xx_ll_bus.h ****   * @rmtoll AHBENR       DMA1EN        LL_AHB1_GRP1_IsEnabledClock\n
 239:Drivers/STM32F0xx_HAL_Driver/Inc/stm32f0xx_ll_bus.h ****   *         AHBENR       DMA2EN        LL_AHB1_GRP1_IsEnabledClock\n
 240:Drivers/STM32F0xx_HAL_Driver/Inc/stm32f0xx_ll_bus.h ****   *         AHBENR       SRAMEN        LL_AHB1_GRP1_IsEnabledClock\n
 241:Drivers/STM32F0xx_HAL_Driver/Inc/stm32f0xx_ll_bus.h ****   *         AHBENR       FLITFEN       LL_AHB1_GRP1_IsEnabledClock\n
 242:Drivers/STM32F0xx_HAL_Driver/Inc/stm32f0xx_ll_bus.h ****   *         AHBENR       CRCEN         LL_AHB1_GRP1_IsEnabledClock\n
 243:Drivers/STM32F0xx_HAL_Driver/Inc/stm32f0xx_ll_bus.h ****   *         AHBENR       GPIOAEN       LL_AHB1_GRP1_IsEnabledClock\n
ARM GAS  C:\Users\ADMINI~1\AppData\Local\Temp\ccJZf5de.s 			page 9


 244:Drivers/STM32F0xx_HAL_Driver/Inc/stm32f0xx_ll_bus.h ****   *         AHBENR       GPIOBEN       LL_AHB1_GRP1_IsEnabledClock\n
 245:Drivers/STM32F0xx_HAL_Driver/Inc/stm32f0xx_ll_bus.h ****   *         AHBENR       GPIOCEN       LL_AHB1_GRP1_IsEnabledClock\n
 246:Drivers/STM32F0xx_HAL_Driver/Inc/stm32f0xx_ll_bus.h ****   *         AHBENR       GPIODEN       LL_AHB1_GRP1_IsEnabledClock\n
 247:Drivers/STM32F0xx_HAL_Driver/Inc/stm32f0xx_ll_bus.h ****   *         AHBENR       GPIOEEN       LL_AHB1_GRP1_IsEnabledClock\n
 248:Drivers/STM32F0xx_HAL_Driver/Inc/stm32f0xx_ll_bus.h ****   *         AHBENR       GPIOFEN       LL_AHB1_GRP1_IsEnabledClock\n
 249:Drivers/STM32F0xx_HAL_Driver/Inc/stm32f0xx_ll_bus.h ****   *         AHBENR       TSCEN         LL_AHB1_GRP1_IsEnabledClock
 250:Drivers/STM32F0xx_HAL_Driver/Inc/stm32f0xx_ll_bus.h ****   * @param  Periphs This parameter can be a combination of the following values:
 251:Drivers/STM32F0xx_HAL_Driver/Inc/stm32f0xx_ll_bus.h ****   *         @arg @ref LL_AHB1_GRP1_PERIPH_DMA1
 252:Drivers/STM32F0xx_HAL_Driver/Inc/stm32f0xx_ll_bus.h ****   *         @arg @ref LL_AHB1_GRP1_PERIPH_DMA2 (*)
 253:Drivers/STM32F0xx_HAL_Driver/Inc/stm32f0xx_ll_bus.h ****   *         @arg @ref LL_AHB1_GRP1_PERIPH_SRAM
 254:Drivers/STM32F0xx_HAL_Driver/Inc/stm32f0xx_ll_bus.h ****   *         @arg @ref LL_AHB1_GRP1_PERIPH_FLASH
 255:Drivers/STM32F0xx_HAL_Driver/Inc/stm32f0xx_ll_bus.h ****   *         @arg @ref LL_AHB1_GRP1_PERIPH_CRC
 256:Drivers/STM32F0xx_HAL_Driver/Inc/stm32f0xx_ll_bus.h ****   *         @arg @ref LL_AHB1_GRP1_PERIPH_GPIOA
 257:Drivers/STM32F0xx_HAL_Driver/Inc/stm32f0xx_ll_bus.h ****   *         @arg @ref LL_AHB1_GRP1_PERIPH_GPIOB
 258:Drivers/STM32F0xx_HAL_Driver/Inc/stm32f0xx_ll_bus.h ****   *         @arg @ref LL_AHB1_GRP1_PERIPH_GPIOC
 259:Drivers/STM32F0xx_HAL_Driver/Inc/stm32f0xx_ll_bus.h ****   *         @arg @ref LL_AHB1_GRP1_PERIPH_GPIOD (*)
 260:Drivers/STM32F0xx_HAL_Driver/Inc/stm32f0xx_ll_bus.h ****   *         @arg @ref LL_AHB1_GRP1_PERIPH_GPIOE (*)
 261:Drivers/STM32F0xx_HAL_Driver/Inc/stm32f0xx_ll_bus.h ****   *         @arg @ref LL_AHB1_GRP1_PERIPH_GPIOF
 262:Drivers/STM32F0xx_HAL_Driver/Inc/stm32f0xx_ll_bus.h ****   *         @arg @ref LL_AHB1_GRP1_PERIPH_TSC (*)
 263:Drivers/STM32F0xx_HAL_Driver/Inc/stm32f0xx_ll_bus.h ****   *
 264:Drivers/STM32F0xx_HAL_Driver/Inc/stm32f0xx_ll_bus.h ****   *         (*) value not defined in all devices.
 265:Drivers/STM32F0xx_HAL_Driver/Inc/stm32f0xx_ll_bus.h ****   * @retval State of Periphs (1 or 0).
 266:Drivers/STM32F0xx_HAL_Driver/Inc/stm32f0xx_ll_bus.h **** */
 267:Drivers/STM32F0xx_HAL_Driver/Inc/stm32f0xx_ll_bus.h **** __STATIC_INLINE uint32_t LL_AHB1_GRP1_IsEnabledClock(uint32_t Periphs)
 268:Drivers/STM32F0xx_HAL_Driver/Inc/stm32f0xx_ll_bus.h **** {
 269:Drivers/STM32F0xx_HAL_Driver/Inc/stm32f0xx_ll_bus.h ****   return (READ_BIT(RCC->AHBENR, Periphs) == Periphs);
 270:Drivers/STM32F0xx_HAL_Driver/Inc/stm32f0xx_ll_bus.h **** }
 271:Drivers/STM32F0xx_HAL_Driver/Inc/stm32f0xx_ll_bus.h **** 
 272:Drivers/STM32F0xx_HAL_Driver/Inc/stm32f0xx_ll_bus.h **** /**
 273:Drivers/STM32F0xx_HAL_Driver/Inc/stm32f0xx_ll_bus.h ****   * @brief  Disable AHB1 peripherals clock.
 274:Drivers/STM32F0xx_HAL_Driver/Inc/stm32f0xx_ll_bus.h ****   * @rmtoll AHBENR       DMA1EN        LL_AHB1_GRP1_DisableClock\n
 275:Drivers/STM32F0xx_HAL_Driver/Inc/stm32f0xx_ll_bus.h ****   *         AHBENR       DMA2EN        LL_AHB1_GRP1_DisableClock\n
 276:Drivers/STM32F0xx_HAL_Driver/Inc/stm32f0xx_ll_bus.h ****   *         AHBENR       SRAMEN        LL_AHB1_GRP1_DisableClock\n
 277:Drivers/STM32F0xx_HAL_Driver/Inc/stm32f0xx_ll_bus.h ****   *         AHBENR       FLITFEN       LL_AHB1_GRP1_DisableClock\n
 278:Drivers/STM32F0xx_HAL_Driver/Inc/stm32f0xx_ll_bus.h ****   *         AHBENR       CRCEN         LL_AHB1_GRP1_DisableClock\n
 279:Drivers/STM32F0xx_HAL_Driver/Inc/stm32f0xx_ll_bus.h ****   *         AHBENR       GPIOAEN       LL_AHB1_GRP1_DisableClock\n
 280:Drivers/STM32F0xx_HAL_Driver/Inc/stm32f0xx_ll_bus.h ****   *         AHBENR       GPIOBEN       LL_AHB1_GRP1_DisableClock\n
 281:Drivers/STM32F0xx_HAL_Driver/Inc/stm32f0xx_ll_bus.h ****   *         AHBENR       GPIOCEN       LL_AHB1_GRP1_DisableClock\n
 282:Drivers/STM32F0xx_HAL_Driver/Inc/stm32f0xx_ll_bus.h ****   *         AHBENR       GPIODEN       LL_AHB1_GRP1_DisableClock\n
 283:Drivers/STM32F0xx_HAL_Driver/Inc/stm32f0xx_ll_bus.h ****   *         AHBENR       GPIOEEN       LL_AHB1_GRP1_DisableClock\n
 284:Drivers/STM32F0xx_HAL_Driver/Inc/stm32f0xx_ll_bus.h ****   *         AHBENR       GPIOFEN       LL_AHB1_GRP1_DisableClock\n
 285:Drivers/STM32F0xx_HAL_Driver/Inc/stm32f0xx_ll_bus.h ****   *         AHBENR       TSCEN         LL_AHB1_GRP1_DisableClock
 286:Drivers/STM32F0xx_HAL_Driver/Inc/stm32f0xx_ll_bus.h ****   * @param  Periphs This parameter can be a combination of the following values:
 287:Drivers/STM32F0xx_HAL_Driver/Inc/stm32f0xx_ll_bus.h ****   *         @arg @ref LL_AHB1_GRP1_PERIPH_DMA1
 288:Drivers/STM32F0xx_HAL_Driver/Inc/stm32f0xx_ll_bus.h ****   *         @arg @ref LL_AHB1_GRP1_PERIPH_DMA2 (*)
 289:Drivers/STM32F0xx_HAL_Driver/Inc/stm32f0xx_ll_bus.h ****   *         @arg @ref LL_AHB1_GRP1_PERIPH_SRAM
 290:Drivers/STM32F0xx_HAL_Driver/Inc/stm32f0xx_ll_bus.h ****   *         @arg @ref LL_AHB1_GRP1_PERIPH_FLASH
 291:Drivers/STM32F0xx_HAL_Driver/Inc/stm32f0xx_ll_bus.h ****   *         @arg @ref LL_AHB1_GRP1_PERIPH_CRC
 292:Drivers/STM32F0xx_HAL_Driver/Inc/stm32f0xx_ll_bus.h ****   *         @arg @ref LL_AHB1_GRP1_PERIPH_GPIOA
 293:Drivers/STM32F0xx_HAL_Driver/Inc/stm32f0xx_ll_bus.h ****   *         @arg @ref LL_AHB1_GRP1_PERIPH_GPIOB
 294:Drivers/STM32F0xx_HAL_Driver/Inc/stm32f0xx_ll_bus.h ****   *         @arg @ref LL_AHB1_GRP1_PERIPH_GPIOC
 295:Drivers/STM32F0xx_HAL_Driver/Inc/stm32f0xx_ll_bus.h ****   *         @arg @ref LL_AHB1_GRP1_PERIPH_GPIOD (*)
 296:Drivers/STM32F0xx_HAL_Driver/Inc/stm32f0xx_ll_bus.h ****   *         @arg @ref LL_AHB1_GRP1_PERIPH_GPIOE (*)
 297:Drivers/STM32F0xx_HAL_Driver/Inc/stm32f0xx_ll_bus.h ****   *         @arg @ref LL_AHB1_GRP1_PERIPH_GPIOF
 298:Drivers/STM32F0xx_HAL_Driver/Inc/stm32f0xx_ll_bus.h ****   *         @arg @ref LL_AHB1_GRP1_PERIPH_TSC (*)
 299:Drivers/STM32F0xx_HAL_Driver/Inc/stm32f0xx_ll_bus.h ****   *
 300:Drivers/STM32F0xx_HAL_Driver/Inc/stm32f0xx_ll_bus.h ****   *         (*) value not defined in all devices.
ARM GAS  C:\Users\ADMINI~1\AppData\Local\Temp\ccJZf5de.s 			page 10


 301:Drivers/STM32F0xx_HAL_Driver/Inc/stm32f0xx_ll_bus.h ****   * @retval None
 302:Drivers/STM32F0xx_HAL_Driver/Inc/stm32f0xx_ll_bus.h **** */
 303:Drivers/STM32F0xx_HAL_Driver/Inc/stm32f0xx_ll_bus.h **** __STATIC_INLINE void LL_AHB1_GRP1_DisableClock(uint32_t Periphs)
 304:Drivers/STM32F0xx_HAL_Driver/Inc/stm32f0xx_ll_bus.h **** {
 305:Drivers/STM32F0xx_HAL_Driver/Inc/stm32f0xx_ll_bus.h ****   CLEAR_BIT(RCC->AHBENR, Periphs);
 306:Drivers/STM32F0xx_HAL_Driver/Inc/stm32f0xx_ll_bus.h **** }
 307:Drivers/STM32F0xx_HAL_Driver/Inc/stm32f0xx_ll_bus.h **** 
 308:Drivers/STM32F0xx_HAL_Driver/Inc/stm32f0xx_ll_bus.h **** /**
 309:Drivers/STM32F0xx_HAL_Driver/Inc/stm32f0xx_ll_bus.h ****   * @brief  Force AHB1 peripherals reset.
 310:Drivers/STM32F0xx_HAL_Driver/Inc/stm32f0xx_ll_bus.h ****   * @rmtoll AHBRSTR      GPIOARST      LL_AHB1_GRP1_ForceReset\n
 311:Drivers/STM32F0xx_HAL_Driver/Inc/stm32f0xx_ll_bus.h ****   *         AHBRSTR      GPIOBRST      LL_AHB1_GRP1_ForceReset\n
 312:Drivers/STM32F0xx_HAL_Driver/Inc/stm32f0xx_ll_bus.h ****   *         AHBRSTR      GPIOCRST      LL_AHB1_GRP1_ForceReset\n
 313:Drivers/STM32F0xx_HAL_Driver/Inc/stm32f0xx_ll_bus.h ****   *         AHBRSTR      GPIODRST      LL_AHB1_GRP1_ForceReset\n
 314:Drivers/STM32F0xx_HAL_Driver/Inc/stm32f0xx_ll_bus.h ****   *         AHBRSTR      GPIOERST      LL_AHB1_GRP1_ForceReset\n
 315:Drivers/STM32F0xx_HAL_Driver/Inc/stm32f0xx_ll_bus.h ****   *         AHBRSTR      GPIOFRST      LL_AHB1_GRP1_ForceReset\n
 316:Drivers/STM32F0xx_HAL_Driver/Inc/stm32f0xx_ll_bus.h ****   *         AHBRSTR      TSCRST        LL_AHB1_GRP1_ForceReset
 317:Drivers/STM32F0xx_HAL_Driver/Inc/stm32f0xx_ll_bus.h ****   * @param  Periphs This parameter can be a combination of the following values:
 318:Drivers/STM32F0xx_HAL_Driver/Inc/stm32f0xx_ll_bus.h ****   *         @arg @ref LL_AHB1_GRP1_PERIPH_ALL
 319:Drivers/STM32F0xx_HAL_Driver/Inc/stm32f0xx_ll_bus.h ****   *         @arg @ref LL_AHB1_GRP1_PERIPH_GPIOA
 320:Drivers/STM32F0xx_HAL_Driver/Inc/stm32f0xx_ll_bus.h ****   *         @arg @ref LL_AHB1_GRP1_PERIPH_GPIOB
 321:Drivers/STM32F0xx_HAL_Driver/Inc/stm32f0xx_ll_bus.h ****   *         @arg @ref LL_AHB1_GRP1_PERIPH_GPIOC
 322:Drivers/STM32F0xx_HAL_Driver/Inc/stm32f0xx_ll_bus.h ****   *         @arg @ref LL_AHB1_GRP1_PERIPH_GPIOD (*)
 323:Drivers/STM32F0xx_HAL_Driver/Inc/stm32f0xx_ll_bus.h ****   *         @arg @ref LL_AHB1_GRP1_PERIPH_GPIOE (*)
 324:Drivers/STM32F0xx_HAL_Driver/Inc/stm32f0xx_ll_bus.h ****   *         @arg @ref LL_AHB1_GRP1_PERIPH_GPIOF
 325:Drivers/STM32F0xx_HAL_Driver/Inc/stm32f0xx_ll_bus.h ****   *         @arg @ref LL_AHB1_GRP1_PERIPH_TSC (*)
 326:Drivers/STM32F0xx_HAL_Driver/Inc/stm32f0xx_ll_bus.h ****   *
 327:Drivers/STM32F0xx_HAL_Driver/Inc/stm32f0xx_ll_bus.h ****   *         (*) value not defined in all devices.
 328:Drivers/STM32F0xx_HAL_Driver/Inc/stm32f0xx_ll_bus.h ****   * @retval None
 329:Drivers/STM32F0xx_HAL_Driver/Inc/stm32f0xx_ll_bus.h **** */
 330:Drivers/STM32F0xx_HAL_Driver/Inc/stm32f0xx_ll_bus.h **** __STATIC_INLINE void LL_AHB1_GRP1_ForceReset(uint32_t Periphs)
 331:Drivers/STM32F0xx_HAL_Driver/Inc/stm32f0xx_ll_bus.h **** {
 332:Drivers/STM32F0xx_HAL_Driver/Inc/stm32f0xx_ll_bus.h ****   SET_BIT(RCC->AHBRSTR, Periphs);
 333:Drivers/STM32F0xx_HAL_Driver/Inc/stm32f0xx_ll_bus.h **** }
 334:Drivers/STM32F0xx_HAL_Driver/Inc/stm32f0xx_ll_bus.h **** 
 335:Drivers/STM32F0xx_HAL_Driver/Inc/stm32f0xx_ll_bus.h **** /**
 336:Drivers/STM32F0xx_HAL_Driver/Inc/stm32f0xx_ll_bus.h ****   * @brief  Release AHB1 peripherals reset.
 337:Drivers/STM32F0xx_HAL_Driver/Inc/stm32f0xx_ll_bus.h ****   * @rmtoll AHBRSTR      GPIOARST      LL_AHB1_GRP1_ReleaseReset\n
 338:Drivers/STM32F0xx_HAL_Driver/Inc/stm32f0xx_ll_bus.h ****   *         AHBRSTR      GPIOBRST      LL_AHB1_GRP1_ReleaseReset\n
 339:Drivers/STM32F0xx_HAL_Driver/Inc/stm32f0xx_ll_bus.h ****   *         AHBRSTR      GPIOCRST      LL_AHB1_GRP1_ReleaseReset\n
 340:Drivers/STM32F0xx_HAL_Driver/Inc/stm32f0xx_ll_bus.h ****   *         AHBRSTR      GPIODRST      LL_AHB1_GRP1_ReleaseReset\n
 341:Drivers/STM32F0xx_HAL_Driver/Inc/stm32f0xx_ll_bus.h ****   *         AHBRSTR      GPIOERST      LL_AHB1_GRP1_ReleaseReset\n
 342:Drivers/STM32F0xx_HAL_Driver/Inc/stm32f0xx_ll_bus.h ****   *         AHBRSTR      GPIOFRST      LL_AHB1_GRP1_ReleaseReset\n
 343:Drivers/STM32F0xx_HAL_Driver/Inc/stm32f0xx_ll_bus.h ****   *         AHBRSTR      TSCRST        LL_AHB1_GRP1_ReleaseReset
 344:Drivers/STM32F0xx_HAL_Driver/Inc/stm32f0xx_ll_bus.h ****   * @param  Periphs This parameter can be a combination of the following values:
 345:Drivers/STM32F0xx_HAL_Driver/Inc/stm32f0xx_ll_bus.h ****   *         @arg @ref LL_AHB1_GRP1_PERIPH_ALL
 346:Drivers/STM32F0xx_HAL_Driver/Inc/stm32f0xx_ll_bus.h ****   *         @arg @ref LL_AHB1_GRP1_PERIPH_GPIOA
 347:Drivers/STM32F0xx_HAL_Driver/Inc/stm32f0xx_ll_bus.h ****   *         @arg @ref LL_AHB1_GRP1_PERIPH_GPIOB
 348:Drivers/STM32F0xx_HAL_Driver/Inc/stm32f0xx_ll_bus.h ****   *         @arg @ref LL_AHB1_GRP1_PERIPH_GPIOC
 349:Drivers/STM32F0xx_HAL_Driver/Inc/stm32f0xx_ll_bus.h ****   *         @arg @ref LL_AHB1_GRP1_PERIPH_GPIOD (*)
 350:Drivers/STM32F0xx_HAL_Driver/Inc/stm32f0xx_ll_bus.h ****   *         @arg @ref LL_AHB1_GRP1_PERIPH_GPIOE (*)
 351:Drivers/STM32F0xx_HAL_Driver/Inc/stm32f0xx_ll_bus.h ****   *         @arg @ref LL_AHB1_GRP1_PERIPH_GPIOF
 352:Drivers/STM32F0xx_HAL_Driver/Inc/stm32f0xx_ll_bus.h ****   *         @arg @ref LL_AHB1_GRP1_PERIPH_TSC (*)
 353:Drivers/STM32F0xx_HAL_Driver/Inc/stm32f0xx_ll_bus.h ****   *
 354:Drivers/STM32F0xx_HAL_Driver/Inc/stm32f0xx_ll_bus.h ****   *         (*) value not defined in all devices.
 355:Drivers/STM32F0xx_HAL_Driver/Inc/stm32f0xx_ll_bus.h ****   * @retval None
 356:Drivers/STM32F0xx_HAL_Driver/Inc/stm32f0xx_ll_bus.h **** */
 357:Drivers/STM32F0xx_HAL_Driver/Inc/stm32f0xx_ll_bus.h **** __STATIC_INLINE void LL_AHB1_GRP1_ReleaseReset(uint32_t Periphs)
ARM GAS  C:\Users\ADMINI~1\AppData\Local\Temp\ccJZf5de.s 			page 11


 358:Drivers/STM32F0xx_HAL_Driver/Inc/stm32f0xx_ll_bus.h **** {
 359:Drivers/STM32F0xx_HAL_Driver/Inc/stm32f0xx_ll_bus.h ****   CLEAR_BIT(RCC->AHBRSTR, Periphs);
 360:Drivers/STM32F0xx_HAL_Driver/Inc/stm32f0xx_ll_bus.h **** }
 361:Drivers/STM32F0xx_HAL_Driver/Inc/stm32f0xx_ll_bus.h **** 
 362:Drivers/STM32F0xx_HAL_Driver/Inc/stm32f0xx_ll_bus.h **** /**
 363:Drivers/STM32F0xx_HAL_Driver/Inc/stm32f0xx_ll_bus.h ****   * @}
 364:Drivers/STM32F0xx_HAL_Driver/Inc/stm32f0xx_ll_bus.h ****   */
 365:Drivers/STM32F0xx_HAL_Driver/Inc/stm32f0xx_ll_bus.h **** 
 366:Drivers/STM32F0xx_HAL_Driver/Inc/stm32f0xx_ll_bus.h **** /** @defgroup BUS_LL_EF_APB1_GRP1 APB1 GRP1
 367:Drivers/STM32F0xx_HAL_Driver/Inc/stm32f0xx_ll_bus.h ****   * @{
 368:Drivers/STM32F0xx_HAL_Driver/Inc/stm32f0xx_ll_bus.h ****   */
 369:Drivers/STM32F0xx_HAL_Driver/Inc/stm32f0xx_ll_bus.h **** 
 370:Drivers/STM32F0xx_HAL_Driver/Inc/stm32f0xx_ll_bus.h **** /**
 371:Drivers/STM32F0xx_HAL_Driver/Inc/stm32f0xx_ll_bus.h ****   * @brief  Enable APB1 peripherals clock (available in register 1).
 372:Drivers/STM32F0xx_HAL_Driver/Inc/stm32f0xx_ll_bus.h ****   * @rmtoll APB1ENR      TIM2EN        LL_APB1_GRP1_EnableClock\n
 373:Drivers/STM32F0xx_HAL_Driver/Inc/stm32f0xx_ll_bus.h ****   *         APB1ENR      TIM3EN        LL_APB1_GRP1_EnableClock\n
 374:Drivers/STM32F0xx_HAL_Driver/Inc/stm32f0xx_ll_bus.h ****   *         APB1ENR      TIM6EN        LL_APB1_GRP1_EnableClock\n
 375:Drivers/STM32F0xx_HAL_Driver/Inc/stm32f0xx_ll_bus.h ****   *         APB1ENR      TIM7EN        LL_APB1_GRP1_EnableClock\n
 376:Drivers/STM32F0xx_HAL_Driver/Inc/stm32f0xx_ll_bus.h ****   *         APB1ENR      TIM14EN       LL_APB1_GRP1_EnableClock\n
 377:Drivers/STM32F0xx_HAL_Driver/Inc/stm32f0xx_ll_bus.h ****   *         APB1ENR      WWDGEN        LL_APB1_GRP1_EnableClock\n
 378:Drivers/STM32F0xx_HAL_Driver/Inc/stm32f0xx_ll_bus.h ****   *         APB1ENR      SPI2EN        LL_APB1_GRP1_EnableClock\n
 379:Drivers/STM32F0xx_HAL_Driver/Inc/stm32f0xx_ll_bus.h ****   *         APB1ENR      USART2EN      LL_APB1_GRP1_EnableClock\n
 380:Drivers/STM32F0xx_HAL_Driver/Inc/stm32f0xx_ll_bus.h ****   *         APB1ENR      USART3EN      LL_APB1_GRP1_EnableClock\n
 381:Drivers/STM32F0xx_HAL_Driver/Inc/stm32f0xx_ll_bus.h ****   *         APB1ENR      USART4EN      LL_APB1_GRP1_EnableClock\n
 382:Drivers/STM32F0xx_HAL_Driver/Inc/stm32f0xx_ll_bus.h ****   *         APB1ENR      USART5EN      LL_APB1_GRP1_EnableClock\n
 383:Drivers/STM32F0xx_HAL_Driver/Inc/stm32f0xx_ll_bus.h ****   *         APB1ENR      I2C1EN        LL_APB1_GRP1_EnableClock\n
 384:Drivers/STM32F0xx_HAL_Driver/Inc/stm32f0xx_ll_bus.h ****   *         APB1ENR      I2C2EN        LL_APB1_GRP1_EnableClock\n
 385:Drivers/STM32F0xx_HAL_Driver/Inc/stm32f0xx_ll_bus.h ****   *         APB1ENR      USBEN         LL_APB1_GRP1_EnableClock\n
 386:Drivers/STM32F0xx_HAL_Driver/Inc/stm32f0xx_ll_bus.h ****   *         APB1ENR      CANEN         LL_APB1_GRP1_EnableClock\n
 387:Drivers/STM32F0xx_HAL_Driver/Inc/stm32f0xx_ll_bus.h ****   *         APB1ENR      CRSEN         LL_APB1_GRP1_EnableClock\n
 388:Drivers/STM32F0xx_HAL_Driver/Inc/stm32f0xx_ll_bus.h ****   *         APB1ENR      PWREN         LL_APB1_GRP1_EnableClock\n
 389:Drivers/STM32F0xx_HAL_Driver/Inc/stm32f0xx_ll_bus.h ****   *         APB1ENR      DACEN         LL_APB1_GRP1_EnableClock\n
 390:Drivers/STM32F0xx_HAL_Driver/Inc/stm32f0xx_ll_bus.h ****   *         APB1ENR      CECEN         LL_APB1_GRP1_EnableClock
 391:Drivers/STM32F0xx_HAL_Driver/Inc/stm32f0xx_ll_bus.h ****   * @param  Periphs This parameter can be a combination of the following values:
 392:Drivers/STM32F0xx_HAL_Driver/Inc/stm32f0xx_ll_bus.h ****   *         @arg @ref LL_APB1_GRP1_PERIPH_TIM2 (*)
 393:Drivers/STM32F0xx_HAL_Driver/Inc/stm32f0xx_ll_bus.h ****   *         @arg @ref LL_APB1_GRP1_PERIPH_TIM3
 394:Drivers/STM32F0xx_HAL_Driver/Inc/stm32f0xx_ll_bus.h ****   *         @arg @ref LL_APB1_GRP1_PERIPH_TIM6 (*)
 395:Drivers/STM32F0xx_HAL_Driver/Inc/stm32f0xx_ll_bus.h ****   *         @arg @ref LL_APB1_GRP1_PERIPH_TIM7 (*)
 396:Drivers/STM32F0xx_HAL_Driver/Inc/stm32f0xx_ll_bus.h ****   *         @arg @ref LL_APB1_GRP1_PERIPH_TIM14
 397:Drivers/STM32F0xx_HAL_Driver/Inc/stm32f0xx_ll_bus.h ****   *         @arg @ref LL_APB1_GRP1_PERIPH_WWDG
 398:Drivers/STM32F0xx_HAL_Driver/Inc/stm32f0xx_ll_bus.h ****   *         @arg @ref LL_APB1_GRP1_PERIPH_SPI2 (*)
 399:Drivers/STM32F0xx_HAL_Driver/Inc/stm32f0xx_ll_bus.h ****   *         @arg @ref LL_APB1_GRP1_PERIPH_USART2 (*)
 400:Drivers/STM32F0xx_HAL_Driver/Inc/stm32f0xx_ll_bus.h ****   *         @arg @ref LL_APB1_GRP1_PERIPH_USART3 (*)
 401:Drivers/STM32F0xx_HAL_Driver/Inc/stm32f0xx_ll_bus.h ****   *         @arg @ref LL_APB1_GRP1_PERIPH_USART4 (*)
 402:Drivers/STM32F0xx_HAL_Driver/Inc/stm32f0xx_ll_bus.h ****   *         @arg @ref LL_APB1_GRP1_PERIPH_USART5 (*)
 403:Drivers/STM32F0xx_HAL_Driver/Inc/stm32f0xx_ll_bus.h ****   *         @arg @ref LL_APB1_GRP1_PERIPH_I2C1
 404:Drivers/STM32F0xx_HAL_Driver/Inc/stm32f0xx_ll_bus.h ****   *         @arg @ref LL_APB1_GRP1_PERIPH_I2C2 (*)
 405:Drivers/STM32F0xx_HAL_Driver/Inc/stm32f0xx_ll_bus.h ****   *         @arg @ref LL_APB1_GRP1_PERIPH_USB (*)
 406:Drivers/STM32F0xx_HAL_Driver/Inc/stm32f0xx_ll_bus.h ****   *         @arg @ref LL_APB1_GRP1_PERIPH_CAN (*)
 407:Drivers/STM32F0xx_HAL_Driver/Inc/stm32f0xx_ll_bus.h ****   *         @arg @ref LL_APB1_GRP1_PERIPH_CRS (*)
 408:Drivers/STM32F0xx_HAL_Driver/Inc/stm32f0xx_ll_bus.h ****   *         @arg @ref LL_APB1_GRP1_PERIPH_PWR
 409:Drivers/STM32F0xx_HAL_Driver/Inc/stm32f0xx_ll_bus.h ****   *         @arg @ref LL_APB1_GRP1_PERIPH_DAC1 (*)
 410:Drivers/STM32F0xx_HAL_Driver/Inc/stm32f0xx_ll_bus.h ****   *         @arg @ref LL_APB1_GRP1_PERIPH_CEC (*)
 411:Drivers/STM32F0xx_HAL_Driver/Inc/stm32f0xx_ll_bus.h ****   *
 412:Drivers/STM32F0xx_HAL_Driver/Inc/stm32f0xx_ll_bus.h ****   *         (*) value not defined in all devices.
 413:Drivers/STM32F0xx_HAL_Driver/Inc/stm32f0xx_ll_bus.h ****   * @retval None
 414:Drivers/STM32F0xx_HAL_Driver/Inc/stm32f0xx_ll_bus.h **** */
ARM GAS  C:\Users\ADMINI~1\AppData\Local\Temp\ccJZf5de.s 			page 12


 415:Drivers/STM32F0xx_HAL_Driver/Inc/stm32f0xx_ll_bus.h **** __STATIC_INLINE void LL_APB1_GRP1_EnableClock(uint32_t Periphs)
 152              		.loc 2 415 22 view .LVU40
 153              	.LBB111:
 416:Drivers/STM32F0xx_HAL_Driver/Inc/stm32f0xx_ll_bus.h **** {
 417:Drivers/STM32F0xx_HAL_Driver/Inc/stm32f0xx_ll_bus.h ****   __IO uint32_t tmpreg;
 154              		.loc 2 417 3 view .LVU41
 418:Drivers/STM32F0xx_HAL_Driver/Inc/stm32f0xx_ll_bus.h ****   SET_BIT(RCC->APB1ENR, Periphs);
 155              		.loc 2 418 3 view .LVU42
 156 0078 E269     		ldr	r2, [r4, #28]
 157 007a 8021     		movs	r1, #128
 158 007c 8903     		lsls	r1, r1, #14
 159 007e 0A43     		orrs	r2, r1
 160 0080 E261     		str	r2, [r4, #28]
 419:Drivers/STM32F0xx_HAL_Driver/Inc/stm32f0xx_ll_bus.h ****   /* Delay after an RCC peripheral clock enabling */
 420:Drivers/STM32F0xx_HAL_Driver/Inc/stm32f0xx_ll_bus.h ****   tmpreg = READ_BIT(RCC->APB1ENR, Periphs);
 161              		.loc 2 420 3 view .LVU43
 162              		.loc 2 420 12 is_stmt 0 view .LVU44
 163 0082 E369     		ldr	r3, [r4, #28]
 164 0084 0B40     		ands	r3, r1
 165              		.loc 2 420 10 view .LVU45
 166 0086 0193     		str	r3, [sp, #4]
 421:Drivers/STM32F0xx_HAL_Driver/Inc/stm32f0xx_ll_bus.h ****   (void)tmpreg;
 167              		.loc 2 421 3 is_stmt 1 view .LVU46
 168 0088 019B     		ldr	r3, [sp, #4]
 169              	.LVL5:
 170              		.loc 2 421 3 is_stmt 0 view .LVU47
 171              	.LBE111:
 172              	.LBE110:
  64:Src/i2c.c     **** 
  65:Src/i2c.c     ****   /* I2C1 DMA Init */
  66:Src/i2c.c     **** 
  67:Src/i2c.c     ****   /* I2C1_RX Init */
  68:Src/i2c.c     ****   LL_DMA_SetDataTransferDirection(DMA1, LL_DMA_CHANNEL_3, LL_DMA_DIRECTION_PERIPH_TO_MEMORY);
 173              		.loc 1 68 3 is_stmt 1 view .LVU48
 174              	.LBB112:
 175              	.LBI112:
 176              		.file 3 "Drivers/STM32F0xx_HAL_Driver/Inc/stm32f0xx_ll_dma.h"
   1:Drivers/STM32F0xx_HAL_Driver/Inc/stm32f0xx_ll_dma.h **** /**
   2:Drivers/STM32F0xx_HAL_Driver/Inc/stm32f0xx_ll_dma.h ****   ******************************************************************************
   3:Drivers/STM32F0xx_HAL_Driver/Inc/stm32f0xx_ll_dma.h ****   * @file    stm32f0xx_ll_dma.h
   4:Drivers/STM32F0xx_HAL_Driver/Inc/stm32f0xx_ll_dma.h ****   * @author  MCD Application Team
   5:Drivers/STM32F0xx_HAL_Driver/Inc/stm32f0xx_ll_dma.h ****   * @brief   Header file of DMA LL module.
   6:Drivers/STM32F0xx_HAL_Driver/Inc/stm32f0xx_ll_dma.h ****   ******************************************************************************
   7:Drivers/STM32F0xx_HAL_Driver/Inc/stm32f0xx_ll_dma.h ****   * @attention
   8:Drivers/STM32F0xx_HAL_Driver/Inc/stm32f0xx_ll_dma.h ****   *
   9:Drivers/STM32F0xx_HAL_Driver/Inc/stm32f0xx_ll_dma.h ****   * <h2><center>&copy; Copyright (c) 2016 STMicroelectronics.
  10:Drivers/STM32F0xx_HAL_Driver/Inc/stm32f0xx_ll_dma.h ****   * All rights reserved.</center></h2>
  11:Drivers/STM32F0xx_HAL_Driver/Inc/stm32f0xx_ll_dma.h ****   *
  12:Drivers/STM32F0xx_HAL_Driver/Inc/stm32f0xx_ll_dma.h ****   * This software component is licensed by ST under BSD 3-Clause license,
  13:Drivers/STM32F0xx_HAL_Driver/Inc/stm32f0xx_ll_dma.h ****   * the "License"; You may not use this file except in compliance with the
  14:Drivers/STM32F0xx_HAL_Driver/Inc/stm32f0xx_ll_dma.h ****   * License. You may obtain a copy of the License at:
  15:Drivers/STM32F0xx_HAL_Driver/Inc/stm32f0xx_ll_dma.h ****   *                        opensource.org/licenses/BSD-3-Clause
  16:Drivers/STM32F0xx_HAL_Driver/Inc/stm32f0xx_ll_dma.h ****   *
  17:Drivers/STM32F0xx_HAL_Driver/Inc/stm32f0xx_ll_dma.h ****   ******************************************************************************
  18:Drivers/STM32F0xx_HAL_Driver/Inc/stm32f0xx_ll_dma.h ****   */
  19:Drivers/STM32F0xx_HAL_Driver/Inc/stm32f0xx_ll_dma.h **** 
  20:Drivers/STM32F0xx_HAL_Driver/Inc/stm32f0xx_ll_dma.h **** /* Define to prevent recursive inclusion -------------------------------------*/
ARM GAS  C:\Users\ADMINI~1\AppData\Local\Temp\ccJZf5de.s 			page 13


  21:Drivers/STM32F0xx_HAL_Driver/Inc/stm32f0xx_ll_dma.h **** #ifndef __STM32F0xx_LL_DMA_H
  22:Drivers/STM32F0xx_HAL_Driver/Inc/stm32f0xx_ll_dma.h **** #define __STM32F0xx_LL_DMA_H
  23:Drivers/STM32F0xx_HAL_Driver/Inc/stm32f0xx_ll_dma.h **** 
  24:Drivers/STM32F0xx_HAL_Driver/Inc/stm32f0xx_ll_dma.h **** #ifdef __cplusplus
  25:Drivers/STM32F0xx_HAL_Driver/Inc/stm32f0xx_ll_dma.h **** extern "C" {
  26:Drivers/STM32F0xx_HAL_Driver/Inc/stm32f0xx_ll_dma.h **** #endif
  27:Drivers/STM32F0xx_HAL_Driver/Inc/stm32f0xx_ll_dma.h **** 
  28:Drivers/STM32F0xx_HAL_Driver/Inc/stm32f0xx_ll_dma.h **** /* Includes ------------------------------------------------------------------*/
  29:Drivers/STM32F0xx_HAL_Driver/Inc/stm32f0xx_ll_dma.h **** #include "stm32f0xx.h"
  30:Drivers/STM32F0xx_HAL_Driver/Inc/stm32f0xx_ll_dma.h **** 
  31:Drivers/STM32F0xx_HAL_Driver/Inc/stm32f0xx_ll_dma.h **** /** @addtogroup STM32F0xx_LL_Driver
  32:Drivers/STM32F0xx_HAL_Driver/Inc/stm32f0xx_ll_dma.h ****   * @{
  33:Drivers/STM32F0xx_HAL_Driver/Inc/stm32f0xx_ll_dma.h ****   */
  34:Drivers/STM32F0xx_HAL_Driver/Inc/stm32f0xx_ll_dma.h **** 
  35:Drivers/STM32F0xx_HAL_Driver/Inc/stm32f0xx_ll_dma.h **** #if defined (DMA1) || defined (DMA2)
  36:Drivers/STM32F0xx_HAL_Driver/Inc/stm32f0xx_ll_dma.h **** 
  37:Drivers/STM32F0xx_HAL_Driver/Inc/stm32f0xx_ll_dma.h **** /** @defgroup DMA_LL DMA
  38:Drivers/STM32F0xx_HAL_Driver/Inc/stm32f0xx_ll_dma.h ****   * @{
  39:Drivers/STM32F0xx_HAL_Driver/Inc/stm32f0xx_ll_dma.h ****   */
  40:Drivers/STM32F0xx_HAL_Driver/Inc/stm32f0xx_ll_dma.h **** 
  41:Drivers/STM32F0xx_HAL_Driver/Inc/stm32f0xx_ll_dma.h **** /* Private types -------------------------------------------------------------*/
  42:Drivers/STM32F0xx_HAL_Driver/Inc/stm32f0xx_ll_dma.h **** /* Private variables ---------------------------------------------------------*/
  43:Drivers/STM32F0xx_HAL_Driver/Inc/stm32f0xx_ll_dma.h **** /** @defgroup DMA_LL_Private_Variables DMA Private Variables
  44:Drivers/STM32F0xx_HAL_Driver/Inc/stm32f0xx_ll_dma.h ****   * @{
  45:Drivers/STM32F0xx_HAL_Driver/Inc/stm32f0xx_ll_dma.h ****   */
  46:Drivers/STM32F0xx_HAL_Driver/Inc/stm32f0xx_ll_dma.h **** /* Array used to get the DMA channel register offset versus channel index LL_DMA_CHANNEL_x */
  47:Drivers/STM32F0xx_HAL_Driver/Inc/stm32f0xx_ll_dma.h **** static const uint8_t CHANNEL_OFFSET_TAB[] =
  48:Drivers/STM32F0xx_HAL_Driver/Inc/stm32f0xx_ll_dma.h **** {
  49:Drivers/STM32F0xx_HAL_Driver/Inc/stm32f0xx_ll_dma.h ****   (uint8_t)(DMA1_Channel1_BASE - DMA1_BASE),
  50:Drivers/STM32F0xx_HAL_Driver/Inc/stm32f0xx_ll_dma.h ****   (uint8_t)(DMA1_Channel2_BASE - DMA1_BASE),
  51:Drivers/STM32F0xx_HAL_Driver/Inc/stm32f0xx_ll_dma.h ****   (uint8_t)(DMA1_Channel3_BASE - DMA1_BASE),
  52:Drivers/STM32F0xx_HAL_Driver/Inc/stm32f0xx_ll_dma.h ****   (uint8_t)(DMA1_Channel4_BASE - DMA1_BASE),
  53:Drivers/STM32F0xx_HAL_Driver/Inc/stm32f0xx_ll_dma.h ****   (uint8_t)(DMA1_Channel5_BASE - DMA1_BASE),
  54:Drivers/STM32F0xx_HAL_Driver/Inc/stm32f0xx_ll_dma.h **** #if defined(DMA1_Channel6)
  55:Drivers/STM32F0xx_HAL_Driver/Inc/stm32f0xx_ll_dma.h ****   (uint8_t)(DMA1_Channel6_BASE - DMA1_BASE),
  56:Drivers/STM32F0xx_HAL_Driver/Inc/stm32f0xx_ll_dma.h **** #endif /*DMA1_Channel6*/
  57:Drivers/STM32F0xx_HAL_Driver/Inc/stm32f0xx_ll_dma.h **** #if defined(DMA1_Channel7)
  58:Drivers/STM32F0xx_HAL_Driver/Inc/stm32f0xx_ll_dma.h ****   (uint8_t)(DMA1_Channel7_BASE - DMA1_BASE)
  59:Drivers/STM32F0xx_HAL_Driver/Inc/stm32f0xx_ll_dma.h **** #endif /*DMA1_Channel7*/
  60:Drivers/STM32F0xx_HAL_Driver/Inc/stm32f0xx_ll_dma.h **** };
  61:Drivers/STM32F0xx_HAL_Driver/Inc/stm32f0xx_ll_dma.h **** /**
  62:Drivers/STM32F0xx_HAL_Driver/Inc/stm32f0xx_ll_dma.h ****   * @}
  63:Drivers/STM32F0xx_HAL_Driver/Inc/stm32f0xx_ll_dma.h ****   */
  64:Drivers/STM32F0xx_HAL_Driver/Inc/stm32f0xx_ll_dma.h **** 
  65:Drivers/STM32F0xx_HAL_Driver/Inc/stm32f0xx_ll_dma.h **** /* Private constants ---------------------------------------------------------*/
  66:Drivers/STM32F0xx_HAL_Driver/Inc/stm32f0xx_ll_dma.h **** /** @defgroup DMA_LL_Private_Constants DMA Private Constants
  67:Drivers/STM32F0xx_HAL_Driver/Inc/stm32f0xx_ll_dma.h ****   * @{
  68:Drivers/STM32F0xx_HAL_Driver/Inc/stm32f0xx_ll_dma.h ****   */
  69:Drivers/STM32F0xx_HAL_Driver/Inc/stm32f0xx_ll_dma.h **** /* Define used to get CSELR register offset */
  70:Drivers/STM32F0xx_HAL_Driver/Inc/stm32f0xx_ll_dma.h **** #define DMA_CSELR_OFFSET                  (uint32_t)(DMA1_CSELR_BASE - DMA1_BASE)
  71:Drivers/STM32F0xx_HAL_Driver/Inc/stm32f0xx_ll_dma.h **** 
  72:Drivers/STM32F0xx_HAL_Driver/Inc/stm32f0xx_ll_dma.h **** /* Defines used for the bit position in the register and perform offsets */
  73:Drivers/STM32F0xx_HAL_Driver/Inc/stm32f0xx_ll_dma.h **** #define DMA_POSITION_CSELR_CXS            ((Channel-1U)*4U)
  74:Drivers/STM32F0xx_HAL_Driver/Inc/stm32f0xx_ll_dma.h **** /**
  75:Drivers/STM32F0xx_HAL_Driver/Inc/stm32f0xx_ll_dma.h ****   * @}
  76:Drivers/STM32F0xx_HAL_Driver/Inc/stm32f0xx_ll_dma.h ****   */
  77:Drivers/STM32F0xx_HAL_Driver/Inc/stm32f0xx_ll_dma.h **** 
ARM GAS  C:\Users\ADMINI~1\AppData\Local\Temp\ccJZf5de.s 			page 14


  78:Drivers/STM32F0xx_HAL_Driver/Inc/stm32f0xx_ll_dma.h **** /* Private macros ------------------------------------------------------------*/
  79:Drivers/STM32F0xx_HAL_Driver/Inc/stm32f0xx_ll_dma.h **** #if defined(USE_FULL_LL_DRIVER)
  80:Drivers/STM32F0xx_HAL_Driver/Inc/stm32f0xx_ll_dma.h **** /** @defgroup DMA_LL_Private_Macros DMA Private Macros
  81:Drivers/STM32F0xx_HAL_Driver/Inc/stm32f0xx_ll_dma.h ****   * @{
  82:Drivers/STM32F0xx_HAL_Driver/Inc/stm32f0xx_ll_dma.h ****   */
  83:Drivers/STM32F0xx_HAL_Driver/Inc/stm32f0xx_ll_dma.h **** /**
  84:Drivers/STM32F0xx_HAL_Driver/Inc/stm32f0xx_ll_dma.h ****   * @}
  85:Drivers/STM32F0xx_HAL_Driver/Inc/stm32f0xx_ll_dma.h ****   */
  86:Drivers/STM32F0xx_HAL_Driver/Inc/stm32f0xx_ll_dma.h **** #endif /*USE_FULL_LL_DRIVER*/
  87:Drivers/STM32F0xx_HAL_Driver/Inc/stm32f0xx_ll_dma.h **** 
  88:Drivers/STM32F0xx_HAL_Driver/Inc/stm32f0xx_ll_dma.h **** /* Exported types ------------------------------------------------------------*/
  89:Drivers/STM32F0xx_HAL_Driver/Inc/stm32f0xx_ll_dma.h **** #if defined(USE_FULL_LL_DRIVER)
  90:Drivers/STM32F0xx_HAL_Driver/Inc/stm32f0xx_ll_dma.h **** /** @defgroup DMA_LL_ES_INIT DMA Exported Init structure
  91:Drivers/STM32F0xx_HAL_Driver/Inc/stm32f0xx_ll_dma.h ****   * @{
  92:Drivers/STM32F0xx_HAL_Driver/Inc/stm32f0xx_ll_dma.h ****   */
  93:Drivers/STM32F0xx_HAL_Driver/Inc/stm32f0xx_ll_dma.h **** typedef struct
  94:Drivers/STM32F0xx_HAL_Driver/Inc/stm32f0xx_ll_dma.h **** {
  95:Drivers/STM32F0xx_HAL_Driver/Inc/stm32f0xx_ll_dma.h ****   uint32_t PeriphOrM2MSrcAddress;  /*!< Specifies the peripheral base address for DMA transfer
  96:Drivers/STM32F0xx_HAL_Driver/Inc/stm32f0xx_ll_dma.h ****                                         or as Source base address in case of memory to memory trans
  97:Drivers/STM32F0xx_HAL_Driver/Inc/stm32f0xx_ll_dma.h **** 
  98:Drivers/STM32F0xx_HAL_Driver/Inc/stm32f0xx_ll_dma.h ****                                         This parameter must be a value between Min_Data = 0 and Max
  99:Drivers/STM32F0xx_HAL_Driver/Inc/stm32f0xx_ll_dma.h **** 
 100:Drivers/STM32F0xx_HAL_Driver/Inc/stm32f0xx_ll_dma.h ****   uint32_t MemoryOrM2MDstAddress;  /*!< Specifies the memory base address for DMA transfer
 101:Drivers/STM32F0xx_HAL_Driver/Inc/stm32f0xx_ll_dma.h ****                                         or as Destination base address in case of memory to memory 
 102:Drivers/STM32F0xx_HAL_Driver/Inc/stm32f0xx_ll_dma.h **** 
 103:Drivers/STM32F0xx_HAL_Driver/Inc/stm32f0xx_ll_dma.h ****                                         This parameter must be a value between Min_Data = 0 and Max
 104:Drivers/STM32F0xx_HAL_Driver/Inc/stm32f0xx_ll_dma.h **** 
 105:Drivers/STM32F0xx_HAL_Driver/Inc/stm32f0xx_ll_dma.h ****   uint32_t Direction;              /*!< Specifies if the data will be transferred from memory to pe
 106:Drivers/STM32F0xx_HAL_Driver/Inc/stm32f0xx_ll_dma.h ****                                         from memory to memory or from peripheral to memory.
 107:Drivers/STM32F0xx_HAL_Driver/Inc/stm32f0xx_ll_dma.h ****                                         This parameter can be a value of @ref DMA_LL_EC_DIRECTION
 108:Drivers/STM32F0xx_HAL_Driver/Inc/stm32f0xx_ll_dma.h **** 
 109:Drivers/STM32F0xx_HAL_Driver/Inc/stm32f0xx_ll_dma.h ****                                         This feature can be modified afterwards using unitary funct
 110:Drivers/STM32F0xx_HAL_Driver/Inc/stm32f0xx_ll_dma.h **** 
 111:Drivers/STM32F0xx_HAL_Driver/Inc/stm32f0xx_ll_dma.h ****   uint32_t Mode;                   /*!< Specifies the normal or circular operation mode.
 112:Drivers/STM32F0xx_HAL_Driver/Inc/stm32f0xx_ll_dma.h ****                                         This parameter can be a value of @ref DMA_LL_EC_MODE
 113:Drivers/STM32F0xx_HAL_Driver/Inc/stm32f0xx_ll_dma.h ****                                         @note: The circular buffer mode cannot be used if the memor
 114:Drivers/STM32F0xx_HAL_Driver/Inc/stm32f0xx_ll_dma.h ****                                                data transfer direction is configured on the selecte
 115:Drivers/STM32F0xx_HAL_Driver/Inc/stm32f0xx_ll_dma.h **** 
 116:Drivers/STM32F0xx_HAL_Driver/Inc/stm32f0xx_ll_dma.h ****                                         This feature can be modified afterwards using unitary funct
 117:Drivers/STM32F0xx_HAL_Driver/Inc/stm32f0xx_ll_dma.h **** 
 118:Drivers/STM32F0xx_HAL_Driver/Inc/stm32f0xx_ll_dma.h ****   uint32_t PeriphOrM2MSrcIncMode;  /*!< Specifies whether the Peripheral address or Source address 
 119:Drivers/STM32F0xx_HAL_Driver/Inc/stm32f0xx_ll_dma.h ****                                         is incremented or not.
 120:Drivers/STM32F0xx_HAL_Driver/Inc/stm32f0xx_ll_dma.h ****                                         This parameter can be a value of @ref DMA_LL_EC_PERIPH
 121:Drivers/STM32F0xx_HAL_Driver/Inc/stm32f0xx_ll_dma.h **** 
 122:Drivers/STM32F0xx_HAL_Driver/Inc/stm32f0xx_ll_dma.h ****                                         This feature can be modified afterwards using unitary funct
 123:Drivers/STM32F0xx_HAL_Driver/Inc/stm32f0xx_ll_dma.h **** 
 124:Drivers/STM32F0xx_HAL_Driver/Inc/stm32f0xx_ll_dma.h ****   uint32_t MemoryOrM2MDstIncMode;  /*!< Specifies whether the Memory address or Destination address
 125:Drivers/STM32F0xx_HAL_Driver/Inc/stm32f0xx_ll_dma.h ****                                         is incremented or not.
 126:Drivers/STM32F0xx_HAL_Driver/Inc/stm32f0xx_ll_dma.h ****                                         This parameter can be a value of @ref DMA_LL_EC_MEMORY
 127:Drivers/STM32F0xx_HAL_Driver/Inc/stm32f0xx_ll_dma.h **** 
 128:Drivers/STM32F0xx_HAL_Driver/Inc/stm32f0xx_ll_dma.h ****                                         This feature can be modified afterwards using unitary funct
 129:Drivers/STM32F0xx_HAL_Driver/Inc/stm32f0xx_ll_dma.h **** 
 130:Drivers/STM32F0xx_HAL_Driver/Inc/stm32f0xx_ll_dma.h ****   uint32_t PeriphOrM2MSrcDataSize; /*!< Specifies the Peripheral data size alignment or Source data
 131:Drivers/STM32F0xx_HAL_Driver/Inc/stm32f0xx_ll_dma.h ****                                         in case of memory to memory transfer direction.
 132:Drivers/STM32F0xx_HAL_Driver/Inc/stm32f0xx_ll_dma.h ****                                         This parameter can be a value of @ref DMA_LL_EC_PDATAALIGN
 133:Drivers/STM32F0xx_HAL_Driver/Inc/stm32f0xx_ll_dma.h **** 
 134:Drivers/STM32F0xx_HAL_Driver/Inc/stm32f0xx_ll_dma.h ****                                         This feature can be modified afterwards using unitary funct
ARM GAS  C:\Users\ADMINI~1\AppData\Local\Temp\ccJZf5de.s 			page 15


 135:Drivers/STM32F0xx_HAL_Driver/Inc/stm32f0xx_ll_dma.h **** 
 136:Drivers/STM32F0xx_HAL_Driver/Inc/stm32f0xx_ll_dma.h ****   uint32_t MemoryOrM2MDstDataSize; /*!< Specifies the Memory data size alignment or Destination dat
 137:Drivers/STM32F0xx_HAL_Driver/Inc/stm32f0xx_ll_dma.h ****                                         in case of memory to memory transfer direction.
 138:Drivers/STM32F0xx_HAL_Driver/Inc/stm32f0xx_ll_dma.h ****                                         This parameter can be a value of @ref DMA_LL_EC_MDATAALIGN
 139:Drivers/STM32F0xx_HAL_Driver/Inc/stm32f0xx_ll_dma.h **** 
 140:Drivers/STM32F0xx_HAL_Driver/Inc/stm32f0xx_ll_dma.h ****                                         This feature can be modified afterwards using unitary funct
 141:Drivers/STM32F0xx_HAL_Driver/Inc/stm32f0xx_ll_dma.h **** 
 142:Drivers/STM32F0xx_HAL_Driver/Inc/stm32f0xx_ll_dma.h ****   uint32_t NbData;                 /*!< Specifies the number of data to transfer, in data unit.
 143:Drivers/STM32F0xx_HAL_Driver/Inc/stm32f0xx_ll_dma.h ****                                         The data unit is equal to the source buffer configuration s
 144:Drivers/STM32F0xx_HAL_Driver/Inc/stm32f0xx_ll_dma.h ****                                         or MemorySize parameters depending in the transfer directio
 145:Drivers/STM32F0xx_HAL_Driver/Inc/stm32f0xx_ll_dma.h ****                                         This parameter must be a value between Min_Data = 0 and Max
 146:Drivers/STM32F0xx_HAL_Driver/Inc/stm32f0xx_ll_dma.h **** 
 147:Drivers/STM32F0xx_HAL_Driver/Inc/stm32f0xx_ll_dma.h ****                                         This feature can be modified afterwards using unitary funct
 148:Drivers/STM32F0xx_HAL_Driver/Inc/stm32f0xx_ll_dma.h **** #if (defined(DMA1_CSELR_DEFAULT)||defined(DMA2_CSELR_DEFAULT))
 149:Drivers/STM32F0xx_HAL_Driver/Inc/stm32f0xx_ll_dma.h **** 
 150:Drivers/STM32F0xx_HAL_Driver/Inc/stm32f0xx_ll_dma.h ****   uint32_t PeriphRequest;          /*!< Specifies the peripheral request.
 151:Drivers/STM32F0xx_HAL_Driver/Inc/stm32f0xx_ll_dma.h ****                                         This parameter can be a value of @ref DMA_LL_EC_REQUEST
 152:Drivers/STM32F0xx_HAL_Driver/Inc/stm32f0xx_ll_dma.h **** 
 153:Drivers/STM32F0xx_HAL_Driver/Inc/stm32f0xx_ll_dma.h ****                                         This feature can be modified afterwards using unitary funct
 154:Drivers/STM32F0xx_HAL_Driver/Inc/stm32f0xx_ll_dma.h **** #endif
 155:Drivers/STM32F0xx_HAL_Driver/Inc/stm32f0xx_ll_dma.h **** 
 156:Drivers/STM32F0xx_HAL_Driver/Inc/stm32f0xx_ll_dma.h ****   uint32_t Priority;               /*!< Specifies the channel priority level.
 157:Drivers/STM32F0xx_HAL_Driver/Inc/stm32f0xx_ll_dma.h ****                                         This parameter can be a value of @ref DMA_LL_EC_PRIORITY
 158:Drivers/STM32F0xx_HAL_Driver/Inc/stm32f0xx_ll_dma.h **** 
 159:Drivers/STM32F0xx_HAL_Driver/Inc/stm32f0xx_ll_dma.h ****                                         This feature can be modified afterwards using unitary funct
 160:Drivers/STM32F0xx_HAL_Driver/Inc/stm32f0xx_ll_dma.h **** 
 161:Drivers/STM32F0xx_HAL_Driver/Inc/stm32f0xx_ll_dma.h **** } LL_DMA_InitTypeDef;
 162:Drivers/STM32F0xx_HAL_Driver/Inc/stm32f0xx_ll_dma.h **** /**
 163:Drivers/STM32F0xx_HAL_Driver/Inc/stm32f0xx_ll_dma.h ****   * @}
 164:Drivers/STM32F0xx_HAL_Driver/Inc/stm32f0xx_ll_dma.h ****   */
 165:Drivers/STM32F0xx_HAL_Driver/Inc/stm32f0xx_ll_dma.h **** #endif /*USE_FULL_LL_DRIVER*/
 166:Drivers/STM32F0xx_HAL_Driver/Inc/stm32f0xx_ll_dma.h **** 
 167:Drivers/STM32F0xx_HAL_Driver/Inc/stm32f0xx_ll_dma.h **** /* Exported constants --------------------------------------------------------*/
 168:Drivers/STM32F0xx_HAL_Driver/Inc/stm32f0xx_ll_dma.h **** /** @defgroup DMA_LL_Exported_Constants DMA Exported Constants
 169:Drivers/STM32F0xx_HAL_Driver/Inc/stm32f0xx_ll_dma.h ****   * @{
 170:Drivers/STM32F0xx_HAL_Driver/Inc/stm32f0xx_ll_dma.h ****   */
 171:Drivers/STM32F0xx_HAL_Driver/Inc/stm32f0xx_ll_dma.h **** /** @defgroup DMA_LL_EC_CLEAR_FLAG Clear Flags Defines
 172:Drivers/STM32F0xx_HAL_Driver/Inc/stm32f0xx_ll_dma.h ****   * @brief    Flags defines which can be used with LL_DMA_WriteReg function
 173:Drivers/STM32F0xx_HAL_Driver/Inc/stm32f0xx_ll_dma.h ****   * @{
 174:Drivers/STM32F0xx_HAL_Driver/Inc/stm32f0xx_ll_dma.h ****   */
 175:Drivers/STM32F0xx_HAL_Driver/Inc/stm32f0xx_ll_dma.h **** #define LL_DMA_IFCR_CGIF1                 DMA_IFCR_CGIF1        /*!< Channel 1 global flag         
 176:Drivers/STM32F0xx_HAL_Driver/Inc/stm32f0xx_ll_dma.h **** #define LL_DMA_IFCR_CTCIF1                DMA_IFCR_CTCIF1       /*!< Channel 1 transfer complete fl
 177:Drivers/STM32F0xx_HAL_Driver/Inc/stm32f0xx_ll_dma.h **** #define LL_DMA_IFCR_CHTIF1                DMA_IFCR_CHTIF1       /*!< Channel 1 half transfer flag  
 178:Drivers/STM32F0xx_HAL_Driver/Inc/stm32f0xx_ll_dma.h **** #define LL_DMA_IFCR_CTEIF1                DMA_IFCR_CTEIF1       /*!< Channel 1 transfer error flag 
 179:Drivers/STM32F0xx_HAL_Driver/Inc/stm32f0xx_ll_dma.h **** #define LL_DMA_IFCR_CGIF2                 DMA_IFCR_CGIF2        /*!< Channel 2 global flag         
 180:Drivers/STM32F0xx_HAL_Driver/Inc/stm32f0xx_ll_dma.h **** #define LL_DMA_IFCR_CTCIF2                DMA_IFCR_CTCIF2       /*!< Channel 2 transfer complete fl
 181:Drivers/STM32F0xx_HAL_Driver/Inc/stm32f0xx_ll_dma.h **** #define LL_DMA_IFCR_CHTIF2                DMA_IFCR_CHTIF2       /*!< Channel 2 half transfer flag  
 182:Drivers/STM32F0xx_HAL_Driver/Inc/stm32f0xx_ll_dma.h **** #define LL_DMA_IFCR_CTEIF2                DMA_IFCR_CTEIF2       /*!< Channel 2 transfer error flag 
 183:Drivers/STM32F0xx_HAL_Driver/Inc/stm32f0xx_ll_dma.h **** #define LL_DMA_IFCR_CGIF3                 DMA_IFCR_CGIF3        /*!< Channel 3 global flag         
 184:Drivers/STM32F0xx_HAL_Driver/Inc/stm32f0xx_ll_dma.h **** #define LL_DMA_IFCR_CTCIF3                DMA_IFCR_CTCIF3       /*!< Channel 3 transfer complete fl
 185:Drivers/STM32F0xx_HAL_Driver/Inc/stm32f0xx_ll_dma.h **** #define LL_DMA_IFCR_CHTIF3                DMA_IFCR_CHTIF3       /*!< Channel 3 half transfer flag  
 186:Drivers/STM32F0xx_HAL_Driver/Inc/stm32f0xx_ll_dma.h **** #define LL_DMA_IFCR_CTEIF3                DMA_IFCR_CTEIF3       /*!< Channel 3 transfer error flag 
 187:Drivers/STM32F0xx_HAL_Driver/Inc/stm32f0xx_ll_dma.h **** #define LL_DMA_IFCR_CGIF4                 DMA_IFCR_CGIF4        /*!< Channel 4 global flag         
 188:Drivers/STM32F0xx_HAL_Driver/Inc/stm32f0xx_ll_dma.h **** #define LL_DMA_IFCR_CTCIF4                DMA_IFCR_CTCIF4       /*!< Channel 4 transfer complete fl
 189:Drivers/STM32F0xx_HAL_Driver/Inc/stm32f0xx_ll_dma.h **** #define LL_DMA_IFCR_CHTIF4                DMA_IFCR_CHTIF4       /*!< Channel 4 half transfer flag  
 190:Drivers/STM32F0xx_HAL_Driver/Inc/stm32f0xx_ll_dma.h **** #define LL_DMA_IFCR_CTEIF4                DMA_IFCR_CTEIF4       /*!< Channel 4 transfer error flag 
 191:Drivers/STM32F0xx_HAL_Driver/Inc/stm32f0xx_ll_dma.h **** #define LL_DMA_IFCR_CGIF5                 DMA_IFCR_CGIF5        /*!< Channel 5 global flag         
ARM GAS  C:\Users\ADMINI~1\AppData\Local\Temp\ccJZf5de.s 			page 16


 192:Drivers/STM32F0xx_HAL_Driver/Inc/stm32f0xx_ll_dma.h **** #define LL_DMA_IFCR_CTCIF5                DMA_IFCR_CTCIF5       /*!< Channel 5 transfer complete fl
 193:Drivers/STM32F0xx_HAL_Driver/Inc/stm32f0xx_ll_dma.h **** #define LL_DMA_IFCR_CHTIF5                DMA_IFCR_CHTIF5       /*!< Channel 5 half transfer flag  
 194:Drivers/STM32F0xx_HAL_Driver/Inc/stm32f0xx_ll_dma.h **** #define LL_DMA_IFCR_CTEIF5                DMA_IFCR_CTEIF5       /*!< Channel 5 transfer error flag 
 195:Drivers/STM32F0xx_HAL_Driver/Inc/stm32f0xx_ll_dma.h **** #if defined(DMA1_Channel6)
 196:Drivers/STM32F0xx_HAL_Driver/Inc/stm32f0xx_ll_dma.h **** #define LL_DMA_IFCR_CGIF6                 DMA_IFCR_CGIF6        /*!< Channel 6 global flag         
 197:Drivers/STM32F0xx_HAL_Driver/Inc/stm32f0xx_ll_dma.h **** #define LL_DMA_IFCR_CTCIF6                DMA_IFCR_CTCIF6       /*!< Channel 6 transfer complete fl
 198:Drivers/STM32F0xx_HAL_Driver/Inc/stm32f0xx_ll_dma.h **** #define LL_DMA_IFCR_CHTIF6                DMA_IFCR_CHTIF6       /*!< Channel 6 half transfer flag  
 199:Drivers/STM32F0xx_HAL_Driver/Inc/stm32f0xx_ll_dma.h **** #define LL_DMA_IFCR_CTEIF6                DMA_IFCR_CTEIF6       /*!< Channel 6 transfer error flag 
 200:Drivers/STM32F0xx_HAL_Driver/Inc/stm32f0xx_ll_dma.h **** #endif
 201:Drivers/STM32F0xx_HAL_Driver/Inc/stm32f0xx_ll_dma.h **** #if defined(DMA1_Channel7)
 202:Drivers/STM32F0xx_HAL_Driver/Inc/stm32f0xx_ll_dma.h **** #define LL_DMA_IFCR_CGIF7                 DMA_IFCR_CGIF7        /*!< Channel 7 global flag         
 203:Drivers/STM32F0xx_HAL_Driver/Inc/stm32f0xx_ll_dma.h **** #define LL_DMA_IFCR_CTCIF7                DMA_IFCR_CTCIF7       /*!< Channel 7 transfer complete fl
 204:Drivers/STM32F0xx_HAL_Driver/Inc/stm32f0xx_ll_dma.h **** #define LL_DMA_IFCR_CHTIF7                DMA_IFCR_CHTIF7       /*!< Channel 7 half transfer flag  
 205:Drivers/STM32F0xx_HAL_Driver/Inc/stm32f0xx_ll_dma.h **** #define LL_DMA_IFCR_CTEIF7                DMA_IFCR_CTEIF7       /*!< Channel 7 transfer error flag 
 206:Drivers/STM32F0xx_HAL_Driver/Inc/stm32f0xx_ll_dma.h **** #endif
 207:Drivers/STM32F0xx_HAL_Driver/Inc/stm32f0xx_ll_dma.h **** /**
 208:Drivers/STM32F0xx_HAL_Driver/Inc/stm32f0xx_ll_dma.h ****   * @}
 209:Drivers/STM32F0xx_HAL_Driver/Inc/stm32f0xx_ll_dma.h ****   */
 210:Drivers/STM32F0xx_HAL_Driver/Inc/stm32f0xx_ll_dma.h **** 
 211:Drivers/STM32F0xx_HAL_Driver/Inc/stm32f0xx_ll_dma.h **** /** @defgroup DMA_LL_EC_GET_FLAG Get Flags Defines
 212:Drivers/STM32F0xx_HAL_Driver/Inc/stm32f0xx_ll_dma.h ****   * @brief    Flags defines which can be used with LL_DMA_ReadReg function
 213:Drivers/STM32F0xx_HAL_Driver/Inc/stm32f0xx_ll_dma.h ****   * @{
 214:Drivers/STM32F0xx_HAL_Driver/Inc/stm32f0xx_ll_dma.h ****   */
 215:Drivers/STM32F0xx_HAL_Driver/Inc/stm32f0xx_ll_dma.h **** #define LL_DMA_ISR_GIF1                   DMA_ISR_GIF1          /*!< Channel 1 global flag         
 216:Drivers/STM32F0xx_HAL_Driver/Inc/stm32f0xx_ll_dma.h **** #define LL_DMA_ISR_TCIF1                  DMA_ISR_TCIF1         /*!< Channel 1 transfer complete fl
 217:Drivers/STM32F0xx_HAL_Driver/Inc/stm32f0xx_ll_dma.h **** #define LL_DMA_ISR_HTIF1                  DMA_ISR_HTIF1         /*!< Channel 1 half transfer flag  
 218:Drivers/STM32F0xx_HAL_Driver/Inc/stm32f0xx_ll_dma.h **** #define LL_DMA_ISR_TEIF1                  DMA_ISR_TEIF1         /*!< Channel 1 transfer error flag 
 219:Drivers/STM32F0xx_HAL_Driver/Inc/stm32f0xx_ll_dma.h **** #define LL_DMA_ISR_GIF2                   DMA_ISR_GIF2          /*!< Channel 2 global flag         
 220:Drivers/STM32F0xx_HAL_Driver/Inc/stm32f0xx_ll_dma.h **** #define LL_DMA_ISR_TCIF2                  DMA_ISR_TCIF2         /*!< Channel 2 transfer complete fl
 221:Drivers/STM32F0xx_HAL_Driver/Inc/stm32f0xx_ll_dma.h **** #define LL_DMA_ISR_HTIF2                  DMA_ISR_HTIF2         /*!< Channel 2 half transfer flag  
 222:Drivers/STM32F0xx_HAL_Driver/Inc/stm32f0xx_ll_dma.h **** #define LL_DMA_ISR_TEIF2                  DMA_ISR_TEIF2         /*!< Channel 2 transfer error flag 
 223:Drivers/STM32F0xx_HAL_Driver/Inc/stm32f0xx_ll_dma.h **** #define LL_DMA_ISR_GIF3                   DMA_ISR_GIF3          /*!< Channel 3 global flag         
 224:Drivers/STM32F0xx_HAL_Driver/Inc/stm32f0xx_ll_dma.h **** #define LL_DMA_ISR_TCIF3                  DMA_ISR_TCIF3         /*!< Channel 3 transfer complete fl
 225:Drivers/STM32F0xx_HAL_Driver/Inc/stm32f0xx_ll_dma.h **** #define LL_DMA_ISR_HTIF3                  DMA_ISR_HTIF3         /*!< Channel 3 half transfer flag  
 226:Drivers/STM32F0xx_HAL_Driver/Inc/stm32f0xx_ll_dma.h **** #define LL_DMA_ISR_TEIF3                  DMA_ISR_TEIF3         /*!< Channel 3 transfer error flag 
 227:Drivers/STM32F0xx_HAL_Driver/Inc/stm32f0xx_ll_dma.h **** #define LL_DMA_ISR_GIF4                   DMA_ISR_GIF4          /*!< Channel 4 global flag         
 228:Drivers/STM32F0xx_HAL_Driver/Inc/stm32f0xx_ll_dma.h **** #define LL_DMA_ISR_TCIF4                  DMA_ISR_TCIF4         /*!< Channel 4 transfer complete fl
 229:Drivers/STM32F0xx_HAL_Driver/Inc/stm32f0xx_ll_dma.h **** #define LL_DMA_ISR_HTIF4                  DMA_ISR_HTIF4         /*!< Channel 4 half transfer flag  
 230:Drivers/STM32F0xx_HAL_Driver/Inc/stm32f0xx_ll_dma.h **** #define LL_DMA_ISR_TEIF4                  DMA_ISR_TEIF4         /*!< Channel 4 transfer error flag 
 231:Drivers/STM32F0xx_HAL_Driver/Inc/stm32f0xx_ll_dma.h **** #define LL_DMA_ISR_GIF5                   DMA_ISR_GIF5          /*!< Channel 5 global flag         
 232:Drivers/STM32F0xx_HAL_Driver/Inc/stm32f0xx_ll_dma.h **** #define LL_DMA_ISR_TCIF5                  DMA_ISR_TCIF5         /*!< Channel 5 transfer complete fl
 233:Drivers/STM32F0xx_HAL_Driver/Inc/stm32f0xx_ll_dma.h **** #define LL_DMA_ISR_HTIF5                  DMA_ISR_HTIF5         /*!< Channel 5 half transfer flag  
 234:Drivers/STM32F0xx_HAL_Driver/Inc/stm32f0xx_ll_dma.h **** #define LL_DMA_ISR_TEIF5                  DMA_ISR_TEIF5         /*!< Channel 5 transfer error flag 
 235:Drivers/STM32F0xx_HAL_Driver/Inc/stm32f0xx_ll_dma.h **** #if defined(DMA1_Channel6)
 236:Drivers/STM32F0xx_HAL_Driver/Inc/stm32f0xx_ll_dma.h **** #define LL_DMA_ISR_GIF6                   DMA_ISR_GIF6          /*!< Channel 6 global flag         
 237:Drivers/STM32F0xx_HAL_Driver/Inc/stm32f0xx_ll_dma.h **** #define LL_DMA_ISR_TCIF6                  DMA_ISR_TCIF6         /*!< Channel 6 transfer complete fl
 238:Drivers/STM32F0xx_HAL_Driver/Inc/stm32f0xx_ll_dma.h **** #define LL_DMA_ISR_HTIF6                  DMA_ISR_HTIF6         /*!< Channel 6 half transfer flag  
 239:Drivers/STM32F0xx_HAL_Driver/Inc/stm32f0xx_ll_dma.h **** #define LL_DMA_ISR_TEIF6                  DMA_ISR_TEIF6         /*!< Channel 6 transfer error flag 
 240:Drivers/STM32F0xx_HAL_Driver/Inc/stm32f0xx_ll_dma.h **** #endif
 241:Drivers/STM32F0xx_HAL_Driver/Inc/stm32f0xx_ll_dma.h **** #if defined(DMA1_Channel7)
 242:Drivers/STM32F0xx_HAL_Driver/Inc/stm32f0xx_ll_dma.h **** #define LL_DMA_ISR_GIF7                   DMA_ISR_GIF7          /*!< Channel 7 global flag         
 243:Drivers/STM32F0xx_HAL_Driver/Inc/stm32f0xx_ll_dma.h **** #define LL_DMA_ISR_TCIF7                  DMA_ISR_TCIF7         /*!< Channel 7 transfer complete fl
 244:Drivers/STM32F0xx_HAL_Driver/Inc/stm32f0xx_ll_dma.h **** #define LL_DMA_ISR_HTIF7                  DMA_ISR_HTIF7         /*!< Channel 7 half transfer flag  
 245:Drivers/STM32F0xx_HAL_Driver/Inc/stm32f0xx_ll_dma.h **** #define LL_DMA_ISR_TEIF7                  DMA_ISR_TEIF7         /*!< Channel 7 transfer error flag 
 246:Drivers/STM32F0xx_HAL_Driver/Inc/stm32f0xx_ll_dma.h **** #endif
 247:Drivers/STM32F0xx_HAL_Driver/Inc/stm32f0xx_ll_dma.h **** /**
 248:Drivers/STM32F0xx_HAL_Driver/Inc/stm32f0xx_ll_dma.h ****   * @}
ARM GAS  C:\Users\ADMINI~1\AppData\Local\Temp\ccJZf5de.s 			page 17


 249:Drivers/STM32F0xx_HAL_Driver/Inc/stm32f0xx_ll_dma.h ****   */
 250:Drivers/STM32F0xx_HAL_Driver/Inc/stm32f0xx_ll_dma.h **** 
 251:Drivers/STM32F0xx_HAL_Driver/Inc/stm32f0xx_ll_dma.h **** /** @defgroup DMA_LL_EC_IT IT Defines
 252:Drivers/STM32F0xx_HAL_Driver/Inc/stm32f0xx_ll_dma.h ****   * @brief    IT defines which can be used with LL_DMA_ReadReg and  LL_DMA_WriteReg functions
 253:Drivers/STM32F0xx_HAL_Driver/Inc/stm32f0xx_ll_dma.h ****   * @{
 254:Drivers/STM32F0xx_HAL_Driver/Inc/stm32f0xx_ll_dma.h ****   */
 255:Drivers/STM32F0xx_HAL_Driver/Inc/stm32f0xx_ll_dma.h **** #define LL_DMA_CCR_TCIE                   DMA_CCR_TCIE          /*!< Transfer complete interrupt */
 256:Drivers/STM32F0xx_HAL_Driver/Inc/stm32f0xx_ll_dma.h **** #define LL_DMA_CCR_HTIE                   DMA_CCR_HTIE          /*!< Half Transfer interrupt     */
 257:Drivers/STM32F0xx_HAL_Driver/Inc/stm32f0xx_ll_dma.h **** #define LL_DMA_CCR_TEIE                   DMA_CCR_TEIE          /*!< Transfer error interrupt    */
 258:Drivers/STM32F0xx_HAL_Driver/Inc/stm32f0xx_ll_dma.h **** /**
 259:Drivers/STM32F0xx_HAL_Driver/Inc/stm32f0xx_ll_dma.h ****   * @}
 260:Drivers/STM32F0xx_HAL_Driver/Inc/stm32f0xx_ll_dma.h ****   */
 261:Drivers/STM32F0xx_HAL_Driver/Inc/stm32f0xx_ll_dma.h **** 
 262:Drivers/STM32F0xx_HAL_Driver/Inc/stm32f0xx_ll_dma.h **** /** @defgroup DMA_LL_EC_CHANNEL CHANNEL
 263:Drivers/STM32F0xx_HAL_Driver/Inc/stm32f0xx_ll_dma.h ****   * @{
 264:Drivers/STM32F0xx_HAL_Driver/Inc/stm32f0xx_ll_dma.h ****   */
 265:Drivers/STM32F0xx_HAL_Driver/Inc/stm32f0xx_ll_dma.h **** #define LL_DMA_CHANNEL_1                  0x00000001U /*!< DMA Channel 1 */
 266:Drivers/STM32F0xx_HAL_Driver/Inc/stm32f0xx_ll_dma.h **** #define LL_DMA_CHANNEL_2                  0x00000002U /*!< DMA Channel 2 */
 267:Drivers/STM32F0xx_HAL_Driver/Inc/stm32f0xx_ll_dma.h **** #define LL_DMA_CHANNEL_3                  0x00000003U /*!< DMA Channel 3 */
 268:Drivers/STM32F0xx_HAL_Driver/Inc/stm32f0xx_ll_dma.h **** #define LL_DMA_CHANNEL_4                  0x00000004U /*!< DMA Channel 4 */
 269:Drivers/STM32F0xx_HAL_Driver/Inc/stm32f0xx_ll_dma.h **** #define LL_DMA_CHANNEL_5                  0x00000005U /*!< DMA Channel 5 */
 270:Drivers/STM32F0xx_HAL_Driver/Inc/stm32f0xx_ll_dma.h **** #if defined(DMA1_Channel6)
 271:Drivers/STM32F0xx_HAL_Driver/Inc/stm32f0xx_ll_dma.h **** #define LL_DMA_CHANNEL_6                  0x00000006U /*!< DMA Channel 6 */
 272:Drivers/STM32F0xx_HAL_Driver/Inc/stm32f0xx_ll_dma.h **** #endif
 273:Drivers/STM32F0xx_HAL_Driver/Inc/stm32f0xx_ll_dma.h **** #if defined(DMA1_Channel7)
 274:Drivers/STM32F0xx_HAL_Driver/Inc/stm32f0xx_ll_dma.h **** #define LL_DMA_CHANNEL_7                  0x00000007U /*!< DMA Channel 7 */
 275:Drivers/STM32F0xx_HAL_Driver/Inc/stm32f0xx_ll_dma.h **** #endif
 276:Drivers/STM32F0xx_HAL_Driver/Inc/stm32f0xx_ll_dma.h **** #if defined(USE_FULL_LL_DRIVER)
 277:Drivers/STM32F0xx_HAL_Driver/Inc/stm32f0xx_ll_dma.h **** #define LL_DMA_CHANNEL_ALL                0xFFFF0000U /*!< DMA Channel all (used only for function 
 278:Drivers/STM32F0xx_HAL_Driver/Inc/stm32f0xx_ll_dma.h **** #endif /*USE_FULL_LL_DRIVER*/
 279:Drivers/STM32F0xx_HAL_Driver/Inc/stm32f0xx_ll_dma.h **** /**
 280:Drivers/STM32F0xx_HAL_Driver/Inc/stm32f0xx_ll_dma.h ****   * @}
 281:Drivers/STM32F0xx_HAL_Driver/Inc/stm32f0xx_ll_dma.h ****   */
 282:Drivers/STM32F0xx_HAL_Driver/Inc/stm32f0xx_ll_dma.h **** 
 283:Drivers/STM32F0xx_HAL_Driver/Inc/stm32f0xx_ll_dma.h **** /** @defgroup DMA_LL_EC_DIRECTION Transfer Direction
 284:Drivers/STM32F0xx_HAL_Driver/Inc/stm32f0xx_ll_dma.h ****   * @{
 285:Drivers/STM32F0xx_HAL_Driver/Inc/stm32f0xx_ll_dma.h ****   */
 286:Drivers/STM32F0xx_HAL_Driver/Inc/stm32f0xx_ll_dma.h **** #define LL_DMA_DIRECTION_PERIPH_TO_MEMORY 0x00000000U             /*!< Peripheral to memory directi
 287:Drivers/STM32F0xx_HAL_Driver/Inc/stm32f0xx_ll_dma.h **** #define LL_DMA_DIRECTION_MEMORY_TO_PERIPH DMA_CCR_DIR             /*!< Memory to peripheral directi
 288:Drivers/STM32F0xx_HAL_Driver/Inc/stm32f0xx_ll_dma.h **** #define LL_DMA_DIRECTION_MEMORY_TO_MEMORY DMA_CCR_MEM2MEM         /*!< Memory to memory direction  
 289:Drivers/STM32F0xx_HAL_Driver/Inc/stm32f0xx_ll_dma.h **** /**
 290:Drivers/STM32F0xx_HAL_Driver/Inc/stm32f0xx_ll_dma.h ****   * @}
 291:Drivers/STM32F0xx_HAL_Driver/Inc/stm32f0xx_ll_dma.h ****   */
 292:Drivers/STM32F0xx_HAL_Driver/Inc/stm32f0xx_ll_dma.h **** 
 293:Drivers/STM32F0xx_HAL_Driver/Inc/stm32f0xx_ll_dma.h **** /** @defgroup DMA_LL_EC_MODE Transfer mode
 294:Drivers/STM32F0xx_HAL_Driver/Inc/stm32f0xx_ll_dma.h ****   * @{
 295:Drivers/STM32F0xx_HAL_Driver/Inc/stm32f0xx_ll_dma.h ****   */
 296:Drivers/STM32F0xx_HAL_Driver/Inc/stm32f0xx_ll_dma.h **** #define LL_DMA_MODE_NORMAL                0x00000000U             /*!< Normal Mode                 
 297:Drivers/STM32F0xx_HAL_Driver/Inc/stm32f0xx_ll_dma.h **** #define LL_DMA_MODE_CIRCULAR              DMA_CCR_CIRC            /*!< Circular Mode               
 298:Drivers/STM32F0xx_HAL_Driver/Inc/stm32f0xx_ll_dma.h **** /**
 299:Drivers/STM32F0xx_HAL_Driver/Inc/stm32f0xx_ll_dma.h ****   * @}
 300:Drivers/STM32F0xx_HAL_Driver/Inc/stm32f0xx_ll_dma.h ****   */
 301:Drivers/STM32F0xx_HAL_Driver/Inc/stm32f0xx_ll_dma.h **** 
 302:Drivers/STM32F0xx_HAL_Driver/Inc/stm32f0xx_ll_dma.h **** /** @defgroup DMA_LL_EC_PERIPH Peripheral increment mode
 303:Drivers/STM32F0xx_HAL_Driver/Inc/stm32f0xx_ll_dma.h ****   * @{
 304:Drivers/STM32F0xx_HAL_Driver/Inc/stm32f0xx_ll_dma.h ****   */
 305:Drivers/STM32F0xx_HAL_Driver/Inc/stm32f0xx_ll_dma.h **** #define LL_DMA_PERIPH_INCREMENT           DMA_CCR_PINC            /*!< Peripheral increment mode En
ARM GAS  C:\Users\ADMINI~1\AppData\Local\Temp\ccJZf5de.s 			page 18


 306:Drivers/STM32F0xx_HAL_Driver/Inc/stm32f0xx_ll_dma.h **** #define LL_DMA_PERIPH_NOINCREMENT         0x00000000U             /*!< Peripheral increment mode Di
 307:Drivers/STM32F0xx_HAL_Driver/Inc/stm32f0xx_ll_dma.h **** /**
 308:Drivers/STM32F0xx_HAL_Driver/Inc/stm32f0xx_ll_dma.h ****   * @}
 309:Drivers/STM32F0xx_HAL_Driver/Inc/stm32f0xx_ll_dma.h ****   */
 310:Drivers/STM32F0xx_HAL_Driver/Inc/stm32f0xx_ll_dma.h **** 
 311:Drivers/STM32F0xx_HAL_Driver/Inc/stm32f0xx_ll_dma.h **** /** @defgroup DMA_LL_EC_MEMORY Memory increment mode
 312:Drivers/STM32F0xx_HAL_Driver/Inc/stm32f0xx_ll_dma.h ****   * @{
 313:Drivers/STM32F0xx_HAL_Driver/Inc/stm32f0xx_ll_dma.h ****   */
 314:Drivers/STM32F0xx_HAL_Driver/Inc/stm32f0xx_ll_dma.h **** #define LL_DMA_MEMORY_INCREMENT           DMA_CCR_MINC            /*!< Memory increment mode Enable
 315:Drivers/STM32F0xx_HAL_Driver/Inc/stm32f0xx_ll_dma.h **** #define LL_DMA_MEMORY_NOINCREMENT         0x00000000U             /*!< Memory increment mode Disabl
 316:Drivers/STM32F0xx_HAL_Driver/Inc/stm32f0xx_ll_dma.h **** /**
 317:Drivers/STM32F0xx_HAL_Driver/Inc/stm32f0xx_ll_dma.h ****   * @}
 318:Drivers/STM32F0xx_HAL_Driver/Inc/stm32f0xx_ll_dma.h ****   */
 319:Drivers/STM32F0xx_HAL_Driver/Inc/stm32f0xx_ll_dma.h **** 
 320:Drivers/STM32F0xx_HAL_Driver/Inc/stm32f0xx_ll_dma.h **** /** @defgroup DMA_LL_EC_PDATAALIGN Peripheral data alignment
 321:Drivers/STM32F0xx_HAL_Driver/Inc/stm32f0xx_ll_dma.h ****   * @{
 322:Drivers/STM32F0xx_HAL_Driver/Inc/stm32f0xx_ll_dma.h ****   */
 323:Drivers/STM32F0xx_HAL_Driver/Inc/stm32f0xx_ll_dma.h **** #define LL_DMA_PDATAALIGN_BYTE            0x00000000U             /*!< Peripheral data alignment : 
 324:Drivers/STM32F0xx_HAL_Driver/Inc/stm32f0xx_ll_dma.h **** #define LL_DMA_PDATAALIGN_HALFWORD        DMA_CCR_PSIZE_0         /*!< Peripheral data alignment : 
 325:Drivers/STM32F0xx_HAL_Driver/Inc/stm32f0xx_ll_dma.h **** #define LL_DMA_PDATAALIGN_WORD            DMA_CCR_PSIZE_1         /*!< Peripheral data alignment : 
 326:Drivers/STM32F0xx_HAL_Driver/Inc/stm32f0xx_ll_dma.h **** /**
 327:Drivers/STM32F0xx_HAL_Driver/Inc/stm32f0xx_ll_dma.h ****   * @}
 328:Drivers/STM32F0xx_HAL_Driver/Inc/stm32f0xx_ll_dma.h ****   */
 329:Drivers/STM32F0xx_HAL_Driver/Inc/stm32f0xx_ll_dma.h **** 
 330:Drivers/STM32F0xx_HAL_Driver/Inc/stm32f0xx_ll_dma.h **** /** @defgroup DMA_LL_EC_MDATAALIGN Memory data alignment
 331:Drivers/STM32F0xx_HAL_Driver/Inc/stm32f0xx_ll_dma.h ****   * @{
 332:Drivers/STM32F0xx_HAL_Driver/Inc/stm32f0xx_ll_dma.h ****   */
 333:Drivers/STM32F0xx_HAL_Driver/Inc/stm32f0xx_ll_dma.h **** #define LL_DMA_MDATAALIGN_BYTE            0x00000000U             /*!< Memory data alignment : Byte
 334:Drivers/STM32F0xx_HAL_Driver/Inc/stm32f0xx_ll_dma.h **** #define LL_DMA_MDATAALIGN_HALFWORD        DMA_CCR_MSIZE_0         /*!< Memory data alignment : Half
 335:Drivers/STM32F0xx_HAL_Driver/Inc/stm32f0xx_ll_dma.h **** #define LL_DMA_MDATAALIGN_WORD            DMA_CCR_MSIZE_1         /*!< Memory data alignment : Word
 336:Drivers/STM32F0xx_HAL_Driver/Inc/stm32f0xx_ll_dma.h **** /**
 337:Drivers/STM32F0xx_HAL_Driver/Inc/stm32f0xx_ll_dma.h ****   * @}
 338:Drivers/STM32F0xx_HAL_Driver/Inc/stm32f0xx_ll_dma.h ****   */
 339:Drivers/STM32F0xx_HAL_Driver/Inc/stm32f0xx_ll_dma.h **** 
 340:Drivers/STM32F0xx_HAL_Driver/Inc/stm32f0xx_ll_dma.h **** /** @defgroup DMA_LL_EC_PRIORITY Transfer Priority level
 341:Drivers/STM32F0xx_HAL_Driver/Inc/stm32f0xx_ll_dma.h ****   * @{
 342:Drivers/STM32F0xx_HAL_Driver/Inc/stm32f0xx_ll_dma.h ****   */
 343:Drivers/STM32F0xx_HAL_Driver/Inc/stm32f0xx_ll_dma.h **** #define LL_DMA_PRIORITY_LOW               0x00000000U             /*!< Priority level : Low       *
 344:Drivers/STM32F0xx_HAL_Driver/Inc/stm32f0xx_ll_dma.h **** #define LL_DMA_PRIORITY_MEDIUM            DMA_CCR_PL_0            /*!< Priority level : Medium    *
 345:Drivers/STM32F0xx_HAL_Driver/Inc/stm32f0xx_ll_dma.h **** #define LL_DMA_PRIORITY_HIGH              DMA_CCR_PL_1            /*!< Priority level : High      *
 346:Drivers/STM32F0xx_HAL_Driver/Inc/stm32f0xx_ll_dma.h **** #define LL_DMA_PRIORITY_VERYHIGH          DMA_CCR_PL              /*!< Priority level : Very_High *
 347:Drivers/STM32F0xx_HAL_Driver/Inc/stm32f0xx_ll_dma.h **** /**
 348:Drivers/STM32F0xx_HAL_Driver/Inc/stm32f0xx_ll_dma.h ****   * @}
 349:Drivers/STM32F0xx_HAL_Driver/Inc/stm32f0xx_ll_dma.h ****   */
 350:Drivers/STM32F0xx_HAL_Driver/Inc/stm32f0xx_ll_dma.h **** 
 351:Drivers/STM32F0xx_HAL_Driver/Inc/stm32f0xx_ll_dma.h **** #if (defined(DMA1_CSELR_DEFAULT)||defined(DMA2_CSELR_DEFAULT))
 352:Drivers/STM32F0xx_HAL_Driver/Inc/stm32f0xx_ll_dma.h **** /** @defgroup DMA_LL_EC_REQUEST Transfer peripheral request
 353:Drivers/STM32F0xx_HAL_Driver/Inc/stm32f0xx_ll_dma.h ****   * @{
 354:Drivers/STM32F0xx_HAL_Driver/Inc/stm32f0xx_ll_dma.h ****   */
 355:Drivers/STM32F0xx_HAL_Driver/Inc/stm32f0xx_ll_dma.h **** #define LL_DMA_REQUEST_0                  0x00000000U /*!< DMA peripheral request 0  */
 356:Drivers/STM32F0xx_HAL_Driver/Inc/stm32f0xx_ll_dma.h **** #define LL_DMA_REQUEST_1                  0x00000001U /*!< DMA peripheral request 1  */
 357:Drivers/STM32F0xx_HAL_Driver/Inc/stm32f0xx_ll_dma.h **** #define LL_DMA_REQUEST_2                  0x00000002U /*!< DMA peripheral request 2  */
 358:Drivers/STM32F0xx_HAL_Driver/Inc/stm32f0xx_ll_dma.h **** #define LL_DMA_REQUEST_3                  0x00000003U /*!< DMA peripheral request 3  */
 359:Drivers/STM32F0xx_HAL_Driver/Inc/stm32f0xx_ll_dma.h **** #define LL_DMA_REQUEST_4                  0x00000004U /*!< DMA peripheral request 4  */
 360:Drivers/STM32F0xx_HAL_Driver/Inc/stm32f0xx_ll_dma.h **** #define LL_DMA_REQUEST_5                  0x00000005U /*!< DMA peripheral request 5  */
 361:Drivers/STM32F0xx_HAL_Driver/Inc/stm32f0xx_ll_dma.h **** #define LL_DMA_REQUEST_6                  0x00000006U /*!< DMA peripheral request 6  */
 362:Drivers/STM32F0xx_HAL_Driver/Inc/stm32f0xx_ll_dma.h **** #define LL_DMA_REQUEST_7                  0x00000007U /*!< DMA peripheral request 7  */
ARM GAS  C:\Users\ADMINI~1\AppData\Local\Temp\ccJZf5de.s 			page 19


 363:Drivers/STM32F0xx_HAL_Driver/Inc/stm32f0xx_ll_dma.h **** #define LL_DMA_REQUEST_8                  0x00000008U /*!< DMA peripheral request 8  */
 364:Drivers/STM32F0xx_HAL_Driver/Inc/stm32f0xx_ll_dma.h **** #define LL_DMA_REQUEST_9                  0x00000009U /*!< DMA peripheral request 9  */
 365:Drivers/STM32F0xx_HAL_Driver/Inc/stm32f0xx_ll_dma.h **** #define LL_DMA_REQUEST_10                 0x0000000AU /*!< DMA peripheral request 10 */
 366:Drivers/STM32F0xx_HAL_Driver/Inc/stm32f0xx_ll_dma.h **** #define LL_DMA_REQUEST_11                 0x0000000BU /*!< DMA peripheral request 11 */
 367:Drivers/STM32F0xx_HAL_Driver/Inc/stm32f0xx_ll_dma.h **** #define LL_DMA_REQUEST_12                 0x0000000CU /*!< DMA peripheral request 12 */
 368:Drivers/STM32F0xx_HAL_Driver/Inc/stm32f0xx_ll_dma.h **** #define LL_DMA_REQUEST_13                 0x0000000DU /*!< DMA peripheral request 13 */
 369:Drivers/STM32F0xx_HAL_Driver/Inc/stm32f0xx_ll_dma.h **** #define LL_DMA_REQUEST_14                 0x0000000EU /*!< DMA peripheral request 14 */
 370:Drivers/STM32F0xx_HAL_Driver/Inc/stm32f0xx_ll_dma.h **** #define LL_DMA_REQUEST_15                 0x0000000FU /*!< DMA peripheral request 15 */
 371:Drivers/STM32F0xx_HAL_Driver/Inc/stm32f0xx_ll_dma.h **** /**
 372:Drivers/STM32F0xx_HAL_Driver/Inc/stm32f0xx_ll_dma.h ****   * @}
 373:Drivers/STM32F0xx_HAL_Driver/Inc/stm32f0xx_ll_dma.h ****   */
 374:Drivers/STM32F0xx_HAL_Driver/Inc/stm32f0xx_ll_dma.h **** #endif
 375:Drivers/STM32F0xx_HAL_Driver/Inc/stm32f0xx_ll_dma.h **** 
 376:Drivers/STM32F0xx_HAL_Driver/Inc/stm32f0xx_ll_dma.h **** /**
 377:Drivers/STM32F0xx_HAL_Driver/Inc/stm32f0xx_ll_dma.h ****   * @}
 378:Drivers/STM32F0xx_HAL_Driver/Inc/stm32f0xx_ll_dma.h ****   */
 379:Drivers/STM32F0xx_HAL_Driver/Inc/stm32f0xx_ll_dma.h **** 
 380:Drivers/STM32F0xx_HAL_Driver/Inc/stm32f0xx_ll_dma.h **** /* Exported macro ------------------------------------------------------------*/
 381:Drivers/STM32F0xx_HAL_Driver/Inc/stm32f0xx_ll_dma.h **** /** @defgroup DMA_LL_Exported_Macros DMA Exported Macros
 382:Drivers/STM32F0xx_HAL_Driver/Inc/stm32f0xx_ll_dma.h ****   * @{
 383:Drivers/STM32F0xx_HAL_Driver/Inc/stm32f0xx_ll_dma.h ****   */
 384:Drivers/STM32F0xx_HAL_Driver/Inc/stm32f0xx_ll_dma.h **** 
 385:Drivers/STM32F0xx_HAL_Driver/Inc/stm32f0xx_ll_dma.h **** /** @defgroup DMA_LL_EM_WRITE_READ Common Write and read registers macros
 386:Drivers/STM32F0xx_HAL_Driver/Inc/stm32f0xx_ll_dma.h ****   * @{
 387:Drivers/STM32F0xx_HAL_Driver/Inc/stm32f0xx_ll_dma.h ****   */
 388:Drivers/STM32F0xx_HAL_Driver/Inc/stm32f0xx_ll_dma.h **** /**
 389:Drivers/STM32F0xx_HAL_Driver/Inc/stm32f0xx_ll_dma.h ****   * @brief  Write a value in DMA register
 390:Drivers/STM32F0xx_HAL_Driver/Inc/stm32f0xx_ll_dma.h ****   * @param  __INSTANCE__ DMA Instance
 391:Drivers/STM32F0xx_HAL_Driver/Inc/stm32f0xx_ll_dma.h ****   * @param  __REG__ Register to be written
 392:Drivers/STM32F0xx_HAL_Driver/Inc/stm32f0xx_ll_dma.h ****   * @param  __VALUE__ Value to be written in the register
 393:Drivers/STM32F0xx_HAL_Driver/Inc/stm32f0xx_ll_dma.h ****   * @retval None
 394:Drivers/STM32F0xx_HAL_Driver/Inc/stm32f0xx_ll_dma.h ****   */
 395:Drivers/STM32F0xx_HAL_Driver/Inc/stm32f0xx_ll_dma.h **** #define LL_DMA_WriteReg(__INSTANCE__, __REG__, __VALUE__) WRITE_REG(__INSTANCE__->__REG__, (__VALUE
 396:Drivers/STM32F0xx_HAL_Driver/Inc/stm32f0xx_ll_dma.h **** 
 397:Drivers/STM32F0xx_HAL_Driver/Inc/stm32f0xx_ll_dma.h **** /**
 398:Drivers/STM32F0xx_HAL_Driver/Inc/stm32f0xx_ll_dma.h ****   * @brief  Read a value in DMA register
 399:Drivers/STM32F0xx_HAL_Driver/Inc/stm32f0xx_ll_dma.h ****   * @param  __INSTANCE__ DMA Instance
 400:Drivers/STM32F0xx_HAL_Driver/Inc/stm32f0xx_ll_dma.h ****   * @param  __REG__ Register to be read
 401:Drivers/STM32F0xx_HAL_Driver/Inc/stm32f0xx_ll_dma.h ****   * @retval Register value
 402:Drivers/STM32F0xx_HAL_Driver/Inc/stm32f0xx_ll_dma.h ****   */
 403:Drivers/STM32F0xx_HAL_Driver/Inc/stm32f0xx_ll_dma.h **** #define LL_DMA_ReadReg(__INSTANCE__, __REG__) READ_REG(__INSTANCE__->__REG__)
 404:Drivers/STM32F0xx_HAL_Driver/Inc/stm32f0xx_ll_dma.h **** /**
 405:Drivers/STM32F0xx_HAL_Driver/Inc/stm32f0xx_ll_dma.h ****   * @}
 406:Drivers/STM32F0xx_HAL_Driver/Inc/stm32f0xx_ll_dma.h ****   */
 407:Drivers/STM32F0xx_HAL_Driver/Inc/stm32f0xx_ll_dma.h **** 
 408:Drivers/STM32F0xx_HAL_Driver/Inc/stm32f0xx_ll_dma.h **** /** @defgroup DMA_LL_EM_CONVERT_DMAxCHANNELy Convert DMAxChannely
 409:Drivers/STM32F0xx_HAL_Driver/Inc/stm32f0xx_ll_dma.h ****   * @{
 410:Drivers/STM32F0xx_HAL_Driver/Inc/stm32f0xx_ll_dma.h ****   */
 411:Drivers/STM32F0xx_HAL_Driver/Inc/stm32f0xx_ll_dma.h **** /**
 412:Drivers/STM32F0xx_HAL_Driver/Inc/stm32f0xx_ll_dma.h ****   * @brief  Convert DMAx_Channely into DMAx
 413:Drivers/STM32F0xx_HAL_Driver/Inc/stm32f0xx_ll_dma.h ****   * @param  __CHANNEL_INSTANCE__ DMAx_Channely
 414:Drivers/STM32F0xx_HAL_Driver/Inc/stm32f0xx_ll_dma.h ****   * @retval DMAx
 415:Drivers/STM32F0xx_HAL_Driver/Inc/stm32f0xx_ll_dma.h ****   */
 416:Drivers/STM32F0xx_HAL_Driver/Inc/stm32f0xx_ll_dma.h **** #if defined(DMA2)
 417:Drivers/STM32F0xx_HAL_Driver/Inc/stm32f0xx_ll_dma.h **** #define __LL_DMA_GET_INSTANCE(__CHANNEL_INSTANCE__)   \
 418:Drivers/STM32F0xx_HAL_Driver/Inc/stm32f0xx_ll_dma.h **** (((uint32_t)(__CHANNEL_INSTANCE__) > ((uint32_t)DMA1_Channel7)) ?  DMA2 : DMA1)
 419:Drivers/STM32F0xx_HAL_Driver/Inc/stm32f0xx_ll_dma.h **** #else
ARM GAS  C:\Users\ADMINI~1\AppData\Local\Temp\ccJZf5de.s 			page 20


 420:Drivers/STM32F0xx_HAL_Driver/Inc/stm32f0xx_ll_dma.h **** #define __LL_DMA_GET_INSTANCE(__CHANNEL_INSTANCE__)  (DMA1)
 421:Drivers/STM32F0xx_HAL_Driver/Inc/stm32f0xx_ll_dma.h **** #endif
 422:Drivers/STM32F0xx_HAL_Driver/Inc/stm32f0xx_ll_dma.h **** 
 423:Drivers/STM32F0xx_HAL_Driver/Inc/stm32f0xx_ll_dma.h **** /**
 424:Drivers/STM32F0xx_HAL_Driver/Inc/stm32f0xx_ll_dma.h ****   * @brief  Convert DMAx_Channely into LL_DMA_CHANNEL_y
 425:Drivers/STM32F0xx_HAL_Driver/Inc/stm32f0xx_ll_dma.h ****   * @param  __CHANNEL_INSTANCE__ DMAx_Channely
 426:Drivers/STM32F0xx_HAL_Driver/Inc/stm32f0xx_ll_dma.h ****   * @retval LL_DMA_CHANNEL_y
 427:Drivers/STM32F0xx_HAL_Driver/Inc/stm32f0xx_ll_dma.h ****   */
 428:Drivers/STM32F0xx_HAL_Driver/Inc/stm32f0xx_ll_dma.h **** #if defined (DMA2)
 429:Drivers/STM32F0xx_HAL_Driver/Inc/stm32f0xx_ll_dma.h **** #if defined (DMA2_Channel6) && defined (DMA2_Channel7)
 430:Drivers/STM32F0xx_HAL_Driver/Inc/stm32f0xx_ll_dma.h **** #define __LL_DMA_GET_CHANNEL(__CHANNEL_INSTANCE__)   \
 431:Drivers/STM32F0xx_HAL_Driver/Inc/stm32f0xx_ll_dma.h **** (((uint32_t)(__CHANNEL_INSTANCE__) == ((uint32_t)DMA1_Channel1)) ? LL_DMA_CHANNEL_1 : \
 432:Drivers/STM32F0xx_HAL_Driver/Inc/stm32f0xx_ll_dma.h ****  ((uint32_t)(__CHANNEL_INSTANCE__) == ((uint32_t)DMA2_Channel1)) ? LL_DMA_CHANNEL_1 : \
 433:Drivers/STM32F0xx_HAL_Driver/Inc/stm32f0xx_ll_dma.h ****  ((uint32_t)(__CHANNEL_INSTANCE__) == ((uint32_t)DMA1_Channel2)) ? LL_DMA_CHANNEL_2 : \
 434:Drivers/STM32F0xx_HAL_Driver/Inc/stm32f0xx_ll_dma.h ****  ((uint32_t)(__CHANNEL_INSTANCE__) == ((uint32_t)DMA2_Channel2)) ? LL_DMA_CHANNEL_2 : \
 435:Drivers/STM32F0xx_HAL_Driver/Inc/stm32f0xx_ll_dma.h ****  ((uint32_t)(__CHANNEL_INSTANCE__) == ((uint32_t)DMA1_Channel3)) ? LL_DMA_CHANNEL_3 : \
 436:Drivers/STM32F0xx_HAL_Driver/Inc/stm32f0xx_ll_dma.h ****  ((uint32_t)(__CHANNEL_INSTANCE__) == ((uint32_t)DMA2_Channel3)) ? LL_DMA_CHANNEL_3 : \
 437:Drivers/STM32F0xx_HAL_Driver/Inc/stm32f0xx_ll_dma.h ****  ((uint32_t)(__CHANNEL_INSTANCE__) == ((uint32_t)DMA1_Channel4)) ? LL_DMA_CHANNEL_4 : \
 438:Drivers/STM32F0xx_HAL_Driver/Inc/stm32f0xx_ll_dma.h ****  ((uint32_t)(__CHANNEL_INSTANCE__) == ((uint32_t)DMA2_Channel4)) ? LL_DMA_CHANNEL_4 : \
 439:Drivers/STM32F0xx_HAL_Driver/Inc/stm32f0xx_ll_dma.h ****  ((uint32_t)(__CHANNEL_INSTANCE__) == ((uint32_t)DMA1_Channel5)) ? LL_DMA_CHANNEL_5 : \
 440:Drivers/STM32F0xx_HAL_Driver/Inc/stm32f0xx_ll_dma.h ****  ((uint32_t)(__CHANNEL_INSTANCE__) == ((uint32_t)DMA2_Channel5)) ? LL_DMA_CHANNEL_5 : \
 441:Drivers/STM32F0xx_HAL_Driver/Inc/stm32f0xx_ll_dma.h ****  ((uint32_t)(__CHANNEL_INSTANCE__) == ((uint32_t)DMA1_Channel6)) ? LL_DMA_CHANNEL_6 : \
 442:Drivers/STM32F0xx_HAL_Driver/Inc/stm32f0xx_ll_dma.h ****  ((uint32_t)(__CHANNEL_INSTANCE__) == ((uint32_t)DMA2_Channel6)) ? LL_DMA_CHANNEL_6 : \
 443:Drivers/STM32F0xx_HAL_Driver/Inc/stm32f0xx_ll_dma.h ****  LL_DMA_CHANNEL_7)
 444:Drivers/STM32F0xx_HAL_Driver/Inc/stm32f0xx_ll_dma.h **** #else
 445:Drivers/STM32F0xx_HAL_Driver/Inc/stm32f0xx_ll_dma.h **** #define __LL_DMA_GET_CHANNEL(__CHANNEL_INSTANCE__)   \
 446:Drivers/STM32F0xx_HAL_Driver/Inc/stm32f0xx_ll_dma.h **** (((uint32_t)(__CHANNEL_INSTANCE__) == ((uint32_t)DMA1_Channel1)) ? LL_DMA_CHANNEL_1 : \
 447:Drivers/STM32F0xx_HAL_Driver/Inc/stm32f0xx_ll_dma.h ****  ((uint32_t)(__CHANNEL_INSTANCE__) == ((uint32_t)DMA2_Channel1)) ? LL_DMA_CHANNEL_1 : \
 448:Drivers/STM32F0xx_HAL_Driver/Inc/stm32f0xx_ll_dma.h ****  ((uint32_t)(__CHANNEL_INSTANCE__) == ((uint32_t)DMA1_Channel2)) ? LL_DMA_CHANNEL_2 : \
 449:Drivers/STM32F0xx_HAL_Driver/Inc/stm32f0xx_ll_dma.h ****  ((uint32_t)(__CHANNEL_INSTANCE__) == ((uint32_t)DMA2_Channel2)) ? LL_DMA_CHANNEL_2 : \
 450:Drivers/STM32F0xx_HAL_Driver/Inc/stm32f0xx_ll_dma.h ****  ((uint32_t)(__CHANNEL_INSTANCE__) == ((uint32_t)DMA1_Channel3)) ? LL_DMA_CHANNEL_3 : \
 451:Drivers/STM32F0xx_HAL_Driver/Inc/stm32f0xx_ll_dma.h ****  ((uint32_t)(__CHANNEL_INSTANCE__) == ((uint32_t)DMA2_Channel3)) ? LL_DMA_CHANNEL_3 : \
 452:Drivers/STM32F0xx_HAL_Driver/Inc/stm32f0xx_ll_dma.h ****  ((uint32_t)(__CHANNEL_INSTANCE__) == ((uint32_t)DMA1_Channel4)) ? LL_DMA_CHANNEL_4 : \
 453:Drivers/STM32F0xx_HAL_Driver/Inc/stm32f0xx_ll_dma.h ****  ((uint32_t)(__CHANNEL_INSTANCE__) == ((uint32_t)DMA2_Channel4)) ? LL_DMA_CHANNEL_4 : \
 454:Drivers/STM32F0xx_HAL_Driver/Inc/stm32f0xx_ll_dma.h ****  ((uint32_t)(__CHANNEL_INSTANCE__) == ((uint32_t)DMA1_Channel5)) ? LL_DMA_CHANNEL_5 : \
 455:Drivers/STM32F0xx_HAL_Driver/Inc/stm32f0xx_ll_dma.h ****  ((uint32_t)(__CHANNEL_INSTANCE__) == ((uint32_t)DMA2_Channel5)) ? LL_DMA_CHANNEL_5 : \
 456:Drivers/STM32F0xx_HAL_Driver/Inc/stm32f0xx_ll_dma.h ****  ((uint32_t)(__CHANNEL_INSTANCE__) == ((uint32_t)DMA1_Channel6)) ? LL_DMA_CHANNEL_6 : \
 457:Drivers/STM32F0xx_HAL_Driver/Inc/stm32f0xx_ll_dma.h ****  LL_DMA_CHANNEL_7)
 458:Drivers/STM32F0xx_HAL_Driver/Inc/stm32f0xx_ll_dma.h **** #endif
 459:Drivers/STM32F0xx_HAL_Driver/Inc/stm32f0xx_ll_dma.h **** #else
 460:Drivers/STM32F0xx_HAL_Driver/Inc/stm32f0xx_ll_dma.h **** #if defined (DMA1_Channel6) && defined (DMA1_Channel7)
 461:Drivers/STM32F0xx_HAL_Driver/Inc/stm32f0xx_ll_dma.h **** #define __LL_DMA_GET_CHANNEL(__CHANNEL_INSTANCE__)   \
 462:Drivers/STM32F0xx_HAL_Driver/Inc/stm32f0xx_ll_dma.h **** (((uint32_t)(__CHANNEL_INSTANCE__) == ((uint32_t)DMA1_Channel1)) ? LL_DMA_CHANNEL_1 : \
 463:Drivers/STM32F0xx_HAL_Driver/Inc/stm32f0xx_ll_dma.h ****  ((uint32_t)(__CHANNEL_INSTANCE__) == ((uint32_t)DMA1_Channel2)) ? LL_DMA_CHANNEL_2 : \
 464:Drivers/STM32F0xx_HAL_Driver/Inc/stm32f0xx_ll_dma.h ****  ((uint32_t)(__CHANNEL_INSTANCE__) == ((uint32_t)DMA1_Channel3)) ? LL_DMA_CHANNEL_3 : \
 465:Drivers/STM32F0xx_HAL_Driver/Inc/stm32f0xx_ll_dma.h ****  ((uint32_t)(__CHANNEL_INSTANCE__) == ((uint32_t)DMA1_Channel4)) ? LL_DMA_CHANNEL_4 : \
 466:Drivers/STM32F0xx_HAL_Driver/Inc/stm32f0xx_ll_dma.h ****  ((uint32_t)(__CHANNEL_INSTANCE__) == ((uint32_t)DMA1_Channel5)) ? LL_DMA_CHANNEL_5 : \
 467:Drivers/STM32F0xx_HAL_Driver/Inc/stm32f0xx_ll_dma.h ****  ((uint32_t)(__CHANNEL_INSTANCE__) == ((uint32_t)DMA1_Channel6)) ? LL_DMA_CHANNEL_6 : \
 468:Drivers/STM32F0xx_HAL_Driver/Inc/stm32f0xx_ll_dma.h ****  LL_DMA_CHANNEL_7)
 469:Drivers/STM32F0xx_HAL_Driver/Inc/stm32f0xx_ll_dma.h **** #elif defined (DMA1_Channel6)
 470:Drivers/STM32F0xx_HAL_Driver/Inc/stm32f0xx_ll_dma.h **** #define __LL_DMA_GET_CHANNEL(__CHANNEL_INSTANCE__)   \
 471:Drivers/STM32F0xx_HAL_Driver/Inc/stm32f0xx_ll_dma.h **** (((uint32_t)(__CHANNEL_INSTANCE__) == ((uint32_t)DMA1_Channel1)) ? LL_DMA_CHANNEL_1 : \
 472:Drivers/STM32F0xx_HAL_Driver/Inc/stm32f0xx_ll_dma.h ****  ((uint32_t)(__CHANNEL_INSTANCE__) == ((uint32_t)DMA1_Channel2)) ? LL_DMA_CHANNEL_2 : \
 473:Drivers/STM32F0xx_HAL_Driver/Inc/stm32f0xx_ll_dma.h ****  ((uint32_t)(__CHANNEL_INSTANCE__) == ((uint32_t)DMA1_Channel3)) ? LL_DMA_CHANNEL_3 : \
 474:Drivers/STM32F0xx_HAL_Driver/Inc/stm32f0xx_ll_dma.h ****  ((uint32_t)(__CHANNEL_INSTANCE__) == ((uint32_t)DMA1_Channel4)) ? LL_DMA_CHANNEL_4 : \
 475:Drivers/STM32F0xx_HAL_Driver/Inc/stm32f0xx_ll_dma.h ****  ((uint32_t)(__CHANNEL_INSTANCE__) == ((uint32_t)DMA1_Channel5)) ? LL_DMA_CHANNEL_5 : \
 476:Drivers/STM32F0xx_HAL_Driver/Inc/stm32f0xx_ll_dma.h ****  LL_DMA_CHANNEL_6)
ARM GAS  C:\Users\ADMINI~1\AppData\Local\Temp\ccJZf5de.s 			page 21


 477:Drivers/STM32F0xx_HAL_Driver/Inc/stm32f0xx_ll_dma.h **** #else
 478:Drivers/STM32F0xx_HAL_Driver/Inc/stm32f0xx_ll_dma.h **** #define __LL_DMA_GET_CHANNEL(__CHANNEL_INSTANCE__)   \
 479:Drivers/STM32F0xx_HAL_Driver/Inc/stm32f0xx_ll_dma.h **** (((uint32_t)(__CHANNEL_INSTANCE__) == ((uint32_t)DMA1_Channel1)) ? LL_DMA_CHANNEL_1 : \
 480:Drivers/STM32F0xx_HAL_Driver/Inc/stm32f0xx_ll_dma.h ****  ((uint32_t)(__CHANNEL_INSTANCE__) == ((uint32_t)DMA1_Channel2)) ? LL_DMA_CHANNEL_2 : \
 481:Drivers/STM32F0xx_HAL_Driver/Inc/stm32f0xx_ll_dma.h ****  ((uint32_t)(__CHANNEL_INSTANCE__) == ((uint32_t)DMA1_Channel3)) ? LL_DMA_CHANNEL_3 : \
 482:Drivers/STM32F0xx_HAL_Driver/Inc/stm32f0xx_ll_dma.h ****  ((uint32_t)(__CHANNEL_INSTANCE__) == ((uint32_t)DMA1_Channel4)) ? LL_DMA_CHANNEL_4 : \
 483:Drivers/STM32F0xx_HAL_Driver/Inc/stm32f0xx_ll_dma.h ****  LL_DMA_CHANNEL_5)
 484:Drivers/STM32F0xx_HAL_Driver/Inc/stm32f0xx_ll_dma.h **** #endif /* DMA1_Channel6 && DMA1_Channel7 */
 485:Drivers/STM32F0xx_HAL_Driver/Inc/stm32f0xx_ll_dma.h **** #endif
 486:Drivers/STM32F0xx_HAL_Driver/Inc/stm32f0xx_ll_dma.h **** 
 487:Drivers/STM32F0xx_HAL_Driver/Inc/stm32f0xx_ll_dma.h **** /**
 488:Drivers/STM32F0xx_HAL_Driver/Inc/stm32f0xx_ll_dma.h ****   * @brief  Convert DMA Instance DMAx and LL_DMA_CHANNEL_y into DMAx_Channely
 489:Drivers/STM32F0xx_HAL_Driver/Inc/stm32f0xx_ll_dma.h ****   * @param  __DMA_INSTANCE__ DMAx
 490:Drivers/STM32F0xx_HAL_Driver/Inc/stm32f0xx_ll_dma.h ****   * @param  __CHANNEL__ LL_DMA_CHANNEL_y
 491:Drivers/STM32F0xx_HAL_Driver/Inc/stm32f0xx_ll_dma.h ****   * @retval DMAx_Channely
 492:Drivers/STM32F0xx_HAL_Driver/Inc/stm32f0xx_ll_dma.h ****   */
 493:Drivers/STM32F0xx_HAL_Driver/Inc/stm32f0xx_ll_dma.h **** #if defined (DMA2)
 494:Drivers/STM32F0xx_HAL_Driver/Inc/stm32f0xx_ll_dma.h **** #if defined (DMA2_Channel6) && defined (DMA2_Channel7)
 495:Drivers/STM32F0xx_HAL_Driver/Inc/stm32f0xx_ll_dma.h **** #define __LL_DMA_GET_CHANNEL_INSTANCE(__DMA_INSTANCE__, __CHANNEL__)   \
 496:Drivers/STM32F0xx_HAL_Driver/Inc/stm32f0xx_ll_dma.h **** ((((uint32_t)(__DMA_INSTANCE__) == ((uint32_t)DMA1)) && ((uint32_t)(__CHANNEL__) == ((uint32_t)LL_D
 497:Drivers/STM32F0xx_HAL_Driver/Inc/stm32f0xx_ll_dma.h ****  (((uint32_t)(__DMA_INSTANCE__) == ((uint32_t)DMA2)) && ((uint32_t)(__CHANNEL__) == ((uint32_t)LL_D
 498:Drivers/STM32F0xx_HAL_Driver/Inc/stm32f0xx_ll_dma.h ****  (((uint32_t)(__DMA_INSTANCE__) == ((uint32_t)DMA1)) && ((uint32_t)(__CHANNEL__) == ((uint32_t)LL_D
 499:Drivers/STM32F0xx_HAL_Driver/Inc/stm32f0xx_ll_dma.h ****  (((uint32_t)(__DMA_INSTANCE__) == ((uint32_t)DMA2)) && ((uint32_t)(__CHANNEL__) == ((uint32_t)LL_D
 500:Drivers/STM32F0xx_HAL_Driver/Inc/stm32f0xx_ll_dma.h ****  (((uint32_t)(__DMA_INSTANCE__) == ((uint32_t)DMA1)) && ((uint32_t)(__CHANNEL__) == ((uint32_t)LL_D
 501:Drivers/STM32F0xx_HAL_Driver/Inc/stm32f0xx_ll_dma.h ****  (((uint32_t)(__DMA_INSTANCE__) == ((uint32_t)DMA2)) && ((uint32_t)(__CHANNEL__) == ((uint32_t)LL_D
 502:Drivers/STM32F0xx_HAL_Driver/Inc/stm32f0xx_ll_dma.h ****  (((uint32_t)(__DMA_INSTANCE__) == ((uint32_t)DMA1)) && ((uint32_t)(__CHANNEL__) == ((uint32_t)LL_D
 503:Drivers/STM32F0xx_HAL_Driver/Inc/stm32f0xx_ll_dma.h ****  (((uint32_t)(__DMA_INSTANCE__) == ((uint32_t)DMA2)) && ((uint32_t)(__CHANNEL__) == ((uint32_t)LL_D
 504:Drivers/STM32F0xx_HAL_Driver/Inc/stm32f0xx_ll_dma.h ****  (((uint32_t)(__DMA_INSTANCE__) == ((uint32_t)DMA1)) && ((uint32_t)(__CHANNEL__) == ((uint32_t)LL_D
 505:Drivers/STM32F0xx_HAL_Driver/Inc/stm32f0xx_ll_dma.h ****  (((uint32_t)(__DMA_INSTANCE__) == ((uint32_t)DMA2)) && ((uint32_t)(__CHANNEL__) == ((uint32_t)LL_D
 506:Drivers/STM32F0xx_HAL_Driver/Inc/stm32f0xx_ll_dma.h ****  (((uint32_t)(__DMA_INSTANCE__) == ((uint32_t)DMA1)) && ((uint32_t)(__CHANNEL__) == ((uint32_t)LL_D
 507:Drivers/STM32F0xx_HAL_Driver/Inc/stm32f0xx_ll_dma.h ****  (((uint32_t)(__DMA_INSTANCE__) == ((uint32_t)DMA2)) && ((uint32_t)(__CHANNEL__) == ((uint32_t)LL_D
 508:Drivers/STM32F0xx_HAL_Driver/Inc/stm32f0xx_ll_dma.h ****  (((uint32_t)(__DMA_INSTANCE__) == ((uint32_t)DMA1)) && ((uint32_t)(__CHANNEL__) == ((uint32_t)LL_D
 509:Drivers/STM32F0xx_HAL_Driver/Inc/stm32f0xx_ll_dma.h ****  DMA2_Channel7)
 510:Drivers/STM32F0xx_HAL_Driver/Inc/stm32f0xx_ll_dma.h **** #else
 511:Drivers/STM32F0xx_HAL_Driver/Inc/stm32f0xx_ll_dma.h **** #define __LL_DMA_GET_CHANNEL_INSTANCE(__DMA_INSTANCE__, __CHANNEL__)   \
 512:Drivers/STM32F0xx_HAL_Driver/Inc/stm32f0xx_ll_dma.h **** ((((uint32_t)(__DMA_INSTANCE__) == ((uint32_t)DMA1)) && ((uint32_t)(__CHANNEL__) == ((uint32_t)LL_D
 513:Drivers/STM32F0xx_HAL_Driver/Inc/stm32f0xx_ll_dma.h ****  (((uint32_t)(__DMA_INSTANCE__) == ((uint32_t)DMA2)) && ((uint32_t)(__CHANNEL__) == ((uint32_t)LL_D
 514:Drivers/STM32F0xx_HAL_Driver/Inc/stm32f0xx_ll_dma.h ****  (((uint32_t)(__DMA_INSTANCE__) == ((uint32_t)DMA1)) && ((uint32_t)(__CHANNEL__) == ((uint32_t)LL_D
 515:Drivers/STM32F0xx_HAL_Driver/Inc/stm32f0xx_ll_dma.h ****  (((uint32_t)(__DMA_INSTANCE__) == ((uint32_t)DMA2)) && ((uint32_t)(__CHANNEL__) == ((uint32_t)LL_D
 516:Drivers/STM32F0xx_HAL_Driver/Inc/stm32f0xx_ll_dma.h ****  (((uint32_t)(__DMA_INSTANCE__) == ((uint32_t)DMA1)) && ((uint32_t)(__CHANNEL__) == ((uint32_t)LL_D
 517:Drivers/STM32F0xx_HAL_Driver/Inc/stm32f0xx_ll_dma.h ****  (((uint32_t)(__DMA_INSTANCE__) == ((uint32_t)DMA2)) && ((uint32_t)(__CHANNEL__) == ((uint32_t)LL_D
 518:Drivers/STM32F0xx_HAL_Driver/Inc/stm32f0xx_ll_dma.h ****  (((uint32_t)(__DMA_INSTANCE__) == ((uint32_t)DMA1)) && ((uint32_t)(__CHANNEL__) == ((uint32_t)LL_D
 519:Drivers/STM32F0xx_HAL_Driver/Inc/stm32f0xx_ll_dma.h ****  (((uint32_t)(__DMA_INSTANCE__) == ((uint32_t)DMA2)) && ((uint32_t)(__CHANNEL__) == ((uint32_t)LL_D
 520:Drivers/STM32F0xx_HAL_Driver/Inc/stm32f0xx_ll_dma.h ****  (((uint32_t)(__DMA_INSTANCE__) == ((uint32_t)DMA1)) && ((uint32_t)(__CHANNEL__) == ((uint32_t)LL_D
 521:Drivers/STM32F0xx_HAL_Driver/Inc/stm32f0xx_ll_dma.h ****  (((uint32_t)(__DMA_INSTANCE__) == ((uint32_t)DMA2)) && ((uint32_t)(__CHANNEL__) == ((uint32_t)LL_D
 522:Drivers/STM32F0xx_HAL_Driver/Inc/stm32f0xx_ll_dma.h ****  (((uint32_t)(__DMA_INSTANCE__) == ((uint32_t)DMA1)) && ((uint32_t)(__CHANNEL__) == ((uint32_t)LL_D
 523:Drivers/STM32F0xx_HAL_Driver/Inc/stm32f0xx_ll_dma.h ****  DMA1_Channel7)
 524:Drivers/STM32F0xx_HAL_Driver/Inc/stm32f0xx_ll_dma.h **** #endif
 525:Drivers/STM32F0xx_HAL_Driver/Inc/stm32f0xx_ll_dma.h **** #else
 526:Drivers/STM32F0xx_HAL_Driver/Inc/stm32f0xx_ll_dma.h **** #if defined (DMA1_Channel6) && defined (DMA1_Channel7)
 527:Drivers/STM32F0xx_HAL_Driver/Inc/stm32f0xx_ll_dma.h **** #define __LL_DMA_GET_CHANNEL_INSTANCE(__DMA_INSTANCE__, __CHANNEL__)   \
 528:Drivers/STM32F0xx_HAL_Driver/Inc/stm32f0xx_ll_dma.h **** ((((uint32_t)(__DMA_INSTANCE__) == ((uint32_t)DMA1)) && ((uint32_t)(__CHANNEL__) == ((uint32_t)LL_D
 529:Drivers/STM32F0xx_HAL_Driver/Inc/stm32f0xx_ll_dma.h ****  (((uint32_t)(__DMA_INSTANCE__) == ((uint32_t)DMA1)) && ((uint32_t)(__CHANNEL__) == ((uint32_t)LL_D
 530:Drivers/STM32F0xx_HAL_Driver/Inc/stm32f0xx_ll_dma.h ****  (((uint32_t)(__DMA_INSTANCE__) == ((uint32_t)DMA1)) && ((uint32_t)(__CHANNEL__) == ((uint32_t)LL_D
 531:Drivers/STM32F0xx_HAL_Driver/Inc/stm32f0xx_ll_dma.h ****  (((uint32_t)(__DMA_INSTANCE__) == ((uint32_t)DMA1)) && ((uint32_t)(__CHANNEL__) == ((uint32_t)LL_D
 532:Drivers/STM32F0xx_HAL_Driver/Inc/stm32f0xx_ll_dma.h ****  (((uint32_t)(__DMA_INSTANCE__) == ((uint32_t)DMA1)) && ((uint32_t)(__CHANNEL__) == ((uint32_t)LL_D
 533:Drivers/STM32F0xx_HAL_Driver/Inc/stm32f0xx_ll_dma.h ****  (((uint32_t)(__DMA_INSTANCE__) == ((uint32_t)DMA1)) && ((uint32_t)(__CHANNEL__) == ((uint32_t)LL_D
ARM GAS  C:\Users\ADMINI~1\AppData\Local\Temp\ccJZf5de.s 			page 22


 534:Drivers/STM32F0xx_HAL_Driver/Inc/stm32f0xx_ll_dma.h ****  DMA1_Channel7)
 535:Drivers/STM32F0xx_HAL_Driver/Inc/stm32f0xx_ll_dma.h **** #elif defined (DMA1_Channel6)
 536:Drivers/STM32F0xx_HAL_Driver/Inc/stm32f0xx_ll_dma.h **** #define __LL_DMA_GET_CHANNEL_INSTANCE(__DMA_INSTANCE__, __CHANNEL__)   \
 537:Drivers/STM32F0xx_HAL_Driver/Inc/stm32f0xx_ll_dma.h **** ((((uint32_t)(__DMA_INSTANCE__) == ((uint32_t)DMA1)) && ((uint32_t)(__CHANNEL__) == ((uint32_t)LL_D
 538:Drivers/STM32F0xx_HAL_Driver/Inc/stm32f0xx_ll_dma.h ****  (((uint32_t)(__DMA_INSTANCE__) == ((uint32_t)DMA1)) && ((uint32_t)(__CHANNEL__) == ((uint32_t)LL_D
 539:Drivers/STM32F0xx_HAL_Driver/Inc/stm32f0xx_ll_dma.h ****  (((uint32_t)(__DMA_INSTANCE__) == ((uint32_t)DMA1)) && ((uint32_t)(__CHANNEL__) == ((uint32_t)LL_D
 540:Drivers/STM32F0xx_HAL_Driver/Inc/stm32f0xx_ll_dma.h ****  (((uint32_t)(__DMA_INSTANCE__) == ((uint32_t)DMA1)) && ((uint32_t)(__CHANNEL__) == ((uint32_t)LL_D
 541:Drivers/STM32F0xx_HAL_Driver/Inc/stm32f0xx_ll_dma.h ****  (((uint32_t)(__DMA_INSTANCE__) == ((uint32_t)DMA1)) && ((uint32_t)(__CHANNEL__) == ((uint32_t)LL_D
 542:Drivers/STM32F0xx_HAL_Driver/Inc/stm32f0xx_ll_dma.h ****  DMA1_Channel6)
 543:Drivers/STM32F0xx_HAL_Driver/Inc/stm32f0xx_ll_dma.h **** #else
 544:Drivers/STM32F0xx_HAL_Driver/Inc/stm32f0xx_ll_dma.h **** #define __LL_DMA_GET_CHANNEL_INSTANCE(__DMA_INSTANCE__, __CHANNEL__)   \
 545:Drivers/STM32F0xx_HAL_Driver/Inc/stm32f0xx_ll_dma.h **** ((((uint32_t)(__DMA_INSTANCE__) == ((uint32_t)DMA1)) && ((uint32_t)(__CHANNEL__) == ((uint32_t)LL_D
 546:Drivers/STM32F0xx_HAL_Driver/Inc/stm32f0xx_ll_dma.h ****  (((uint32_t)(__DMA_INSTANCE__) == ((uint32_t)DMA1)) && ((uint32_t)(__CHANNEL__) == ((uint32_t)LL_D
 547:Drivers/STM32F0xx_HAL_Driver/Inc/stm32f0xx_ll_dma.h ****  (((uint32_t)(__DMA_INSTANCE__) == ((uint32_t)DMA1)) && ((uint32_t)(__CHANNEL__) == ((uint32_t)LL_D
 548:Drivers/STM32F0xx_HAL_Driver/Inc/stm32f0xx_ll_dma.h ****  (((uint32_t)(__DMA_INSTANCE__) == ((uint32_t)DMA1)) && ((uint32_t)(__CHANNEL__) == ((uint32_t)LL_D
 549:Drivers/STM32F0xx_HAL_Driver/Inc/stm32f0xx_ll_dma.h ****  DMA1_Channel5)
 550:Drivers/STM32F0xx_HAL_Driver/Inc/stm32f0xx_ll_dma.h **** #endif /* DMA1_Channel6 && DMA1_Channel7 */
 551:Drivers/STM32F0xx_HAL_Driver/Inc/stm32f0xx_ll_dma.h **** #endif
 552:Drivers/STM32F0xx_HAL_Driver/Inc/stm32f0xx_ll_dma.h **** 
 553:Drivers/STM32F0xx_HAL_Driver/Inc/stm32f0xx_ll_dma.h **** /**
 554:Drivers/STM32F0xx_HAL_Driver/Inc/stm32f0xx_ll_dma.h ****   * @}
 555:Drivers/STM32F0xx_HAL_Driver/Inc/stm32f0xx_ll_dma.h ****   */
 556:Drivers/STM32F0xx_HAL_Driver/Inc/stm32f0xx_ll_dma.h **** 
 557:Drivers/STM32F0xx_HAL_Driver/Inc/stm32f0xx_ll_dma.h **** /**
 558:Drivers/STM32F0xx_HAL_Driver/Inc/stm32f0xx_ll_dma.h ****   * @}
 559:Drivers/STM32F0xx_HAL_Driver/Inc/stm32f0xx_ll_dma.h ****   */
 560:Drivers/STM32F0xx_HAL_Driver/Inc/stm32f0xx_ll_dma.h **** 
 561:Drivers/STM32F0xx_HAL_Driver/Inc/stm32f0xx_ll_dma.h **** /* Exported functions --------------------------------------------------------*/
 562:Drivers/STM32F0xx_HAL_Driver/Inc/stm32f0xx_ll_dma.h **** /** @defgroup DMA_LL_Exported_Functions DMA Exported Functions
 563:Drivers/STM32F0xx_HAL_Driver/Inc/stm32f0xx_ll_dma.h ****  * @{
 564:Drivers/STM32F0xx_HAL_Driver/Inc/stm32f0xx_ll_dma.h ****  */
 565:Drivers/STM32F0xx_HAL_Driver/Inc/stm32f0xx_ll_dma.h **** 
 566:Drivers/STM32F0xx_HAL_Driver/Inc/stm32f0xx_ll_dma.h **** /** @defgroup DMA_LL_EF_Configuration Configuration
 567:Drivers/STM32F0xx_HAL_Driver/Inc/stm32f0xx_ll_dma.h ****   * @{
 568:Drivers/STM32F0xx_HAL_Driver/Inc/stm32f0xx_ll_dma.h ****   */
 569:Drivers/STM32F0xx_HAL_Driver/Inc/stm32f0xx_ll_dma.h **** /**
 570:Drivers/STM32F0xx_HAL_Driver/Inc/stm32f0xx_ll_dma.h ****   * @brief  Enable DMA channel.
 571:Drivers/STM32F0xx_HAL_Driver/Inc/stm32f0xx_ll_dma.h ****   * @rmtoll CCR          EN            LL_DMA_EnableChannel
 572:Drivers/STM32F0xx_HAL_Driver/Inc/stm32f0xx_ll_dma.h ****   * @param  DMAx DMAx Instance
 573:Drivers/STM32F0xx_HAL_Driver/Inc/stm32f0xx_ll_dma.h ****   * @param  Channel This parameter can be one of the following values:
 574:Drivers/STM32F0xx_HAL_Driver/Inc/stm32f0xx_ll_dma.h ****   *         @arg @ref LL_DMA_CHANNEL_1
 575:Drivers/STM32F0xx_HAL_Driver/Inc/stm32f0xx_ll_dma.h ****   *         @arg @ref LL_DMA_CHANNEL_2
 576:Drivers/STM32F0xx_HAL_Driver/Inc/stm32f0xx_ll_dma.h ****   *         @arg @ref LL_DMA_CHANNEL_3
 577:Drivers/STM32F0xx_HAL_Driver/Inc/stm32f0xx_ll_dma.h ****   *         @arg @ref LL_DMA_CHANNEL_4
 578:Drivers/STM32F0xx_HAL_Driver/Inc/stm32f0xx_ll_dma.h ****   *         @arg @ref LL_DMA_CHANNEL_5
 579:Drivers/STM32F0xx_HAL_Driver/Inc/stm32f0xx_ll_dma.h ****   *         @arg @ref LL_DMA_CHANNEL_6
 580:Drivers/STM32F0xx_HAL_Driver/Inc/stm32f0xx_ll_dma.h ****   *         @arg @ref LL_DMA_CHANNEL_7
 581:Drivers/STM32F0xx_HAL_Driver/Inc/stm32f0xx_ll_dma.h ****   * @retval None
 582:Drivers/STM32F0xx_HAL_Driver/Inc/stm32f0xx_ll_dma.h ****   */
 583:Drivers/STM32F0xx_HAL_Driver/Inc/stm32f0xx_ll_dma.h **** __STATIC_INLINE void LL_DMA_EnableChannel(DMA_TypeDef *DMAx, uint32_t Channel)
 584:Drivers/STM32F0xx_HAL_Driver/Inc/stm32f0xx_ll_dma.h **** {
 585:Drivers/STM32F0xx_HAL_Driver/Inc/stm32f0xx_ll_dma.h ****   SET_BIT(((DMA_Channel_TypeDef *)((uint32_t)((uint32_t)DMAx + CHANNEL_OFFSET_TAB[Channel - 1U])))-
 586:Drivers/STM32F0xx_HAL_Driver/Inc/stm32f0xx_ll_dma.h **** }
 587:Drivers/STM32F0xx_HAL_Driver/Inc/stm32f0xx_ll_dma.h **** 
 588:Drivers/STM32F0xx_HAL_Driver/Inc/stm32f0xx_ll_dma.h **** /**
 589:Drivers/STM32F0xx_HAL_Driver/Inc/stm32f0xx_ll_dma.h ****   * @brief  Disable DMA channel.
 590:Drivers/STM32F0xx_HAL_Driver/Inc/stm32f0xx_ll_dma.h ****   * @rmtoll CCR          EN            LL_DMA_DisableChannel
ARM GAS  C:\Users\ADMINI~1\AppData\Local\Temp\ccJZf5de.s 			page 23


 591:Drivers/STM32F0xx_HAL_Driver/Inc/stm32f0xx_ll_dma.h ****   * @param  DMAx DMAx Instance
 592:Drivers/STM32F0xx_HAL_Driver/Inc/stm32f0xx_ll_dma.h ****   * @param  Channel This parameter can be one of the following values:
 593:Drivers/STM32F0xx_HAL_Driver/Inc/stm32f0xx_ll_dma.h ****   *         @arg @ref LL_DMA_CHANNEL_1
 594:Drivers/STM32F0xx_HAL_Driver/Inc/stm32f0xx_ll_dma.h ****   *         @arg @ref LL_DMA_CHANNEL_2
 595:Drivers/STM32F0xx_HAL_Driver/Inc/stm32f0xx_ll_dma.h ****   *         @arg @ref LL_DMA_CHANNEL_3
 596:Drivers/STM32F0xx_HAL_Driver/Inc/stm32f0xx_ll_dma.h ****   *         @arg @ref LL_DMA_CHANNEL_4
 597:Drivers/STM32F0xx_HAL_Driver/Inc/stm32f0xx_ll_dma.h ****   *         @arg @ref LL_DMA_CHANNEL_5
 598:Drivers/STM32F0xx_HAL_Driver/Inc/stm32f0xx_ll_dma.h ****   *         @arg @ref LL_DMA_CHANNEL_6
 599:Drivers/STM32F0xx_HAL_Driver/Inc/stm32f0xx_ll_dma.h ****   *         @arg @ref LL_DMA_CHANNEL_7
 600:Drivers/STM32F0xx_HAL_Driver/Inc/stm32f0xx_ll_dma.h ****   * @retval None
 601:Drivers/STM32F0xx_HAL_Driver/Inc/stm32f0xx_ll_dma.h ****   */
 602:Drivers/STM32F0xx_HAL_Driver/Inc/stm32f0xx_ll_dma.h **** __STATIC_INLINE void LL_DMA_DisableChannel(DMA_TypeDef *DMAx, uint32_t Channel)
 603:Drivers/STM32F0xx_HAL_Driver/Inc/stm32f0xx_ll_dma.h **** {
 604:Drivers/STM32F0xx_HAL_Driver/Inc/stm32f0xx_ll_dma.h ****   CLEAR_BIT(((DMA_Channel_TypeDef *)((uint32_t)((uint32_t)DMAx + CHANNEL_OFFSET_TAB[Channel - 1U]))
 605:Drivers/STM32F0xx_HAL_Driver/Inc/stm32f0xx_ll_dma.h **** }
 606:Drivers/STM32F0xx_HAL_Driver/Inc/stm32f0xx_ll_dma.h **** 
 607:Drivers/STM32F0xx_HAL_Driver/Inc/stm32f0xx_ll_dma.h **** /**
 608:Drivers/STM32F0xx_HAL_Driver/Inc/stm32f0xx_ll_dma.h ****   * @brief  Check if DMA channel is enabled or disabled.
 609:Drivers/STM32F0xx_HAL_Driver/Inc/stm32f0xx_ll_dma.h ****   * @rmtoll CCR          EN            LL_DMA_IsEnabledChannel
 610:Drivers/STM32F0xx_HAL_Driver/Inc/stm32f0xx_ll_dma.h ****   * @param  DMAx DMAx Instance
 611:Drivers/STM32F0xx_HAL_Driver/Inc/stm32f0xx_ll_dma.h ****   * @param  Channel This parameter can be one of the following values:
 612:Drivers/STM32F0xx_HAL_Driver/Inc/stm32f0xx_ll_dma.h ****   *         @arg @ref LL_DMA_CHANNEL_1
 613:Drivers/STM32F0xx_HAL_Driver/Inc/stm32f0xx_ll_dma.h ****   *         @arg @ref LL_DMA_CHANNEL_2
 614:Drivers/STM32F0xx_HAL_Driver/Inc/stm32f0xx_ll_dma.h ****   *         @arg @ref LL_DMA_CHANNEL_3
 615:Drivers/STM32F0xx_HAL_Driver/Inc/stm32f0xx_ll_dma.h ****   *         @arg @ref LL_DMA_CHANNEL_4
 616:Drivers/STM32F0xx_HAL_Driver/Inc/stm32f0xx_ll_dma.h ****   *         @arg @ref LL_DMA_CHANNEL_5
 617:Drivers/STM32F0xx_HAL_Driver/Inc/stm32f0xx_ll_dma.h ****   *         @arg @ref LL_DMA_CHANNEL_6
 618:Drivers/STM32F0xx_HAL_Driver/Inc/stm32f0xx_ll_dma.h ****   *         @arg @ref LL_DMA_CHANNEL_7
 619:Drivers/STM32F0xx_HAL_Driver/Inc/stm32f0xx_ll_dma.h ****   * @retval State of bit (1 or 0).
 620:Drivers/STM32F0xx_HAL_Driver/Inc/stm32f0xx_ll_dma.h ****   */
 621:Drivers/STM32F0xx_HAL_Driver/Inc/stm32f0xx_ll_dma.h **** __STATIC_INLINE uint32_t LL_DMA_IsEnabledChannel(DMA_TypeDef *DMAx, uint32_t Channel)
 622:Drivers/STM32F0xx_HAL_Driver/Inc/stm32f0xx_ll_dma.h **** {
 623:Drivers/STM32F0xx_HAL_Driver/Inc/stm32f0xx_ll_dma.h ****   return (READ_BIT(((DMA_Channel_TypeDef *)((uint32_t)((uint32_t)DMAx + CHANNEL_OFFSET_TAB[Channel 
 624:Drivers/STM32F0xx_HAL_Driver/Inc/stm32f0xx_ll_dma.h ****                    DMA_CCR_EN) == (DMA_CCR_EN));
 625:Drivers/STM32F0xx_HAL_Driver/Inc/stm32f0xx_ll_dma.h **** }
 626:Drivers/STM32F0xx_HAL_Driver/Inc/stm32f0xx_ll_dma.h **** 
 627:Drivers/STM32F0xx_HAL_Driver/Inc/stm32f0xx_ll_dma.h **** /**
 628:Drivers/STM32F0xx_HAL_Driver/Inc/stm32f0xx_ll_dma.h ****   * @brief  Configure all parameters link to DMA transfer.
 629:Drivers/STM32F0xx_HAL_Driver/Inc/stm32f0xx_ll_dma.h ****   * @rmtoll CCR          DIR           LL_DMA_ConfigTransfer\n
 630:Drivers/STM32F0xx_HAL_Driver/Inc/stm32f0xx_ll_dma.h ****   *         CCR          MEM2MEM       LL_DMA_ConfigTransfer\n
 631:Drivers/STM32F0xx_HAL_Driver/Inc/stm32f0xx_ll_dma.h ****   *         CCR          CIRC          LL_DMA_ConfigTransfer\n
 632:Drivers/STM32F0xx_HAL_Driver/Inc/stm32f0xx_ll_dma.h ****   *         CCR          PINC          LL_DMA_ConfigTransfer\n
 633:Drivers/STM32F0xx_HAL_Driver/Inc/stm32f0xx_ll_dma.h ****   *         CCR          MINC          LL_DMA_ConfigTransfer\n
 634:Drivers/STM32F0xx_HAL_Driver/Inc/stm32f0xx_ll_dma.h ****   *         CCR          PSIZE         LL_DMA_ConfigTransfer\n
 635:Drivers/STM32F0xx_HAL_Driver/Inc/stm32f0xx_ll_dma.h ****   *         CCR          MSIZE         LL_DMA_ConfigTransfer\n
 636:Drivers/STM32F0xx_HAL_Driver/Inc/stm32f0xx_ll_dma.h ****   *         CCR          PL            LL_DMA_ConfigTransfer
 637:Drivers/STM32F0xx_HAL_Driver/Inc/stm32f0xx_ll_dma.h ****   * @param  DMAx DMAx Instance
 638:Drivers/STM32F0xx_HAL_Driver/Inc/stm32f0xx_ll_dma.h ****   * @param  Channel This parameter can be one of the following values:
 639:Drivers/STM32F0xx_HAL_Driver/Inc/stm32f0xx_ll_dma.h ****   *         @arg @ref LL_DMA_CHANNEL_1
 640:Drivers/STM32F0xx_HAL_Driver/Inc/stm32f0xx_ll_dma.h ****   *         @arg @ref LL_DMA_CHANNEL_2
 641:Drivers/STM32F0xx_HAL_Driver/Inc/stm32f0xx_ll_dma.h ****   *         @arg @ref LL_DMA_CHANNEL_3
 642:Drivers/STM32F0xx_HAL_Driver/Inc/stm32f0xx_ll_dma.h ****   *         @arg @ref LL_DMA_CHANNEL_4
 643:Drivers/STM32F0xx_HAL_Driver/Inc/stm32f0xx_ll_dma.h ****   *         @arg @ref LL_DMA_CHANNEL_5
 644:Drivers/STM32F0xx_HAL_Driver/Inc/stm32f0xx_ll_dma.h ****   *         @arg @ref LL_DMA_CHANNEL_6
 645:Drivers/STM32F0xx_HAL_Driver/Inc/stm32f0xx_ll_dma.h ****   *         @arg @ref LL_DMA_CHANNEL_7
 646:Drivers/STM32F0xx_HAL_Driver/Inc/stm32f0xx_ll_dma.h ****   * @param  Configuration This parameter must be a combination of all the following values:
 647:Drivers/STM32F0xx_HAL_Driver/Inc/stm32f0xx_ll_dma.h ****   *         @arg @ref LL_DMA_DIRECTION_PERIPH_TO_MEMORY or @ref LL_DMA_DIRECTION_MEMORY_TO_PERIPH o
ARM GAS  C:\Users\ADMINI~1\AppData\Local\Temp\ccJZf5de.s 			page 24


 648:Drivers/STM32F0xx_HAL_Driver/Inc/stm32f0xx_ll_dma.h ****   *         @arg @ref LL_DMA_MODE_NORMAL or @ref LL_DMA_MODE_CIRCULAR
 649:Drivers/STM32F0xx_HAL_Driver/Inc/stm32f0xx_ll_dma.h ****   *         @arg @ref LL_DMA_PERIPH_INCREMENT or @ref LL_DMA_PERIPH_NOINCREMENT
 650:Drivers/STM32F0xx_HAL_Driver/Inc/stm32f0xx_ll_dma.h ****   *         @arg @ref LL_DMA_MEMORY_INCREMENT or @ref LL_DMA_MEMORY_NOINCREMENT
 651:Drivers/STM32F0xx_HAL_Driver/Inc/stm32f0xx_ll_dma.h ****   *         @arg @ref LL_DMA_PDATAALIGN_BYTE or @ref LL_DMA_PDATAALIGN_HALFWORD or @ref LL_DMA_PDAT
 652:Drivers/STM32F0xx_HAL_Driver/Inc/stm32f0xx_ll_dma.h ****   *         @arg @ref LL_DMA_MDATAALIGN_BYTE or @ref LL_DMA_MDATAALIGN_HALFWORD or @ref LL_DMA_MDAT
 653:Drivers/STM32F0xx_HAL_Driver/Inc/stm32f0xx_ll_dma.h ****   *         @arg @ref LL_DMA_PRIORITY_LOW or @ref LL_DMA_PRIORITY_MEDIUM or @ref LL_DMA_PRIORITY_HI
 654:Drivers/STM32F0xx_HAL_Driver/Inc/stm32f0xx_ll_dma.h ****   * @retval None
 655:Drivers/STM32F0xx_HAL_Driver/Inc/stm32f0xx_ll_dma.h ****   */
 656:Drivers/STM32F0xx_HAL_Driver/Inc/stm32f0xx_ll_dma.h **** __STATIC_INLINE void LL_DMA_ConfigTransfer(DMA_TypeDef *DMAx, uint32_t Channel, uint32_t Configurat
 657:Drivers/STM32F0xx_HAL_Driver/Inc/stm32f0xx_ll_dma.h **** {
 658:Drivers/STM32F0xx_HAL_Driver/Inc/stm32f0xx_ll_dma.h ****   MODIFY_REG(((DMA_Channel_TypeDef *)((uint32_t)((uint32_t)DMAx + CHANNEL_OFFSET_TAB[Channel - 1U])
 659:Drivers/STM32F0xx_HAL_Driver/Inc/stm32f0xx_ll_dma.h ****              DMA_CCR_DIR | DMA_CCR_MEM2MEM | DMA_CCR_CIRC | DMA_CCR_PINC | DMA_CCR_MINC | DMA_CCR_P
 660:Drivers/STM32F0xx_HAL_Driver/Inc/stm32f0xx_ll_dma.h ****              Configuration);
 661:Drivers/STM32F0xx_HAL_Driver/Inc/stm32f0xx_ll_dma.h **** }
 662:Drivers/STM32F0xx_HAL_Driver/Inc/stm32f0xx_ll_dma.h **** 
 663:Drivers/STM32F0xx_HAL_Driver/Inc/stm32f0xx_ll_dma.h **** /**
 664:Drivers/STM32F0xx_HAL_Driver/Inc/stm32f0xx_ll_dma.h ****   * @brief  Set Data transfer direction (read from peripheral or from memory).
 665:Drivers/STM32F0xx_HAL_Driver/Inc/stm32f0xx_ll_dma.h ****   * @rmtoll CCR          DIR           LL_DMA_SetDataTransferDirection\n
 666:Drivers/STM32F0xx_HAL_Driver/Inc/stm32f0xx_ll_dma.h ****   *         CCR          MEM2MEM       LL_DMA_SetDataTransferDirection
 667:Drivers/STM32F0xx_HAL_Driver/Inc/stm32f0xx_ll_dma.h ****   * @param  DMAx DMAx Instance
 668:Drivers/STM32F0xx_HAL_Driver/Inc/stm32f0xx_ll_dma.h ****   * @param  Channel This parameter can be one of the following values:
 669:Drivers/STM32F0xx_HAL_Driver/Inc/stm32f0xx_ll_dma.h ****   *         @arg @ref LL_DMA_CHANNEL_1
 670:Drivers/STM32F0xx_HAL_Driver/Inc/stm32f0xx_ll_dma.h ****   *         @arg @ref LL_DMA_CHANNEL_2
 671:Drivers/STM32F0xx_HAL_Driver/Inc/stm32f0xx_ll_dma.h ****   *         @arg @ref LL_DMA_CHANNEL_3
 672:Drivers/STM32F0xx_HAL_Driver/Inc/stm32f0xx_ll_dma.h ****   *         @arg @ref LL_DMA_CHANNEL_4
 673:Drivers/STM32F0xx_HAL_Driver/Inc/stm32f0xx_ll_dma.h ****   *         @arg @ref LL_DMA_CHANNEL_5
 674:Drivers/STM32F0xx_HAL_Driver/Inc/stm32f0xx_ll_dma.h ****   *         @arg @ref LL_DMA_CHANNEL_6
 675:Drivers/STM32F0xx_HAL_Driver/Inc/stm32f0xx_ll_dma.h ****   *         @arg @ref LL_DMA_CHANNEL_7
 676:Drivers/STM32F0xx_HAL_Driver/Inc/stm32f0xx_ll_dma.h ****   * @param  Direction This parameter can be one of the following values:
 677:Drivers/STM32F0xx_HAL_Driver/Inc/stm32f0xx_ll_dma.h ****   *         @arg @ref LL_DMA_DIRECTION_PERIPH_TO_MEMORY
 678:Drivers/STM32F0xx_HAL_Driver/Inc/stm32f0xx_ll_dma.h ****   *         @arg @ref LL_DMA_DIRECTION_MEMORY_TO_PERIPH
 679:Drivers/STM32F0xx_HAL_Driver/Inc/stm32f0xx_ll_dma.h ****   *         @arg @ref LL_DMA_DIRECTION_MEMORY_TO_MEMORY
 680:Drivers/STM32F0xx_HAL_Driver/Inc/stm32f0xx_ll_dma.h ****   * @retval None
 681:Drivers/STM32F0xx_HAL_Driver/Inc/stm32f0xx_ll_dma.h ****   */
 682:Drivers/STM32F0xx_HAL_Driver/Inc/stm32f0xx_ll_dma.h **** __STATIC_INLINE void LL_DMA_SetDataTransferDirection(DMA_TypeDef *DMAx, uint32_t Channel, uint32_t 
 177              		.loc 3 682 22 view .LVU49
 178              	.LBB113:
 683:Drivers/STM32F0xx_HAL_Driver/Inc/stm32f0xx_ll_dma.h **** {
 684:Drivers/STM32F0xx_HAL_Driver/Inc/stm32f0xx_ll_dma.h ****   MODIFY_REG(((DMA_Channel_TypeDef *)((uint32_t)((uint32_t)DMAx + CHANNEL_OFFSET_TAB[Channel - 1U])
 179              		.loc 3 684 3 view .LVU50
 180 008a 2E4B     		ldr	r3, .L2+4
 181 008c 1A68     		ldr	r2, [r3]
 182 008e 2E49     		ldr	r1, .L2+8
 183 0090 0A40     		ands	r2, r1
 184 0092 1A60     		str	r2, [r3]
 185              	.LVL6:
 186              		.loc 3 684 3 is_stmt 0 view .LVU51
 187              	.LBE113:
 188              	.LBE112:
  69:Src/i2c.c     **** 
  70:Src/i2c.c     ****   LL_DMA_SetChannelPriorityLevel(DMA1, LL_DMA_CHANNEL_3, LL_DMA_PRIORITY_LOW);
 189              		.loc 1 70 3 is_stmt 1 view .LVU52
 190              	.LBB114:
 191              	.LBI114:
 685:Drivers/STM32F0xx_HAL_Driver/Inc/stm32f0xx_ll_dma.h ****              DMA_CCR_DIR | DMA_CCR_MEM2MEM, Direction);
 686:Drivers/STM32F0xx_HAL_Driver/Inc/stm32f0xx_ll_dma.h **** }
 687:Drivers/STM32F0xx_HAL_Driver/Inc/stm32f0xx_ll_dma.h **** 
ARM GAS  C:\Users\ADMINI~1\AppData\Local\Temp\ccJZf5de.s 			page 25


 688:Drivers/STM32F0xx_HAL_Driver/Inc/stm32f0xx_ll_dma.h **** /**
 689:Drivers/STM32F0xx_HAL_Driver/Inc/stm32f0xx_ll_dma.h ****   * @brief  Get Data transfer direction (read from peripheral or from memory).
 690:Drivers/STM32F0xx_HAL_Driver/Inc/stm32f0xx_ll_dma.h ****   * @rmtoll CCR          DIR           LL_DMA_GetDataTransferDirection\n
 691:Drivers/STM32F0xx_HAL_Driver/Inc/stm32f0xx_ll_dma.h ****   *         CCR          MEM2MEM       LL_DMA_GetDataTransferDirection
 692:Drivers/STM32F0xx_HAL_Driver/Inc/stm32f0xx_ll_dma.h ****   * @param  DMAx DMAx Instance
 693:Drivers/STM32F0xx_HAL_Driver/Inc/stm32f0xx_ll_dma.h ****   * @param  Channel This parameter can be one of the following values:
 694:Drivers/STM32F0xx_HAL_Driver/Inc/stm32f0xx_ll_dma.h ****   *         @arg @ref LL_DMA_CHANNEL_1
 695:Drivers/STM32F0xx_HAL_Driver/Inc/stm32f0xx_ll_dma.h ****   *         @arg @ref LL_DMA_CHANNEL_2
 696:Drivers/STM32F0xx_HAL_Driver/Inc/stm32f0xx_ll_dma.h ****   *         @arg @ref LL_DMA_CHANNEL_3
 697:Drivers/STM32F0xx_HAL_Driver/Inc/stm32f0xx_ll_dma.h ****   *         @arg @ref LL_DMA_CHANNEL_4
 698:Drivers/STM32F0xx_HAL_Driver/Inc/stm32f0xx_ll_dma.h ****   *         @arg @ref LL_DMA_CHANNEL_5
 699:Drivers/STM32F0xx_HAL_Driver/Inc/stm32f0xx_ll_dma.h ****   *         @arg @ref LL_DMA_CHANNEL_6
 700:Drivers/STM32F0xx_HAL_Driver/Inc/stm32f0xx_ll_dma.h ****   *         @arg @ref LL_DMA_CHANNEL_7
 701:Drivers/STM32F0xx_HAL_Driver/Inc/stm32f0xx_ll_dma.h ****   * @retval Returned value can be one of the following values:
 702:Drivers/STM32F0xx_HAL_Driver/Inc/stm32f0xx_ll_dma.h ****   *         @arg @ref LL_DMA_DIRECTION_PERIPH_TO_MEMORY
 703:Drivers/STM32F0xx_HAL_Driver/Inc/stm32f0xx_ll_dma.h ****   *         @arg @ref LL_DMA_DIRECTION_MEMORY_TO_PERIPH
 704:Drivers/STM32F0xx_HAL_Driver/Inc/stm32f0xx_ll_dma.h ****   *         @arg @ref LL_DMA_DIRECTION_MEMORY_TO_MEMORY
 705:Drivers/STM32F0xx_HAL_Driver/Inc/stm32f0xx_ll_dma.h ****   */
 706:Drivers/STM32F0xx_HAL_Driver/Inc/stm32f0xx_ll_dma.h **** __STATIC_INLINE uint32_t LL_DMA_GetDataTransferDirection(DMA_TypeDef *DMAx, uint32_t Channel)
 707:Drivers/STM32F0xx_HAL_Driver/Inc/stm32f0xx_ll_dma.h **** {
 708:Drivers/STM32F0xx_HAL_Driver/Inc/stm32f0xx_ll_dma.h ****   return (READ_BIT(((DMA_Channel_TypeDef *)((uint32_t)((uint32_t)DMAx + CHANNEL_OFFSET_TAB[Channel 
 709:Drivers/STM32F0xx_HAL_Driver/Inc/stm32f0xx_ll_dma.h ****                    DMA_CCR_DIR | DMA_CCR_MEM2MEM));
 710:Drivers/STM32F0xx_HAL_Driver/Inc/stm32f0xx_ll_dma.h **** }
 711:Drivers/STM32F0xx_HAL_Driver/Inc/stm32f0xx_ll_dma.h **** 
 712:Drivers/STM32F0xx_HAL_Driver/Inc/stm32f0xx_ll_dma.h **** /**
 713:Drivers/STM32F0xx_HAL_Driver/Inc/stm32f0xx_ll_dma.h ****   * @brief  Set DMA mode circular or normal.
 714:Drivers/STM32F0xx_HAL_Driver/Inc/stm32f0xx_ll_dma.h ****   * @note The circular buffer mode cannot be used if the memory-to-memory
 715:Drivers/STM32F0xx_HAL_Driver/Inc/stm32f0xx_ll_dma.h ****   * data transfer is configured on the selected Channel.
 716:Drivers/STM32F0xx_HAL_Driver/Inc/stm32f0xx_ll_dma.h ****   * @rmtoll CCR          CIRC          LL_DMA_SetMode
 717:Drivers/STM32F0xx_HAL_Driver/Inc/stm32f0xx_ll_dma.h ****   * @param  DMAx DMAx Instance
 718:Drivers/STM32F0xx_HAL_Driver/Inc/stm32f0xx_ll_dma.h ****   * @param  Channel This parameter can be one of the following values:
 719:Drivers/STM32F0xx_HAL_Driver/Inc/stm32f0xx_ll_dma.h ****   *         @arg @ref LL_DMA_CHANNEL_1
 720:Drivers/STM32F0xx_HAL_Driver/Inc/stm32f0xx_ll_dma.h ****   *         @arg @ref LL_DMA_CHANNEL_2
 721:Drivers/STM32F0xx_HAL_Driver/Inc/stm32f0xx_ll_dma.h ****   *         @arg @ref LL_DMA_CHANNEL_3
 722:Drivers/STM32F0xx_HAL_Driver/Inc/stm32f0xx_ll_dma.h ****   *         @arg @ref LL_DMA_CHANNEL_4
 723:Drivers/STM32F0xx_HAL_Driver/Inc/stm32f0xx_ll_dma.h ****   *         @arg @ref LL_DMA_CHANNEL_5
 724:Drivers/STM32F0xx_HAL_Driver/Inc/stm32f0xx_ll_dma.h ****   *         @arg @ref LL_DMA_CHANNEL_6
 725:Drivers/STM32F0xx_HAL_Driver/Inc/stm32f0xx_ll_dma.h ****   *         @arg @ref LL_DMA_CHANNEL_7
 726:Drivers/STM32F0xx_HAL_Driver/Inc/stm32f0xx_ll_dma.h ****   * @param  Mode This parameter can be one of the following values:
 727:Drivers/STM32F0xx_HAL_Driver/Inc/stm32f0xx_ll_dma.h ****   *         @arg @ref LL_DMA_MODE_NORMAL
 728:Drivers/STM32F0xx_HAL_Driver/Inc/stm32f0xx_ll_dma.h ****   *         @arg @ref LL_DMA_MODE_CIRCULAR
 729:Drivers/STM32F0xx_HAL_Driver/Inc/stm32f0xx_ll_dma.h ****   * @retval None
 730:Drivers/STM32F0xx_HAL_Driver/Inc/stm32f0xx_ll_dma.h ****   */
 731:Drivers/STM32F0xx_HAL_Driver/Inc/stm32f0xx_ll_dma.h **** __STATIC_INLINE void LL_DMA_SetMode(DMA_TypeDef *DMAx, uint32_t Channel, uint32_t Mode)
 732:Drivers/STM32F0xx_HAL_Driver/Inc/stm32f0xx_ll_dma.h **** {
 733:Drivers/STM32F0xx_HAL_Driver/Inc/stm32f0xx_ll_dma.h ****   MODIFY_REG(((DMA_Channel_TypeDef *)((uint32_t)((uint32_t)DMAx + CHANNEL_OFFSET_TAB[Channel - 1U])
 734:Drivers/STM32F0xx_HAL_Driver/Inc/stm32f0xx_ll_dma.h ****              Mode);
 735:Drivers/STM32F0xx_HAL_Driver/Inc/stm32f0xx_ll_dma.h **** }
 736:Drivers/STM32F0xx_HAL_Driver/Inc/stm32f0xx_ll_dma.h **** 
 737:Drivers/STM32F0xx_HAL_Driver/Inc/stm32f0xx_ll_dma.h **** /**
 738:Drivers/STM32F0xx_HAL_Driver/Inc/stm32f0xx_ll_dma.h ****   * @brief  Get DMA mode circular or normal.
 739:Drivers/STM32F0xx_HAL_Driver/Inc/stm32f0xx_ll_dma.h ****   * @rmtoll CCR          CIRC          LL_DMA_GetMode
 740:Drivers/STM32F0xx_HAL_Driver/Inc/stm32f0xx_ll_dma.h ****   * @param  DMAx DMAx Instance
 741:Drivers/STM32F0xx_HAL_Driver/Inc/stm32f0xx_ll_dma.h ****   * @param  Channel This parameter can be one of the following values:
 742:Drivers/STM32F0xx_HAL_Driver/Inc/stm32f0xx_ll_dma.h ****   *         @arg @ref LL_DMA_CHANNEL_1
 743:Drivers/STM32F0xx_HAL_Driver/Inc/stm32f0xx_ll_dma.h ****   *         @arg @ref LL_DMA_CHANNEL_2
 744:Drivers/STM32F0xx_HAL_Driver/Inc/stm32f0xx_ll_dma.h ****   *         @arg @ref LL_DMA_CHANNEL_3
ARM GAS  C:\Users\ADMINI~1\AppData\Local\Temp\ccJZf5de.s 			page 26


 745:Drivers/STM32F0xx_HAL_Driver/Inc/stm32f0xx_ll_dma.h ****   *         @arg @ref LL_DMA_CHANNEL_4
 746:Drivers/STM32F0xx_HAL_Driver/Inc/stm32f0xx_ll_dma.h ****   *         @arg @ref LL_DMA_CHANNEL_5
 747:Drivers/STM32F0xx_HAL_Driver/Inc/stm32f0xx_ll_dma.h ****   *         @arg @ref LL_DMA_CHANNEL_6
 748:Drivers/STM32F0xx_HAL_Driver/Inc/stm32f0xx_ll_dma.h ****   *         @arg @ref LL_DMA_CHANNEL_7
 749:Drivers/STM32F0xx_HAL_Driver/Inc/stm32f0xx_ll_dma.h ****   * @retval Returned value can be one of the following values:
 750:Drivers/STM32F0xx_HAL_Driver/Inc/stm32f0xx_ll_dma.h ****   *         @arg @ref LL_DMA_MODE_NORMAL
 751:Drivers/STM32F0xx_HAL_Driver/Inc/stm32f0xx_ll_dma.h ****   *         @arg @ref LL_DMA_MODE_CIRCULAR
 752:Drivers/STM32F0xx_HAL_Driver/Inc/stm32f0xx_ll_dma.h ****   */
 753:Drivers/STM32F0xx_HAL_Driver/Inc/stm32f0xx_ll_dma.h **** __STATIC_INLINE uint32_t LL_DMA_GetMode(DMA_TypeDef *DMAx, uint32_t Channel)
 754:Drivers/STM32F0xx_HAL_Driver/Inc/stm32f0xx_ll_dma.h **** {
 755:Drivers/STM32F0xx_HAL_Driver/Inc/stm32f0xx_ll_dma.h ****   return (READ_BIT(((DMA_Channel_TypeDef *)((uint32_t)((uint32_t)DMAx + CHANNEL_OFFSET_TAB[Channel 
 756:Drivers/STM32F0xx_HAL_Driver/Inc/stm32f0xx_ll_dma.h ****                    DMA_CCR_CIRC));
 757:Drivers/STM32F0xx_HAL_Driver/Inc/stm32f0xx_ll_dma.h **** }
 758:Drivers/STM32F0xx_HAL_Driver/Inc/stm32f0xx_ll_dma.h **** 
 759:Drivers/STM32F0xx_HAL_Driver/Inc/stm32f0xx_ll_dma.h **** /**
 760:Drivers/STM32F0xx_HAL_Driver/Inc/stm32f0xx_ll_dma.h ****   * @brief  Set Peripheral increment mode.
 761:Drivers/STM32F0xx_HAL_Driver/Inc/stm32f0xx_ll_dma.h ****   * @rmtoll CCR          PINC          LL_DMA_SetPeriphIncMode
 762:Drivers/STM32F0xx_HAL_Driver/Inc/stm32f0xx_ll_dma.h ****   * @param  DMAx DMAx Instance
 763:Drivers/STM32F0xx_HAL_Driver/Inc/stm32f0xx_ll_dma.h ****   * @param  Channel This parameter can be one of the following values:
 764:Drivers/STM32F0xx_HAL_Driver/Inc/stm32f0xx_ll_dma.h ****   *         @arg @ref LL_DMA_CHANNEL_1
 765:Drivers/STM32F0xx_HAL_Driver/Inc/stm32f0xx_ll_dma.h ****   *         @arg @ref LL_DMA_CHANNEL_2
 766:Drivers/STM32F0xx_HAL_Driver/Inc/stm32f0xx_ll_dma.h ****   *         @arg @ref LL_DMA_CHANNEL_3
 767:Drivers/STM32F0xx_HAL_Driver/Inc/stm32f0xx_ll_dma.h ****   *         @arg @ref LL_DMA_CHANNEL_4
 768:Drivers/STM32F0xx_HAL_Driver/Inc/stm32f0xx_ll_dma.h ****   *         @arg @ref LL_DMA_CHANNEL_5
 769:Drivers/STM32F0xx_HAL_Driver/Inc/stm32f0xx_ll_dma.h ****   *         @arg @ref LL_DMA_CHANNEL_6
 770:Drivers/STM32F0xx_HAL_Driver/Inc/stm32f0xx_ll_dma.h ****   *         @arg @ref LL_DMA_CHANNEL_7
 771:Drivers/STM32F0xx_HAL_Driver/Inc/stm32f0xx_ll_dma.h ****   * @param  PeriphOrM2MSrcIncMode This parameter can be one of the following values:
 772:Drivers/STM32F0xx_HAL_Driver/Inc/stm32f0xx_ll_dma.h ****   *         @arg @ref LL_DMA_PERIPH_INCREMENT
 773:Drivers/STM32F0xx_HAL_Driver/Inc/stm32f0xx_ll_dma.h ****   *         @arg @ref LL_DMA_PERIPH_NOINCREMENT
 774:Drivers/STM32F0xx_HAL_Driver/Inc/stm32f0xx_ll_dma.h ****   * @retval None
 775:Drivers/STM32F0xx_HAL_Driver/Inc/stm32f0xx_ll_dma.h ****   */
 776:Drivers/STM32F0xx_HAL_Driver/Inc/stm32f0xx_ll_dma.h **** __STATIC_INLINE void LL_DMA_SetPeriphIncMode(DMA_TypeDef *DMAx, uint32_t Channel, uint32_t PeriphOr
 777:Drivers/STM32F0xx_HAL_Driver/Inc/stm32f0xx_ll_dma.h **** {
 778:Drivers/STM32F0xx_HAL_Driver/Inc/stm32f0xx_ll_dma.h ****   MODIFY_REG(((DMA_Channel_TypeDef *)((uint32_t)((uint32_t)DMAx + CHANNEL_OFFSET_TAB[Channel - 1U])
 779:Drivers/STM32F0xx_HAL_Driver/Inc/stm32f0xx_ll_dma.h ****              PeriphOrM2MSrcIncMode);
 780:Drivers/STM32F0xx_HAL_Driver/Inc/stm32f0xx_ll_dma.h **** }
 781:Drivers/STM32F0xx_HAL_Driver/Inc/stm32f0xx_ll_dma.h **** 
 782:Drivers/STM32F0xx_HAL_Driver/Inc/stm32f0xx_ll_dma.h **** /**
 783:Drivers/STM32F0xx_HAL_Driver/Inc/stm32f0xx_ll_dma.h ****   * @brief  Get Peripheral increment mode.
 784:Drivers/STM32F0xx_HAL_Driver/Inc/stm32f0xx_ll_dma.h ****   * @rmtoll CCR          PINC          LL_DMA_GetPeriphIncMode
 785:Drivers/STM32F0xx_HAL_Driver/Inc/stm32f0xx_ll_dma.h ****   * @param  DMAx DMAx Instance
 786:Drivers/STM32F0xx_HAL_Driver/Inc/stm32f0xx_ll_dma.h ****   * @param  Channel This parameter can be one of the following values:
 787:Drivers/STM32F0xx_HAL_Driver/Inc/stm32f0xx_ll_dma.h ****   *         @arg @ref LL_DMA_CHANNEL_1
 788:Drivers/STM32F0xx_HAL_Driver/Inc/stm32f0xx_ll_dma.h ****   *         @arg @ref LL_DMA_CHANNEL_2
 789:Drivers/STM32F0xx_HAL_Driver/Inc/stm32f0xx_ll_dma.h ****   *         @arg @ref LL_DMA_CHANNEL_3
 790:Drivers/STM32F0xx_HAL_Driver/Inc/stm32f0xx_ll_dma.h ****   *         @arg @ref LL_DMA_CHANNEL_4
 791:Drivers/STM32F0xx_HAL_Driver/Inc/stm32f0xx_ll_dma.h ****   *         @arg @ref LL_DMA_CHANNEL_5
 792:Drivers/STM32F0xx_HAL_Driver/Inc/stm32f0xx_ll_dma.h ****   *         @arg @ref LL_DMA_CHANNEL_6
 793:Drivers/STM32F0xx_HAL_Driver/Inc/stm32f0xx_ll_dma.h ****   *         @arg @ref LL_DMA_CHANNEL_7
 794:Drivers/STM32F0xx_HAL_Driver/Inc/stm32f0xx_ll_dma.h ****   * @retval Returned value can be one of the following values:
 795:Drivers/STM32F0xx_HAL_Driver/Inc/stm32f0xx_ll_dma.h ****   *         @arg @ref LL_DMA_PERIPH_INCREMENT
 796:Drivers/STM32F0xx_HAL_Driver/Inc/stm32f0xx_ll_dma.h ****   *         @arg @ref LL_DMA_PERIPH_NOINCREMENT
 797:Drivers/STM32F0xx_HAL_Driver/Inc/stm32f0xx_ll_dma.h ****   */
 798:Drivers/STM32F0xx_HAL_Driver/Inc/stm32f0xx_ll_dma.h **** __STATIC_INLINE uint32_t LL_DMA_GetPeriphIncMode(DMA_TypeDef *DMAx, uint32_t Channel)
 799:Drivers/STM32F0xx_HAL_Driver/Inc/stm32f0xx_ll_dma.h **** {
 800:Drivers/STM32F0xx_HAL_Driver/Inc/stm32f0xx_ll_dma.h ****   return (READ_BIT(((DMA_Channel_TypeDef *)((uint32_t)((uint32_t)DMAx + CHANNEL_OFFSET_TAB[Channel 
 801:Drivers/STM32F0xx_HAL_Driver/Inc/stm32f0xx_ll_dma.h ****                    DMA_CCR_PINC));
ARM GAS  C:\Users\ADMINI~1\AppData\Local\Temp\ccJZf5de.s 			page 27


 802:Drivers/STM32F0xx_HAL_Driver/Inc/stm32f0xx_ll_dma.h **** }
 803:Drivers/STM32F0xx_HAL_Driver/Inc/stm32f0xx_ll_dma.h **** 
 804:Drivers/STM32F0xx_HAL_Driver/Inc/stm32f0xx_ll_dma.h **** /**
 805:Drivers/STM32F0xx_HAL_Driver/Inc/stm32f0xx_ll_dma.h ****   * @brief  Set Memory increment mode.
 806:Drivers/STM32F0xx_HAL_Driver/Inc/stm32f0xx_ll_dma.h ****   * @rmtoll CCR          MINC          LL_DMA_SetMemoryIncMode
 807:Drivers/STM32F0xx_HAL_Driver/Inc/stm32f0xx_ll_dma.h ****   * @param  DMAx DMAx Instance
 808:Drivers/STM32F0xx_HAL_Driver/Inc/stm32f0xx_ll_dma.h ****   * @param  Channel This parameter can be one of the following values:
 809:Drivers/STM32F0xx_HAL_Driver/Inc/stm32f0xx_ll_dma.h ****   *         @arg @ref LL_DMA_CHANNEL_1
 810:Drivers/STM32F0xx_HAL_Driver/Inc/stm32f0xx_ll_dma.h ****   *         @arg @ref LL_DMA_CHANNEL_2
 811:Drivers/STM32F0xx_HAL_Driver/Inc/stm32f0xx_ll_dma.h ****   *         @arg @ref LL_DMA_CHANNEL_3
 812:Drivers/STM32F0xx_HAL_Driver/Inc/stm32f0xx_ll_dma.h ****   *         @arg @ref LL_DMA_CHANNEL_4
 813:Drivers/STM32F0xx_HAL_Driver/Inc/stm32f0xx_ll_dma.h ****   *         @arg @ref LL_DMA_CHANNEL_5
 814:Drivers/STM32F0xx_HAL_Driver/Inc/stm32f0xx_ll_dma.h ****   *         @arg @ref LL_DMA_CHANNEL_6
 815:Drivers/STM32F0xx_HAL_Driver/Inc/stm32f0xx_ll_dma.h ****   *         @arg @ref LL_DMA_CHANNEL_7
 816:Drivers/STM32F0xx_HAL_Driver/Inc/stm32f0xx_ll_dma.h ****   * @param  MemoryOrM2MDstIncMode This parameter can be one of the following values:
 817:Drivers/STM32F0xx_HAL_Driver/Inc/stm32f0xx_ll_dma.h ****   *         @arg @ref LL_DMA_MEMORY_INCREMENT
 818:Drivers/STM32F0xx_HAL_Driver/Inc/stm32f0xx_ll_dma.h ****   *         @arg @ref LL_DMA_MEMORY_NOINCREMENT
 819:Drivers/STM32F0xx_HAL_Driver/Inc/stm32f0xx_ll_dma.h ****   * @retval None
 820:Drivers/STM32F0xx_HAL_Driver/Inc/stm32f0xx_ll_dma.h ****   */
 821:Drivers/STM32F0xx_HAL_Driver/Inc/stm32f0xx_ll_dma.h **** __STATIC_INLINE void LL_DMA_SetMemoryIncMode(DMA_TypeDef *DMAx, uint32_t Channel, uint32_t MemoryOr
 822:Drivers/STM32F0xx_HAL_Driver/Inc/stm32f0xx_ll_dma.h **** {
 823:Drivers/STM32F0xx_HAL_Driver/Inc/stm32f0xx_ll_dma.h ****   MODIFY_REG(((DMA_Channel_TypeDef *)((uint32_t)((uint32_t)DMAx + CHANNEL_OFFSET_TAB[Channel - 1U])
 824:Drivers/STM32F0xx_HAL_Driver/Inc/stm32f0xx_ll_dma.h ****              MemoryOrM2MDstIncMode);
 825:Drivers/STM32F0xx_HAL_Driver/Inc/stm32f0xx_ll_dma.h **** }
 826:Drivers/STM32F0xx_HAL_Driver/Inc/stm32f0xx_ll_dma.h **** 
 827:Drivers/STM32F0xx_HAL_Driver/Inc/stm32f0xx_ll_dma.h **** /**
 828:Drivers/STM32F0xx_HAL_Driver/Inc/stm32f0xx_ll_dma.h ****   * @brief  Get Memory increment mode.
 829:Drivers/STM32F0xx_HAL_Driver/Inc/stm32f0xx_ll_dma.h ****   * @rmtoll CCR          MINC          LL_DMA_GetMemoryIncMode
 830:Drivers/STM32F0xx_HAL_Driver/Inc/stm32f0xx_ll_dma.h ****   * @param  DMAx DMAx Instance
 831:Drivers/STM32F0xx_HAL_Driver/Inc/stm32f0xx_ll_dma.h ****   * @param  Channel This parameter can be one of the following values:
 832:Drivers/STM32F0xx_HAL_Driver/Inc/stm32f0xx_ll_dma.h ****   *         @arg @ref LL_DMA_CHANNEL_1
 833:Drivers/STM32F0xx_HAL_Driver/Inc/stm32f0xx_ll_dma.h ****   *         @arg @ref LL_DMA_CHANNEL_2
 834:Drivers/STM32F0xx_HAL_Driver/Inc/stm32f0xx_ll_dma.h ****   *         @arg @ref LL_DMA_CHANNEL_3
 835:Drivers/STM32F0xx_HAL_Driver/Inc/stm32f0xx_ll_dma.h ****   *         @arg @ref LL_DMA_CHANNEL_4
 836:Drivers/STM32F0xx_HAL_Driver/Inc/stm32f0xx_ll_dma.h ****   *         @arg @ref LL_DMA_CHANNEL_5
 837:Drivers/STM32F0xx_HAL_Driver/Inc/stm32f0xx_ll_dma.h ****   *         @arg @ref LL_DMA_CHANNEL_6
 838:Drivers/STM32F0xx_HAL_Driver/Inc/stm32f0xx_ll_dma.h ****   *         @arg @ref LL_DMA_CHANNEL_7
 839:Drivers/STM32F0xx_HAL_Driver/Inc/stm32f0xx_ll_dma.h ****   * @retval Returned value can be one of the following values:
 840:Drivers/STM32F0xx_HAL_Driver/Inc/stm32f0xx_ll_dma.h ****   *         @arg @ref LL_DMA_MEMORY_INCREMENT
 841:Drivers/STM32F0xx_HAL_Driver/Inc/stm32f0xx_ll_dma.h ****   *         @arg @ref LL_DMA_MEMORY_NOINCREMENT
 842:Drivers/STM32F0xx_HAL_Driver/Inc/stm32f0xx_ll_dma.h ****   */
 843:Drivers/STM32F0xx_HAL_Driver/Inc/stm32f0xx_ll_dma.h **** __STATIC_INLINE uint32_t LL_DMA_GetMemoryIncMode(DMA_TypeDef *DMAx, uint32_t Channel)
 844:Drivers/STM32F0xx_HAL_Driver/Inc/stm32f0xx_ll_dma.h **** {
 845:Drivers/STM32F0xx_HAL_Driver/Inc/stm32f0xx_ll_dma.h ****   return (READ_BIT(((DMA_Channel_TypeDef *)((uint32_t)((uint32_t)DMAx + CHANNEL_OFFSET_TAB[Channel 
 846:Drivers/STM32F0xx_HAL_Driver/Inc/stm32f0xx_ll_dma.h ****                    DMA_CCR_MINC));
 847:Drivers/STM32F0xx_HAL_Driver/Inc/stm32f0xx_ll_dma.h **** }
 848:Drivers/STM32F0xx_HAL_Driver/Inc/stm32f0xx_ll_dma.h **** 
 849:Drivers/STM32F0xx_HAL_Driver/Inc/stm32f0xx_ll_dma.h **** /**
 850:Drivers/STM32F0xx_HAL_Driver/Inc/stm32f0xx_ll_dma.h ****   * @brief  Set Peripheral size.
 851:Drivers/STM32F0xx_HAL_Driver/Inc/stm32f0xx_ll_dma.h ****   * @rmtoll CCR          PSIZE         LL_DMA_SetPeriphSize
 852:Drivers/STM32F0xx_HAL_Driver/Inc/stm32f0xx_ll_dma.h ****   * @param  DMAx DMAx Instance
 853:Drivers/STM32F0xx_HAL_Driver/Inc/stm32f0xx_ll_dma.h ****   * @param  Channel This parameter can be one of the following values:
 854:Drivers/STM32F0xx_HAL_Driver/Inc/stm32f0xx_ll_dma.h ****   *         @arg @ref LL_DMA_CHANNEL_1
 855:Drivers/STM32F0xx_HAL_Driver/Inc/stm32f0xx_ll_dma.h ****   *         @arg @ref LL_DMA_CHANNEL_2
 856:Drivers/STM32F0xx_HAL_Driver/Inc/stm32f0xx_ll_dma.h ****   *         @arg @ref LL_DMA_CHANNEL_3
 857:Drivers/STM32F0xx_HAL_Driver/Inc/stm32f0xx_ll_dma.h ****   *         @arg @ref LL_DMA_CHANNEL_4
 858:Drivers/STM32F0xx_HAL_Driver/Inc/stm32f0xx_ll_dma.h ****   *         @arg @ref LL_DMA_CHANNEL_5
ARM GAS  C:\Users\ADMINI~1\AppData\Local\Temp\ccJZf5de.s 			page 28


 859:Drivers/STM32F0xx_HAL_Driver/Inc/stm32f0xx_ll_dma.h ****   *         @arg @ref LL_DMA_CHANNEL_6
 860:Drivers/STM32F0xx_HAL_Driver/Inc/stm32f0xx_ll_dma.h ****   *         @arg @ref LL_DMA_CHANNEL_7
 861:Drivers/STM32F0xx_HAL_Driver/Inc/stm32f0xx_ll_dma.h ****   * @param  PeriphOrM2MSrcDataSize This parameter can be one of the following values:
 862:Drivers/STM32F0xx_HAL_Driver/Inc/stm32f0xx_ll_dma.h ****   *         @arg @ref LL_DMA_PDATAALIGN_BYTE
 863:Drivers/STM32F0xx_HAL_Driver/Inc/stm32f0xx_ll_dma.h ****   *         @arg @ref LL_DMA_PDATAALIGN_HALFWORD
 864:Drivers/STM32F0xx_HAL_Driver/Inc/stm32f0xx_ll_dma.h ****   *         @arg @ref LL_DMA_PDATAALIGN_WORD
 865:Drivers/STM32F0xx_HAL_Driver/Inc/stm32f0xx_ll_dma.h ****   * @retval None
 866:Drivers/STM32F0xx_HAL_Driver/Inc/stm32f0xx_ll_dma.h ****   */
 867:Drivers/STM32F0xx_HAL_Driver/Inc/stm32f0xx_ll_dma.h **** __STATIC_INLINE void LL_DMA_SetPeriphSize(DMA_TypeDef *DMAx, uint32_t Channel, uint32_t PeriphOrM2M
 868:Drivers/STM32F0xx_HAL_Driver/Inc/stm32f0xx_ll_dma.h **** {
 869:Drivers/STM32F0xx_HAL_Driver/Inc/stm32f0xx_ll_dma.h ****   MODIFY_REG(((DMA_Channel_TypeDef *)((uint32_t)((uint32_t)DMAx + CHANNEL_OFFSET_TAB[Channel - 1U])
 870:Drivers/STM32F0xx_HAL_Driver/Inc/stm32f0xx_ll_dma.h ****              PeriphOrM2MSrcDataSize);
 871:Drivers/STM32F0xx_HAL_Driver/Inc/stm32f0xx_ll_dma.h **** }
 872:Drivers/STM32F0xx_HAL_Driver/Inc/stm32f0xx_ll_dma.h **** 
 873:Drivers/STM32F0xx_HAL_Driver/Inc/stm32f0xx_ll_dma.h **** /**
 874:Drivers/STM32F0xx_HAL_Driver/Inc/stm32f0xx_ll_dma.h ****   * @brief  Get Peripheral size.
 875:Drivers/STM32F0xx_HAL_Driver/Inc/stm32f0xx_ll_dma.h ****   * @rmtoll CCR          PSIZE         LL_DMA_GetPeriphSize
 876:Drivers/STM32F0xx_HAL_Driver/Inc/stm32f0xx_ll_dma.h ****   * @param  DMAx DMAx Instance
 877:Drivers/STM32F0xx_HAL_Driver/Inc/stm32f0xx_ll_dma.h ****   * @param  Channel This parameter can be one of the following values:
 878:Drivers/STM32F0xx_HAL_Driver/Inc/stm32f0xx_ll_dma.h ****   *         @arg @ref LL_DMA_CHANNEL_1
 879:Drivers/STM32F0xx_HAL_Driver/Inc/stm32f0xx_ll_dma.h ****   *         @arg @ref LL_DMA_CHANNEL_2
 880:Drivers/STM32F0xx_HAL_Driver/Inc/stm32f0xx_ll_dma.h ****   *         @arg @ref LL_DMA_CHANNEL_3
 881:Drivers/STM32F0xx_HAL_Driver/Inc/stm32f0xx_ll_dma.h ****   *         @arg @ref LL_DMA_CHANNEL_4
 882:Drivers/STM32F0xx_HAL_Driver/Inc/stm32f0xx_ll_dma.h ****   *         @arg @ref LL_DMA_CHANNEL_5
 883:Drivers/STM32F0xx_HAL_Driver/Inc/stm32f0xx_ll_dma.h ****   *         @arg @ref LL_DMA_CHANNEL_6
 884:Drivers/STM32F0xx_HAL_Driver/Inc/stm32f0xx_ll_dma.h ****   *         @arg @ref LL_DMA_CHANNEL_7
 885:Drivers/STM32F0xx_HAL_Driver/Inc/stm32f0xx_ll_dma.h ****   * @retval Returned value can be one of the following values:
 886:Drivers/STM32F0xx_HAL_Driver/Inc/stm32f0xx_ll_dma.h ****   *         @arg @ref LL_DMA_PDATAALIGN_BYTE
 887:Drivers/STM32F0xx_HAL_Driver/Inc/stm32f0xx_ll_dma.h ****   *         @arg @ref LL_DMA_PDATAALIGN_HALFWORD
 888:Drivers/STM32F0xx_HAL_Driver/Inc/stm32f0xx_ll_dma.h ****   *         @arg @ref LL_DMA_PDATAALIGN_WORD
 889:Drivers/STM32F0xx_HAL_Driver/Inc/stm32f0xx_ll_dma.h ****   */
 890:Drivers/STM32F0xx_HAL_Driver/Inc/stm32f0xx_ll_dma.h **** __STATIC_INLINE uint32_t LL_DMA_GetPeriphSize(DMA_TypeDef *DMAx, uint32_t Channel)
 891:Drivers/STM32F0xx_HAL_Driver/Inc/stm32f0xx_ll_dma.h **** {
 892:Drivers/STM32F0xx_HAL_Driver/Inc/stm32f0xx_ll_dma.h ****   return (READ_BIT(((DMA_Channel_TypeDef *)((uint32_t)((uint32_t)DMAx + CHANNEL_OFFSET_TAB[Channel 
 893:Drivers/STM32F0xx_HAL_Driver/Inc/stm32f0xx_ll_dma.h ****                    DMA_CCR_PSIZE));
 894:Drivers/STM32F0xx_HAL_Driver/Inc/stm32f0xx_ll_dma.h **** }
 895:Drivers/STM32F0xx_HAL_Driver/Inc/stm32f0xx_ll_dma.h **** 
 896:Drivers/STM32F0xx_HAL_Driver/Inc/stm32f0xx_ll_dma.h **** /**
 897:Drivers/STM32F0xx_HAL_Driver/Inc/stm32f0xx_ll_dma.h ****   * @brief  Set Memory size.
 898:Drivers/STM32F0xx_HAL_Driver/Inc/stm32f0xx_ll_dma.h ****   * @rmtoll CCR          MSIZE         LL_DMA_SetMemorySize
 899:Drivers/STM32F0xx_HAL_Driver/Inc/stm32f0xx_ll_dma.h ****   * @param  DMAx DMAx Instance
 900:Drivers/STM32F0xx_HAL_Driver/Inc/stm32f0xx_ll_dma.h ****   * @param  Channel This parameter can be one of the following values:
 901:Drivers/STM32F0xx_HAL_Driver/Inc/stm32f0xx_ll_dma.h ****   *         @arg @ref LL_DMA_CHANNEL_1
 902:Drivers/STM32F0xx_HAL_Driver/Inc/stm32f0xx_ll_dma.h ****   *         @arg @ref LL_DMA_CHANNEL_2
 903:Drivers/STM32F0xx_HAL_Driver/Inc/stm32f0xx_ll_dma.h ****   *         @arg @ref LL_DMA_CHANNEL_3
 904:Drivers/STM32F0xx_HAL_Driver/Inc/stm32f0xx_ll_dma.h ****   *         @arg @ref LL_DMA_CHANNEL_4
 905:Drivers/STM32F0xx_HAL_Driver/Inc/stm32f0xx_ll_dma.h ****   *         @arg @ref LL_DMA_CHANNEL_5
 906:Drivers/STM32F0xx_HAL_Driver/Inc/stm32f0xx_ll_dma.h ****   *         @arg @ref LL_DMA_CHANNEL_6
 907:Drivers/STM32F0xx_HAL_Driver/Inc/stm32f0xx_ll_dma.h ****   *         @arg @ref LL_DMA_CHANNEL_7
 908:Drivers/STM32F0xx_HAL_Driver/Inc/stm32f0xx_ll_dma.h ****   * @param  MemoryOrM2MDstDataSize This parameter can be one of the following values:
 909:Drivers/STM32F0xx_HAL_Driver/Inc/stm32f0xx_ll_dma.h ****   *         @arg @ref LL_DMA_MDATAALIGN_BYTE
 910:Drivers/STM32F0xx_HAL_Driver/Inc/stm32f0xx_ll_dma.h ****   *         @arg @ref LL_DMA_MDATAALIGN_HALFWORD
 911:Drivers/STM32F0xx_HAL_Driver/Inc/stm32f0xx_ll_dma.h ****   *         @arg @ref LL_DMA_MDATAALIGN_WORD
 912:Drivers/STM32F0xx_HAL_Driver/Inc/stm32f0xx_ll_dma.h ****   * @retval None
 913:Drivers/STM32F0xx_HAL_Driver/Inc/stm32f0xx_ll_dma.h ****   */
 914:Drivers/STM32F0xx_HAL_Driver/Inc/stm32f0xx_ll_dma.h **** __STATIC_INLINE void LL_DMA_SetMemorySize(DMA_TypeDef *DMAx, uint32_t Channel, uint32_t MemoryOrM2M
 915:Drivers/STM32F0xx_HAL_Driver/Inc/stm32f0xx_ll_dma.h **** {
ARM GAS  C:\Users\ADMINI~1\AppData\Local\Temp\ccJZf5de.s 			page 29


 916:Drivers/STM32F0xx_HAL_Driver/Inc/stm32f0xx_ll_dma.h ****   MODIFY_REG(((DMA_Channel_TypeDef *)((uint32_t)((uint32_t)DMAx + CHANNEL_OFFSET_TAB[Channel - 1U])
 917:Drivers/STM32F0xx_HAL_Driver/Inc/stm32f0xx_ll_dma.h ****              MemoryOrM2MDstDataSize);
 918:Drivers/STM32F0xx_HAL_Driver/Inc/stm32f0xx_ll_dma.h **** }
 919:Drivers/STM32F0xx_HAL_Driver/Inc/stm32f0xx_ll_dma.h **** 
 920:Drivers/STM32F0xx_HAL_Driver/Inc/stm32f0xx_ll_dma.h **** /**
 921:Drivers/STM32F0xx_HAL_Driver/Inc/stm32f0xx_ll_dma.h ****   * @brief  Get Memory size.
 922:Drivers/STM32F0xx_HAL_Driver/Inc/stm32f0xx_ll_dma.h ****   * @rmtoll CCR          MSIZE         LL_DMA_GetMemorySize
 923:Drivers/STM32F0xx_HAL_Driver/Inc/stm32f0xx_ll_dma.h ****   * @param  DMAx DMAx Instance
 924:Drivers/STM32F0xx_HAL_Driver/Inc/stm32f0xx_ll_dma.h ****   * @param  Channel This parameter can be one of the following values:
 925:Drivers/STM32F0xx_HAL_Driver/Inc/stm32f0xx_ll_dma.h ****   *         @arg @ref LL_DMA_CHANNEL_1
 926:Drivers/STM32F0xx_HAL_Driver/Inc/stm32f0xx_ll_dma.h ****   *         @arg @ref LL_DMA_CHANNEL_2
 927:Drivers/STM32F0xx_HAL_Driver/Inc/stm32f0xx_ll_dma.h ****   *         @arg @ref LL_DMA_CHANNEL_3
 928:Drivers/STM32F0xx_HAL_Driver/Inc/stm32f0xx_ll_dma.h ****   *         @arg @ref LL_DMA_CHANNEL_4
 929:Drivers/STM32F0xx_HAL_Driver/Inc/stm32f0xx_ll_dma.h ****   *         @arg @ref LL_DMA_CHANNEL_5
 930:Drivers/STM32F0xx_HAL_Driver/Inc/stm32f0xx_ll_dma.h ****   *         @arg @ref LL_DMA_CHANNEL_6
 931:Drivers/STM32F0xx_HAL_Driver/Inc/stm32f0xx_ll_dma.h ****   *         @arg @ref LL_DMA_CHANNEL_7
 932:Drivers/STM32F0xx_HAL_Driver/Inc/stm32f0xx_ll_dma.h ****   * @retval Returned value can be one of the following values:
 933:Drivers/STM32F0xx_HAL_Driver/Inc/stm32f0xx_ll_dma.h ****   *         @arg @ref LL_DMA_MDATAALIGN_BYTE
 934:Drivers/STM32F0xx_HAL_Driver/Inc/stm32f0xx_ll_dma.h ****   *         @arg @ref LL_DMA_MDATAALIGN_HALFWORD
 935:Drivers/STM32F0xx_HAL_Driver/Inc/stm32f0xx_ll_dma.h ****   *         @arg @ref LL_DMA_MDATAALIGN_WORD
 936:Drivers/STM32F0xx_HAL_Driver/Inc/stm32f0xx_ll_dma.h ****   */
 937:Drivers/STM32F0xx_HAL_Driver/Inc/stm32f0xx_ll_dma.h **** __STATIC_INLINE uint32_t LL_DMA_GetMemorySize(DMA_TypeDef *DMAx, uint32_t Channel)
 938:Drivers/STM32F0xx_HAL_Driver/Inc/stm32f0xx_ll_dma.h **** {
 939:Drivers/STM32F0xx_HAL_Driver/Inc/stm32f0xx_ll_dma.h ****   return (READ_BIT(((DMA_Channel_TypeDef *)((uint32_t)((uint32_t)DMAx + CHANNEL_OFFSET_TAB[Channel 
 940:Drivers/STM32F0xx_HAL_Driver/Inc/stm32f0xx_ll_dma.h ****                    DMA_CCR_MSIZE));
 941:Drivers/STM32F0xx_HAL_Driver/Inc/stm32f0xx_ll_dma.h **** }
 942:Drivers/STM32F0xx_HAL_Driver/Inc/stm32f0xx_ll_dma.h **** 
 943:Drivers/STM32F0xx_HAL_Driver/Inc/stm32f0xx_ll_dma.h **** /**
 944:Drivers/STM32F0xx_HAL_Driver/Inc/stm32f0xx_ll_dma.h ****   * @brief  Set Channel priority level.
 945:Drivers/STM32F0xx_HAL_Driver/Inc/stm32f0xx_ll_dma.h ****   * @rmtoll CCR          PL            LL_DMA_SetChannelPriorityLevel
 946:Drivers/STM32F0xx_HAL_Driver/Inc/stm32f0xx_ll_dma.h ****   * @param  DMAx DMAx Instance
 947:Drivers/STM32F0xx_HAL_Driver/Inc/stm32f0xx_ll_dma.h ****   * @param  Channel This parameter can be one of the following values:
 948:Drivers/STM32F0xx_HAL_Driver/Inc/stm32f0xx_ll_dma.h ****   *         @arg @ref LL_DMA_CHANNEL_1
 949:Drivers/STM32F0xx_HAL_Driver/Inc/stm32f0xx_ll_dma.h ****   *         @arg @ref LL_DMA_CHANNEL_2
 950:Drivers/STM32F0xx_HAL_Driver/Inc/stm32f0xx_ll_dma.h ****   *         @arg @ref LL_DMA_CHANNEL_3
 951:Drivers/STM32F0xx_HAL_Driver/Inc/stm32f0xx_ll_dma.h ****   *         @arg @ref LL_DMA_CHANNEL_4
 952:Drivers/STM32F0xx_HAL_Driver/Inc/stm32f0xx_ll_dma.h ****   *         @arg @ref LL_DMA_CHANNEL_5
 953:Drivers/STM32F0xx_HAL_Driver/Inc/stm32f0xx_ll_dma.h ****   *         @arg @ref LL_DMA_CHANNEL_6
 954:Drivers/STM32F0xx_HAL_Driver/Inc/stm32f0xx_ll_dma.h ****   *         @arg @ref LL_DMA_CHANNEL_7
 955:Drivers/STM32F0xx_HAL_Driver/Inc/stm32f0xx_ll_dma.h ****   * @param  Priority This parameter can be one of the following values:
 956:Drivers/STM32F0xx_HAL_Driver/Inc/stm32f0xx_ll_dma.h ****   *         @arg @ref LL_DMA_PRIORITY_LOW
 957:Drivers/STM32F0xx_HAL_Driver/Inc/stm32f0xx_ll_dma.h ****   *         @arg @ref LL_DMA_PRIORITY_MEDIUM
 958:Drivers/STM32F0xx_HAL_Driver/Inc/stm32f0xx_ll_dma.h ****   *         @arg @ref LL_DMA_PRIORITY_HIGH
 959:Drivers/STM32F0xx_HAL_Driver/Inc/stm32f0xx_ll_dma.h ****   *         @arg @ref LL_DMA_PRIORITY_VERYHIGH
 960:Drivers/STM32F0xx_HAL_Driver/Inc/stm32f0xx_ll_dma.h ****   * @retval None
 961:Drivers/STM32F0xx_HAL_Driver/Inc/stm32f0xx_ll_dma.h ****   */
 962:Drivers/STM32F0xx_HAL_Driver/Inc/stm32f0xx_ll_dma.h **** __STATIC_INLINE void LL_DMA_SetChannelPriorityLevel(DMA_TypeDef *DMAx, uint32_t Channel, uint32_t P
 192              		.loc 3 962 22 view .LVU53
 193              	.LBB115:
 963:Drivers/STM32F0xx_HAL_Driver/Inc/stm32f0xx_ll_dma.h **** {
 964:Drivers/STM32F0xx_HAL_Driver/Inc/stm32f0xx_ll_dma.h ****   MODIFY_REG(((DMA_Channel_TypeDef *)((uint32_t)((uint32_t)DMAx + CHANNEL_OFFSET_TAB[Channel - 1U])
 194              		.loc 3 964 3 view .LVU54
 195 0094 1A68     		ldr	r2, [r3]
 196 0096 2D49     		ldr	r1, .L2+12
 197 0098 0A40     		ands	r2, r1
 198 009a 1A60     		str	r2, [r3]
 199              	.LVL7:
ARM GAS  C:\Users\ADMINI~1\AppData\Local\Temp\ccJZf5de.s 			page 30


 200              		.loc 3 964 3 is_stmt 0 view .LVU55
 201              	.LBE115:
 202              	.LBE114:
  71:Src/i2c.c     **** 
  72:Src/i2c.c     ****   LL_DMA_SetMode(DMA1, LL_DMA_CHANNEL_3, LL_DMA_MODE_NORMAL);
 203              		.loc 1 72 3 is_stmt 1 view .LVU56
 204              	.LBB116:
 205              	.LBI116:
 731:Drivers/STM32F0xx_HAL_Driver/Inc/stm32f0xx_ll_dma.h **** {
 206              		.loc 3 731 22 view .LVU57
 207              	.LBB117:
 733:Drivers/STM32F0xx_HAL_Driver/Inc/stm32f0xx_ll_dma.h ****              Mode);
 208              		.loc 3 733 3 view .LVU58
 209 009c 1A68     		ldr	r2, [r3]
 210 009e 2021     		movs	r1, #32
 211 00a0 8A43     		bics	r2, r1
 212 00a2 1A60     		str	r2, [r3]
 213              	.LVL8:
 733:Drivers/STM32F0xx_HAL_Driver/Inc/stm32f0xx_ll_dma.h ****              Mode);
 214              		.loc 3 733 3 is_stmt 0 view .LVU59
 215              	.LBE117:
 216              	.LBE116:
  73:Src/i2c.c     **** 
  74:Src/i2c.c     ****   LL_DMA_SetPeriphIncMode(DMA1, LL_DMA_CHANNEL_3, LL_DMA_PERIPH_NOINCREMENT);
 217              		.loc 1 74 3 is_stmt 1 view .LVU60
 218              	.LBB118:
 219              	.LBI118:
 776:Drivers/STM32F0xx_HAL_Driver/Inc/stm32f0xx_ll_dma.h **** {
 220              		.loc 3 776 22 view .LVU61
 221              	.LBB119:
 778:Drivers/STM32F0xx_HAL_Driver/Inc/stm32f0xx_ll_dma.h ****              PeriphOrM2MSrcIncMode);
 222              		.loc 3 778 3 view .LVU62
 223 00a4 1A68     		ldr	r2, [r3]
 224 00a6 2031     		adds	r1, r1, #32
 225 00a8 8A43     		bics	r2, r1
 226 00aa 1A60     		str	r2, [r3]
 227              	.LVL9:
 778:Drivers/STM32F0xx_HAL_Driver/Inc/stm32f0xx_ll_dma.h ****              PeriphOrM2MSrcIncMode);
 228              		.loc 3 778 3 is_stmt 0 view .LVU63
 229              	.LBE119:
 230              	.LBE118:
  75:Src/i2c.c     **** 
  76:Src/i2c.c     ****   LL_DMA_SetMemoryIncMode(DMA1, LL_DMA_CHANNEL_3, LL_DMA_MEMORY_INCREMENT);
 231              		.loc 1 76 3 is_stmt 1 view .LVU64
 232              	.LBB120:
 233              	.LBI120:
 821:Drivers/STM32F0xx_HAL_Driver/Inc/stm32f0xx_ll_dma.h **** {
 234              		.loc 3 821 22 view .LVU65
 235              	.LBB121:
 823:Drivers/STM32F0xx_HAL_Driver/Inc/stm32f0xx_ll_dma.h ****              MemoryOrM2MDstIncMode);
 236              		.loc 3 823 3 view .LVU66
 237 00ac 1A68     		ldr	r2, [r3]
 238 00ae 4031     		adds	r1, r1, #64
 239 00b0 8A43     		bics	r2, r1
 240 00b2 0A43     		orrs	r2, r1
 241 00b4 1A60     		str	r2, [r3]
 242              	.LVL10:
ARM GAS  C:\Users\ADMINI~1\AppData\Local\Temp\ccJZf5de.s 			page 31


 823:Drivers/STM32F0xx_HAL_Driver/Inc/stm32f0xx_ll_dma.h ****              MemoryOrM2MDstIncMode);
 243              		.loc 3 823 3 is_stmt 0 view .LVU67
 244              	.LBE121:
 245              	.LBE120:
  77:Src/i2c.c     **** 
  78:Src/i2c.c     ****   LL_DMA_SetPeriphSize(DMA1, LL_DMA_CHANNEL_3, LL_DMA_PDATAALIGN_BYTE);
 246              		.loc 1 78 3 is_stmt 1 view .LVU68
 247              	.LBB122:
 248              	.LBI122:
 867:Drivers/STM32F0xx_HAL_Driver/Inc/stm32f0xx_ll_dma.h **** {
 249              		.loc 3 867 22 view .LVU69
 250              	.LBB123:
 869:Drivers/STM32F0xx_HAL_Driver/Inc/stm32f0xx_ll_dma.h ****              PeriphOrM2MSrcDataSize);
 251              		.loc 3 869 3 view .LVU70
 252 00b6 1A68     		ldr	r2, [r3]
 253 00b8 2549     		ldr	r1, .L2+16
 254 00ba 0A40     		ands	r2, r1
 255 00bc 1A60     		str	r2, [r3]
 256              	.LVL11:
 869:Drivers/STM32F0xx_HAL_Driver/Inc/stm32f0xx_ll_dma.h ****              PeriphOrM2MSrcDataSize);
 257              		.loc 3 869 3 is_stmt 0 view .LVU71
 258              	.LBE123:
 259              	.LBE122:
  79:Src/i2c.c     **** 
  80:Src/i2c.c     ****   LL_DMA_SetMemorySize(DMA1, LL_DMA_CHANNEL_3, LL_DMA_MDATAALIGN_BYTE);
 260              		.loc 1 80 3 is_stmt 1 view .LVU72
 261              	.LBB124:
 262              	.LBI124:
 914:Drivers/STM32F0xx_HAL_Driver/Inc/stm32f0xx_ll_dma.h **** {
 263              		.loc 3 914 22 view .LVU73
 264              	.LBB125:
 916:Drivers/STM32F0xx_HAL_Driver/Inc/stm32f0xx_ll_dma.h ****              MemoryOrM2MDstDataSize);
 265              		.loc 3 916 3 view .LVU74
 266 00be 1A68     		ldr	r2, [r3]
 267 00c0 2449     		ldr	r1, .L2+20
 268 00c2 0A40     		ands	r2, r1
 269 00c4 1A60     		str	r2, [r3]
 270              	.LVL12:
 916:Drivers/STM32F0xx_HAL_Driver/Inc/stm32f0xx_ll_dma.h ****              MemoryOrM2MDstDataSize);
 271              		.loc 3 916 3 is_stmt 0 view .LVU75
 272              	.LBE125:
 273              	.LBE124:
  81:Src/i2c.c     **** 
  82:Src/i2c.c     ****   /* I2C1 interrupt Init */
  83:Src/i2c.c     ****   NVIC_SetPriority(I2C1_IRQn, 0);
 274              		.loc 1 83 3 is_stmt 1 view .LVU76
 275              	.LBB126:
 276              	.LBI126:
 277              		.file 4 "Drivers/CMSIS/Include/core_cm0.h"
   1:Drivers/CMSIS/Include/core_cm0.h **** /**************************************************************************//**
   2:Drivers/CMSIS/Include/core_cm0.h ****  * @file     core_cm0.h
   3:Drivers/CMSIS/Include/core_cm0.h ****  * @brief    CMSIS Cortex-M0 Core Peripheral Access Layer Header File
   4:Drivers/CMSIS/Include/core_cm0.h ****  * @version  V5.0.5
   5:Drivers/CMSIS/Include/core_cm0.h ****  * @date     28. May 2018
   6:Drivers/CMSIS/Include/core_cm0.h ****  ******************************************************************************/
   7:Drivers/CMSIS/Include/core_cm0.h **** /*
   8:Drivers/CMSIS/Include/core_cm0.h ****  * Copyright (c) 2009-2018 Arm Limited. All rights reserved.
ARM GAS  C:\Users\ADMINI~1\AppData\Local\Temp\ccJZf5de.s 			page 32


   9:Drivers/CMSIS/Include/core_cm0.h ****  *
  10:Drivers/CMSIS/Include/core_cm0.h ****  * SPDX-License-Identifier: Apache-2.0
  11:Drivers/CMSIS/Include/core_cm0.h ****  *
  12:Drivers/CMSIS/Include/core_cm0.h ****  * Licensed under the Apache License, Version 2.0 (the License); you may
  13:Drivers/CMSIS/Include/core_cm0.h ****  * not use this file except in compliance with the License.
  14:Drivers/CMSIS/Include/core_cm0.h ****  * You may obtain a copy of the License at
  15:Drivers/CMSIS/Include/core_cm0.h ****  *
  16:Drivers/CMSIS/Include/core_cm0.h ****  * www.apache.org/licenses/LICENSE-2.0
  17:Drivers/CMSIS/Include/core_cm0.h ****  *
  18:Drivers/CMSIS/Include/core_cm0.h ****  * Unless required by applicable law or agreed to in writing, software
  19:Drivers/CMSIS/Include/core_cm0.h ****  * distributed under the License is distributed on an AS IS BASIS, WITHOUT
  20:Drivers/CMSIS/Include/core_cm0.h ****  * WARRANTIES OR CONDITIONS OF ANY KIND, either express or implied.
  21:Drivers/CMSIS/Include/core_cm0.h ****  * See the License for the specific language governing permissions and
  22:Drivers/CMSIS/Include/core_cm0.h ****  * limitations under the License.
  23:Drivers/CMSIS/Include/core_cm0.h ****  */
  24:Drivers/CMSIS/Include/core_cm0.h **** 
  25:Drivers/CMSIS/Include/core_cm0.h **** #if   defined ( __ICCARM__ )
  26:Drivers/CMSIS/Include/core_cm0.h ****   #pragma system_include         /* treat file as system include file for MISRA check */
  27:Drivers/CMSIS/Include/core_cm0.h **** #elif defined (__clang__)
  28:Drivers/CMSIS/Include/core_cm0.h ****   #pragma clang system_header   /* treat file as system include file */
  29:Drivers/CMSIS/Include/core_cm0.h **** #endif
  30:Drivers/CMSIS/Include/core_cm0.h **** 
  31:Drivers/CMSIS/Include/core_cm0.h **** #ifndef __CORE_CM0_H_GENERIC
  32:Drivers/CMSIS/Include/core_cm0.h **** #define __CORE_CM0_H_GENERIC
  33:Drivers/CMSIS/Include/core_cm0.h **** 
  34:Drivers/CMSIS/Include/core_cm0.h **** #include <stdint.h>
  35:Drivers/CMSIS/Include/core_cm0.h **** 
  36:Drivers/CMSIS/Include/core_cm0.h **** #ifdef __cplusplus
  37:Drivers/CMSIS/Include/core_cm0.h ****  extern "C" {
  38:Drivers/CMSIS/Include/core_cm0.h **** #endif
  39:Drivers/CMSIS/Include/core_cm0.h **** 
  40:Drivers/CMSIS/Include/core_cm0.h **** /**
  41:Drivers/CMSIS/Include/core_cm0.h ****   \page CMSIS_MISRA_Exceptions  MISRA-C:2004 Compliance Exceptions
  42:Drivers/CMSIS/Include/core_cm0.h ****   CMSIS violates the following MISRA-C:2004 rules:
  43:Drivers/CMSIS/Include/core_cm0.h **** 
  44:Drivers/CMSIS/Include/core_cm0.h ****    \li Required Rule 8.5, object/function definition in header file.<br>
  45:Drivers/CMSIS/Include/core_cm0.h ****      Function definitions in header files are used to allow 'inlining'.
  46:Drivers/CMSIS/Include/core_cm0.h **** 
  47:Drivers/CMSIS/Include/core_cm0.h ****    \li Required Rule 18.4, declaration of union type or object of union type: '{...}'.<br>
  48:Drivers/CMSIS/Include/core_cm0.h ****      Unions are used for effective representation of core registers.
  49:Drivers/CMSIS/Include/core_cm0.h **** 
  50:Drivers/CMSIS/Include/core_cm0.h ****    \li Advisory Rule 19.7, Function-like macro defined.<br>
  51:Drivers/CMSIS/Include/core_cm0.h ****      Function-like macros are used to allow more efficient code.
  52:Drivers/CMSIS/Include/core_cm0.h ****  */
  53:Drivers/CMSIS/Include/core_cm0.h **** 
  54:Drivers/CMSIS/Include/core_cm0.h **** 
  55:Drivers/CMSIS/Include/core_cm0.h **** /*******************************************************************************
  56:Drivers/CMSIS/Include/core_cm0.h ****  *                 CMSIS definitions
  57:Drivers/CMSIS/Include/core_cm0.h ****  ******************************************************************************/
  58:Drivers/CMSIS/Include/core_cm0.h **** /**
  59:Drivers/CMSIS/Include/core_cm0.h ****   \ingroup Cortex_M0
  60:Drivers/CMSIS/Include/core_cm0.h ****   @{
  61:Drivers/CMSIS/Include/core_cm0.h ****  */
  62:Drivers/CMSIS/Include/core_cm0.h **** 
  63:Drivers/CMSIS/Include/core_cm0.h **** #include "cmsis_version.h"
  64:Drivers/CMSIS/Include/core_cm0.h ****  
  65:Drivers/CMSIS/Include/core_cm0.h **** /*  CMSIS CM0 definitions */
ARM GAS  C:\Users\ADMINI~1\AppData\Local\Temp\ccJZf5de.s 			page 33


  66:Drivers/CMSIS/Include/core_cm0.h **** #define __CM0_CMSIS_VERSION_MAIN  (__CM_CMSIS_VERSION_MAIN)              /*!< \deprecated [31:16] C
  67:Drivers/CMSIS/Include/core_cm0.h **** #define __CM0_CMSIS_VERSION_SUB   (__CM_CMSIS_VERSION_SUB)               /*!< \deprecated [15:0]  C
  68:Drivers/CMSIS/Include/core_cm0.h **** #define __CM0_CMSIS_VERSION       ((__CM0_CMSIS_VERSION_MAIN << 16U) | \
  69:Drivers/CMSIS/Include/core_cm0.h ****                                     __CM0_CMSIS_VERSION_SUB           )  /*!< \deprecated CMSIS HAL
  70:Drivers/CMSIS/Include/core_cm0.h **** 
  71:Drivers/CMSIS/Include/core_cm0.h **** #define __CORTEX_M                (0U)                                   /*!< Cortex-M Core */
  72:Drivers/CMSIS/Include/core_cm0.h **** 
  73:Drivers/CMSIS/Include/core_cm0.h **** /** __FPU_USED indicates whether an FPU is used or not.
  74:Drivers/CMSIS/Include/core_cm0.h ****     This core does not support an FPU at all
  75:Drivers/CMSIS/Include/core_cm0.h **** */
  76:Drivers/CMSIS/Include/core_cm0.h **** #define __FPU_USED       0U
  77:Drivers/CMSIS/Include/core_cm0.h **** 
  78:Drivers/CMSIS/Include/core_cm0.h **** #if defined ( __CC_ARM )
  79:Drivers/CMSIS/Include/core_cm0.h ****   #if defined __TARGET_FPU_VFP
  80:Drivers/CMSIS/Include/core_cm0.h ****     #error "Compiler generates FPU instructions for a device without an FPU (check __FPU_PRESENT)"
  81:Drivers/CMSIS/Include/core_cm0.h ****   #endif
  82:Drivers/CMSIS/Include/core_cm0.h **** 
  83:Drivers/CMSIS/Include/core_cm0.h **** #elif defined (__ARMCC_VERSION) && (__ARMCC_VERSION >= 6010050)
  84:Drivers/CMSIS/Include/core_cm0.h ****   #if defined __ARM_PCS_VFP
  85:Drivers/CMSIS/Include/core_cm0.h ****     #error "Compiler generates FPU instructions for a device without an FPU (check __FPU_PRESENT)"
  86:Drivers/CMSIS/Include/core_cm0.h ****   #endif
  87:Drivers/CMSIS/Include/core_cm0.h **** 
  88:Drivers/CMSIS/Include/core_cm0.h **** #elif defined ( __GNUC__ )
  89:Drivers/CMSIS/Include/core_cm0.h ****   #if defined (__VFP_FP__) && !defined(__SOFTFP__)
  90:Drivers/CMSIS/Include/core_cm0.h ****     #error "Compiler generates FPU instructions for a device without an FPU (check __FPU_PRESENT)"
  91:Drivers/CMSIS/Include/core_cm0.h ****   #endif
  92:Drivers/CMSIS/Include/core_cm0.h **** 
  93:Drivers/CMSIS/Include/core_cm0.h **** #elif defined ( __ICCARM__ )
  94:Drivers/CMSIS/Include/core_cm0.h ****   #if defined __ARMVFP__
  95:Drivers/CMSIS/Include/core_cm0.h ****     #error "Compiler generates FPU instructions for a device without an FPU (check __FPU_PRESENT)"
  96:Drivers/CMSIS/Include/core_cm0.h ****   #endif
  97:Drivers/CMSIS/Include/core_cm0.h **** 
  98:Drivers/CMSIS/Include/core_cm0.h **** #elif defined ( __TI_ARM__ )
  99:Drivers/CMSIS/Include/core_cm0.h ****   #if defined __TI_VFP_SUPPORT__
 100:Drivers/CMSIS/Include/core_cm0.h ****     #error "Compiler generates FPU instructions for a device without an FPU (check __FPU_PRESENT)"
 101:Drivers/CMSIS/Include/core_cm0.h ****   #endif
 102:Drivers/CMSIS/Include/core_cm0.h **** 
 103:Drivers/CMSIS/Include/core_cm0.h **** #elif defined ( __TASKING__ )
 104:Drivers/CMSIS/Include/core_cm0.h ****   #if defined __FPU_VFP__
 105:Drivers/CMSIS/Include/core_cm0.h ****     #error "Compiler generates FPU instructions for a device without an FPU (check __FPU_PRESENT)"
 106:Drivers/CMSIS/Include/core_cm0.h ****   #endif
 107:Drivers/CMSIS/Include/core_cm0.h **** 
 108:Drivers/CMSIS/Include/core_cm0.h **** #elif defined ( __CSMC__ )
 109:Drivers/CMSIS/Include/core_cm0.h ****   #if ( __CSMC__ & 0x400U)
 110:Drivers/CMSIS/Include/core_cm0.h ****     #error "Compiler generates FPU instructions for a device without an FPU (check __FPU_PRESENT)"
 111:Drivers/CMSIS/Include/core_cm0.h ****   #endif
 112:Drivers/CMSIS/Include/core_cm0.h **** 
 113:Drivers/CMSIS/Include/core_cm0.h **** #endif
 114:Drivers/CMSIS/Include/core_cm0.h **** 
 115:Drivers/CMSIS/Include/core_cm0.h **** #include "cmsis_compiler.h"               /* CMSIS compiler specific defines */
 116:Drivers/CMSIS/Include/core_cm0.h **** 
 117:Drivers/CMSIS/Include/core_cm0.h **** 
 118:Drivers/CMSIS/Include/core_cm0.h **** #ifdef __cplusplus
 119:Drivers/CMSIS/Include/core_cm0.h **** }
 120:Drivers/CMSIS/Include/core_cm0.h **** #endif
 121:Drivers/CMSIS/Include/core_cm0.h **** 
 122:Drivers/CMSIS/Include/core_cm0.h **** #endif /* __CORE_CM0_H_GENERIC */
ARM GAS  C:\Users\ADMINI~1\AppData\Local\Temp\ccJZf5de.s 			page 34


 123:Drivers/CMSIS/Include/core_cm0.h **** 
 124:Drivers/CMSIS/Include/core_cm0.h **** #ifndef __CMSIS_GENERIC
 125:Drivers/CMSIS/Include/core_cm0.h **** 
 126:Drivers/CMSIS/Include/core_cm0.h **** #ifndef __CORE_CM0_H_DEPENDANT
 127:Drivers/CMSIS/Include/core_cm0.h **** #define __CORE_CM0_H_DEPENDANT
 128:Drivers/CMSIS/Include/core_cm0.h **** 
 129:Drivers/CMSIS/Include/core_cm0.h **** #ifdef __cplusplus
 130:Drivers/CMSIS/Include/core_cm0.h ****  extern "C" {
 131:Drivers/CMSIS/Include/core_cm0.h **** #endif
 132:Drivers/CMSIS/Include/core_cm0.h **** 
 133:Drivers/CMSIS/Include/core_cm0.h **** /* check device defines and use defaults */
 134:Drivers/CMSIS/Include/core_cm0.h **** #if defined __CHECK_DEVICE_DEFINES
 135:Drivers/CMSIS/Include/core_cm0.h ****   #ifndef __CM0_REV
 136:Drivers/CMSIS/Include/core_cm0.h ****     #define __CM0_REV               0x0000U
 137:Drivers/CMSIS/Include/core_cm0.h ****     #warning "__CM0_REV not defined in device header file; using default!"
 138:Drivers/CMSIS/Include/core_cm0.h ****   #endif
 139:Drivers/CMSIS/Include/core_cm0.h **** 
 140:Drivers/CMSIS/Include/core_cm0.h ****   #ifndef __NVIC_PRIO_BITS
 141:Drivers/CMSIS/Include/core_cm0.h ****     #define __NVIC_PRIO_BITS          2U
 142:Drivers/CMSIS/Include/core_cm0.h ****     #warning "__NVIC_PRIO_BITS not defined in device header file; using default!"
 143:Drivers/CMSIS/Include/core_cm0.h ****   #endif
 144:Drivers/CMSIS/Include/core_cm0.h **** 
 145:Drivers/CMSIS/Include/core_cm0.h ****   #ifndef __Vendor_SysTickConfig
 146:Drivers/CMSIS/Include/core_cm0.h ****     #define __Vendor_SysTickConfig    0U
 147:Drivers/CMSIS/Include/core_cm0.h ****     #warning "__Vendor_SysTickConfig not defined in device header file; using default!"
 148:Drivers/CMSIS/Include/core_cm0.h ****   #endif
 149:Drivers/CMSIS/Include/core_cm0.h **** #endif
 150:Drivers/CMSIS/Include/core_cm0.h **** 
 151:Drivers/CMSIS/Include/core_cm0.h **** /* IO definitions (access restrictions to peripheral registers) */
 152:Drivers/CMSIS/Include/core_cm0.h **** /**
 153:Drivers/CMSIS/Include/core_cm0.h ****     \defgroup CMSIS_glob_defs CMSIS Global Defines
 154:Drivers/CMSIS/Include/core_cm0.h **** 
 155:Drivers/CMSIS/Include/core_cm0.h ****     <strong>IO Type Qualifiers</strong> are used
 156:Drivers/CMSIS/Include/core_cm0.h ****     \li to specify the access to peripheral variables.
 157:Drivers/CMSIS/Include/core_cm0.h ****     \li for automatic generation of peripheral register debug information.
 158:Drivers/CMSIS/Include/core_cm0.h **** */
 159:Drivers/CMSIS/Include/core_cm0.h **** #ifdef __cplusplus
 160:Drivers/CMSIS/Include/core_cm0.h ****   #define   __I     volatile             /*!< Defines 'read only' permissions */
 161:Drivers/CMSIS/Include/core_cm0.h **** #else
 162:Drivers/CMSIS/Include/core_cm0.h ****   #define   __I     volatile const       /*!< Defines 'read only' permissions */
 163:Drivers/CMSIS/Include/core_cm0.h **** #endif
 164:Drivers/CMSIS/Include/core_cm0.h **** #define     __O     volatile             /*!< Defines 'write only' permissions */
 165:Drivers/CMSIS/Include/core_cm0.h **** #define     __IO    volatile             /*!< Defines 'read / write' permissions */
 166:Drivers/CMSIS/Include/core_cm0.h **** 
 167:Drivers/CMSIS/Include/core_cm0.h **** /* following defines should be used for structure members */
 168:Drivers/CMSIS/Include/core_cm0.h **** #define     __IM     volatile const      /*! Defines 'read only' structure member permissions */
 169:Drivers/CMSIS/Include/core_cm0.h **** #define     __OM     volatile            /*! Defines 'write only' structure member permissions */
 170:Drivers/CMSIS/Include/core_cm0.h **** #define     __IOM    volatile            /*! Defines 'read / write' structure member permissions */
 171:Drivers/CMSIS/Include/core_cm0.h **** 
 172:Drivers/CMSIS/Include/core_cm0.h **** /*@} end of group Cortex_M0 */
 173:Drivers/CMSIS/Include/core_cm0.h **** 
 174:Drivers/CMSIS/Include/core_cm0.h **** 
 175:Drivers/CMSIS/Include/core_cm0.h **** 
 176:Drivers/CMSIS/Include/core_cm0.h **** /*******************************************************************************
 177:Drivers/CMSIS/Include/core_cm0.h ****  *                 Register Abstraction
 178:Drivers/CMSIS/Include/core_cm0.h ****   Core Register contain:
 179:Drivers/CMSIS/Include/core_cm0.h ****   - Core Register
ARM GAS  C:\Users\ADMINI~1\AppData\Local\Temp\ccJZf5de.s 			page 35


 180:Drivers/CMSIS/Include/core_cm0.h ****   - Core NVIC Register
 181:Drivers/CMSIS/Include/core_cm0.h ****   - Core SCB Register
 182:Drivers/CMSIS/Include/core_cm0.h ****   - Core SysTick Register
 183:Drivers/CMSIS/Include/core_cm0.h ****  ******************************************************************************/
 184:Drivers/CMSIS/Include/core_cm0.h **** /**
 185:Drivers/CMSIS/Include/core_cm0.h ****   \defgroup CMSIS_core_register Defines and Type Definitions
 186:Drivers/CMSIS/Include/core_cm0.h ****   \brief Type definitions and defines for Cortex-M processor based devices.
 187:Drivers/CMSIS/Include/core_cm0.h **** */
 188:Drivers/CMSIS/Include/core_cm0.h **** 
 189:Drivers/CMSIS/Include/core_cm0.h **** /**
 190:Drivers/CMSIS/Include/core_cm0.h ****   \ingroup    CMSIS_core_register
 191:Drivers/CMSIS/Include/core_cm0.h ****   \defgroup   CMSIS_CORE  Status and Control Registers
 192:Drivers/CMSIS/Include/core_cm0.h ****   \brief      Core Register type definitions.
 193:Drivers/CMSIS/Include/core_cm0.h ****   @{
 194:Drivers/CMSIS/Include/core_cm0.h ****  */
 195:Drivers/CMSIS/Include/core_cm0.h **** 
 196:Drivers/CMSIS/Include/core_cm0.h **** /**
 197:Drivers/CMSIS/Include/core_cm0.h ****   \brief  Union type to access the Application Program Status Register (APSR).
 198:Drivers/CMSIS/Include/core_cm0.h ****  */
 199:Drivers/CMSIS/Include/core_cm0.h **** typedef union
 200:Drivers/CMSIS/Include/core_cm0.h **** {
 201:Drivers/CMSIS/Include/core_cm0.h ****   struct
 202:Drivers/CMSIS/Include/core_cm0.h ****   {
 203:Drivers/CMSIS/Include/core_cm0.h ****     uint32_t _reserved0:28;              /*!< bit:  0..27  Reserved */
 204:Drivers/CMSIS/Include/core_cm0.h ****     uint32_t V:1;                        /*!< bit:     28  Overflow condition code flag */
 205:Drivers/CMSIS/Include/core_cm0.h ****     uint32_t C:1;                        /*!< bit:     29  Carry condition code flag */
 206:Drivers/CMSIS/Include/core_cm0.h ****     uint32_t Z:1;                        /*!< bit:     30  Zero condition code flag */
 207:Drivers/CMSIS/Include/core_cm0.h ****     uint32_t N:1;                        /*!< bit:     31  Negative condition code flag */
 208:Drivers/CMSIS/Include/core_cm0.h ****   } b;                                   /*!< Structure used for bit  access */
 209:Drivers/CMSIS/Include/core_cm0.h ****   uint32_t w;                            /*!< Type      used for word access */
 210:Drivers/CMSIS/Include/core_cm0.h **** } APSR_Type;
 211:Drivers/CMSIS/Include/core_cm0.h **** 
 212:Drivers/CMSIS/Include/core_cm0.h **** /* APSR Register Definitions */
 213:Drivers/CMSIS/Include/core_cm0.h **** #define APSR_N_Pos                         31U                                            /*!< APSR
 214:Drivers/CMSIS/Include/core_cm0.h **** #define APSR_N_Msk                         (1UL << APSR_N_Pos)                            /*!< APSR
 215:Drivers/CMSIS/Include/core_cm0.h **** 
 216:Drivers/CMSIS/Include/core_cm0.h **** #define APSR_Z_Pos                         30U                                            /*!< APSR
 217:Drivers/CMSIS/Include/core_cm0.h **** #define APSR_Z_Msk                         (1UL << APSR_Z_Pos)                            /*!< APSR
 218:Drivers/CMSIS/Include/core_cm0.h **** 
 219:Drivers/CMSIS/Include/core_cm0.h **** #define APSR_C_Pos                         29U                                            /*!< APSR
 220:Drivers/CMSIS/Include/core_cm0.h **** #define APSR_C_Msk                         (1UL << APSR_C_Pos)                            /*!< APSR
 221:Drivers/CMSIS/Include/core_cm0.h **** 
 222:Drivers/CMSIS/Include/core_cm0.h **** #define APSR_V_Pos                         28U                                            /*!< APSR
 223:Drivers/CMSIS/Include/core_cm0.h **** #define APSR_V_Msk                         (1UL << APSR_V_Pos)                            /*!< APSR
 224:Drivers/CMSIS/Include/core_cm0.h **** 
 225:Drivers/CMSIS/Include/core_cm0.h **** 
 226:Drivers/CMSIS/Include/core_cm0.h **** /**
 227:Drivers/CMSIS/Include/core_cm0.h ****   \brief  Union type to access the Interrupt Program Status Register (IPSR).
 228:Drivers/CMSIS/Include/core_cm0.h ****  */
 229:Drivers/CMSIS/Include/core_cm0.h **** typedef union
 230:Drivers/CMSIS/Include/core_cm0.h **** {
 231:Drivers/CMSIS/Include/core_cm0.h ****   struct
 232:Drivers/CMSIS/Include/core_cm0.h ****   {
 233:Drivers/CMSIS/Include/core_cm0.h ****     uint32_t ISR:9;                      /*!< bit:  0.. 8  Exception number */
 234:Drivers/CMSIS/Include/core_cm0.h ****     uint32_t _reserved0:23;              /*!< bit:  9..31  Reserved */
 235:Drivers/CMSIS/Include/core_cm0.h ****   } b;                                   /*!< Structure used for bit  access */
 236:Drivers/CMSIS/Include/core_cm0.h ****   uint32_t w;                            /*!< Type      used for word access */
ARM GAS  C:\Users\ADMINI~1\AppData\Local\Temp\ccJZf5de.s 			page 36


 237:Drivers/CMSIS/Include/core_cm0.h **** } IPSR_Type;
 238:Drivers/CMSIS/Include/core_cm0.h **** 
 239:Drivers/CMSIS/Include/core_cm0.h **** /* IPSR Register Definitions */
 240:Drivers/CMSIS/Include/core_cm0.h **** #define IPSR_ISR_Pos                        0U                                            /*!< IPSR
 241:Drivers/CMSIS/Include/core_cm0.h **** #define IPSR_ISR_Msk                       (0x1FFUL /*<< IPSR_ISR_Pos*/)                  /*!< IPSR
 242:Drivers/CMSIS/Include/core_cm0.h **** 
 243:Drivers/CMSIS/Include/core_cm0.h **** 
 244:Drivers/CMSIS/Include/core_cm0.h **** /**
 245:Drivers/CMSIS/Include/core_cm0.h ****   \brief  Union type to access the Special-Purpose Program Status Registers (xPSR).
 246:Drivers/CMSIS/Include/core_cm0.h ****  */
 247:Drivers/CMSIS/Include/core_cm0.h **** typedef union
 248:Drivers/CMSIS/Include/core_cm0.h **** {
 249:Drivers/CMSIS/Include/core_cm0.h ****   struct
 250:Drivers/CMSIS/Include/core_cm0.h ****   {
 251:Drivers/CMSIS/Include/core_cm0.h ****     uint32_t ISR:9;                      /*!< bit:  0.. 8  Exception number */
 252:Drivers/CMSIS/Include/core_cm0.h ****     uint32_t _reserved0:15;              /*!< bit:  9..23  Reserved */
 253:Drivers/CMSIS/Include/core_cm0.h ****     uint32_t T:1;                        /*!< bit:     24  Thumb bit        (read 0) */
 254:Drivers/CMSIS/Include/core_cm0.h ****     uint32_t _reserved1:3;               /*!< bit: 25..27  Reserved */
 255:Drivers/CMSIS/Include/core_cm0.h ****     uint32_t V:1;                        /*!< bit:     28  Overflow condition code flag */
 256:Drivers/CMSIS/Include/core_cm0.h ****     uint32_t C:1;                        /*!< bit:     29  Carry condition code flag */
 257:Drivers/CMSIS/Include/core_cm0.h ****     uint32_t Z:1;                        /*!< bit:     30  Zero condition code flag */
 258:Drivers/CMSIS/Include/core_cm0.h ****     uint32_t N:1;                        /*!< bit:     31  Negative condition code flag */
 259:Drivers/CMSIS/Include/core_cm0.h ****   } b;                                   /*!< Structure used for bit  access */
 260:Drivers/CMSIS/Include/core_cm0.h ****   uint32_t w;                            /*!< Type      used for word access */
 261:Drivers/CMSIS/Include/core_cm0.h **** } xPSR_Type;
 262:Drivers/CMSIS/Include/core_cm0.h **** 
 263:Drivers/CMSIS/Include/core_cm0.h **** /* xPSR Register Definitions */
 264:Drivers/CMSIS/Include/core_cm0.h **** #define xPSR_N_Pos                         31U                                            /*!< xPSR
 265:Drivers/CMSIS/Include/core_cm0.h **** #define xPSR_N_Msk                         (1UL << xPSR_N_Pos)                            /*!< xPSR
 266:Drivers/CMSIS/Include/core_cm0.h **** 
 267:Drivers/CMSIS/Include/core_cm0.h **** #define xPSR_Z_Pos                         30U                                            /*!< xPSR
 268:Drivers/CMSIS/Include/core_cm0.h **** #define xPSR_Z_Msk                         (1UL << xPSR_Z_Pos)                            /*!< xPSR
 269:Drivers/CMSIS/Include/core_cm0.h **** 
 270:Drivers/CMSIS/Include/core_cm0.h **** #define xPSR_C_Pos                         29U                                            /*!< xPSR
 271:Drivers/CMSIS/Include/core_cm0.h **** #define xPSR_C_Msk                         (1UL << xPSR_C_Pos)                            /*!< xPSR
 272:Drivers/CMSIS/Include/core_cm0.h **** 
 273:Drivers/CMSIS/Include/core_cm0.h **** #define xPSR_V_Pos                         28U                                            /*!< xPSR
 274:Drivers/CMSIS/Include/core_cm0.h **** #define xPSR_V_Msk                         (1UL << xPSR_V_Pos)                            /*!< xPSR
 275:Drivers/CMSIS/Include/core_cm0.h **** 
 276:Drivers/CMSIS/Include/core_cm0.h **** #define xPSR_T_Pos                         24U                                            /*!< xPSR
 277:Drivers/CMSIS/Include/core_cm0.h **** #define xPSR_T_Msk                         (1UL << xPSR_T_Pos)                            /*!< xPSR
 278:Drivers/CMSIS/Include/core_cm0.h **** 
 279:Drivers/CMSIS/Include/core_cm0.h **** #define xPSR_ISR_Pos                        0U                                            /*!< xPSR
 280:Drivers/CMSIS/Include/core_cm0.h **** #define xPSR_ISR_Msk                       (0x1FFUL /*<< xPSR_ISR_Pos*/)                  /*!< xPSR
 281:Drivers/CMSIS/Include/core_cm0.h **** 
 282:Drivers/CMSIS/Include/core_cm0.h **** 
 283:Drivers/CMSIS/Include/core_cm0.h **** /**
 284:Drivers/CMSIS/Include/core_cm0.h ****   \brief  Union type to access the Control Registers (CONTROL).
 285:Drivers/CMSIS/Include/core_cm0.h ****  */
 286:Drivers/CMSIS/Include/core_cm0.h **** typedef union
 287:Drivers/CMSIS/Include/core_cm0.h **** {
 288:Drivers/CMSIS/Include/core_cm0.h ****   struct
 289:Drivers/CMSIS/Include/core_cm0.h ****   {
 290:Drivers/CMSIS/Include/core_cm0.h ****     uint32_t _reserved0:1;               /*!< bit:      0  Reserved */
 291:Drivers/CMSIS/Include/core_cm0.h ****     uint32_t SPSEL:1;                    /*!< bit:      1  Stack to be used */
 292:Drivers/CMSIS/Include/core_cm0.h ****     uint32_t _reserved1:30;              /*!< bit:  2..31  Reserved */
 293:Drivers/CMSIS/Include/core_cm0.h ****   } b;                                   /*!< Structure used for bit  access */
ARM GAS  C:\Users\ADMINI~1\AppData\Local\Temp\ccJZf5de.s 			page 37


 294:Drivers/CMSIS/Include/core_cm0.h ****   uint32_t w;                            /*!< Type      used for word access */
 295:Drivers/CMSIS/Include/core_cm0.h **** } CONTROL_Type;
 296:Drivers/CMSIS/Include/core_cm0.h **** 
 297:Drivers/CMSIS/Include/core_cm0.h **** /* CONTROL Register Definitions */
 298:Drivers/CMSIS/Include/core_cm0.h **** #define CONTROL_SPSEL_Pos                   1U                                            /*!< CONT
 299:Drivers/CMSIS/Include/core_cm0.h **** #define CONTROL_SPSEL_Msk                  (1UL << CONTROL_SPSEL_Pos)                     /*!< CONT
 300:Drivers/CMSIS/Include/core_cm0.h **** 
 301:Drivers/CMSIS/Include/core_cm0.h **** /*@} end of group CMSIS_CORE */
 302:Drivers/CMSIS/Include/core_cm0.h **** 
 303:Drivers/CMSIS/Include/core_cm0.h **** 
 304:Drivers/CMSIS/Include/core_cm0.h **** /**
 305:Drivers/CMSIS/Include/core_cm0.h ****   \ingroup    CMSIS_core_register
 306:Drivers/CMSIS/Include/core_cm0.h ****   \defgroup   CMSIS_NVIC  Nested Vectored Interrupt Controller (NVIC)
 307:Drivers/CMSIS/Include/core_cm0.h ****   \brief      Type definitions for the NVIC Registers
 308:Drivers/CMSIS/Include/core_cm0.h ****   @{
 309:Drivers/CMSIS/Include/core_cm0.h ****  */
 310:Drivers/CMSIS/Include/core_cm0.h **** 
 311:Drivers/CMSIS/Include/core_cm0.h **** /**
 312:Drivers/CMSIS/Include/core_cm0.h ****   \brief  Structure type to access the Nested Vectored Interrupt Controller (NVIC).
 313:Drivers/CMSIS/Include/core_cm0.h ****  */
 314:Drivers/CMSIS/Include/core_cm0.h **** typedef struct
 315:Drivers/CMSIS/Include/core_cm0.h **** {
 316:Drivers/CMSIS/Include/core_cm0.h ****   __IOM uint32_t ISER[1U];               /*!< Offset: 0x000 (R/W)  Interrupt Set Enable Register */
 317:Drivers/CMSIS/Include/core_cm0.h ****         uint32_t RESERVED0[31U];
 318:Drivers/CMSIS/Include/core_cm0.h ****   __IOM uint32_t ICER[1U];               /*!< Offset: 0x080 (R/W)  Interrupt Clear Enable Register 
 319:Drivers/CMSIS/Include/core_cm0.h ****         uint32_t RSERVED1[31U];
 320:Drivers/CMSIS/Include/core_cm0.h ****   __IOM uint32_t ISPR[1U];               /*!< Offset: 0x100 (R/W)  Interrupt Set Pending Register *
 321:Drivers/CMSIS/Include/core_cm0.h ****         uint32_t RESERVED2[31U];
 322:Drivers/CMSIS/Include/core_cm0.h ****   __IOM uint32_t ICPR[1U];               /*!< Offset: 0x180 (R/W)  Interrupt Clear Pending Register
 323:Drivers/CMSIS/Include/core_cm0.h ****         uint32_t RESERVED3[31U];
 324:Drivers/CMSIS/Include/core_cm0.h ****         uint32_t RESERVED4[64U];
 325:Drivers/CMSIS/Include/core_cm0.h ****   __IOM uint32_t IP[8U];                 /*!< Offset: 0x300 (R/W)  Interrupt Priority Register */
 326:Drivers/CMSIS/Include/core_cm0.h **** }  NVIC_Type;
 327:Drivers/CMSIS/Include/core_cm0.h **** 
 328:Drivers/CMSIS/Include/core_cm0.h **** /*@} end of group CMSIS_NVIC */
 329:Drivers/CMSIS/Include/core_cm0.h **** 
 330:Drivers/CMSIS/Include/core_cm0.h **** 
 331:Drivers/CMSIS/Include/core_cm0.h **** /**
 332:Drivers/CMSIS/Include/core_cm0.h ****   \ingroup  CMSIS_core_register
 333:Drivers/CMSIS/Include/core_cm0.h ****   \defgroup CMSIS_SCB     System Control Block (SCB)
 334:Drivers/CMSIS/Include/core_cm0.h ****   \brief    Type definitions for the System Control Block Registers
 335:Drivers/CMSIS/Include/core_cm0.h ****   @{
 336:Drivers/CMSIS/Include/core_cm0.h ****  */
 337:Drivers/CMSIS/Include/core_cm0.h **** 
 338:Drivers/CMSIS/Include/core_cm0.h **** /**
 339:Drivers/CMSIS/Include/core_cm0.h ****   \brief  Structure type to access the System Control Block (SCB).
 340:Drivers/CMSIS/Include/core_cm0.h ****  */
 341:Drivers/CMSIS/Include/core_cm0.h **** typedef struct
 342:Drivers/CMSIS/Include/core_cm0.h **** {
 343:Drivers/CMSIS/Include/core_cm0.h ****   __IM  uint32_t CPUID;                  /*!< Offset: 0x000 (R/ )  CPUID Base Register */
 344:Drivers/CMSIS/Include/core_cm0.h ****   __IOM uint32_t ICSR;                   /*!< Offset: 0x004 (R/W)  Interrupt Control and State Regi
 345:Drivers/CMSIS/Include/core_cm0.h ****         uint32_t RESERVED0;
 346:Drivers/CMSIS/Include/core_cm0.h ****   __IOM uint32_t AIRCR;                  /*!< Offset: 0x00C (R/W)  Application Interrupt and Reset 
 347:Drivers/CMSIS/Include/core_cm0.h ****   __IOM uint32_t SCR;                    /*!< Offset: 0x010 (R/W)  System Control Register */
 348:Drivers/CMSIS/Include/core_cm0.h ****   __IOM uint32_t CCR;                    /*!< Offset: 0x014 (R/W)  Configuration Control Register *
 349:Drivers/CMSIS/Include/core_cm0.h ****         uint32_t RESERVED1;
 350:Drivers/CMSIS/Include/core_cm0.h ****   __IOM uint32_t SHP[2U];                /*!< Offset: 0x01C (R/W)  System Handlers Priority Registe
ARM GAS  C:\Users\ADMINI~1\AppData\Local\Temp\ccJZf5de.s 			page 38


 351:Drivers/CMSIS/Include/core_cm0.h ****   __IOM uint32_t SHCSR;                  /*!< Offset: 0x024 (R/W)  System Handler Control and State
 352:Drivers/CMSIS/Include/core_cm0.h **** } SCB_Type;
 353:Drivers/CMSIS/Include/core_cm0.h **** 
 354:Drivers/CMSIS/Include/core_cm0.h **** /* SCB CPUID Register Definitions */
 355:Drivers/CMSIS/Include/core_cm0.h **** #define SCB_CPUID_IMPLEMENTER_Pos          24U                                            /*!< SCB 
 356:Drivers/CMSIS/Include/core_cm0.h **** #define SCB_CPUID_IMPLEMENTER_Msk          (0xFFUL << SCB_CPUID_IMPLEMENTER_Pos)          /*!< SCB 
 357:Drivers/CMSIS/Include/core_cm0.h **** 
 358:Drivers/CMSIS/Include/core_cm0.h **** #define SCB_CPUID_VARIANT_Pos              20U                                            /*!< SCB 
 359:Drivers/CMSIS/Include/core_cm0.h **** #define SCB_CPUID_VARIANT_Msk              (0xFUL << SCB_CPUID_VARIANT_Pos)               /*!< SCB 
 360:Drivers/CMSIS/Include/core_cm0.h **** 
 361:Drivers/CMSIS/Include/core_cm0.h **** #define SCB_CPUID_ARCHITECTURE_Pos         16U                                            /*!< SCB 
 362:Drivers/CMSIS/Include/core_cm0.h **** #define SCB_CPUID_ARCHITECTURE_Msk         (0xFUL << SCB_CPUID_ARCHITECTURE_Pos)          /*!< SCB 
 363:Drivers/CMSIS/Include/core_cm0.h **** 
 364:Drivers/CMSIS/Include/core_cm0.h **** #define SCB_CPUID_PARTNO_Pos                4U                                            /*!< SCB 
 365:Drivers/CMSIS/Include/core_cm0.h **** #define SCB_CPUID_PARTNO_Msk               (0xFFFUL << SCB_CPUID_PARTNO_Pos)              /*!< SCB 
 366:Drivers/CMSIS/Include/core_cm0.h **** 
 367:Drivers/CMSIS/Include/core_cm0.h **** #define SCB_CPUID_REVISION_Pos              0U                                            /*!< SCB 
 368:Drivers/CMSIS/Include/core_cm0.h **** #define SCB_CPUID_REVISION_Msk             (0xFUL /*<< SCB_CPUID_REVISION_Pos*/)          /*!< SCB 
 369:Drivers/CMSIS/Include/core_cm0.h **** 
 370:Drivers/CMSIS/Include/core_cm0.h **** /* SCB Interrupt Control State Register Definitions */
 371:Drivers/CMSIS/Include/core_cm0.h **** #define SCB_ICSR_NMIPENDSET_Pos            31U                                            /*!< SCB 
 372:Drivers/CMSIS/Include/core_cm0.h **** #define SCB_ICSR_NMIPENDSET_Msk            (1UL << SCB_ICSR_NMIPENDSET_Pos)               /*!< SCB 
 373:Drivers/CMSIS/Include/core_cm0.h **** 
 374:Drivers/CMSIS/Include/core_cm0.h **** #define SCB_ICSR_PENDSVSET_Pos             28U                                            /*!< SCB 
 375:Drivers/CMSIS/Include/core_cm0.h **** #define SCB_ICSR_PENDSVSET_Msk             (1UL << SCB_ICSR_PENDSVSET_Pos)                /*!< SCB 
 376:Drivers/CMSIS/Include/core_cm0.h **** 
 377:Drivers/CMSIS/Include/core_cm0.h **** #define SCB_ICSR_PENDSVCLR_Pos             27U                                            /*!< SCB 
 378:Drivers/CMSIS/Include/core_cm0.h **** #define SCB_ICSR_PENDSVCLR_Msk             (1UL << SCB_ICSR_PENDSVCLR_Pos)                /*!< SCB 
 379:Drivers/CMSIS/Include/core_cm0.h **** 
 380:Drivers/CMSIS/Include/core_cm0.h **** #define SCB_ICSR_PENDSTSET_Pos             26U                                            /*!< SCB 
 381:Drivers/CMSIS/Include/core_cm0.h **** #define SCB_ICSR_PENDSTSET_Msk             (1UL << SCB_ICSR_PENDSTSET_Pos)                /*!< SCB 
 382:Drivers/CMSIS/Include/core_cm0.h **** 
 383:Drivers/CMSIS/Include/core_cm0.h **** #define SCB_ICSR_PENDSTCLR_Pos             25U                                            /*!< SCB 
 384:Drivers/CMSIS/Include/core_cm0.h **** #define SCB_ICSR_PENDSTCLR_Msk             (1UL << SCB_ICSR_PENDSTCLR_Pos)                /*!< SCB 
 385:Drivers/CMSIS/Include/core_cm0.h **** 
 386:Drivers/CMSIS/Include/core_cm0.h **** #define SCB_ICSR_ISRPREEMPT_Pos            23U                                            /*!< SCB 
 387:Drivers/CMSIS/Include/core_cm0.h **** #define SCB_ICSR_ISRPREEMPT_Msk            (1UL << SCB_ICSR_ISRPREEMPT_Pos)               /*!< SCB 
 388:Drivers/CMSIS/Include/core_cm0.h **** 
 389:Drivers/CMSIS/Include/core_cm0.h **** #define SCB_ICSR_ISRPENDING_Pos            22U                                            /*!< SCB 
 390:Drivers/CMSIS/Include/core_cm0.h **** #define SCB_ICSR_ISRPENDING_Msk            (1UL << SCB_ICSR_ISRPENDING_Pos)               /*!< SCB 
 391:Drivers/CMSIS/Include/core_cm0.h **** 
 392:Drivers/CMSIS/Include/core_cm0.h **** #define SCB_ICSR_VECTPENDING_Pos           12U                                            /*!< SCB 
 393:Drivers/CMSIS/Include/core_cm0.h **** #define SCB_ICSR_VECTPENDING_Msk           (0x1FFUL << SCB_ICSR_VECTPENDING_Pos)          /*!< SCB 
 394:Drivers/CMSIS/Include/core_cm0.h **** 
 395:Drivers/CMSIS/Include/core_cm0.h **** #define SCB_ICSR_VECTACTIVE_Pos             0U                                            /*!< SCB 
 396:Drivers/CMSIS/Include/core_cm0.h **** #define SCB_ICSR_VECTACTIVE_Msk            (0x1FFUL /*<< SCB_ICSR_VECTACTIVE_Pos*/)       /*!< SCB 
 397:Drivers/CMSIS/Include/core_cm0.h **** 
 398:Drivers/CMSIS/Include/core_cm0.h **** /* SCB Application Interrupt and Reset Control Register Definitions */
 399:Drivers/CMSIS/Include/core_cm0.h **** #define SCB_AIRCR_VECTKEY_Pos              16U                                            /*!< SCB 
 400:Drivers/CMSIS/Include/core_cm0.h **** #define SCB_AIRCR_VECTKEY_Msk              (0xFFFFUL << SCB_AIRCR_VECTKEY_Pos)            /*!< SCB 
 401:Drivers/CMSIS/Include/core_cm0.h **** 
 402:Drivers/CMSIS/Include/core_cm0.h **** #define SCB_AIRCR_VECTKEYSTAT_Pos          16U                                            /*!< SCB 
 403:Drivers/CMSIS/Include/core_cm0.h **** #define SCB_AIRCR_VECTKEYSTAT_Msk          (0xFFFFUL << SCB_AIRCR_VECTKEYSTAT_Pos)        /*!< SCB 
 404:Drivers/CMSIS/Include/core_cm0.h **** 
 405:Drivers/CMSIS/Include/core_cm0.h **** #define SCB_AIRCR_ENDIANESS_Pos            15U                                            /*!< SCB 
 406:Drivers/CMSIS/Include/core_cm0.h **** #define SCB_AIRCR_ENDIANESS_Msk            (1UL << SCB_AIRCR_ENDIANESS_Pos)               /*!< SCB 
 407:Drivers/CMSIS/Include/core_cm0.h **** 
ARM GAS  C:\Users\ADMINI~1\AppData\Local\Temp\ccJZf5de.s 			page 39


 408:Drivers/CMSIS/Include/core_cm0.h **** #define SCB_AIRCR_SYSRESETREQ_Pos           2U                                            /*!< SCB 
 409:Drivers/CMSIS/Include/core_cm0.h **** #define SCB_AIRCR_SYSRESETREQ_Msk          (1UL << SCB_AIRCR_SYSRESETREQ_Pos)             /*!< SCB 
 410:Drivers/CMSIS/Include/core_cm0.h **** 
 411:Drivers/CMSIS/Include/core_cm0.h **** #define SCB_AIRCR_VECTCLRACTIVE_Pos         1U                                            /*!< SCB 
 412:Drivers/CMSIS/Include/core_cm0.h **** #define SCB_AIRCR_VECTCLRACTIVE_Msk        (1UL << SCB_AIRCR_VECTCLRACTIVE_Pos)           /*!< SCB 
 413:Drivers/CMSIS/Include/core_cm0.h **** 
 414:Drivers/CMSIS/Include/core_cm0.h **** /* SCB System Control Register Definitions */
 415:Drivers/CMSIS/Include/core_cm0.h **** #define SCB_SCR_SEVONPEND_Pos               4U                                            /*!< SCB 
 416:Drivers/CMSIS/Include/core_cm0.h **** #define SCB_SCR_SEVONPEND_Msk              (1UL << SCB_SCR_SEVONPEND_Pos)                 /*!< SCB 
 417:Drivers/CMSIS/Include/core_cm0.h **** 
 418:Drivers/CMSIS/Include/core_cm0.h **** #define SCB_SCR_SLEEPDEEP_Pos               2U                                            /*!< SCB 
 419:Drivers/CMSIS/Include/core_cm0.h **** #define SCB_SCR_SLEEPDEEP_Msk              (1UL << SCB_SCR_SLEEPDEEP_Pos)                 /*!< SCB 
 420:Drivers/CMSIS/Include/core_cm0.h **** 
 421:Drivers/CMSIS/Include/core_cm0.h **** #define SCB_SCR_SLEEPONEXIT_Pos             1U                                            /*!< SCB 
 422:Drivers/CMSIS/Include/core_cm0.h **** #define SCB_SCR_SLEEPONEXIT_Msk            (1UL << SCB_SCR_SLEEPONEXIT_Pos)               /*!< SCB 
 423:Drivers/CMSIS/Include/core_cm0.h **** 
 424:Drivers/CMSIS/Include/core_cm0.h **** /* SCB Configuration Control Register Definitions */
 425:Drivers/CMSIS/Include/core_cm0.h **** #define SCB_CCR_STKALIGN_Pos                9U                                            /*!< SCB 
 426:Drivers/CMSIS/Include/core_cm0.h **** #define SCB_CCR_STKALIGN_Msk               (1UL << SCB_CCR_STKALIGN_Pos)                  /*!< SCB 
 427:Drivers/CMSIS/Include/core_cm0.h **** 
 428:Drivers/CMSIS/Include/core_cm0.h **** #define SCB_CCR_UNALIGN_TRP_Pos             3U                                            /*!< SCB 
 429:Drivers/CMSIS/Include/core_cm0.h **** #define SCB_CCR_UNALIGN_TRP_Msk            (1UL << SCB_CCR_UNALIGN_TRP_Pos)               /*!< SCB 
 430:Drivers/CMSIS/Include/core_cm0.h **** 
 431:Drivers/CMSIS/Include/core_cm0.h **** /* SCB System Handler Control and State Register Definitions */
 432:Drivers/CMSIS/Include/core_cm0.h **** #define SCB_SHCSR_SVCALLPENDED_Pos         15U                                            /*!< SCB 
 433:Drivers/CMSIS/Include/core_cm0.h **** #define SCB_SHCSR_SVCALLPENDED_Msk         (1UL << SCB_SHCSR_SVCALLPENDED_Pos)            /*!< SCB 
 434:Drivers/CMSIS/Include/core_cm0.h **** 
 435:Drivers/CMSIS/Include/core_cm0.h **** /*@} end of group CMSIS_SCB */
 436:Drivers/CMSIS/Include/core_cm0.h **** 
 437:Drivers/CMSIS/Include/core_cm0.h **** 
 438:Drivers/CMSIS/Include/core_cm0.h **** /**
 439:Drivers/CMSIS/Include/core_cm0.h ****   \ingroup  CMSIS_core_register
 440:Drivers/CMSIS/Include/core_cm0.h ****   \defgroup CMSIS_SysTick     System Tick Timer (SysTick)
 441:Drivers/CMSIS/Include/core_cm0.h ****   \brief    Type definitions for the System Timer Registers.
 442:Drivers/CMSIS/Include/core_cm0.h ****   @{
 443:Drivers/CMSIS/Include/core_cm0.h ****  */
 444:Drivers/CMSIS/Include/core_cm0.h **** 
 445:Drivers/CMSIS/Include/core_cm0.h **** /**
 446:Drivers/CMSIS/Include/core_cm0.h ****   \brief  Structure type to access the System Timer (SysTick).
 447:Drivers/CMSIS/Include/core_cm0.h ****  */
 448:Drivers/CMSIS/Include/core_cm0.h **** typedef struct
 449:Drivers/CMSIS/Include/core_cm0.h **** {
 450:Drivers/CMSIS/Include/core_cm0.h ****   __IOM uint32_t CTRL;                   /*!< Offset: 0x000 (R/W)  SysTick Control and Status Regis
 451:Drivers/CMSIS/Include/core_cm0.h ****   __IOM uint32_t LOAD;                   /*!< Offset: 0x004 (R/W)  SysTick Reload Value Register */
 452:Drivers/CMSIS/Include/core_cm0.h ****   __IOM uint32_t VAL;                    /*!< Offset: 0x008 (R/W)  SysTick Current Value Register *
 453:Drivers/CMSIS/Include/core_cm0.h ****   __IM  uint32_t CALIB;                  /*!< Offset: 0x00C (R/ )  SysTick Calibration Register */
 454:Drivers/CMSIS/Include/core_cm0.h **** } SysTick_Type;
 455:Drivers/CMSIS/Include/core_cm0.h **** 
 456:Drivers/CMSIS/Include/core_cm0.h **** /* SysTick Control / Status Register Definitions */
 457:Drivers/CMSIS/Include/core_cm0.h **** #define SysTick_CTRL_COUNTFLAG_Pos         16U                                            /*!< SysT
 458:Drivers/CMSIS/Include/core_cm0.h **** #define SysTick_CTRL_COUNTFLAG_Msk         (1UL << SysTick_CTRL_COUNTFLAG_Pos)            /*!< SysT
 459:Drivers/CMSIS/Include/core_cm0.h **** 
 460:Drivers/CMSIS/Include/core_cm0.h **** #define SysTick_CTRL_CLKSOURCE_Pos          2U                                            /*!< SysT
 461:Drivers/CMSIS/Include/core_cm0.h **** #define SysTick_CTRL_CLKSOURCE_Msk         (1UL << SysTick_CTRL_CLKSOURCE_Pos)            /*!< SysT
 462:Drivers/CMSIS/Include/core_cm0.h **** 
 463:Drivers/CMSIS/Include/core_cm0.h **** #define SysTick_CTRL_TICKINT_Pos            1U                                            /*!< SysT
 464:Drivers/CMSIS/Include/core_cm0.h **** #define SysTick_CTRL_TICKINT_Msk           (1UL << SysTick_CTRL_TICKINT_Pos)              /*!< SysT
ARM GAS  C:\Users\ADMINI~1\AppData\Local\Temp\ccJZf5de.s 			page 40


 465:Drivers/CMSIS/Include/core_cm0.h **** 
 466:Drivers/CMSIS/Include/core_cm0.h **** #define SysTick_CTRL_ENABLE_Pos             0U                                            /*!< SysT
 467:Drivers/CMSIS/Include/core_cm0.h **** #define SysTick_CTRL_ENABLE_Msk            (1UL /*<< SysTick_CTRL_ENABLE_Pos*/)           /*!< SysT
 468:Drivers/CMSIS/Include/core_cm0.h **** 
 469:Drivers/CMSIS/Include/core_cm0.h **** /* SysTick Reload Register Definitions */
 470:Drivers/CMSIS/Include/core_cm0.h **** #define SysTick_LOAD_RELOAD_Pos             0U                                            /*!< SysT
 471:Drivers/CMSIS/Include/core_cm0.h **** #define SysTick_LOAD_RELOAD_Msk            (0xFFFFFFUL /*<< SysTick_LOAD_RELOAD_Pos*/)    /*!< SysT
 472:Drivers/CMSIS/Include/core_cm0.h **** 
 473:Drivers/CMSIS/Include/core_cm0.h **** /* SysTick Current Register Definitions */
 474:Drivers/CMSIS/Include/core_cm0.h **** #define SysTick_VAL_CURRENT_Pos             0U                                            /*!< SysT
 475:Drivers/CMSIS/Include/core_cm0.h **** #define SysTick_VAL_CURRENT_Msk            (0xFFFFFFUL /*<< SysTick_VAL_CURRENT_Pos*/)    /*!< SysT
 476:Drivers/CMSIS/Include/core_cm0.h **** 
 477:Drivers/CMSIS/Include/core_cm0.h **** /* SysTick Calibration Register Definitions */
 478:Drivers/CMSIS/Include/core_cm0.h **** #define SysTick_CALIB_NOREF_Pos            31U                                            /*!< SysT
 479:Drivers/CMSIS/Include/core_cm0.h **** #define SysTick_CALIB_NOREF_Msk            (1UL << SysTick_CALIB_NOREF_Pos)               /*!< SysT
 480:Drivers/CMSIS/Include/core_cm0.h **** 
 481:Drivers/CMSIS/Include/core_cm0.h **** #define SysTick_CALIB_SKEW_Pos             30U                                            /*!< SysT
 482:Drivers/CMSIS/Include/core_cm0.h **** #define SysTick_CALIB_SKEW_Msk             (1UL << SysTick_CALIB_SKEW_Pos)                /*!< SysT
 483:Drivers/CMSIS/Include/core_cm0.h **** 
 484:Drivers/CMSIS/Include/core_cm0.h **** #define SysTick_CALIB_TENMS_Pos             0U                                            /*!< SysT
 485:Drivers/CMSIS/Include/core_cm0.h **** #define SysTick_CALIB_TENMS_Msk            (0xFFFFFFUL /*<< SysTick_CALIB_TENMS_Pos*/)    /*!< SysT
 486:Drivers/CMSIS/Include/core_cm0.h **** 
 487:Drivers/CMSIS/Include/core_cm0.h **** /*@} end of group CMSIS_SysTick */
 488:Drivers/CMSIS/Include/core_cm0.h **** 
 489:Drivers/CMSIS/Include/core_cm0.h **** 
 490:Drivers/CMSIS/Include/core_cm0.h **** /**
 491:Drivers/CMSIS/Include/core_cm0.h ****   \ingroup  CMSIS_core_register
 492:Drivers/CMSIS/Include/core_cm0.h ****   \defgroup CMSIS_CoreDebug       Core Debug Registers (CoreDebug)
 493:Drivers/CMSIS/Include/core_cm0.h ****   \brief    Cortex-M0 Core Debug Registers (DCB registers, SHCSR, and DFSR) are only accessible ove
 494:Drivers/CMSIS/Include/core_cm0.h ****             Therefore they are not covered by the Cortex-M0 header file.
 495:Drivers/CMSIS/Include/core_cm0.h ****   @{
 496:Drivers/CMSIS/Include/core_cm0.h ****  */
 497:Drivers/CMSIS/Include/core_cm0.h **** /*@} end of group CMSIS_CoreDebug */
 498:Drivers/CMSIS/Include/core_cm0.h **** 
 499:Drivers/CMSIS/Include/core_cm0.h **** 
 500:Drivers/CMSIS/Include/core_cm0.h **** /**
 501:Drivers/CMSIS/Include/core_cm0.h ****   \ingroup    CMSIS_core_register
 502:Drivers/CMSIS/Include/core_cm0.h ****   \defgroup   CMSIS_core_bitfield     Core register bit field macros
 503:Drivers/CMSIS/Include/core_cm0.h ****   \brief      Macros for use with bit field definitions (xxx_Pos, xxx_Msk).
 504:Drivers/CMSIS/Include/core_cm0.h ****   @{
 505:Drivers/CMSIS/Include/core_cm0.h ****  */
 506:Drivers/CMSIS/Include/core_cm0.h **** 
 507:Drivers/CMSIS/Include/core_cm0.h **** /**
 508:Drivers/CMSIS/Include/core_cm0.h ****   \brief   Mask and shift a bit field value for use in a register bit range.
 509:Drivers/CMSIS/Include/core_cm0.h ****   \param[in] field  Name of the register bit field.
 510:Drivers/CMSIS/Include/core_cm0.h ****   \param[in] value  Value of the bit field. This parameter is interpreted as an uint32_t type.
 511:Drivers/CMSIS/Include/core_cm0.h ****   \return           Masked and shifted value.
 512:Drivers/CMSIS/Include/core_cm0.h **** */
 513:Drivers/CMSIS/Include/core_cm0.h **** #define _VAL2FLD(field, value)    (((uint32_t)(value) << field ## _Pos) & field ## _Msk)
 514:Drivers/CMSIS/Include/core_cm0.h **** 
 515:Drivers/CMSIS/Include/core_cm0.h **** /**
 516:Drivers/CMSIS/Include/core_cm0.h ****   \brief     Mask and shift a register value to extract a bit filed value.
 517:Drivers/CMSIS/Include/core_cm0.h ****   \param[in] field  Name of the register bit field.
 518:Drivers/CMSIS/Include/core_cm0.h ****   \param[in] value  Value of register. This parameter is interpreted as an uint32_t type.
 519:Drivers/CMSIS/Include/core_cm0.h ****   \return           Masked and shifted bit field value.
 520:Drivers/CMSIS/Include/core_cm0.h **** */
 521:Drivers/CMSIS/Include/core_cm0.h **** #define _FLD2VAL(field, value)    (((uint32_t)(value) & field ## _Msk) >> field ## _Pos)
ARM GAS  C:\Users\ADMINI~1\AppData\Local\Temp\ccJZf5de.s 			page 41


 522:Drivers/CMSIS/Include/core_cm0.h **** 
 523:Drivers/CMSIS/Include/core_cm0.h **** /*@} end of group CMSIS_core_bitfield */
 524:Drivers/CMSIS/Include/core_cm0.h **** 
 525:Drivers/CMSIS/Include/core_cm0.h **** 
 526:Drivers/CMSIS/Include/core_cm0.h **** /**
 527:Drivers/CMSIS/Include/core_cm0.h ****   \ingroup    CMSIS_core_register
 528:Drivers/CMSIS/Include/core_cm0.h ****   \defgroup   CMSIS_core_base     Core Definitions
 529:Drivers/CMSIS/Include/core_cm0.h ****   \brief      Definitions for base addresses, unions, and structures.
 530:Drivers/CMSIS/Include/core_cm0.h ****   @{
 531:Drivers/CMSIS/Include/core_cm0.h ****  */
 532:Drivers/CMSIS/Include/core_cm0.h **** 
 533:Drivers/CMSIS/Include/core_cm0.h **** /* Memory mapping of Core Hardware */
 534:Drivers/CMSIS/Include/core_cm0.h **** #define SCS_BASE            (0xE000E000UL)                            /*!< System Control Space Bas
 535:Drivers/CMSIS/Include/core_cm0.h **** #define SysTick_BASE        (SCS_BASE +  0x0010UL)                    /*!< SysTick Base Address */
 536:Drivers/CMSIS/Include/core_cm0.h **** #define NVIC_BASE           (SCS_BASE +  0x0100UL)                    /*!< NVIC Base Address */
 537:Drivers/CMSIS/Include/core_cm0.h **** #define SCB_BASE            (SCS_BASE +  0x0D00UL)                    /*!< System Control Block Bas
 538:Drivers/CMSIS/Include/core_cm0.h **** 
 539:Drivers/CMSIS/Include/core_cm0.h **** #define SCB                 ((SCB_Type       *)     SCB_BASE      )   /*!< SCB configuration struct
 540:Drivers/CMSIS/Include/core_cm0.h **** #define SysTick             ((SysTick_Type   *)     SysTick_BASE  )   /*!< SysTick configuration st
 541:Drivers/CMSIS/Include/core_cm0.h **** #define NVIC                ((NVIC_Type      *)     NVIC_BASE     )   /*!< NVIC configuration struc
 542:Drivers/CMSIS/Include/core_cm0.h **** 
 543:Drivers/CMSIS/Include/core_cm0.h **** 
 544:Drivers/CMSIS/Include/core_cm0.h **** /*@} */
 545:Drivers/CMSIS/Include/core_cm0.h **** 
 546:Drivers/CMSIS/Include/core_cm0.h **** 
 547:Drivers/CMSIS/Include/core_cm0.h **** 
 548:Drivers/CMSIS/Include/core_cm0.h **** /*******************************************************************************
 549:Drivers/CMSIS/Include/core_cm0.h ****  *                Hardware Abstraction Layer
 550:Drivers/CMSIS/Include/core_cm0.h ****   Core Function Interface contains:
 551:Drivers/CMSIS/Include/core_cm0.h ****   - Core NVIC Functions
 552:Drivers/CMSIS/Include/core_cm0.h ****   - Core SysTick Functions
 553:Drivers/CMSIS/Include/core_cm0.h ****   - Core Register Access Functions
 554:Drivers/CMSIS/Include/core_cm0.h ****  ******************************************************************************/
 555:Drivers/CMSIS/Include/core_cm0.h **** /**
 556:Drivers/CMSIS/Include/core_cm0.h ****   \defgroup CMSIS_Core_FunctionInterface Functions and Instructions Reference
 557:Drivers/CMSIS/Include/core_cm0.h **** */
 558:Drivers/CMSIS/Include/core_cm0.h **** 
 559:Drivers/CMSIS/Include/core_cm0.h **** 
 560:Drivers/CMSIS/Include/core_cm0.h **** 
 561:Drivers/CMSIS/Include/core_cm0.h **** /* ##########################   NVIC functions  #################################### */
 562:Drivers/CMSIS/Include/core_cm0.h **** /**
 563:Drivers/CMSIS/Include/core_cm0.h ****   \ingroup  CMSIS_Core_FunctionInterface
 564:Drivers/CMSIS/Include/core_cm0.h ****   \defgroup CMSIS_Core_NVICFunctions NVIC Functions
 565:Drivers/CMSIS/Include/core_cm0.h ****   \brief    Functions that manage interrupts and exceptions via the NVIC.
 566:Drivers/CMSIS/Include/core_cm0.h ****   @{
 567:Drivers/CMSIS/Include/core_cm0.h ****  */
 568:Drivers/CMSIS/Include/core_cm0.h **** 
 569:Drivers/CMSIS/Include/core_cm0.h **** #ifdef CMSIS_NVIC_VIRTUAL
 570:Drivers/CMSIS/Include/core_cm0.h ****   #ifndef CMSIS_NVIC_VIRTUAL_HEADER_FILE
 571:Drivers/CMSIS/Include/core_cm0.h ****     #define CMSIS_NVIC_VIRTUAL_HEADER_FILE "cmsis_nvic_virtual.h"
 572:Drivers/CMSIS/Include/core_cm0.h ****   #endif
 573:Drivers/CMSIS/Include/core_cm0.h ****   #include CMSIS_NVIC_VIRTUAL_HEADER_FILE
 574:Drivers/CMSIS/Include/core_cm0.h **** #else
 575:Drivers/CMSIS/Include/core_cm0.h ****   #define NVIC_SetPriorityGrouping    __NVIC_SetPriorityGrouping
 576:Drivers/CMSIS/Include/core_cm0.h ****   #define NVIC_GetPriorityGrouping    __NVIC_GetPriorityGrouping
 577:Drivers/CMSIS/Include/core_cm0.h ****   #define NVIC_EnableIRQ              __NVIC_EnableIRQ
 578:Drivers/CMSIS/Include/core_cm0.h ****   #define NVIC_GetEnableIRQ           __NVIC_GetEnableIRQ
ARM GAS  C:\Users\ADMINI~1\AppData\Local\Temp\ccJZf5de.s 			page 42


 579:Drivers/CMSIS/Include/core_cm0.h ****   #define NVIC_DisableIRQ             __NVIC_DisableIRQ
 580:Drivers/CMSIS/Include/core_cm0.h ****   #define NVIC_GetPendingIRQ          __NVIC_GetPendingIRQ
 581:Drivers/CMSIS/Include/core_cm0.h ****   #define NVIC_SetPendingIRQ          __NVIC_SetPendingIRQ
 582:Drivers/CMSIS/Include/core_cm0.h ****   #define NVIC_ClearPendingIRQ        __NVIC_ClearPendingIRQ
 583:Drivers/CMSIS/Include/core_cm0.h **** /*#define NVIC_GetActive              __NVIC_GetActive             not available for Cortex-M0 */
 584:Drivers/CMSIS/Include/core_cm0.h ****   #define NVIC_SetPriority            __NVIC_SetPriority
 585:Drivers/CMSIS/Include/core_cm0.h ****   #define NVIC_GetPriority            __NVIC_GetPriority
 586:Drivers/CMSIS/Include/core_cm0.h ****   #define NVIC_SystemReset            __NVIC_SystemReset
 587:Drivers/CMSIS/Include/core_cm0.h **** #endif /* CMSIS_NVIC_VIRTUAL */
 588:Drivers/CMSIS/Include/core_cm0.h **** 
 589:Drivers/CMSIS/Include/core_cm0.h **** #ifdef CMSIS_VECTAB_VIRTUAL
 590:Drivers/CMSIS/Include/core_cm0.h ****   #ifndef CMSIS_VECTAB_VIRTUAL_HEADER_FILE
 591:Drivers/CMSIS/Include/core_cm0.h ****     #define CMSIS_VECTAB_VIRTUAL_HEADER_FILE "cmsis_vectab_virtual.h"
 592:Drivers/CMSIS/Include/core_cm0.h ****   #endif
 593:Drivers/CMSIS/Include/core_cm0.h ****   #include CMSIS_VECTAB_VIRTUAL_HEADER_FILE
 594:Drivers/CMSIS/Include/core_cm0.h **** #else
 595:Drivers/CMSIS/Include/core_cm0.h ****   #define NVIC_SetVector              __NVIC_SetVector
 596:Drivers/CMSIS/Include/core_cm0.h ****   #define NVIC_GetVector              __NVIC_GetVector
 597:Drivers/CMSIS/Include/core_cm0.h **** #endif  /* (CMSIS_VECTAB_VIRTUAL) */
 598:Drivers/CMSIS/Include/core_cm0.h **** 
 599:Drivers/CMSIS/Include/core_cm0.h **** #define NVIC_USER_IRQ_OFFSET          16
 600:Drivers/CMSIS/Include/core_cm0.h **** 
 601:Drivers/CMSIS/Include/core_cm0.h **** 
 602:Drivers/CMSIS/Include/core_cm0.h **** /* The following EXC_RETURN values are saved the LR on exception entry */
 603:Drivers/CMSIS/Include/core_cm0.h **** #define EXC_RETURN_HANDLER         (0xFFFFFFF1UL)     /* return to Handler mode, uses MSP after ret
 604:Drivers/CMSIS/Include/core_cm0.h **** #define EXC_RETURN_THREAD_MSP      (0xFFFFFFF9UL)     /* return to Thread mode, uses MSP after retu
 605:Drivers/CMSIS/Include/core_cm0.h **** #define EXC_RETURN_THREAD_PSP      (0xFFFFFFFDUL)     /* return to Thread mode, uses PSP after retu
 606:Drivers/CMSIS/Include/core_cm0.h **** 
 607:Drivers/CMSIS/Include/core_cm0.h **** 
 608:Drivers/CMSIS/Include/core_cm0.h **** /* Interrupt Priorities are WORD accessible only under Armv6-M                  */
 609:Drivers/CMSIS/Include/core_cm0.h **** /* The following MACROS handle generation of the register offset and byte masks */
 610:Drivers/CMSIS/Include/core_cm0.h **** #define _BIT_SHIFT(IRQn)         (  ((((uint32_t)(int32_t)(IRQn))         )      &  0x03UL) * 8UL)
 611:Drivers/CMSIS/Include/core_cm0.h **** #define _SHP_IDX(IRQn)           ( (((((uint32_t)(int32_t)(IRQn)) & 0x0FUL)-8UL) >>    2UL)      )
 612:Drivers/CMSIS/Include/core_cm0.h **** #define _IP_IDX(IRQn)            (   (((uint32_t)(int32_t)(IRQn))                >>    2UL)      )
 613:Drivers/CMSIS/Include/core_cm0.h **** 
 614:Drivers/CMSIS/Include/core_cm0.h **** #define __NVIC_SetPriorityGrouping(X) (void)(X)
 615:Drivers/CMSIS/Include/core_cm0.h **** #define __NVIC_GetPriorityGrouping()  (0U)
 616:Drivers/CMSIS/Include/core_cm0.h **** 
 617:Drivers/CMSIS/Include/core_cm0.h **** /**
 618:Drivers/CMSIS/Include/core_cm0.h ****   \brief   Enable Interrupt
 619:Drivers/CMSIS/Include/core_cm0.h ****   \details Enables a device specific interrupt in the NVIC interrupt controller.
 620:Drivers/CMSIS/Include/core_cm0.h ****   \param [in]      IRQn  Device specific interrupt number.
 621:Drivers/CMSIS/Include/core_cm0.h ****   \note    IRQn must not be negative.
 622:Drivers/CMSIS/Include/core_cm0.h ****  */
 623:Drivers/CMSIS/Include/core_cm0.h **** __STATIC_INLINE void __NVIC_EnableIRQ(IRQn_Type IRQn)
 624:Drivers/CMSIS/Include/core_cm0.h **** {
 625:Drivers/CMSIS/Include/core_cm0.h ****   if ((int32_t)(IRQn) >= 0)
 626:Drivers/CMSIS/Include/core_cm0.h ****   {
 627:Drivers/CMSIS/Include/core_cm0.h ****     NVIC->ISER[0U] = (uint32_t)(1UL << (((uint32_t)IRQn) & 0x1FUL));
 628:Drivers/CMSIS/Include/core_cm0.h ****   }
 629:Drivers/CMSIS/Include/core_cm0.h **** }
 630:Drivers/CMSIS/Include/core_cm0.h **** 
 631:Drivers/CMSIS/Include/core_cm0.h **** 
 632:Drivers/CMSIS/Include/core_cm0.h **** /**
 633:Drivers/CMSIS/Include/core_cm0.h ****   \brief   Get Interrupt Enable status
 634:Drivers/CMSIS/Include/core_cm0.h ****   \details Returns a device specific interrupt enable status from the NVIC interrupt controller.
 635:Drivers/CMSIS/Include/core_cm0.h ****   \param [in]      IRQn  Device specific interrupt number.
ARM GAS  C:\Users\ADMINI~1\AppData\Local\Temp\ccJZf5de.s 			page 43


 636:Drivers/CMSIS/Include/core_cm0.h ****   \return             0  Interrupt is not enabled.
 637:Drivers/CMSIS/Include/core_cm0.h ****   \return             1  Interrupt is enabled.
 638:Drivers/CMSIS/Include/core_cm0.h ****   \note    IRQn must not be negative.
 639:Drivers/CMSIS/Include/core_cm0.h ****  */
 640:Drivers/CMSIS/Include/core_cm0.h **** __STATIC_INLINE uint32_t __NVIC_GetEnableIRQ(IRQn_Type IRQn)
 641:Drivers/CMSIS/Include/core_cm0.h **** {
 642:Drivers/CMSIS/Include/core_cm0.h ****   if ((int32_t)(IRQn) >= 0)
 643:Drivers/CMSIS/Include/core_cm0.h ****   {
 644:Drivers/CMSIS/Include/core_cm0.h ****     return((uint32_t)(((NVIC->ISER[0U] & (1UL << (((uint32_t)IRQn) & 0x1FUL))) != 0UL) ? 1UL : 0UL)
 645:Drivers/CMSIS/Include/core_cm0.h ****   }
 646:Drivers/CMSIS/Include/core_cm0.h ****   else
 647:Drivers/CMSIS/Include/core_cm0.h ****   {
 648:Drivers/CMSIS/Include/core_cm0.h ****     return(0U);
 649:Drivers/CMSIS/Include/core_cm0.h ****   }
 650:Drivers/CMSIS/Include/core_cm0.h **** }
 651:Drivers/CMSIS/Include/core_cm0.h **** 
 652:Drivers/CMSIS/Include/core_cm0.h **** 
 653:Drivers/CMSIS/Include/core_cm0.h **** /**
 654:Drivers/CMSIS/Include/core_cm0.h ****   \brief   Disable Interrupt
 655:Drivers/CMSIS/Include/core_cm0.h ****   \details Disables a device specific interrupt in the NVIC interrupt controller.
 656:Drivers/CMSIS/Include/core_cm0.h ****   \param [in]      IRQn  Device specific interrupt number.
 657:Drivers/CMSIS/Include/core_cm0.h ****   \note    IRQn must not be negative.
 658:Drivers/CMSIS/Include/core_cm0.h ****  */
 659:Drivers/CMSIS/Include/core_cm0.h **** __STATIC_INLINE void __NVIC_DisableIRQ(IRQn_Type IRQn)
 660:Drivers/CMSIS/Include/core_cm0.h **** {
 661:Drivers/CMSIS/Include/core_cm0.h ****   if ((int32_t)(IRQn) >= 0)
 662:Drivers/CMSIS/Include/core_cm0.h ****   {
 663:Drivers/CMSIS/Include/core_cm0.h ****     NVIC->ICER[0U] = (uint32_t)(1UL << (((uint32_t)IRQn) & 0x1FUL));
 664:Drivers/CMSIS/Include/core_cm0.h ****     __DSB();
 665:Drivers/CMSIS/Include/core_cm0.h ****     __ISB();
 666:Drivers/CMSIS/Include/core_cm0.h ****   }
 667:Drivers/CMSIS/Include/core_cm0.h **** }
 668:Drivers/CMSIS/Include/core_cm0.h **** 
 669:Drivers/CMSIS/Include/core_cm0.h **** 
 670:Drivers/CMSIS/Include/core_cm0.h **** /**
 671:Drivers/CMSIS/Include/core_cm0.h ****   \brief   Get Pending Interrupt
 672:Drivers/CMSIS/Include/core_cm0.h ****   \details Reads the NVIC pending register and returns the pending bit for the specified device spe
 673:Drivers/CMSIS/Include/core_cm0.h ****   \param [in]      IRQn  Device specific interrupt number.
 674:Drivers/CMSIS/Include/core_cm0.h ****   \return             0  Interrupt status is not pending.
 675:Drivers/CMSIS/Include/core_cm0.h ****   \return             1  Interrupt status is pending.
 676:Drivers/CMSIS/Include/core_cm0.h ****   \note    IRQn must not be negative.
 677:Drivers/CMSIS/Include/core_cm0.h ****  */
 678:Drivers/CMSIS/Include/core_cm0.h **** __STATIC_INLINE uint32_t __NVIC_GetPendingIRQ(IRQn_Type IRQn)
 679:Drivers/CMSIS/Include/core_cm0.h **** {
 680:Drivers/CMSIS/Include/core_cm0.h ****   if ((int32_t)(IRQn) >= 0)
 681:Drivers/CMSIS/Include/core_cm0.h ****   {
 682:Drivers/CMSIS/Include/core_cm0.h ****     return((uint32_t)(((NVIC->ISPR[0U] & (1UL << (((uint32_t)IRQn) & 0x1FUL))) != 0UL) ? 1UL : 0UL)
 683:Drivers/CMSIS/Include/core_cm0.h ****   }
 684:Drivers/CMSIS/Include/core_cm0.h ****   else
 685:Drivers/CMSIS/Include/core_cm0.h ****   {
 686:Drivers/CMSIS/Include/core_cm0.h ****     return(0U);
 687:Drivers/CMSIS/Include/core_cm0.h ****   }
 688:Drivers/CMSIS/Include/core_cm0.h **** }
 689:Drivers/CMSIS/Include/core_cm0.h **** 
 690:Drivers/CMSIS/Include/core_cm0.h **** 
 691:Drivers/CMSIS/Include/core_cm0.h **** /**
 692:Drivers/CMSIS/Include/core_cm0.h ****   \brief   Set Pending Interrupt
ARM GAS  C:\Users\ADMINI~1\AppData\Local\Temp\ccJZf5de.s 			page 44


 693:Drivers/CMSIS/Include/core_cm0.h ****   \details Sets the pending bit of a device specific interrupt in the NVIC pending register.
 694:Drivers/CMSIS/Include/core_cm0.h ****   \param [in]      IRQn  Device specific interrupt number.
 695:Drivers/CMSIS/Include/core_cm0.h ****   \note    IRQn must not be negative.
 696:Drivers/CMSIS/Include/core_cm0.h ****  */
 697:Drivers/CMSIS/Include/core_cm0.h **** __STATIC_INLINE void __NVIC_SetPendingIRQ(IRQn_Type IRQn)
 698:Drivers/CMSIS/Include/core_cm0.h **** {
 699:Drivers/CMSIS/Include/core_cm0.h ****   if ((int32_t)(IRQn) >= 0)
 700:Drivers/CMSIS/Include/core_cm0.h ****   {
 701:Drivers/CMSIS/Include/core_cm0.h ****     NVIC->ISPR[0U] = (uint32_t)(1UL << (((uint32_t)IRQn) & 0x1FUL));
 702:Drivers/CMSIS/Include/core_cm0.h ****   }
 703:Drivers/CMSIS/Include/core_cm0.h **** }
 704:Drivers/CMSIS/Include/core_cm0.h **** 
 705:Drivers/CMSIS/Include/core_cm0.h **** 
 706:Drivers/CMSIS/Include/core_cm0.h **** /**
 707:Drivers/CMSIS/Include/core_cm0.h ****   \brief   Clear Pending Interrupt
 708:Drivers/CMSIS/Include/core_cm0.h ****   \details Clears the pending bit of a device specific interrupt in the NVIC pending register.
 709:Drivers/CMSIS/Include/core_cm0.h ****   \param [in]      IRQn  Device specific interrupt number.
 710:Drivers/CMSIS/Include/core_cm0.h ****   \note    IRQn must not be negative.
 711:Drivers/CMSIS/Include/core_cm0.h ****  */
 712:Drivers/CMSIS/Include/core_cm0.h **** __STATIC_INLINE void __NVIC_ClearPendingIRQ(IRQn_Type IRQn)
 713:Drivers/CMSIS/Include/core_cm0.h **** {
 714:Drivers/CMSIS/Include/core_cm0.h ****   if ((int32_t)(IRQn) >= 0)
 715:Drivers/CMSIS/Include/core_cm0.h ****   {
 716:Drivers/CMSIS/Include/core_cm0.h ****     NVIC->ICPR[0U] = (uint32_t)(1UL << (((uint32_t)IRQn) & 0x1FUL));
 717:Drivers/CMSIS/Include/core_cm0.h ****   }
 718:Drivers/CMSIS/Include/core_cm0.h **** }
 719:Drivers/CMSIS/Include/core_cm0.h **** 
 720:Drivers/CMSIS/Include/core_cm0.h **** 
 721:Drivers/CMSIS/Include/core_cm0.h **** /**
 722:Drivers/CMSIS/Include/core_cm0.h ****   \brief   Set Interrupt Priority
 723:Drivers/CMSIS/Include/core_cm0.h ****   \details Sets the priority of a device specific interrupt or a processor exception.
 724:Drivers/CMSIS/Include/core_cm0.h ****            The interrupt number can be positive to specify a device specific interrupt,
 725:Drivers/CMSIS/Include/core_cm0.h ****            or negative to specify a processor exception.
 726:Drivers/CMSIS/Include/core_cm0.h ****   \param [in]      IRQn  Interrupt number.
 727:Drivers/CMSIS/Include/core_cm0.h ****   \param [in]  priority  Priority to set.
 728:Drivers/CMSIS/Include/core_cm0.h ****   \note    The priority cannot be set for every processor exception.
 729:Drivers/CMSIS/Include/core_cm0.h ****  */
 730:Drivers/CMSIS/Include/core_cm0.h **** __STATIC_INLINE void __NVIC_SetPriority(IRQn_Type IRQn, uint32_t priority)
 278              		.loc 4 730 22 view .LVU77
 279              	.LBB127:
 731:Drivers/CMSIS/Include/core_cm0.h **** {
 732:Drivers/CMSIS/Include/core_cm0.h ****   if ((int32_t)(IRQn) >= 0)
 280              		.loc 4 732 3 view .LVU78
 733:Drivers/CMSIS/Include/core_cm0.h ****   {
 734:Drivers/CMSIS/Include/core_cm0.h ****     NVIC->IP[_IP_IDX(IRQn)]  = ((uint32_t)(NVIC->IP[_IP_IDX(IRQn)]  & ~(0xFFUL << _BIT_SHIFT(IRQn))
 281              		.loc 4 734 5 view .LVU79
 282              		.loc 4 734 52 is_stmt 0 view .LVU80
 283 00c6 244A     		ldr	r2, .L2+24
 284 00c8 C521     		movs	r1, #197
 285 00ca 8900     		lsls	r1, r1, #2
 286 00cc 5358     		ldr	r3, [r2, r1]
 287              		.loc 4 734 33 view .LVU81
 288 00ce 1B02     		lsls	r3, r3, #8
 289 00d0 1B0A     		lsrs	r3, r3, #8
 290              		.loc 4 734 30 view .LVU82
 291 00d2 5350     		str	r3, [r2, r1]
 292              	.LVL13:
ARM GAS  C:\Users\ADMINI~1\AppData\Local\Temp\ccJZf5de.s 			page 45


 293              		.loc 4 734 30 view .LVU83
 294              	.LBE127:
 295              	.LBE126:
  84:Src/i2c.c     ****   NVIC_EnableIRQ(I2C1_IRQn);
 296              		.loc 1 84 3 is_stmt 1 view .LVU84
 297              	.LBB128:
 298              	.LBI128:
 623:Drivers/CMSIS/Include/core_cm0.h **** {
 299              		.loc 4 623 22 view .LVU85
 300              	.LBB129:
 625:Drivers/CMSIS/Include/core_cm0.h ****   {
 301              		.loc 4 625 3 view .LVU86
 627:Drivers/CMSIS/Include/core_cm0.h ****   }
 302              		.loc 4 627 5 view .LVU87
 627:Drivers/CMSIS/Include/core_cm0.h ****   }
 303              		.loc 4 627 20 is_stmt 0 view .LVU88
 304 00d4 8023     		movs	r3, #128
 305 00d6 1B04     		lsls	r3, r3, #16
 306 00d8 1360     		str	r3, [r2]
 307              	.LVL14:
 627:Drivers/CMSIS/Include/core_cm0.h ****   }
 308              		.loc 4 627 20 view .LVU89
 309              	.LBE129:
 310              	.LBE128:
  85:Src/i2c.c     **** 
  86:Src/i2c.c     ****   /* USER CODE BEGIN I2C1_Init 1 */
  87:Src/i2c.c     ****   
  88:Src/i2c.c     ****   /* USER CODE END I2C1_Init 1 */
  89:Src/i2c.c     **** 
  90:Src/i2c.c     ****   /** I2C Initialization
  91:Src/i2c.c     ****   */
  92:Src/i2c.c     ****   LL_I2C_DisableOwnAddress2(I2C1);
 311              		.loc 1 92 3 is_stmt 1 view .LVU90
 312              	.LBB130:
 313              	.LBI130:
 314              		.file 5 "Drivers/STM32F0xx_HAL_Driver/Inc/stm32f0xx_ll_i2c.h"
   1:Drivers/STM32F0xx_HAL_Driver/Inc/stm32f0xx_ll_i2c.h **** /**
   2:Drivers/STM32F0xx_HAL_Driver/Inc/stm32f0xx_ll_i2c.h ****   ******************************************************************************
   3:Drivers/STM32F0xx_HAL_Driver/Inc/stm32f0xx_ll_i2c.h ****   * @file    stm32f0xx_ll_i2c.h
   4:Drivers/STM32F0xx_HAL_Driver/Inc/stm32f0xx_ll_i2c.h ****   * @author  MCD Application Team
   5:Drivers/STM32F0xx_HAL_Driver/Inc/stm32f0xx_ll_i2c.h ****   * @brief   Header file of I2C LL module.
   6:Drivers/STM32F0xx_HAL_Driver/Inc/stm32f0xx_ll_i2c.h ****   ******************************************************************************
   7:Drivers/STM32F0xx_HAL_Driver/Inc/stm32f0xx_ll_i2c.h ****   * @attention
   8:Drivers/STM32F0xx_HAL_Driver/Inc/stm32f0xx_ll_i2c.h ****   *
   9:Drivers/STM32F0xx_HAL_Driver/Inc/stm32f0xx_ll_i2c.h ****   * <h2><center>&copy; Copyright (c) 2016 STMicroelectronics.
  10:Drivers/STM32F0xx_HAL_Driver/Inc/stm32f0xx_ll_i2c.h ****   * All rights reserved.</center></h2>
  11:Drivers/STM32F0xx_HAL_Driver/Inc/stm32f0xx_ll_i2c.h ****   *
  12:Drivers/STM32F0xx_HAL_Driver/Inc/stm32f0xx_ll_i2c.h ****   * This software component is licensed by ST under BSD 3-Clause license,
  13:Drivers/STM32F0xx_HAL_Driver/Inc/stm32f0xx_ll_i2c.h ****   * the "License"; You may not use this file except in compliance with the
  14:Drivers/STM32F0xx_HAL_Driver/Inc/stm32f0xx_ll_i2c.h ****   * License. You may obtain a copy of the License at:
  15:Drivers/STM32F0xx_HAL_Driver/Inc/stm32f0xx_ll_i2c.h ****   *                        opensource.org/licenses/BSD-3-Clause
  16:Drivers/STM32F0xx_HAL_Driver/Inc/stm32f0xx_ll_i2c.h ****   *
  17:Drivers/STM32F0xx_HAL_Driver/Inc/stm32f0xx_ll_i2c.h ****   ******************************************************************************
  18:Drivers/STM32F0xx_HAL_Driver/Inc/stm32f0xx_ll_i2c.h ****   */
  19:Drivers/STM32F0xx_HAL_Driver/Inc/stm32f0xx_ll_i2c.h **** 
  20:Drivers/STM32F0xx_HAL_Driver/Inc/stm32f0xx_ll_i2c.h **** /* Define to prevent recursive inclusion -------------------------------------*/
  21:Drivers/STM32F0xx_HAL_Driver/Inc/stm32f0xx_ll_i2c.h **** #ifndef STM32F0xx_LL_I2C_H
ARM GAS  C:\Users\ADMINI~1\AppData\Local\Temp\ccJZf5de.s 			page 46


  22:Drivers/STM32F0xx_HAL_Driver/Inc/stm32f0xx_ll_i2c.h **** #define STM32F0xx_LL_I2C_H
  23:Drivers/STM32F0xx_HAL_Driver/Inc/stm32f0xx_ll_i2c.h **** 
  24:Drivers/STM32F0xx_HAL_Driver/Inc/stm32f0xx_ll_i2c.h **** #ifdef __cplusplus
  25:Drivers/STM32F0xx_HAL_Driver/Inc/stm32f0xx_ll_i2c.h **** extern "C" {
  26:Drivers/STM32F0xx_HAL_Driver/Inc/stm32f0xx_ll_i2c.h **** #endif
  27:Drivers/STM32F0xx_HAL_Driver/Inc/stm32f0xx_ll_i2c.h **** 
  28:Drivers/STM32F0xx_HAL_Driver/Inc/stm32f0xx_ll_i2c.h **** /* Includes ------------------------------------------------------------------*/
  29:Drivers/STM32F0xx_HAL_Driver/Inc/stm32f0xx_ll_i2c.h **** #include "stm32f0xx.h"
  30:Drivers/STM32F0xx_HAL_Driver/Inc/stm32f0xx_ll_i2c.h **** 
  31:Drivers/STM32F0xx_HAL_Driver/Inc/stm32f0xx_ll_i2c.h **** /** @addtogroup STM32F0xx_LL_Driver
  32:Drivers/STM32F0xx_HAL_Driver/Inc/stm32f0xx_ll_i2c.h ****   * @{
  33:Drivers/STM32F0xx_HAL_Driver/Inc/stm32f0xx_ll_i2c.h ****   */
  34:Drivers/STM32F0xx_HAL_Driver/Inc/stm32f0xx_ll_i2c.h **** 
  35:Drivers/STM32F0xx_HAL_Driver/Inc/stm32f0xx_ll_i2c.h **** #if defined (I2C1) || defined (I2C2)
  36:Drivers/STM32F0xx_HAL_Driver/Inc/stm32f0xx_ll_i2c.h **** 
  37:Drivers/STM32F0xx_HAL_Driver/Inc/stm32f0xx_ll_i2c.h **** /** @defgroup I2C_LL I2C
  38:Drivers/STM32F0xx_HAL_Driver/Inc/stm32f0xx_ll_i2c.h ****   * @{
  39:Drivers/STM32F0xx_HAL_Driver/Inc/stm32f0xx_ll_i2c.h ****   */
  40:Drivers/STM32F0xx_HAL_Driver/Inc/stm32f0xx_ll_i2c.h **** 
  41:Drivers/STM32F0xx_HAL_Driver/Inc/stm32f0xx_ll_i2c.h **** /* Private types -------------------------------------------------------------*/
  42:Drivers/STM32F0xx_HAL_Driver/Inc/stm32f0xx_ll_i2c.h **** /* Private variables ---------------------------------------------------------*/
  43:Drivers/STM32F0xx_HAL_Driver/Inc/stm32f0xx_ll_i2c.h **** 
  44:Drivers/STM32F0xx_HAL_Driver/Inc/stm32f0xx_ll_i2c.h **** /* Private constants ---------------------------------------------------------*/
  45:Drivers/STM32F0xx_HAL_Driver/Inc/stm32f0xx_ll_i2c.h **** /** @defgroup I2C_LL_Private_Constants I2C Private Constants
  46:Drivers/STM32F0xx_HAL_Driver/Inc/stm32f0xx_ll_i2c.h ****   * @{
  47:Drivers/STM32F0xx_HAL_Driver/Inc/stm32f0xx_ll_i2c.h ****   */
  48:Drivers/STM32F0xx_HAL_Driver/Inc/stm32f0xx_ll_i2c.h **** /**
  49:Drivers/STM32F0xx_HAL_Driver/Inc/stm32f0xx_ll_i2c.h ****   * @}
  50:Drivers/STM32F0xx_HAL_Driver/Inc/stm32f0xx_ll_i2c.h ****   */
  51:Drivers/STM32F0xx_HAL_Driver/Inc/stm32f0xx_ll_i2c.h **** 
  52:Drivers/STM32F0xx_HAL_Driver/Inc/stm32f0xx_ll_i2c.h **** /* Private macros ------------------------------------------------------------*/
  53:Drivers/STM32F0xx_HAL_Driver/Inc/stm32f0xx_ll_i2c.h **** #if defined(USE_FULL_LL_DRIVER)
  54:Drivers/STM32F0xx_HAL_Driver/Inc/stm32f0xx_ll_i2c.h **** /** @defgroup I2C_LL_Private_Macros I2C Private Macros
  55:Drivers/STM32F0xx_HAL_Driver/Inc/stm32f0xx_ll_i2c.h ****   * @{
  56:Drivers/STM32F0xx_HAL_Driver/Inc/stm32f0xx_ll_i2c.h ****   */
  57:Drivers/STM32F0xx_HAL_Driver/Inc/stm32f0xx_ll_i2c.h **** /**
  58:Drivers/STM32F0xx_HAL_Driver/Inc/stm32f0xx_ll_i2c.h ****   * @}
  59:Drivers/STM32F0xx_HAL_Driver/Inc/stm32f0xx_ll_i2c.h ****   */
  60:Drivers/STM32F0xx_HAL_Driver/Inc/stm32f0xx_ll_i2c.h **** #endif /*USE_FULL_LL_DRIVER*/
  61:Drivers/STM32F0xx_HAL_Driver/Inc/stm32f0xx_ll_i2c.h **** 
  62:Drivers/STM32F0xx_HAL_Driver/Inc/stm32f0xx_ll_i2c.h **** /* Exported types ------------------------------------------------------------*/
  63:Drivers/STM32F0xx_HAL_Driver/Inc/stm32f0xx_ll_i2c.h **** #if defined(USE_FULL_LL_DRIVER)
  64:Drivers/STM32F0xx_HAL_Driver/Inc/stm32f0xx_ll_i2c.h **** /** @defgroup I2C_LL_ES_INIT I2C Exported Init structure
  65:Drivers/STM32F0xx_HAL_Driver/Inc/stm32f0xx_ll_i2c.h ****   * @{
  66:Drivers/STM32F0xx_HAL_Driver/Inc/stm32f0xx_ll_i2c.h ****   */
  67:Drivers/STM32F0xx_HAL_Driver/Inc/stm32f0xx_ll_i2c.h **** typedef struct
  68:Drivers/STM32F0xx_HAL_Driver/Inc/stm32f0xx_ll_i2c.h **** {
  69:Drivers/STM32F0xx_HAL_Driver/Inc/stm32f0xx_ll_i2c.h ****   uint32_t PeripheralMode;      /*!< Specifies the peripheral mode.
  70:Drivers/STM32F0xx_HAL_Driver/Inc/stm32f0xx_ll_i2c.h ****                                      This parameter can be a value of @ref I2C_LL_EC_PERIPHERAL_MOD
  71:Drivers/STM32F0xx_HAL_Driver/Inc/stm32f0xx_ll_i2c.h **** 
  72:Drivers/STM32F0xx_HAL_Driver/Inc/stm32f0xx_ll_i2c.h ****                                      This feature can be modified afterwards using unitary function
  73:Drivers/STM32F0xx_HAL_Driver/Inc/stm32f0xx_ll_i2c.h ****                                      @ref LL_I2C_SetMode(). */
  74:Drivers/STM32F0xx_HAL_Driver/Inc/stm32f0xx_ll_i2c.h **** 
  75:Drivers/STM32F0xx_HAL_Driver/Inc/stm32f0xx_ll_i2c.h ****   uint32_t Timing;              /*!< Specifies the SDA setup, hold time and the SCL high, low perio
  76:Drivers/STM32F0xx_HAL_Driver/Inc/stm32f0xx_ll_i2c.h ****                                      This parameter must be set by referring to the STM32CubeMX Too
  77:Drivers/STM32F0xx_HAL_Driver/Inc/stm32f0xx_ll_i2c.h ****                                      the helper macro @ref __LL_I2C_CONVERT_TIMINGS().
  78:Drivers/STM32F0xx_HAL_Driver/Inc/stm32f0xx_ll_i2c.h **** 
ARM GAS  C:\Users\ADMINI~1\AppData\Local\Temp\ccJZf5de.s 			page 47


  79:Drivers/STM32F0xx_HAL_Driver/Inc/stm32f0xx_ll_i2c.h ****                                      This feature can be modified afterwards using unitary function
  80:Drivers/STM32F0xx_HAL_Driver/Inc/stm32f0xx_ll_i2c.h ****                                      @ref LL_I2C_SetTiming(). */
  81:Drivers/STM32F0xx_HAL_Driver/Inc/stm32f0xx_ll_i2c.h **** 
  82:Drivers/STM32F0xx_HAL_Driver/Inc/stm32f0xx_ll_i2c.h ****   uint32_t AnalogFilter;        /*!< Enables or disables analog noise filter.
  83:Drivers/STM32F0xx_HAL_Driver/Inc/stm32f0xx_ll_i2c.h ****                                      This parameter can be a value of @ref I2C_LL_EC_ANALOGFILTER_S
  84:Drivers/STM32F0xx_HAL_Driver/Inc/stm32f0xx_ll_i2c.h **** 
  85:Drivers/STM32F0xx_HAL_Driver/Inc/stm32f0xx_ll_i2c.h ****                                      This feature can be modified afterwards using unitary function
  86:Drivers/STM32F0xx_HAL_Driver/Inc/stm32f0xx_ll_i2c.h ****                                      @ref LL_I2C_EnableAnalogFilter() or LL_I2C_DisableAnalogFilter
  87:Drivers/STM32F0xx_HAL_Driver/Inc/stm32f0xx_ll_i2c.h **** 
  88:Drivers/STM32F0xx_HAL_Driver/Inc/stm32f0xx_ll_i2c.h ****   uint32_t DigitalFilter;       /*!< Configures the digital noise filter.
  89:Drivers/STM32F0xx_HAL_Driver/Inc/stm32f0xx_ll_i2c.h ****                                      This parameter can be a number between Min_Data = 0x00 and Max
  90:Drivers/STM32F0xx_HAL_Driver/Inc/stm32f0xx_ll_i2c.h **** 
  91:Drivers/STM32F0xx_HAL_Driver/Inc/stm32f0xx_ll_i2c.h ****                                      This feature can be modified afterwards using unitary function
  92:Drivers/STM32F0xx_HAL_Driver/Inc/stm32f0xx_ll_i2c.h ****                                      @ref LL_I2C_SetDigitalFilter(). */
  93:Drivers/STM32F0xx_HAL_Driver/Inc/stm32f0xx_ll_i2c.h **** 
  94:Drivers/STM32F0xx_HAL_Driver/Inc/stm32f0xx_ll_i2c.h ****   uint32_t OwnAddress1;         /*!< Specifies the device own address 1.
  95:Drivers/STM32F0xx_HAL_Driver/Inc/stm32f0xx_ll_i2c.h ****                                      This parameter must be a value between Min_Data = 0x00 and Max
  96:Drivers/STM32F0xx_HAL_Driver/Inc/stm32f0xx_ll_i2c.h **** 
  97:Drivers/STM32F0xx_HAL_Driver/Inc/stm32f0xx_ll_i2c.h ****                                      This feature can be modified afterwards using unitary function
  98:Drivers/STM32F0xx_HAL_Driver/Inc/stm32f0xx_ll_i2c.h ****                                      @ref LL_I2C_SetOwnAddress1(). */
  99:Drivers/STM32F0xx_HAL_Driver/Inc/stm32f0xx_ll_i2c.h **** 
 100:Drivers/STM32F0xx_HAL_Driver/Inc/stm32f0xx_ll_i2c.h ****   uint32_t TypeAcknowledge;     /*!< Specifies the ACKnowledge or Non ACKnowledge condition after t
 101:Drivers/STM32F0xx_HAL_Driver/Inc/stm32f0xx_ll_i2c.h ****                                      match code or next received byte.
 102:Drivers/STM32F0xx_HAL_Driver/Inc/stm32f0xx_ll_i2c.h ****                                      This parameter can be a value of @ref I2C_LL_EC_I2C_ACKNOWLEDG
 103:Drivers/STM32F0xx_HAL_Driver/Inc/stm32f0xx_ll_i2c.h **** 
 104:Drivers/STM32F0xx_HAL_Driver/Inc/stm32f0xx_ll_i2c.h ****                                      This feature can be modified afterwards using unitary function
 105:Drivers/STM32F0xx_HAL_Driver/Inc/stm32f0xx_ll_i2c.h ****                                      @ref LL_I2C_AcknowledgeNextData(). */
 106:Drivers/STM32F0xx_HAL_Driver/Inc/stm32f0xx_ll_i2c.h **** 
 107:Drivers/STM32F0xx_HAL_Driver/Inc/stm32f0xx_ll_i2c.h ****   uint32_t OwnAddrSize;         /*!< Specifies the device own address 1 size (7-bit or 10-bit).
 108:Drivers/STM32F0xx_HAL_Driver/Inc/stm32f0xx_ll_i2c.h ****                                      This parameter can be a value of @ref I2C_LL_EC_OWNADDRESS1.
 109:Drivers/STM32F0xx_HAL_Driver/Inc/stm32f0xx_ll_i2c.h **** 
 110:Drivers/STM32F0xx_HAL_Driver/Inc/stm32f0xx_ll_i2c.h ****                                      This feature can be modified afterwards using unitary function
 111:Drivers/STM32F0xx_HAL_Driver/Inc/stm32f0xx_ll_i2c.h ****                                      @ref LL_I2C_SetOwnAddress1(). */
 112:Drivers/STM32F0xx_HAL_Driver/Inc/stm32f0xx_ll_i2c.h **** } LL_I2C_InitTypeDef;
 113:Drivers/STM32F0xx_HAL_Driver/Inc/stm32f0xx_ll_i2c.h **** /**
 114:Drivers/STM32F0xx_HAL_Driver/Inc/stm32f0xx_ll_i2c.h ****   * @}
 115:Drivers/STM32F0xx_HAL_Driver/Inc/stm32f0xx_ll_i2c.h ****   */
 116:Drivers/STM32F0xx_HAL_Driver/Inc/stm32f0xx_ll_i2c.h **** #endif /*USE_FULL_LL_DRIVER*/
 117:Drivers/STM32F0xx_HAL_Driver/Inc/stm32f0xx_ll_i2c.h **** 
 118:Drivers/STM32F0xx_HAL_Driver/Inc/stm32f0xx_ll_i2c.h **** /* Exported constants --------------------------------------------------------*/
 119:Drivers/STM32F0xx_HAL_Driver/Inc/stm32f0xx_ll_i2c.h **** /** @defgroup I2C_LL_Exported_Constants I2C Exported Constants
 120:Drivers/STM32F0xx_HAL_Driver/Inc/stm32f0xx_ll_i2c.h ****   * @{
 121:Drivers/STM32F0xx_HAL_Driver/Inc/stm32f0xx_ll_i2c.h ****   */
 122:Drivers/STM32F0xx_HAL_Driver/Inc/stm32f0xx_ll_i2c.h **** 
 123:Drivers/STM32F0xx_HAL_Driver/Inc/stm32f0xx_ll_i2c.h **** /** @defgroup I2C_LL_EC_CLEAR_FLAG Clear Flags Defines
 124:Drivers/STM32F0xx_HAL_Driver/Inc/stm32f0xx_ll_i2c.h ****   * @brief    Flags defines which can be used with LL_I2C_WriteReg function
 125:Drivers/STM32F0xx_HAL_Driver/Inc/stm32f0xx_ll_i2c.h ****   * @{
 126:Drivers/STM32F0xx_HAL_Driver/Inc/stm32f0xx_ll_i2c.h ****   */
 127:Drivers/STM32F0xx_HAL_Driver/Inc/stm32f0xx_ll_i2c.h **** #define LL_I2C_ICR_ADDRCF                   I2C_ICR_ADDRCF          /*!< Address Matched flag   */
 128:Drivers/STM32F0xx_HAL_Driver/Inc/stm32f0xx_ll_i2c.h **** #define LL_I2C_ICR_NACKCF                   I2C_ICR_NACKCF          /*!< Not Acknowledge flag   */
 129:Drivers/STM32F0xx_HAL_Driver/Inc/stm32f0xx_ll_i2c.h **** #define LL_I2C_ICR_STOPCF                   I2C_ICR_STOPCF          /*!< Stop detection flag    */
 130:Drivers/STM32F0xx_HAL_Driver/Inc/stm32f0xx_ll_i2c.h **** #define LL_I2C_ICR_BERRCF                   I2C_ICR_BERRCF          /*!< Bus error flag         */
 131:Drivers/STM32F0xx_HAL_Driver/Inc/stm32f0xx_ll_i2c.h **** #define LL_I2C_ICR_ARLOCF                   I2C_ICR_ARLOCF          /*!< Arbitration Lost flag  */
 132:Drivers/STM32F0xx_HAL_Driver/Inc/stm32f0xx_ll_i2c.h **** #define LL_I2C_ICR_OVRCF                    I2C_ICR_OVRCF           /*!< Overrun/Underrun flag  */
 133:Drivers/STM32F0xx_HAL_Driver/Inc/stm32f0xx_ll_i2c.h **** #define LL_I2C_ICR_PECCF                    I2C_ICR_PECCF           /*!< PEC error flag         */
 134:Drivers/STM32F0xx_HAL_Driver/Inc/stm32f0xx_ll_i2c.h **** #define LL_I2C_ICR_TIMOUTCF                 I2C_ICR_TIMOUTCF        /*!< Timeout detection flag */
 135:Drivers/STM32F0xx_HAL_Driver/Inc/stm32f0xx_ll_i2c.h **** #define LL_I2C_ICR_ALERTCF                  I2C_ICR_ALERTCF         /*!< Alert flag             */
ARM GAS  C:\Users\ADMINI~1\AppData\Local\Temp\ccJZf5de.s 			page 48


 136:Drivers/STM32F0xx_HAL_Driver/Inc/stm32f0xx_ll_i2c.h **** /**
 137:Drivers/STM32F0xx_HAL_Driver/Inc/stm32f0xx_ll_i2c.h ****   * @}
 138:Drivers/STM32F0xx_HAL_Driver/Inc/stm32f0xx_ll_i2c.h ****   */
 139:Drivers/STM32F0xx_HAL_Driver/Inc/stm32f0xx_ll_i2c.h **** 
 140:Drivers/STM32F0xx_HAL_Driver/Inc/stm32f0xx_ll_i2c.h **** /** @defgroup I2C_LL_EC_GET_FLAG Get Flags Defines
 141:Drivers/STM32F0xx_HAL_Driver/Inc/stm32f0xx_ll_i2c.h ****   * @brief    Flags defines which can be used with LL_I2C_ReadReg function
 142:Drivers/STM32F0xx_HAL_Driver/Inc/stm32f0xx_ll_i2c.h ****   * @{
