ARM GAS  C:\Users\ADMINI~1\AppData\Local\Temp\ccNQkssi.s 			page 1


   1              		.cpu cortex-m0
   2              		.arch armv6s-m
   3              		.fpu softvfp
   4              		.eabi_attribute 20, 1
   5              		.eabi_attribute 21, 1
   6              		.eabi_attribute 23, 3
   7              		.eabi_attribute 24, 1
   8              		.eabi_attribute 25, 1
   9              		.eabi_attribute 26, 1
  10              		.eabi_attribute 30, 1
  11              		.eabi_attribute 34, 0
  12              		.eabi_attribute 18, 4
  13              		.file	"motor.cpp"
  14              		.text
  15              	.Ltext0:
  16              		.cfi_sections	.debug_frame
  17              		.global	__aeabi_fsub
  18              		.global	__aeabi_fadd
  19              		.global	__aeabi_fcmpgt
  20              		.global	__aeabi_fcmplt
  21              		.global	__aeabi_fmul
  22              		.section	.text._ZN5Motor13CalcDceOutputEff,"ax",%progbits
  23              		.align	1
  24              		.global	_ZN5Motor13CalcDceOutputEff
  25              		.syntax unified
  26              		.code	16
  27              		.thumb_func
  29              	_ZN5Motor13CalcDceOutputEff:
  30              		.fnstart
  31              	.LVL0:
  32              	.LFB1023:
  33              		.file 1 "Src/motor.cpp"
   1:Src/motor.cpp **** #include "motor.h"
   2:Src/motor.cpp **** #include "tim.h"
   3:Src/motor.cpp **** 
   4:Src/motor.cpp **** float Motor::CalcDceOutput(float _inputPos, float _inputVel)
   5:Src/motor.cpp **** {
  34              		.loc 1 5 1 view -0
  35              		.cfi_startproc
  36              		@ args = 0, pretend = 0, frame = 0
  37              		@ frame_needed = 0, uses_anonymous_args = 0
  38              		.loc 1 5 1 is_stmt 0 view .LVU1
  39 0000 F0B5     		push	{r4, r5, r6, r7, lr}
  40              	.LCFI0:
  41              		.cfi_def_cfa_offset 20
  42              		.cfi_offset 4, -20
  43              		.cfi_offset 5, -16
  44              		.cfi_offset 6, -12
  45              		.cfi_offset 7, -8
  46              		.cfi_offset 14, -4
  47 0002 D646     		mov	lr, r10
  48 0004 4F46     		mov	r7, r9
  49 0006 4646     		mov	r6, r8
  50 0008 C0B5     		push	{r6, r7, lr}
  51              	.LCFI1:
  52              		.cfi_def_cfa_offset 32
  53              		.cfi_offset 8, -32
ARM GAS  C:\Users\ADMINI~1\AppData\Local\Temp\ccNQkssi.s 			page 2


  54              		.cfi_offset 9, -28
  55              		.cfi_offset 10, -24
  56 000a 0400     		movs	r4, r0
  57 000c 081C     		adds	r0, r1, #0
  58              	.LVL1:
  59              		.loc 1 5 1 view .LVU2
  60 000e 161C     		adds	r6, r2, #0
   6:Src/motor.cpp ****     float errorPos = _inputPos - dce.setPointPos;
  61              		.loc 1 6 5 is_stmt 1 view .LVU3
  62              		.loc 1 6 11 is_stmt 0 view .LVU4
  63 0010 6169     		ldr	r1, [r4, #20]
  64              	.LVL2:
  65              		.loc 1 6 11 view .LVU5
  66 0012 FFF7FEFF 		bl	__aeabi_fsub
  67              	.LVL3:
  68              		.loc 1 6 11 view .LVU6
  69 0016 051C     		adds	r5, r0, #0
  70              	.LVL4:
   7:Src/motor.cpp ****     float errorVel = _inputVel - dce.setPointVel;
  71              		.loc 1 7 5 is_stmt 1 view .LVU7
  72              		.loc 1 7 11 is_stmt 0 view .LVU8
  73 0018 A169     		ldr	r1, [r4, #24]
  74 001a 301C     		adds	r0, r6, #0
  75              	.LVL5:
  76              		.loc 1 7 11 view .LVU9
  77 001c FFF7FEFF 		bl	__aeabi_fsub
  78              	.LVL6:
  79 0020 8146     		mov	r9, r0
  80              	.LVL7:
   8:Src/motor.cpp ****     float deltaPos = errorPos - dce.lastError;
  81              		.loc 1 8 5 is_stmt 1 view .LVU10
  82              		.loc 1 8 11 is_stmt 0 view .LVU11
  83 0022 616A     		ldr	r1, [r4, #36]
  84 0024 281C     		adds	r0, r5, #0
  85              	.LVL8:
  86              		.loc 1 8 11 view .LVU12
  87 0026 FFF7FEFF 		bl	__aeabi_fsub
  88              	.LVL9:
  89 002a 8046     		mov	r8, r0
  90              	.LVL10:
   9:Src/motor.cpp ****     dce.lastError = errorPos;
  91              		.loc 1 9 5 is_stmt 1 view .LVU13
  92              		.loc 1 9 19 is_stmt 0 view .LVU14
  93 002c 6562     		str	r5, [r4, #36]
  10:Src/motor.cpp ****     dce.integralPos += errorPos;
  94              		.loc 1 10 5 is_stmt 1 view .LVU15
  95              		.loc 1 10 21 is_stmt 0 view .LVU16
  96 002e E169     		ldr	r1, [r4, #28]
  97 0030 281C     		adds	r0, r5, #0
  98              	.LVL11:
  99              		.loc 1 10 21 view .LVU17
 100 0032 FFF7FEFF 		bl	__aeabi_fadd
 101              	.LVL12:
 102 0036 071C     		adds	r7, r0, #0
 103 0038 E061     		str	r0, [r4, #28]
  11:Src/motor.cpp ****     if (dce.integralPos > DCE_INTEGRAL_LIMIT) dce.integralPos = DCE_INTEGRAL_LIMIT;
 104              		.loc 1 11 5 is_stmt 1 view .LVU18
ARM GAS  C:\Users\ADMINI~1\AppData\Local\Temp\ccNQkssi.s 			page 3


 105              		.loc 1 11 27 is_stmt 0 view .LVU19
 106 003a 2668     		ldr	r6, [r4]
 107              	.LVL13:
 108              		.loc 1 11 5 view .LVU20
 109 003c 311C     		adds	r1, r6, #0
 110 003e FFF7FEFF 		bl	__aeabi_fcmpgt
 111              	.LVL14:
 112 0042 0028     		cmp	r0, #0
 113 0044 3BD0     		beq	.L20
 114              		.loc 1 11 47 is_stmt 1 discriminator 1 view .LVU21
 115              		.loc 1 11 63 is_stmt 0 discriminator 1 view .LVU22
 116 0046 E661     		str	r6, [r4, #28]
 117              	.L4:
  12:Src/motor.cpp ****     else if (dce.integralPos < -DCE_INTEGRAL_LIMIT) dce.integralPos = -DCE_INTEGRAL_LIMIT;
  13:Src/motor.cpp ****     dce.integralVel += errorVel;
 118              		.loc 1 13 5 is_stmt 1 view .LVU23
 119              		.loc 1 13 21 is_stmt 0 view .LVU24
 120 0048 216A     		ldr	r1, [r4, #32]
 121 004a 4846     		mov	r0, r9
 122 004c FFF7FEFF 		bl	__aeabi_fadd
 123              	.LVL15:
 124 0050 071C     		adds	r7, r0, #0
 125 0052 2062     		str	r0, [r4, #32]
  14:Src/motor.cpp ****     if (dce.integralVel > DCE_INTEGRAL_LIMIT) dce.integralVel = DCE_INTEGRAL_LIMIT;
 126              		.loc 1 14 5 is_stmt 1 view .LVU25
 127 0054 011C     		adds	r1, r0, #0
 128 0056 301C     		adds	r0, r6, #0
 129 0058 FFF7FEFF 		bl	__aeabi_fcmplt
 130              	.LVL16:
 131 005c 0028     		cmp	r0, #0
 132 005e 3CD0     		beq	.L21
 133              		.loc 1 14 47 discriminator 1 view .LVU26
 134              		.loc 1 14 63 is_stmt 0 discriminator 1 view .LVU27
 135 0060 2662     		str	r6, [r4, #32]
 136              	.L8:
  15:Src/motor.cpp ****     else if (dce.integralVel < -DCE_INTEGRAL_LIMIT) dce.integralVel = -DCE_INTEGRAL_LIMIT;
  16:Src/motor.cpp **** 
  17:Src/motor.cpp ****     dce.output = dce.kp * errorPos +
 137              		.loc 1 17 5 is_stmt 1 view .LVU28
 138              		.loc 1 17 25 is_stmt 0 view .LVU29
 139 0062 291C     		adds	r1, r5, #0
 140 0064 6068     		ldr	r0, [r4, #4]
 141 0066 FFF7FEFF 		bl	__aeabi_fmul
 142              	.LVL17:
 143 006a 051C     		adds	r5, r0, #0
 144              	.LVL18:
  18:Src/motor.cpp ****                  dce.ki * dce.integralPos + dce.kv * dce.integralVel +
 145              		.loc 1 18 25 view .LVU30
 146 006c E169     		ldr	r1, [r4, #28]
 147 006e E068     		ldr	r0, [r4, #12]
 148 0070 FFF7FEFF 		bl	__aeabi_fmul
 149              	.LVL19:
 150 0074 011C     		adds	r1, r0, #0
  17:Src/motor.cpp ****                  dce.ki * dce.integralPos + dce.kv * dce.integralVel +
 151              		.loc 1 17 36 view .LVU31
 152 0076 281C     		adds	r0, r5, #0
 153 0078 FFF7FEFF 		bl	__aeabi_fadd
ARM GAS  C:\Users\ADMINI~1\AppData\Local\Temp\ccNQkssi.s 			page 4


 154              	.LVL20:
 155 007c 051C     		adds	r5, r0, #0
 156              		.loc 1 18 52 view .LVU32
 157 007e 216A     		ldr	r1, [r4, #32]
 158 0080 A068     		ldr	r0, [r4, #8]
 159 0082 FFF7FEFF 		bl	__aeabi_fmul
 160              	.LVL21:
 161 0086 011C     		adds	r1, r0, #0
 162              		.loc 1 18 43 view .LVU33
 163 0088 281C     		adds	r0, r5, #0
 164 008a FFF7FEFF 		bl	__aeabi_fadd
 165              	.LVL22:
 166 008e 051C     		adds	r5, r0, #0
  19:Src/motor.cpp ****                  dce.kd * deltaPos;
 167              		.loc 1 19 25 view .LVU34
 168 0090 4146     		mov	r1, r8
 169 0092 2069     		ldr	r0, [r4, #16]
 170 0094 FFF7FEFF 		bl	__aeabi_fmul
 171              	.LVL23:
 172 0098 011C     		adds	r1, r0, #0
  18:Src/motor.cpp ****                  dce.ki * dce.integralPos + dce.kv * dce.integralVel +
 173              		.loc 1 18 70 view .LVU35
 174 009a 281C     		adds	r0, r5, #0
 175 009c FFF7FEFF 		bl	__aeabi_fadd
 176              	.LVL24:
 177 00a0 051C     		adds	r5, r0, #0
  17:Src/motor.cpp ****                  dce.ki * dce.integralPos + dce.kv * dce.integralVel +
 178              		.loc 1 17 16 view .LVU36
 179 00a2 A062     		str	r0, [r4, #40]
  20:Src/motor.cpp **** 
  21:Src/motor.cpp ****     if (dce.output > limitTorque) dce.output = limitTorque;
 180              		.loc 1 21 5 is_stmt 1 view .LVU37
 181              		.loc 1 21 22 is_stmt 0 view .LVU38
 182 00a4 666D     		ldr	r6, [r4, #84]
 183              		.loc 1 21 5 view .LVU39
 184 00a6 311C     		adds	r1, r6, #0
 185 00a8 FFF7FEFF 		bl	__aeabi_fcmpgt
 186              	.LVL25:
 187 00ac 0028     		cmp	r0, #0
 188 00ae 20D0     		beq	.L22
 189              		.loc 1 21 35 is_stmt 1 discriminator 1 view .LVU40
 190              		.loc 1 21 46 is_stmt 0 discriminator 1 view .LVU41
 191 00b0 A662     		str	r6, [r4, #40]
 192              	.L12:
  22:Src/motor.cpp ****     else if (dce.output < -limitTorque) dce.output = -limitTorque;
  23:Src/motor.cpp **** 
  24:Src/motor.cpp ****     return dce.output;
 193              		.loc 1 24 5 is_stmt 1 view .LVU42
 194              		.loc 1 24 16 is_stmt 0 view .LVU43
 195 00b2 A06A     		ldr	r0, [r4, #40]
  25:Src/motor.cpp **** }
 196              		.loc 1 25 1 view .LVU44
 197              		@ sp needed
 198              	.LVL26:
 199              	.LVL27:
 200              	.LVL28:
 201              		.loc 1 25 1 view .LVU45
ARM GAS  C:\Users\ADMINI~1\AppData\Local\Temp\ccNQkssi.s 			page 5


 202 00b4 E0BC     		pop	{r5, r6, r7}
 203 00b6 BA46     		mov	r10, r7
 204 00b8 B146     		mov	r9, r6
 205 00ba A846     		mov	r8, r5
 206 00bc F0BD     		pop	{r4, r5, r6, r7, pc}
 207              	.LVL29:
 208              	.L20:
  12:Src/motor.cpp ****     dce.integralVel += errorVel;
 209              		.loc 1 12 10 is_stmt 1 view .LVU46
  12:Src/motor.cpp ****     dce.integralVel += errorVel;
 210              		.loc 1 12 32 is_stmt 0 view .LVU47
 211 00be 8023     		movs	r3, #128
 212 00c0 1B06     		lsls	r3, r3, #24
 213 00c2 9C46     		mov	ip, r3
 214 00c4 B444     		add	ip, ip, r6
 215 00c6 E246     		mov	r10, ip
  12:Src/motor.cpp ****     dce.integralVel += errorVel;
 216              		.loc 1 12 10 view .LVU48
 217 00c8 6146     		mov	r1, ip
 218 00ca 381C     		adds	r0, r7, #0
 219 00cc FFF7FEFF 		bl	__aeabi_fcmplt
 220              	.LVL30:
 221 00d0 0028     		cmp	r0, #0
 222 00d2 B9D0     		beq	.L4
  12:Src/motor.cpp ****     dce.integralVel += errorVel;
 223              		.loc 1 12 53 is_stmt 1 discriminator 1 view .LVU49
  12:Src/motor.cpp ****     dce.integralVel += errorVel;
 224              		.loc 1 12 69 is_stmt 0 discriminator 1 view .LVU50
 225 00d4 5346     		mov	r3, r10
 226 00d6 E361     		str	r3, [r4, #28]
 227 00d8 B6E7     		b	.L4
 228              	.L21:
  15:Src/motor.cpp **** 
 229              		.loc 1 15 10 is_stmt 1 view .LVU51
  15:Src/motor.cpp **** 
 230              		.loc 1 15 32 is_stmt 0 view .LVU52
 231 00da 8023     		movs	r3, #128
 232 00dc 1B06     		lsls	r3, r3, #24
 233 00de 9C46     		mov	ip, r3
 234 00e0 6644     		add	r6, r6, ip
  15:Src/motor.cpp **** 
 235              		.loc 1 15 10 view .LVU53
 236 00e2 311C     		adds	r1, r6, #0
 237 00e4 381C     		adds	r0, r7, #0
 238 00e6 FFF7FEFF 		bl	__aeabi_fcmplt
 239              	.LVL31:
 240 00ea 0028     		cmp	r0, #0
 241 00ec B9D0     		beq	.L8
  15:Src/motor.cpp **** 
 242              		.loc 1 15 53 is_stmt 1 discriminator 1 view .LVU54
  15:Src/motor.cpp **** 
 243              		.loc 1 15 69 is_stmt 0 discriminator 1 view .LVU55
 244 00ee 2662     		str	r6, [r4, #32]
 245 00f0 B7E7     		b	.L8
 246              	.LVL32:
 247              	.L22:
  22:Src/motor.cpp **** 
ARM GAS  C:\Users\ADMINI~1\AppData\Local\Temp\ccNQkssi.s 			page 6


 248              		.loc 1 22 10 is_stmt 1 view .LVU56
  22:Src/motor.cpp **** 
 249              		.loc 1 22 27 is_stmt 0 view .LVU57
 250 00f2 8023     		movs	r3, #128
 251 00f4 1B06     		lsls	r3, r3, #24
 252 00f6 9C46     		mov	ip, r3
 253 00f8 6644     		add	r6, r6, ip
  22:Src/motor.cpp **** 
 254              		.loc 1 22 10 view .LVU58
 255 00fa 311C     		adds	r1, r6, #0
 256 00fc 281C     		adds	r0, r5, #0
 257 00fe FFF7FEFF 		bl	__aeabi_fcmplt
 258              	.LVL33:
 259 0102 0028     		cmp	r0, #0
 260 0104 D5D0     		beq	.L12
  22:Src/motor.cpp **** 
 261              		.loc 1 22 41 is_stmt 1 discriminator 1 view .LVU59
  22:Src/motor.cpp **** 
 262              		.loc 1 22 52 is_stmt 0 discriminator 1 view .LVU60
 263 0106 A662     		str	r6, [r4, #40]
 264 0108 D3E7     		b	.L12
 265              		.cfi_endproc
 266              	.LFE1023:
 267              		.cantunwind
 268              		.fnend
 270              		.section	.text._ZN5Motor6SetPwmEs,"ax",%progbits
 271              		.align	1
 272              		.global	_ZN5Motor6SetPwmEs
 273              		.syntax unified
 274              		.code	16
 275              		.thumb_func
 277              	_ZN5Motor6SetPwmEs:
 278              		.fnstart
 279              	.LVL34:
 280              	.LFB1024:
  26:Src/motor.cpp **** 
  27:Src/motor.cpp **** 
  28:Src/motor.cpp **** void Motor::SetPwm(int16_t _pwm)
  29:Src/motor.cpp **** {
 281              		.loc 1 29 1 is_stmt 1 view -0
 282              		.cfi_startproc
 283              		@ args = 0, pretend = 0, frame = 0
 284              		@ frame_needed = 0, uses_anonymous_args = 0
 285              		@ link register save eliminated.
  30:Src/motor.cpp ****     if (isEnabled)
 286              		.loc 1 30 5 view .LVU62
 287              		.loc 1 30 9 is_stmt 0 view .LVU63
 288 0000 4023     		movs	r3, #64
 289 0002 C35C     		ldrb	r3, [r0, r3]
 290              		.loc 1 30 5 view .LVU64
 291 0004 002B     		cmp	r3, #0
 292 0006 1AD0     		beq	.L24
  31:Src/motor.cpp ****     {
  32:Src/motor.cpp ****         if (_pwm >= 0)
 293              		.loc 1 32 9 is_stmt 1 view .LVU65
 294 0008 0029     		cmp	r1, #0
 295 000a 0CDB     		blt	.L25
ARM GAS  C:\Users\ADMINI~1\AppData\Local\Temp\ccNQkssi.s 			page 7


  33:Src/motor.cpp ****         {
  34:Src/motor.cpp ****             LL_TIM_OC_SetCompareCH1(TIM3,0);
 296              		.loc 1 34 13 view .LVU66
 297              	.LVL35:
 298              	.LBB14:
 299              	.LBI14:
 300              		.file 2 "Drivers/STM32F0xx_HAL_Driver/Inc/stm32f0xx_ll_tim.h"
   1:Drivers/STM32F0xx_HAL_Driver/Inc/stm32f0xx_ll_tim.h **** /**
   2:Drivers/STM32F0xx_HAL_Driver/Inc/stm32f0xx_ll_tim.h ****   ******************************************************************************
   3:Drivers/STM32F0xx_HAL_Driver/Inc/stm32f0xx_ll_tim.h ****   * @file    stm32f0xx_ll_tim.h
   4:Drivers/STM32F0xx_HAL_Driver/Inc/stm32f0xx_ll_tim.h ****   * @author  MCD Application Team
   5:Drivers/STM32F0xx_HAL_Driver/Inc/stm32f0xx_ll_tim.h ****   * @brief   Header file of TIM LL module.
   6:Drivers/STM32F0xx_HAL_Driver/Inc/stm32f0xx_ll_tim.h ****   ******************************************************************************
   7:Drivers/STM32F0xx_HAL_Driver/Inc/stm32f0xx_ll_tim.h ****   * @attention
   8:Drivers/STM32F0xx_HAL_Driver/Inc/stm32f0xx_ll_tim.h ****   *
   9:Drivers/STM32F0xx_HAL_Driver/Inc/stm32f0xx_ll_tim.h ****   * <h2><center>&copy; Copyright (c) 2016 STMicroelectronics.
  10:Drivers/STM32F0xx_HAL_Driver/Inc/stm32f0xx_ll_tim.h ****   * All rights reserved.</center></h2>
  11:Drivers/STM32F0xx_HAL_Driver/Inc/stm32f0xx_ll_tim.h ****   *
  12:Drivers/STM32F0xx_HAL_Driver/Inc/stm32f0xx_ll_tim.h ****   * This software component is licensed by ST under BSD 3-Clause license,
  13:Drivers/STM32F0xx_HAL_Driver/Inc/stm32f0xx_ll_tim.h ****   * the "License"; You may not use this file except in compliance with the
  14:Drivers/STM32F0xx_HAL_Driver/Inc/stm32f0xx_ll_tim.h ****   * License. You may obtain a copy of the License at:
  15:Drivers/STM32F0xx_HAL_Driver/Inc/stm32f0xx_ll_tim.h ****   *                        opensource.org/licenses/BSD-3-Clause
  16:Drivers/STM32F0xx_HAL_Driver/Inc/stm32f0xx_ll_tim.h ****   *
  17:Drivers/STM32F0xx_HAL_Driver/Inc/stm32f0xx_ll_tim.h ****   ******************************************************************************
  18:Drivers/STM32F0xx_HAL_Driver/Inc/stm32f0xx_ll_tim.h ****   */
  19:Drivers/STM32F0xx_HAL_Driver/Inc/stm32f0xx_ll_tim.h **** 
  20:Drivers/STM32F0xx_HAL_Driver/Inc/stm32f0xx_ll_tim.h **** /* Define to prevent recursive inclusion -------------------------------------*/
  21:Drivers/STM32F0xx_HAL_Driver/Inc/stm32f0xx_ll_tim.h **** #ifndef __STM32F0xx_LL_TIM_H
  22:Drivers/STM32F0xx_HAL_Driver/Inc/stm32f0xx_ll_tim.h **** #define __STM32F0xx_LL_TIM_H
  23:Drivers/STM32F0xx_HAL_Driver/Inc/stm32f0xx_ll_tim.h **** 
  24:Drivers/STM32F0xx_HAL_Driver/Inc/stm32f0xx_ll_tim.h **** #ifdef __cplusplus
  25:Drivers/STM32F0xx_HAL_Driver/Inc/stm32f0xx_ll_tim.h **** extern "C" {
  26:Drivers/STM32F0xx_HAL_Driver/Inc/stm32f0xx_ll_tim.h **** #endif
  27:Drivers/STM32F0xx_HAL_Driver/Inc/stm32f0xx_ll_tim.h **** 
  28:Drivers/STM32F0xx_HAL_Driver/Inc/stm32f0xx_ll_tim.h **** /* Includes ------------------------------------------------------------------*/
  29:Drivers/STM32F0xx_HAL_Driver/Inc/stm32f0xx_ll_tim.h **** #include "stm32f0xx.h"
  30:Drivers/STM32F0xx_HAL_Driver/Inc/stm32f0xx_ll_tim.h **** 
  31:Drivers/STM32F0xx_HAL_Driver/Inc/stm32f0xx_ll_tim.h **** /** @addtogroup STM32F0xx_LL_Driver
  32:Drivers/STM32F0xx_HAL_Driver/Inc/stm32f0xx_ll_tim.h ****   * @{
  33:Drivers/STM32F0xx_HAL_Driver/Inc/stm32f0xx_ll_tim.h ****   */
  34:Drivers/STM32F0xx_HAL_Driver/Inc/stm32f0xx_ll_tim.h **** 
  35:Drivers/STM32F0xx_HAL_Driver/Inc/stm32f0xx_ll_tim.h **** #if defined (TIM1) || defined (TIM2) || defined (TIM3) || defined (TIM14) || defined (TIM15) || def
  36:Drivers/STM32F0xx_HAL_Driver/Inc/stm32f0xx_ll_tim.h **** 
  37:Drivers/STM32F0xx_HAL_Driver/Inc/stm32f0xx_ll_tim.h **** /** @defgroup TIM_LL TIM
  38:Drivers/STM32F0xx_HAL_Driver/Inc/stm32f0xx_ll_tim.h ****   * @{
  39:Drivers/STM32F0xx_HAL_Driver/Inc/stm32f0xx_ll_tim.h ****   */
  40:Drivers/STM32F0xx_HAL_Driver/Inc/stm32f0xx_ll_tim.h **** 
  41:Drivers/STM32F0xx_HAL_Driver/Inc/stm32f0xx_ll_tim.h **** /* Private types -------------------------------------------------------------*/
  42:Drivers/STM32F0xx_HAL_Driver/Inc/stm32f0xx_ll_tim.h **** /* Private variables ---------------------------------------------------------*/
  43:Drivers/STM32F0xx_HAL_Driver/Inc/stm32f0xx_ll_tim.h **** /** @defgroup TIM_LL_Private_Variables TIM Private Variables
  44:Drivers/STM32F0xx_HAL_Driver/Inc/stm32f0xx_ll_tim.h ****   * @{
  45:Drivers/STM32F0xx_HAL_Driver/Inc/stm32f0xx_ll_tim.h ****   */
  46:Drivers/STM32F0xx_HAL_Driver/Inc/stm32f0xx_ll_tim.h **** static const uint8_t OFFSET_TAB_CCMRx[] =
  47:Drivers/STM32F0xx_HAL_Driver/Inc/stm32f0xx_ll_tim.h **** {
  48:Drivers/STM32F0xx_HAL_Driver/Inc/stm32f0xx_ll_tim.h ****   0x00U,   /* 0: TIMx_CH1  */
  49:Drivers/STM32F0xx_HAL_Driver/Inc/stm32f0xx_ll_tim.h ****   0x00U,   /* 1: TIMx_CH1N */
  50:Drivers/STM32F0xx_HAL_Driver/Inc/stm32f0xx_ll_tim.h ****   0x00U,   /* 2: TIMx_CH2  */
ARM GAS  C:\Users\ADMINI~1\AppData\Local\Temp\ccNQkssi.s 			page 8


  51:Drivers/STM32F0xx_HAL_Driver/Inc/stm32f0xx_ll_tim.h ****   0x00U,   /* 3: TIMx_CH2N */
  52:Drivers/STM32F0xx_HAL_Driver/Inc/stm32f0xx_ll_tim.h ****   0x04U,   /* 4: TIMx_CH3  */
  53:Drivers/STM32F0xx_HAL_Driver/Inc/stm32f0xx_ll_tim.h ****   0x04U,   /* 5: TIMx_CH3N */
  54:Drivers/STM32F0xx_HAL_Driver/Inc/stm32f0xx_ll_tim.h ****   0x04U    /* 6: TIMx_CH4  */
  55:Drivers/STM32F0xx_HAL_Driver/Inc/stm32f0xx_ll_tim.h **** };
  56:Drivers/STM32F0xx_HAL_Driver/Inc/stm32f0xx_ll_tim.h **** 
  57:Drivers/STM32F0xx_HAL_Driver/Inc/stm32f0xx_ll_tim.h **** static const uint8_t SHIFT_TAB_OCxx[] =
  58:Drivers/STM32F0xx_HAL_Driver/Inc/stm32f0xx_ll_tim.h **** {
  59:Drivers/STM32F0xx_HAL_Driver/Inc/stm32f0xx_ll_tim.h ****   0U,            /* 0: OC1M, OC1FE, OC1PE */
  60:Drivers/STM32F0xx_HAL_Driver/Inc/stm32f0xx_ll_tim.h ****   0U,            /* 1: - NA */
  61:Drivers/STM32F0xx_HAL_Driver/Inc/stm32f0xx_ll_tim.h ****   8U,            /* 2: OC2M, OC2FE, OC2PE */
  62:Drivers/STM32F0xx_HAL_Driver/Inc/stm32f0xx_ll_tim.h ****   0U,            /* 3: - NA */
  63:Drivers/STM32F0xx_HAL_Driver/Inc/stm32f0xx_ll_tim.h ****   0U,            /* 4: OC3M, OC3FE, OC3PE */
  64:Drivers/STM32F0xx_HAL_Driver/Inc/stm32f0xx_ll_tim.h ****   0U,            /* 5: - NA */
  65:Drivers/STM32F0xx_HAL_Driver/Inc/stm32f0xx_ll_tim.h ****   8U             /* 6: OC4M, OC4FE, OC4PE */
  66:Drivers/STM32F0xx_HAL_Driver/Inc/stm32f0xx_ll_tim.h **** };
  67:Drivers/STM32F0xx_HAL_Driver/Inc/stm32f0xx_ll_tim.h **** 
  68:Drivers/STM32F0xx_HAL_Driver/Inc/stm32f0xx_ll_tim.h **** static const uint8_t SHIFT_TAB_ICxx[] =
  69:Drivers/STM32F0xx_HAL_Driver/Inc/stm32f0xx_ll_tim.h **** {
  70:Drivers/STM32F0xx_HAL_Driver/Inc/stm32f0xx_ll_tim.h ****   0U,            /* 0: CC1S, IC1PSC, IC1F */
  71:Drivers/STM32F0xx_HAL_Driver/Inc/stm32f0xx_ll_tim.h ****   0U,            /* 1: - NA */
  72:Drivers/STM32F0xx_HAL_Driver/Inc/stm32f0xx_ll_tim.h ****   8U,            /* 2: CC2S, IC2PSC, IC2F */
  73:Drivers/STM32F0xx_HAL_Driver/Inc/stm32f0xx_ll_tim.h ****   0U,            /* 3: - NA */
  74:Drivers/STM32F0xx_HAL_Driver/Inc/stm32f0xx_ll_tim.h ****   0U,            /* 4: CC3S, IC3PSC, IC3F */
  75:Drivers/STM32F0xx_HAL_Driver/Inc/stm32f0xx_ll_tim.h ****   0U,            /* 5: - NA */
  76:Drivers/STM32F0xx_HAL_Driver/Inc/stm32f0xx_ll_tim.h ****   8U             /* 6: CC4S, IC4PSC, IC4F */
  77:Drivers/STM32F0xx_HAL_Driver/Inc/stm32f0xx_ll_tim.h **** };
  78:Drivers/STM32F0xx_HAL_Driver/Inc/stm32f0xx_ll_tim.h **** 
  79:Drivers/STM32F0xx_HAL_Driver/Inc/stm32f0xx_ll_tim.h **** static const uint8_t SHIFT_TAB_CCxP[] =
  80:Drivers/STM32F0xx_HAL_Driver/Inc/stm32f0xx_ll_tim.h **** {
  81:Drivers/STM32F0xx_HAL_Driver/Inc/stm32f0xx_ll_tim.h ****   0U,            /* 0: CC1P */
  82:Drivers/STM32F0xx_HAL_Driver/Inc/stm32f0xx_ll_tim.h ****   2U,            /* 1: CC1NP */
  83:Drivers/STM32F0xx_HAL_Driver/Inc/stm32f0xx_ll_tim.h ****   4U,            /* 2: CC2P */
  84:Drivers/STM32F0xx_HAL_Driver/Inc/stm32f0xx_ll_tim.h ****   6U,            /* 3: CC2NP */
  85:Drivers/STM32F0xx_HAL_Driver/Inc/stm32f0xx_ll_tim.h ****   8U,            /* 4: CC3P */
  86:Drivers/STM32F0xx_HAL_Driver/Inc/stm32f0xx_ll_tim.h ****   10U,           /* 5: CC3NP */
  87:Drivers/STM32F0xx_HAL_Driver/Inc/stm32f0xx_ll_tim.h ****   12U            /* 6: CC4P */
  88:Drivers/STM32F0xx_HAL_Driver/Inc/stm32f0xx_ll_tim.h **** };
  89:Drivers/STM32F0xx_HAL_Driver/Inc/stm32f0xx_ll_tim.h **** 
  90:Drivers/STM32F0xx_HAL_Driver/Inc/stm32f0xx_ll_tim.h **** static const uint8_t SHIFT_TAB_OISx[] =
  91:Drivers/STM32F0xx_HAL_Driver/Inc/stm32f0xx_ll_tim.h **** {
  92:Drivers/STM32F0xx_HAL_Driver/Inc/stm32f0xx_ll_tim.h ****   0U,            /* 0: OIS1 */
  93:Drivers/STM32F0xx_HAL_Driver/Inc/stm32f0xx_ll_tim.h ****   1U,            /* 1: OIS1N */
  94:Drivers/STM32F0xx_HAL_Driver/Inc/stm32f0xx_ll_tim.h ****   2U,            /* 2: OIS2 */
  95:Drivers/STM32F0xx_HAL_Driver/Inc/stm32f0xx_ll_tim.h ****   3U,            /* 3: OIS2N */
  96:Drivers/STM32F0xx_HAL_Driver/Inc/stm32f0xx_ll_tim.h ****   4U,            /* 4: OIS3 */
  97:Drivers/STM32F0xx_HAL_Driver/Inc/stm32f0xx_ll_tim.h ****   5U,            /* 5: OIS3N */
  98:Drivers/STM32F0xx_HAL_Driver/Inc/stm32f0xx_ll_tim.h ****   6U             /* 6: OIS4 */
  99:Drivers/STM32F0xx_HAL_Driver/Inc/stm32f0xx_ll_tim.h **** };
 100:Drivers/STM32F0xx_HAL_Driver/Inc/stm32f0xx_ll_tim.h **** /**
 101:Drivers/STM32F0xx_HAL_Driver/Inc/stm32f0xx_ll_tim.h ****   * @}
 102:Drivers/STM32F0xx_HAL_Driver/Inc/stm32f0xx_ll_tim.h ****   */
 103:Drivers/STM32F0xx_HAL_Driver/Inc/stm32f0xx_ll_tim.h **** 
 104:Drivers/STM32F0xx_HAL_Driver/Inc/stm32f0xx_ll_tim.h **** /* Private constants ---------------------------------------------------------*/
 105:Drivers/STM32F0xx_HAL_Driver/Inc/stm32f0xx_ll_tim.h **** /** @defgroup TIM_LL_Private_Constants TIM Private Constants
 106:Drivers/STM32F0xx_HAL_Driver/Inc/stm32f0xx_ll_tim.h ****   * @{
 107:Drivers/STM32F0xx_HAL_Driver/Inc/stm32f0xx_ll_tim.h ****   */
ARM GAS  C:\Users\ADMINI~1\AppData\Local\Temp\ccNQkssi.s 			page 9


 108:Drivers/STM32F0xx_HAL_Driver/Inc/stm32f0xx_ll_tim.h **** 
 109:Drivers/STM32F0xx_HAL_Driver/Inc/stm32f0xx_ll_tim.h **** 
 110:Drivers/STM32F0xx_HAL_Driver/Inc/stm32f0xx_ll_tim.h **** #define TIMx_OR_RMP_SHIFT  16U
 111:Drivers/STM32F0xx_HAL_Driver/Inc/stm32f0xx_ll_tim.h **** #define TIMx_OR_RMP_MASK   0x0000FFFFU
 112:Drivers/STM32F0xx_HAL_Driver/Inc/stm32f0xx_ll_tim.h **** #define TIM14_OR_RMP_MASK  (TIM14_OR_TI1_RMP << TIMx_OR_RMP_SHIFT)
 113:Drivers/STM32F0xx_HAL_Driver/Inc/stm32f0xx_ll_tim.h **** 
 114:Drivers/STM32F0xx_HAL_Driver/Inc/stm32f0xx_ll_tim.h **** /* Mask used to set the TDG[x:0] of the DTG bits of the TIMx_BDTR register */
 115:Drivers/STM32F0xx_HAL_Driver/Inc/stm32f0xx_ll_tim.h **** #define DT_DELAY_1 ((uint8_t)0x7F)
 116:Drivers/STM32F0xx_HAL_Driver/Inc/stm32f0xx_ll_tim.h **** #define DT_DELAY_2 ((uint8_t)0x3F)
 117:Drivers/STM32F0xx_HAL_Driver/Inc/stm32f0xx_ll_tim.h **** #define DT_DELAY_3 ((uint8_t)0x1F)
 118:Drivers/STM32F0xx_HAL_Driver/Inc/stm32f0xx_ll_tim.h **** #define DT_DELAY_4 ((uint8_t)0x1F)
 119:Drivers/STM32F0xx_HAL_Driver/Inc/stm32f0xx_ll_tim.h **** 
 120:Drivers/STM32F0xx_HAL_Driver/Inc/stm32f0xx_ll_tim.h **** /* Mask used to set the DTG[7:5] bits of the DTG bits of the TIMx_BDTR register */
 121:Drivers/STM32F0xx_HAL_Driver/Inc/stm32f0xx_ll_tim.h **** #define DT_RANGE_1 ((uint8_t)0x00)
 122:Drivers/STM32F0xx_HAL_Driver/Inc/stm32f0xx_ll_tim.h **** #define DT_RANGE_2 ((uint8_t)0x80)
 123:Drivers/STM32F0xx_HAL_Driver/Inc/stm32f0xx_ll_tim.h **** #define DT_RANGE_3 ((uint8_t)0xC0)
 124:Drivers/STM32F0xx_HAL_Driver/Inc/stm32f0xx_ll_tim.h **** #define DT_RANGE_4 ((uint8_t)0xE0)
 125:Drivers/STM32F0xx_HAL_Driver/Inc/stm32f0xx_ll_tim.h **** 
 126:Drivers/STM32F0xx_HAL_Driver/Inc/stm32f0xx_ll_tim.h **** 
 127:Drivers/STM32F0xx_HAL_Driver/Inc/stm32f0xx_ll_tim.h **** /**
 128:Drivers/STM32F0xx_HAL_Driver/Inc/stm32f0xx_ll_tim.h ****   * @}
 129:Drivers/STM32F0xx_HAL_Driver/Inc/stm32f0xx_ll_tim.h ****   */
 130:Drivers/STM32F0xx_HAL_Driver/Inc/stm32f0xx_ll_tim.h **** 
 131:Drivers/STM32F0xx_HAL_Driver/Inc/stm32f0xx_ll_tim.h **** /* Private macros ------------------------------------------------------------*/
 132:Drivers/STM32F0xx_HAL_Driver/Inc/stm32f0xx_ll_tim.h **** /** @defgroup TIM_LL_Private_Macros TIM Private Macros
 133:Drivers/STM32F0xx_HAL_Driver/Inc/stm32f0xx_ll_tim.h ****   * @{
 134:Drivers/STM32F0xx_HAL_Driver/Inc/stm32f0xx_ll_tim.h ****   */
 135:Drivers/STM32F0xx_HAL_Driver/Inc/stm32f0xx_ll_tim.h **** /** @brief  Convert channel id into channel index.
 136:Drivers/STM32F0xx_HAL_Driver/Inc/stm32f0xx_ll_tim.h ****   * @param  __CHANNEL__ This parameter can be one of the following values:
 137:Drivers/STM32F0xx_HAL_Driver/Inc/stm32f0xx_ll_tim.h ****   *         @arg @ref LL_TIM_CHANNEL_CH1
 138:Drivers/STM32F0xx_HAL_Driver/Inc/stm32f0xx_ll_tim.h ****   *         @arg @ref LL_TIM_CHANNEL_CH1N
 139:Drivers/STM32F0xx_HAL_Driver/Inc/stm32f0xx_ll_tim.h ****   *         @arg @ref LL_TIM_CHANNEL_CH2
 140:Drivers/STM32F0xx_HAL_Driver/Inc/stm32f0xx_ll_tim.h ****   *         @arg @ref LL_TIM_CHANNEL_CH2N
 141:Drivers/STM32F0xx_HAL_Driver/Inc/stm32f0xx_ll_tim.h ****   *         @arg @ref LL_TIM_CHANNEL_CH3
 142:Drivers/STM32F0xx_HAL_Driver/Inc/stm32f0xx_ll_tim.h ****   *         @arg @ref LL_TIM_CHANNEL_CH3N
 143:Drivers/STM32F0xx_HAL_Driver/Inc/stm32f0xx_ll_tim.h ****   *         @arg @ref LL_TIM_CHANNEL_CH4
 144:Drivers/STM32F0xx_HAL_Driver/Inc/stm32f0xx_ll_tim.h ****   * @retval none
 145:Drivers/STM32F0xx_HAL_Driver/Inc/stm32f0xx_ll_tim.h ****   */
 146:Drivers/STM32F0xx_HAL_Driver/Inc/stm32f0xx_ll_tim.h **** #define TIM_GET_CHANNEL_INDEX( __CHANNEL__) \
 147:Drivers/STM32F0xx_HAL_Driver/Inc/stm32f0xx_ll_tim.h ****   (((__CHANNEL__) == LL_TIM_CHANNEL_CH1) ? 0U :\
 148:Drivers/STM32F0xx_HAL_Driver/Inc/stm32f0xx_ll_tim.h ****    ((__CHANNEL__) == LL_TIM_CHANNEL_CH1N) ? 1U :\
 149:Drivers/STM32F0xx_HAL_Driver/Inc/stm32f0xx_ll_tim.h ****    ((__CHANNEL__) == LL_TIM_CHANNEL_CH2) ? 2U :\
 150:Drivers/STM32F0xx_HAL_Driver/Inc/stm32f0xx_ll_tim.h ****    ((__CHANNEL__) == LL_TIM_CHANNEL_CH2N) ? 3U :\
 151:Drivers/STM32F0xx_HAL_Driver/Inc/stm32f0xx_ll_tim.h ****    ((__CHANNEL__) == LL_TIM_CHANNEL_CH3) ? 4U :\
 152:Drivers/STM32F0xx_HAL_Driver/Inc/stm32f0xx_ll_tim.h ****    ((__CHANNEL__) == LL_TIM_CHANNEL_CH3N) ? 5U : 6U)
 153:Drivers/STM32F0xx_HAL_Driver/Inc/stm32f0xx_ll_tim.h **** 
 154:Drivers/STM32F0xx_HAL_Driver/Inc/stm32f0xx_ll_tim.h **** /** @brief  Calculate the deadtime sampling period(in ps).
 155:Drivers/STM32F0xx_HAL_Driver/Inc/stm32f0xx_ll_tim.h ****   * @param  __TIMCLK__ timer input clock frequency (in Hz).
 156:Drivers/STM32F0xx_HAL_Driver/Inc/stm32f0xx_ll_tim.h ****   * @param  __CKD__ This parameter can be one of the following values:
 157:Drivers/STM32F0xx_HAL_Driver/Inc/stm32f0xx_ll_tim.h ****   *         @arg @ref LL_TIM_CLOCKDIVISION_DIV1
 158:Drivers/STM32F0xx_HAL_Driver/Inc/stm32f0xx_ll_tim.h ****   *         @arg @ref LL_TIM_CLOCKDIVISION_DIV2
 159:Drivers/STM32F0xx_HAL_Driver/Inc/stm32f0xx_ll_tim.h ****   *         @arg @ref LL_TIM_CLOCKDIVISION_DIV4
 160:Drivers/STM32F0xx_HAL_Driver/Inc/stm32f0xx_ll_tim.h ****   * @retval none
 161:Drivers/STM32F0xx_HAL_Driver/Inc/stm32f0xx_ll_tim.h ****   */
 162:Drivers/STM32F0xx_HAL_Driver/Inc/stm32f0xx_ll_tim.h **** #define TIM_CALC_DTS(__TIMCLK__, __CKD__)                                                        \
 163:Drivers/STM32F0xx_HAL_Driver/Inc/stm32f0xx_ll_tim.h ****   (((__CKD__) == LL_TIM_CLOCKDIVISION_DIV1) ? ((uint64_t)1000000000000U/(__TIMCLK__))         : \
 164:Drivers/STM32F0xx_HAL_Driver/Inc/stm32f0xx_ll_tim.h ****    ((__CKD__) == LL_TIM_CLOCKDIVISION_DIV2) ? ((uint64_t)1000000000000U/((__TIMCLK__) >> 1U)) : \
ARM GAS  C:\Users\ADMINI~1\AppData\Local\Temp\ccNQkssi.s 			page 10


 165:Drivers/STM32F0xx_HAL_Driver/Inc/stm32f0xx_ll_tim.h ****    ((uint64_t)1000000000000U/((__TIMCLK__) >> 2U)))
 166:Drivers/STM32F0xx_HAL_Driver/Inc/stm32f0xx_ll_tim.h **** /**
 167:Drivers/STM32F0xx_HAL_Driver/Inc/stm32f0xx_ll_tim.h ****   * @}
 168:Drivers/STM32F0xx_HAL_Driver/Inc/stm32f0xx_ll_tim.h ****   */
 169:Drivers/STM32F0xx_HAL_Driver/Inc/stm32f0xx_ll_tim.h **** 
 170:Drivers/STM32F0xx_HAL_Driver/Inc/stm32f0xx_ll_tim.h **** 
 171:Drivers/STM32F0xx_HAL_Driver/Inc/stm32f0xx_ll_tim.h **** /* Exported types ------------------------------------------------------------*/
 172:Drivers/STM32F0xx_HAL_Driver/Inc/stm32f0xx_ll_tim.h **** #if defined(USE_FULL_LL_DRIVER)
 173:Drivers/STM32F0xx_HAL_Driver/Inc/stm32f0xx_ll_tim.h **** /** @defgroup TIM_LL_ES_INIT TIM Exported Init structure
 174:Drivers/STM32F0xx_HAL_Driver/Inc/stm32f0xx_ll_tim.h ****   * @{
 175:Drivers/STM32F0xx_HAL_Driver/Inc/stm32f0xx_ll_tim.h ****   */
 176:Drivers/STM32F0xx_HAL_Driver/Inc/stm32f0xx_ll_tim.h **** 
 177:Drivers/STM32F0xx_HAL_Driver/Inc/stm32f0xx_ll_tim.h **** /**
 178:Drivers/STM32F0xx_HAL_Driver/Inc/stm32f0xx_ll_tim.h ****   * @brief  TIM Time Base configuration structure definition.
 179:Drivers/STM32F0xx_HAL_Driver/Inc/stm32f0xx_ll_tim.h ****   */
 180:Drivers/STM32F0xx_HAL_Driver/Inc/stm32f0xx_ll_tim.h **** typedef struct
 181:Drivers/STM32F0xx_HAL_Driver/Inc/stm32f0xx_ll_tim.h **** {
 182:Drivers/STM32F0xx_HAL_Driver/Inc/stm32f0xx_ll_tim.h ****   uint16_t Prescaler;         /*!< Specifies the prescaler value used to divide the TIM clock.
 183:Drivers/STM32F0xx_HAL_Driver/Inc/stm32f0xx_ll_tim.h ****                                    This parameter can be a number between Min_Data=0x0000 and Max_D
 184:Drivers/STM32F0xx_HAL_Driver/Inc/stm32f0xx_ll_tim.h **** 
 185:Drivers/STM32F0xx_HAL_Driver/Inc/stm32f0xx_ll_tim.h ****                                    This feature can be modified afterwards using unitary function
 186:Drivers/STM32F0xx_HAL_Driver/Inc/stm32f0xx_ll_tim.h ****                                    @ref LL_TIM_SetPrescaler().*/
 187:Drivers/STM32F0xx_HAL_Driver/Inc/stm32f0xx_ll_tim.h **** 
 188:Drivers/STM32F0xx_HAL_Driver/Inc/stm32f0xx_ll_tim.h ****   uint32_t CounterMode;       /*!< Specifies the counter mode.
 189:Drivers/STM32F0xx_HAL_Driver/Inc/stm32f0xx_ll_tim.h ****                                    This parameter can be a value of @ref TIM_LL_EC_COUNTERMODE.
 190:Drivers/STM32F0xx_HAL_Driver/Inc/stm32f0xx_ll_tim.h **** 
 191:Drivers/STM32F0xx_HAL_Driver/Inc/stm32f0xx_ll_tim.h ****                                    This feature can be modified afterwards using unitary function
 192:Drivers/STM32F0xx_HAL_Driver/Inc/stm32f0xx_ll_tim.h ****                                    @ref LL_TIM_SetCounterMode().*/
 193:Drivers/STM32F0xx_HAL_Driver/Inc/stm32f0xx_ll_tim.h **** 
 194:Drivers/STM32F0xx_HAL_Driver/Inc/stm32f0xx_ll_tim.h ****   uint32_t Autoreload;        /*!< Specifies the auto reload value to be loaded into the active
 195:Drivers/STM32F0xx_HAL_Driver/Inc/stm32f0xx_ll_tim.h ****                                    Auto-Reload Register at the next update event.
 196:Drivers/STM32F0xx_HAL_Driver/Inc/stm32f0xx_ll_tim.h ****                                    This parameter must be a number between Min_Data=0x0000 and Max_
 197:Drivers/STM32F0xx_HAL_Driver/Inc/stm32f0xx_ll_tim.h ****                                    Some timer instances may support 32 bits counters. In that case 
 198:Drivers/STM32F0xx_HAL_Driver/Inc/stm32f0xx_ll_tim.h ****                                    be a number between 0x0000 and 0xFFFFFFFF.
 199:Drivers/STM32F0xx_HAL_Driver/Inc/stm32f0xx_ll_tim.h **** 
 200:Drivers/STM32F0xx_HAL_Driver/Inc/stm32f0xx_ll_tim.h ****                                    This feature can be modified afterwards using unitary function
 201:Drivers/STM32F0xx_HAL_Driver/Inc/stm32f0xx_ll_tim.h ****                                    @ref LL_TIM_SetAutoReload().*/
 202:Drivers/STM32F0xx_HAL_Driver/Inc/stm32f0xx_ll_tim.h **** 
 203:Drivers/STM32F0xx_HAL_Driver/Inc/stm32f0xx_ll_tim.h ****   uint32_t ClockDivision;     /*!< Specifies the clock division.
 204:Drivers/STM32F0xx_HAL_Driver/Inc/stm32f0xx_ll_tim.h ****                                    This parameter can be a value of @ref TIM_LL_EC_CLOCKDIVISION.
 205:Drivers/STM32F0xx_HAL_Driver/Inc/stm32f0xx_ll_tim.h **** 
 206:Drivers/STM32F0xx_HAL_Driver/Inc/stm32f0xx_ll_tim.h ****                                    This feature can be modified afterwards using unitary function
 207:Drivers/STM32F0xx_HAL_Driver/Inc/stm32f0xx_ll_tim.h ****                                    @ref LL_TIM_SetClockDivision().*/
 208:Drivers/STM32F0xx_HAL_Driver/Inc/stm32f0xx_ll_tim.h **** 
 209:Drivers/STM32F0xx_HAL_Driver/Inc/stm32f0xx_ll_tim.h ****   uint32_t RepetitionCounter;  /*!< Specifies the repetition counter value. Each time the RCR downc
 210:Drivers/STM32F0xx_HAL_Driver/Inc/stm32f0xx_ll_tim.h ****                                    reaches zero, an update event is generated and counting restarts
 211:Drivers/STM32F0xx_HAL_Driver/Inc/stm32f0xx_ll_tim.h ****                                    from the RCR value (N).
 212:Drivers/STM32F0xx_HAL_Driver/Inc/stm32f0xx_ll_tim.h ****                                    This means in PWM mode that (N+1) corresponds to:
 213:Drivers/STM32F0xx_HAL_Driver/Inc/stm32f0xx_ll_tim.h ****                                       - the number of PWM periods in edge-aligned mode
 214:Drivers/STM32F0xx_HAL_Driver/Inc/stm32f0xx_ll_tim.h ****                                       - the number of half PWM period in center-aligned mode
 215:Drivers/STM32F0xx_HAL_Driver/Inc/stm32f0xx_ll_tim.h ****                                    GP timers: this parameter must be a number between Min_Data = 0x
 216:Drivers/STM32F0xx_HAL_Driver/Inc/stm32f0xx_ll_tim.h ****                                    Max_Data = 0xFF.
 217:Drivers/STM32F0xx_HAL_Driver/Inc/stm32f0xx_ll_tim.h ****                                    Advanced timers: this parameter must be a number between Min_Dat
 218:Drivers/STM32F0xx_HAL_Driver/Inc/stm32f0xx_ll_tim.h ****                                    Max_Data = 0xFFFF.
 219:Drivers/STM32F0xx_HAL_Driver/Inc/stm32f0xx_ll_tim.h **** 
 220:Drivers/STM32F0xx_HAL_Driver/Inc/stm32f0xx_ll_tim.h ****                                    This feature can be modified afterwards using unitary function
 221:Drivers/STM32F0xx_HAL_Driver/Inc/stm32f0xx_ll_tim.h ****                                    @ref LL_TIM_SetRepetitionCounter().*/
ARM GAS  C:\Users\ADMINI~1\AppData\Local\Temp\ccNQkssi.s 			page 11


 222:Drivers/STM32F0xx_HAL_Driver/Inc/stm32f0xx_ll_tim.h **** } LL_TIM_InitTypeDef;
 223:Drivers/STM32F0xx_HAL_Driver/Inc/stm32f0xx_ll_tim.h **** 
 224:Drivers/STM32F0xx_HAL_Driver/Inc/stm32f0xx_ll_tim.h **** /**
 225:Drivers/STM32F0xx_HAL_Driver/Inc/stm32f0xx_ll_tim.h ****   * @brief  TIM Output Compare configuration structure definition.
 226:Drivers/STM32F0xx_HAL_Driver/Inc/stm32f0xx_ll_tim.h ****   */
 227:Drivers/STM32F0xx_HAL_Driver/Inc/stm32f0xx_ll_tim.h **** typedef struct
 228:Drivers/STM32F0xx_HAL_Driver/Inc/stm32f0xx_ll_tim.h **** {
 229:Drivers/STM32F0xx_HAL_Driver/Inc/stm32f0xx_ll_tim.h ****   uint32_t OCMode;        /*!< Specifies the output mode.
 230:Drivers/STM32F0xx_HAL_Driver/Inc/stm32f0xx_ll_tim.h ****                                This parameter can be a value of @ref TIM_LL_EC_OCMODE.
 231:Drivers/STM32F0xx_HAL_Driver/Inc/stm32f0xx_ll_tim.h **** 
 232:Drivers/STM32F0xx_HAL_Driver/Inc/stm32f0xx_ll_tim.h ****                                This feature can be modified afterwards using unitary function
 233:Drivers/STM32F0xx_HAL_Driver/Inc/stm32f0xx_ll_tim.h ****                                @ref LL_TIM_OC_SetMode().*/
 234:Drivers/STM32F0xx_HAL_Driver/Inc/stm32f0xx_ll_tim.h **** 
 235:Drivers/STM32F0xx_HAL_Driver/Inc/stm32f0xx_ll_tim.h ****   uint32_t OCState;       /*!< Specifies the TIM Output Compare state.
 236:Drivers/STM32F0xx_HAL_Driver/Inc/stm32f0xx_ll_tim.h ****                                This parameter can be a value of @ref TIM_LL_EC_OCSTATE.
 237:Drivers/STM32F0xx_HAL_Driver/Inc/stm32f0xx_ll_tim.h **** 
 238:Drivers/STM32F0xx_HAL_Driver/Inc/stm32f0xx_ll_tim.h ****                                This feature can be modified afterwards using unitary functions
 239:Drivers/STM32F0xx_HAL_Driver/Inc/stm32f0xx_ll_tim.h ****                                @ref LL_TIM_CC_EnableChannel() or @ref LL_TIM_CC_DisableChannel().*/
 240:Drivers/STM32F0xx_HAL_Driver/Inc/stm32f0xx_ll_tim.h **** 
 241:Drivers/STM32F0xx_HAL_Driver/Inc/stm32f0xx_ll_tim.h ****   uint32_t OCNState;      /*!< Specifies the TIM complementary Output Compare state.
 242:Drivers/STM32F0xx_HAL_Driver/Inc/stm32f0xx_ll_tim.h ****                                This parameter can be a value of @ref TIM_LL_EC_OCSTATE.
 243:Drivers/STM32F0xx_HAL_Driver/Inc/stm32f0xx_ll_tim.h **** 
 244:Drivers/STM32F0xx_HAL_Driver/Inc/stm32f0xx_ll_tim.h ****                                This feature can be modified afterwards using unitary functions
 245:Drivers/STM32F0xx_HAL_Driver/Inc/stm32f0xx_ll_tim.h ****                                @ref LL_TIM_CC_EnableChannel() or @ref LL_TIM_CC_DisableChannel().*/
 246:Drivers/STM32F0xx_HAL_Driver/Inc/stm32f0xx_ll_tim.h **** 
 247:Drivers/STM32F0xx_HAL_Driver/Inc/stm32f0xx_ll_tim.h ****   uint32_t CompareValue;  /*!< Specifies the Compare value to be loaded into the Capture Compare Re
 248:Drivers/STM32F0xx_HAL_Driver/Inc/stm32f0xx_ll_tim.h ****                                This parameter can be a number between Min_Data=0x0000 and Max_Data=
 249:Drivers/STM32F0xx_HAL_Driver/Inc/stm32f0xx_ll_tim.h **** 
 250:Drivers/STM32F0xx_HAL_Driver/Inc/stm32f0xx_ll_tim.h ****                                This feature can be modified afterwards using unitary function
 251:Drivers/STM32F0xx_HAL_Driver/Inc/stm32f0xx_ll_tim.h ****                                LL_TIM_OC_SetCompareCHx (x=1..6).*/
 252:Drivers/STM32F0xx_HAL_Driver/Inc/stm32f0xx_ll_tim.h **** 
 253:Drivers/STM32F0xx_HAL_Driver/Inc/stm32f0xx_ll_tim.h ****   uint32_t OCPolarity;    /*!< Specifies the output polarity.
 254:Drivers/STM32F0xx_HAL_Driver/Inc/stm32f0xx_ll_tim.h ****                                This parameter can be a value of @ref TIM_LL_EC_OCPOLARITY.
 255:Drivers/STM32F0xx_HAL_Driver/Inc/stm32f0xx_ll_tim.h **** 
 256:Drivers/STM32F0xx_HAL_Driver/Inc/stm32f0xx_ll_tim.h ****                                This feature can be modified afterwards using unitary function
 257:Drivers/STM32F0xx_HAL_Driver/Inc/stm32f0xx_ll_tim.h ****                                @ref LL_TIM_OC_SetPolarity().*/
 258:Drivers/STM32F0xx_HAL_Driver/Inc/stm32f0xx_ll_tim.h **** 
 259:Drivers/STM32F0xx_HAL_Driver/Inc/stm32f0xx_ll_tim.h ****   uint32_t OCNPolarity;   /*!< Specifies the complementary output polarity.
 260:Drivers/STM32F0xx_HAL_Driver/Inc/stm32f0xx_ll_tim.h ****                                This parameter can be a value of @ref TIM_LL_EC_OCPOLARITY.
 261:Drivers/STM32F0xx_HAL_Driver/Inc/stm32f0xx_ll_tim.h **** 
 262:Drivers/STM32F0xx_HAL_Driver/Inc/stm32f0xx_ll_tim.h ****                                This feature can be modified afterwards using unitary function
 263:Drivers/STM32F0xx_HAL_Driver/Inc/stm32f0xx_ll_tim.h ****                                @ref LL_TIM_OC_SetPolarity().*/
 264:Drivers/STM32F0xx_HAL_Driver/Inc/stm32f0xx_ll_tim.h **** 
 265:Drivers/STM32F0xx_HAL_Driver/Inc/stm32f0xx_ll_tim.h **** 
 266:Drivers/STM32F0xx_HAL_Driver/Inc/stm32f0xx_ll_tim.h ****   uint32_t OCIdleState;   /*!< Specifies the TIM Output Compare pin state during Idle state.
 267:Drivers/STM32F0xx_HAL_Driver/Inc/stm32f0xx_ll_tim.h ****                                This parameter can be a value of @ref TIM_LL_EC_OCIDLESTATE.
 268:Drivers/STM32F0xx_HAL_Driver/Inc/stm32f0xx_ll_tim.h **** 
 269:Drivers/STM32F0xx_HAL_Driver/Inc/stm32f0xx_ll_tim.h ****                                This feature can be modified afterwards using unitary function
 270:Drivers/STM32F0xx_HAL_Driver/Inc/stm32f0xx_ll_tim.h ****                                @ref LL_TIM_OC_SetIdleState().*/
 271:Drivers/STM32F0xx_HAL_Driver/Inc/stm32f0xx_ll_tim.h **** 
 272:Drivers/STM32F0xx_HAL_Driver/Inc/stm32f0xx_ll_tim.h ****   uint32_t OCNIdleState;  /*!< Specifies the TIM Output Compare pin state during Idle state.
 273:Drivers/STM32F0xx_HAL_Driver/Inc/stm32f0xx_ll_tim.h ****                                This parameter can be a value of @ref TIM_LL_EC_OCIDLESTATE.
 274:Drivers/STM32F0xx_HAL_Driver/Inc/stm32f0xx_ll_tim.h **** 
 275:Drivers/STM32F0xx_HAL_Driver/Inc/stm32f0xx_ll_tim.h ****                                This feature can be modified afterwards using unitary function
 276:Drivers/STM32F0xx_HAL_Driver/Inc/stm32f0xx_ll_tim.h ****                                @ref LL_TIM_OC_SetIdleState().*/
 277:Drivers/STM32F0xx_HAL_Driver/Inc/stm32f0xx_ll_tim.h **** } LL_TIM_OC_InitTypeDef;
 278:Drivers/STM32F0xx_HAL_Driver/Inc/stm32f0xx_ll_tim.h **** 
ARM GAS  C:\Users\ADMINI~1\AppData\Local\Temp\ccNQkssi.s 			page 12


 279:Drivers/STM32F0xx_HAL_Driver/Inc/stm32f0xx_ll_tim.h **** /**
 280:Drivers/STM32F0xx_HAL_Driver/Inc/stm32f0xx_ll_tim.h ****   * @brief  TIM Input Capture configuration structure definition.
 281:Drivers/STM32F0xx_HAL_Driver/Inc/stm32f0xx_ll_tim.h ****   */
 282:Drivers/STM32F0xx_HAL_Driver/Inc/stm32f0xx_ll_tim.h **** 
 283:Drivers/STM32F0xx_HAL_Driver/Inc/stm32f0xx_ll_tim.h **** typedef struct
 284:Drivers/STM32F0xx_HAL_Driver/Inc/stm32f0xx_ll_tim.h **** {
 285:Drivers/STM32F0xx_HAL_Driver/Inc/stm32f0xx_ll_tim.h **** 
 286:Drivers/STM32F0xx_HAL_Driver/Inc/stm32f0xx_ll_tim.h ****   uint32_t ICPolarity;    /*!< Specifies the active edge of the input signal.
 287:Drivers/STM32F0xx_HAL_Driver/Inc/stm32f0xx_ll_tim.h ****                                This parameter can be a value of @ref TIM_LL_EC_IC_POLARITY.
 288:Drivers/STM32F0xx_HAL_Driver/Inc/stm32f0xx_ll_tim.h **** 
 289:Drivers/STM32F0xx_HAL_Driver/Inc/stm32f0xx_ll_tim.h ****                                This feature can be modified afterwards using unitary function
 290:Drivers/STM32F0xx_HAL_Driver/Inc/stm32f0xx_ll_tim.h ****                                @ref LL_TIM_IC_SetPolarity().*/
 291:Drivers/STM32F0xx_HAL_Driver/Inc/stm32f0xx_ll_tim.h **** 
 292:Drivers/STM32F0xx_HAL_Driver/Inc/stm32f0xx_ll_tim.h ****   uint32_t ICActiveInput; /*!< Specifies the input.
 293:Drivers/STM32F0xx_HAL_Driver/Inc/stm32f0xx_ll_tim.h ****                                This parameter can be a value of @ref TIM_LL_EC_ACTIVEINPUT.
 294:Drivers/STM32F0xx_HAL_Driver/Inc/stm32f0xx_ll_tim.h **** 
 295:Drivers/STM32F0xx_HAL_Driver/Inc/stm32f0xx_ll_tim.h ****                                This feature can be modified afterwards using unitary function
 296:Drivers/STM32F0xx_HAL_Driver/Inc/stm32f0xx_ll_tim.h ****                                @ref LL_TIM_IC_SetActiveInput().*/
 297:Drivers/STM32F0xx_HAL_Driver/Inc/stm32f0xx_ll_tim.h **** 
 298:Drivers/STM32F0xx_HAL_Driver/Inc/stm32f0xx_ll_tim.h ****   uint32_t ICPrescaler;   /*!< Specifies the Input Capture Prescaler.
 299:Drivers/STM32F0xx_HAL_Driver/Inc/stm32f0xx_ll_tim.h ****                                This parameter can be a value of @ref TIM_LL_EC_ICPSC.
 300:Drivers/STM32F0xx_HAL_Driver/Inc/stm32f0xx_ll_tim.h **** 
 301:Drivers/STM32F0xx_HAL_Driver/Inc/stm32f0xx_ll_tim.h ****                                This feature can be modified afterwards using unitary function
 302:Drivers/STM32F0xx_HAL_Driver/Inc/stm32f0xx_ll_tim.h ****                                @ref LL_TIM_IC_SetPrescaler().*/
 303:Drivers/STM32F0xx_HAL_Driver/Inc/stm32f0xx_ll_tim.h **** 
 304:Drivers/STM32F0xx_HAL_Driver/Inc/stm32f0xx_ll_tim.h ****   uint32_t ICFilter;      /*!< Specifies the input capture filter.
 305:Drivers/STM32F0xx_HAL_Driver/Inc/stm32f0xx_ll_tim.h ****                                This parameter can be a value of @ref TIM_LL_EC_IC_FILTER.
 306:Drivers/STM32F0xx_HAL_Driver/Inc/stm32f0xx_ll_tim.h **** 
 307:Drivers/STM32F0xx_HAL_Driver/Inc/stm32f0xx_ll_tim.h ****                                This feature can be modified afterwards using unitary function
 308:Drivers/STM32F0xx_HAL_Driver/Inc/stm32f0xx_ll_tim.h ****                                @ref LL_TIM_IC_SetFilter().*/
 309:Drivers/STM32F0xx_HAL_Driver/Inc/stm32f0xx_ll_tim.h **** } LL_TIM_IC_InitTypeDef;
 310:Drivers/STM32F0xx_HAL_Driver/Inc/stm32f0xx_ll_tim.h **** 
 311:Drivers/STM32F0xx_HAL_Driver/Inc/stm32f0xx_ll_tim.h **** 
 312:Drivers/STM32F0xx_HAL_Driver/Inc/stm32f0xx_ll_tim.h **** /**
 313:Drivers/STM32F0xx_HAL_Driver/Inc/stm32f0xx_ll_tim.h ****   * @brief  TIM Encoder interface configuration structure definition.
 314:Drivers/STM32F0xx_HAL_Driver/Inc/stm32f0xx_ll_tim.h ****   */
 315:Drivers/STM32F0xx_HAL_Driver/Inc/stm32f0xx_ll_tim.h **** typedef struct
 316:Drivers/STM32F0xx_HAL_Driver/Inc/stm32f0xx_ll_tim.h **** {
 317:Drivers/STM32F0xx_HAL_Driver/Inc/stm32f0xx_ll_tim.h ****   uint32_t EncoderMode;     /*!< Specifies the encoder resolution (x2 or x4).
 318:Drivers/STM32F0xx_HAL_Driver/Inc/stm32f0xx_ll_tim.h ****                                  This parameter can be a value of @ref TIM_LL_EC_ENCODERMODE.
 319:Drivers/STM32F0xx_HAL_Driver/Inc/stm32f0xx_ll_tim.h **** 
 320:Drivers/STM32F0xx_HAL_Driver/Inc/stm32f0xx_ll_tim.h ****                                  This feature can be modified afterwards using unitary function
 321:Drivers/STM32F0xx_HAL_Driver/Inc/stm32f0xx_ll_tim.h ****                                  @ref LL_TIM_SetEncoderMode().*/
 322:Drivers/STM32F0xx_HAL_Driver/Inc/stm32f0xx_ll_tim.h **** 
 323:Drivers/STM32F0xx_HAL_Driver/Inc/stm32f0xx_ll_tim.h ****   uint32_t IC1Polarity;     /*!< Specifies the active edge of TI1 input.
 324:Drivers/STM32F0xx_HAL_Driver/Inc/stm32f0xx_ll_tim.h ****                                  This parameter can be a value of @ref TIM_LL_EC_IC_POLARITY.
 325:Drivers/STM32F0xx_HAL_Driver/Inc/stm32f0xx_ll_tim.h **** 
 326:Drivers/STM32F0xx_HAL_Driver/Inc/stm32f0xx_ll_tim.h ****                                  This feature can be modified afterwards using unitary function
 327:Drivers/STM32F0xx_HAL_Driver/Inc/stm32f0xx_ll_tim.h ****                                  @ref LL_TIM_IC_SetPolarity().*/
 328:Drivers/STM32F0xx_HAL_Driver/Inc/stm32f0xx_ll_tim.h **** 
 329:Drivers/STM32F0xx_HAL_Driver/Inc/stm32f0xx_ll_tim.h ****   uint32_t IC1ActiveInput;  /*!< Specifies the TI1 input source
 330:Drivers/STM32F0xx_HAL_Driver/Inc/stm32f0xx_ll_tim.h ****                                  This parameter can be a value of @ref TIM_LL_EC_ACTIVEINPUT.
 331:Drivers/STM32F0xx_HAL_Driver/Inc/stm32f0xx_ll_tim.h **** 
 332:Drivers/STM32F0xx_HAL_Driver/Inc/stm32f0xx_ll_tim.h ****                                  This feature can be modified afterwards using unitary function
 333:Drivers/STM32F0xx_HAL_Driver/Inc/stm32f0xx_ll_tim.h ****                                  @ref LL_TIM_IC_SetActiveInput().*/
 334:Drivers/STM32F0xx_HAL_Driver/Inc/stm32f0xx_ll_tim.h **** 
 335:Drivers/STM32F0xx_HAL_Driver/Inc/stm32f0xx_ll_tim.h ****   uint32_t IC1Prescaler;    /*!< Specifies the TI1 input prescaler value.
ARM GAS  C:\Users\ADMINI~1\AppData\Local\Temp\ccNQkssi.s 			page 13


 336:Drivers/STM32F0xx_HAL_Driver/Inc/stm32f0xx_ll_tim.h ****                                  This parameter can be a value of @ref TIM_LL_EC_ICPSC.
 337:Drivers/STM32F0xx_HAL_Driver/Inc/stm32f0xx_ll_tim.h **** 
 338:Drivers/STM32F0xx_HAL_Driver/Inc/stm32f0xx_ll_tim.h ****                                  This feature can be modified afterwards using unitary function
 339:Drivers/STM32F0xx_HAL_Driver/Inc/stm32f0xx_ll_tim.h ****                                  @ref LL_TIM_IC_SetPrescaler().*/
 340:Drivers/STM32F0xx_HAL_Driver/Inc/stm32f0xx_ll_tim.h **** 
 341:Drivers/STM32F0xx_HAL_Driver/Inc/stm32f0xx_ll_tim.h ****   uint32_t IC1Filter;       /*!< Specifies the TI1 input filter.
 342:Drivers/STM32F0xx_HAL_Driver/Inc/stm32f0xx_ll_tim.h ****                                  This parameter can be a value of @ref TIM_LL_EC_IC_FILTER.
 343:Drivers/STM32F0xx_HAL_Driver/Inc/stm32f0xx_ll_tim.h **** 
 344:Drivers/STM32F0xx_HAL_Driver/Inc/stm32f0xx_ll_tim.h ****                                  This feature can be modified afterwards using unitary function
 345:Drivers/STM32F0xx_HAL_Driver/Inc/stm32f0xx_ll_tim.h ****                                  @ref LL_TIM_IC_SetFilter().*/
 346:Drivers/STM32F0xx_HAL_Driver/Inc/stm32f0xx_ll_tim.h **** 
 347:Drivers/STM32F0xx_HAL_Driver/Inc/stm32f0xx_ll_tim.h ****   uint32_t IC2Polarity;      /*!< Specifies the active edge of TI2 input.
 348:Drivers/STM32F0xx_HAL_Driver/Inc/stm32f0xx_ll_tim.h ****                                  This parameter can be a value of @ref TIM_LL_EC_IC_POLARITY.
 349:Drivers/STM32F0xx_HAL_Driver/Inc/stm32f0xx_ll_tim.h **** 
 350:Drivers/STM32F0xx_HAL_Driver/Inc/stm32f0xx_ll_tim.h ****                                  This feature can be modified afterwards using unitary function
 351:Drivers/STM32F0xx_HAL_Driver/Inc/stm32f0xx_ll_tim.h ****                                  @ref LL_TIM_IC_SetPolarity().*/
 352:Drivers/STM32F0xx_HAL_Driver/Inc/stm32f0xx_ll_tim.h **** 
 353:Drivers/STM32F0xx_HAL_Driver/Inc/stm32f0xx_ll_tim.h ****   uint32_t IC2ActiveInput;  /*!< Specifies the TI2 input source
 354:Drivers/STM32F0xx_HAL_Driver/Inc/stm32f0xx_ll_tim.h ****                                  This parameter can be a value of @ref TIM_LL_EC_ACTIVEINPUT.
 355:Drivers/STM32F0xx_HAL_Driver/Inc/stm32f0xx_ll_tim.h **** 
 356:Drivers/STM32F0xx_HAL_Driver/Inc/stm32f0xx_ll_tim.h ****                                  This feature can be modified afterwards using unitary function
 357:Drivers/STM32F0xx_HAL_Driver/Inc/stm32f0xx_ll_tim.h ****                                  @ref LL_TIM_IC_SetActiveInput().*/
 358:Drivers/STM32F0xx_HAL_Driver/Inc/stm32f0xx_ll_tim.h **** 
 359:Drivers/STM32F0xx_HAL_Driver/Inc/stm32f0xx_ll_tim.h ****   uint32_t IC2Prescaler;    /*!< Specifies the TI2 input prescaler value.
 360:Drivers/STM32F0xx_HAL_Driver/Inc/stm32f0xx_ll_tim.h ****                                  This parameter can be a value of @ref TIM_LL_EC_ICPSC.
 361:Drivers/STM32F0xx_HAL_Driver/Inc/stm32f0xx_ll_tim.h **** 
 362:Drivers/STM32F0xx_HAL_Driver/Inc/stm32f0xx_ll_tim.h ****                                  This feature can be modified afterwards using unitary function
 363:Drivers/STM32F0xx_HAL_Driver/Inc/stm32f0xx_ll_tim.h ****                                  @ref LL_TIM_IC_SetPrescaler().*/
 364:Drivers/STM32F0xx_HAL_Driver/Inc/stm32f0xx_ll_tim.h **** 
 365:Drivers/STM32F0xx_HAL_Driver/Inc/stm32f0xx_ll_tim.h ****   uint32_t IC2Filter;       /*!< Specifies the TI2 input filter.
 366:Drivers/STM32F0xx_HAL_Driver/Inc/stm32f0xx_ll_tim.h ****                                  This parameter can be a value of @ref TIM_LL_EC_IC_FILTER.
 367:Drivers/STM32F0xx_HAL_Driver/Inc/stm32f0xx_ll_tim.h **** 
 368:Drivers/STM32F0xx_HAL_Driver/Inc/stm32f0xx_ll_tim.h ****                                  This feature can be modified afterwards using unitary function
 369:Drivers/STM32F0xx_HAL_Driver/Inc/stm32f0xx_ll_tim.h ****                                  @ref LL_TIM_IC_SetFilter().*/
 370:Drivers/STM32F0xx_HAL_Driver/Inc/stm32f0xx_ll_tim.h **** 
 371:Drivers/STM32F0xx_HAL_Driver/Inc/stm32f0xx_ll_tim.h **** } LL_TIM_ENCODER_InitTypeDef;
 372:Drivers/STM32F0xx_HAL_Driver/Inc/stm32f0xx_ll_tim.h **** 
 373:Drivers/STM32F0xx_HAL_Driver/Inc/stm32f0xx_ll_tim.h **** /**
 374:Drivers/STM32F0xx_HAL_Driver/Inc/stm32f0xx_ll_tim.h ****   * @brief  TIM Hall sensor interface configuration structure definition.
 375:Drivers/STM32F0xx_HAL_Driver/Inc/stm32f0xx_ll_tim.h ****   */
 376:Drivers/STM32F0xx_HAL_Driver/Inc/stm32f0xx_ll_tim.h **** typedef struct
 377:Drivers/STM32F0xx_HAL_Driver/Inc/stm32f0xx_ll_tim.h **** {
 378:Drivers/STM32F0xx_HAL_Driver/Inc/stm32f0xx_ll_tim.h **** 
 379:Drivers/STM32F0xx_HAL_Driver/Inc/stm32f0xx_ll_tim.h ****   uint32_t IC1Polarity;        /*!< Specifies the active edge of TI1 input.
 380:Drivers/STM32F0xx_HAL_Driver/Inc/stm32f0xx_ll_tim.h ****                                     This parameter can be a value of @ref TIM_LL_EC_IC_POLARITY.
 381:Drivers/STM32F0xx_HAL_Driver/Inc/stm32f0xx_ll_tim.h **** 
 382:Drivers/STM32F0xx_HAL_Driver/Inc/stm32f0xx_ll_tim.h ****                                     This feature can be modified afterwards using unitary function
 383:Drivers/STM32F0xx_HAL_Driver/Inc/stm32f0xx_ll_tim.h ****                                     @ref LL_TIM_IC_SetPolarity().*/
 384:Drivers/STM32F0xx_HAL_Driver/Inc/stm32f0xx_ll_tim.h **** 
 385:Drivers/STM32F0xx_HAL_Driver/Inc/stm32f0xx_ll_tim.h ****   uint32_t IC1Prescaler;       /*!< Specifies the TI1 input prescaler value.
 386:Drivers/STM32F0xx_HAL_Driver/Inc/stm32f0xx_ll_tim.h ****                                     Prescaler must be set to get a maximum counter period longer th
 387:Drivers/STM32F0xx_HAL_Driver/Inc/stm32f0xx_ll_tim.h ****                                     time interval between 2 consecutive changes on the Hall inputs.
 388:Drivers/STM32F0xx_HAL_Driver/Inc/stm32f0xx_ll_tim.h ****                                     This parameter can be a value of @ref TIM_LL_EC_ICPSC.
 389:Drivers/STM32F0xx_HAL_Driver/Inc/stm32f0xx_ll_tim.h **** 
 390:Drivers/STM32F0xx_HAL_Driver/Inc/stm32f0xx_ll_tim.h ****                                     This feature can be modified afterwards using unitary function
 391:Drivers/STM32F0xx_HAL_Driver/Inc/stm32f0xx_ll_tim.h ****                                     @ref LL_TIM_IC_SetPrescaler().*/
 392:Drivers/STM32F0xx_HAL_Driver/Inc/stm32f0xx_ll_tim.h **** 
ARM GAS  C:\Users\ADMINI~1\AppData\Local\Temp\ccNQkssi.s 			page 14


 393:Drivers/STM32F0xx_HAL_Driver/Inc/stm32f0xx_ll_tim.h ****   uint32_t IC1Filter;          /*!< Specifies the TI1 input filter.
 394:Drivers/STM32F0xx_HAL_Driver/Inc/stm32f0xx_ll_tim.h ****                                     This parameter can be a value of
 395:Drivers/STM32F0xx_HAL_Driver/Inc/stm32f0xx_ll_tim.h ****                                     @ref TIM_LL_EC_IC_FILTER.
 396:Drivers/STM32F0xx_HAL_Driver/Inc/stm32f0xx_ll_tim.h **** 
 397:Drivers/STM32F0xx_HAL_Driver/Inc/stm32f0xx_ll_tim.h ****                                     This feature can be modified afterwards using unitary function
 398:Drivers/STM32F0xx_HAL_Driver/Inc/stm32f0xx_ll_tim.h ****                                     @ref LL_TIM_IC_SetFilter().*/
 399:Drivers/STM32F0xx_HAL_Driver/Inc/stm32f0xx_ll_tim.h **** 
 400:Drivers/STM32F0xx_HAL_Driver/Inc/stm32f0xx_ll_tim.h ****   uint32_t CommutationDelay;   /*!< Specifies the compare value to be loaded into the Capture Compa
 401:Drivers/STM32F0xx_HAL_Driver/Inc/stm32f0xx_ll_tim.h ****                                     A positive pulse (TRGO event) is generated with a programmable 
 402:Drivers/STM32F0xx_HAL_Driver/Inc/stm32f0xx_ll_tim.h ****                                     a change occurs on the Hall inputs.
 403:Drivers/STM32F0xx_HAL_Driver/Inc/stm32f0xx_ll_tim.h ****                                     This parameter can be a number between Min_Data = 0x0000 and Ma
 404:Drivers/STM32F0xx_HAL_Driver/Inc/stm32f0xx_ll_tim.h **** 
 405:Drivers/STM32F0xx_HAL_Driver/Inc/stm32f0xx_ll_tim.h ****                                     This feature can be modified afterwards using unitary function
 406:Drivers/STM32F0xx_HAL_Driver/Inc/stm32f0xx_ll_tim.h ****                                     @ref LL_TIM_OC_SetCompareCH2().*/
 407:Drivers/STM32F0xx_HAL_Driver/Inc/stm32f0xx_ll_tim.h **** } LL_TIM_HALLSENSOR_InitTypeDef;
 408:Drivers/STM32F0xx_HAL_Driver/Inc/stm32f0xx_ll_tim.h **** 
 409:Drivers/STM32F0xx_HAL_Driver/Inc/stm32f0xx_ll_tim.h **** /**
 410:Drivers/STM32F0xx_HAL_Driver/Inc/stm32f0xx_ll_tim.h ****   * @brief  BDTR (Break and Dead Time) structure definition
 411:Drivers/STM32F0xx_HAL_Driver/Inc/stm32f0xx_ll_tim.h ****   */
 412:Drivers/STM32F0xx_HAL_Driver/Inc/stm32f0xx_ll_tim.h **** typedef struct
 413:Drivers/STM32F0xx_HAL_Driver/Inc/stm32f0xx_ll_tim.h **** {
 414:Drivers/STM32F0xx_HAL_Driver/Inc/stm32f0xx_ll_tim.h ****   uint32_t OSSRState;            /*!< Specifies the Off-State selection used in Run mode.
 415:Drivers/STM32F0xx_HAL_Driver/Inc/stm32f0xx_ll_tim.h ****                                       This parameter can be a value of @ref TIM_LL_EC_OSSR
 416:Drivers/STM32F0xx_HAL_Driver/Inc/stm32f0xx_ll_tim.h **** 
 417:Drivers/STM32F0xx_HAL_Driver/Inc/stm32f0xx_ll_tim.h ****                                       This feature can be modified afterwards using unitary functio
 418:Drivers/STM32F0xx_HAL_Driver/Inc/stm32f0xx_ll_tim.h ****                                       @ref LL_TIM_SetOffStates()
 419:Drivers/STM32F0xx_HAL_Driver/Inc/stm32f0xx_ll_tim.h **** 
 420:Drivers/STM32F0xx_HAL_Driver/Inc/stm32f0xx_ll_tim.h ****                                       @note This bit-field cannot be modified as long as LOCK level
 421:Drivers/STM32F0xx_HAL_Driver/Inc/stm32f0xx_ll_tim.h ****                                        programmed. */
 422:Drivers/STM32F0xx_HAL_Driver/Inc/stm32f0xx_ll_tim.h **** 
 423:Drivers/STM32F0xx_HAL_Driver/Inc/stm32f0xx_ll_tim.h ****   uint32_t OSSIState;            /*!< Specifies the Off-State used in Idle state.
 424:Drivers/STM32F0xx_HAL_Driver/Inc/stm32f0xx_ll_tim.h ****                                       This parameter can be a value of @ref TIM_LL_EC_OSSI
 425:Drivers/STM32F0xx_HAL_Driver/Inc/stm32f0xx_ll_tim.h **** 
 426:Drivers/STM32F0xx_HAL_Driver/Inc/stm32f0xx_ll_tim.h ****                                       This feature can be modified afterwards using unitary functio
 427:Drivers/STM32F0xx_HAL_Driver/Inc/stm32f0xx_ll_tim.h ****                                       @ref LL_TIM_SetOffStates()
 428:Drivers/STM32F0xx_HAL_Driver/Inc/stm32f0xx_ll_tim.h **** 
 429:Drivers/STM32F0xx_HAL_Driver/Inc/stm32f0xx_ll_tim.h ****                                       @note This bit-field cannot be modified as long as LOCK level
 430:Drivers/STM32F0xx_HAL_Driver/Inc/stm32f0xx_ll_tim.h ****                                       programmed. */
 431:Drivers/STM32F0xx_HAL_Driver/Inc/stm32f0xx_ll_tim.h **** 
 432:Drivers/STM32F0xx_HAL_Driver/Inc/stm32f0xx_ll_tim.h ****   uint32_t LockLevel;            /*!< Specifies the LOCK level parameters.
 433:Drivers/STM32F0xx_HAL_Driver/Inc/stm32f0xx_ll_tim.h ****                                       This parameter can be a value of @ref TIM_LL_EC_LOCKLEVEL
 434:Drivers/STM32F0xx_HAL_Driver/Inc/stm32f0xx_ll_tim.h **** 
 435:Drivers/STM32F0xx_HAL_Driver/Inc/stm32f0xx_ll_tim.h ****                                       @note The LOCK bits can be written only once after the reset.
 436:Drivers/STM32F0xx_HAL_Driver/Inc/stm32f0xx_ll_tim.h ****                                       register has been written, their content is frozen until the 
 437:Drivers/STM32F0xx_HAL_Driver/Inc/stm32f0xx_ll_tim.h **** 
 438:Drivers/STM32F0xx_HAL_Driver/Inc/stm32f0xx_ll_tim.h ****   uint8_t DeadTime;              /*!< Specifies the delay time between the switching-off and the
 439:Drivers/STM32F0xx_HAL_Driver/Inc/stm32f0xx_ll_tim.h ****                                       switching-on of the outputs.
 440:Drivers/STM32F0xx_HAL_Driver/Inc/stm32f0xx_ll_tim.h ****                                       This parameter can be a number between Min_Data = 0x00 and Ma
 441:Drivers/STM32F0xx_HAL_Driver/Inc/stm32f0xx_ll_tim.h **** 
 442:Drivers/STM32F0xx_HAL_Driver/Inc/stm32f0xx_ll_tim.h ****                                       This feature can be modified afterwards using unitary functio
 443:Drivers/STM32F0xx_HAL_Driver/Inc/stm32f0xx_ll_tim.h ****                                       @ref LL_TIM_OC_SetDeadTime()
 444:Drivers/STM32F0xx_HAL_Driver/Inc/stm32f0xx_ll_tim.h **** 
 445:Drivers/STM32F0xx_HAL_Driver/Inc/stm32f0xx_ll_tim.h ****                                       @note This bit-field can not be modified as long as LOCK leve
 446:Drivers/STM32F0xx_HAL_Driver/Inc/stm32f0xx_ll_tim.h ****                                        programmed. */
 447:Drivers/STM32F0xx_HAL_Driver/Inc/stm32f0xx_ll_tim.h **** 
 448:Drivers/STM32F0xx_HAL_Driver/Inc/stm32f0xx_ll_tim.h ****   uint16_t BreakState;           /*!< Specifies whether the TIM Break input is enabled or not.
 449:Drivers/STM32F0xx_HAL_Driver/Inc/stm32f0xx_ll_tim.h ****                                       This parameter can be a value of @ref TIM_LL_EC_BREAK_ENABLE
ARM GAS  C:\Users\ADMINI~1\AppData\Local\Temp\ccNQkssi.s 			page 15


 450:Drivers/STM32F0xx_HAL_Driver/Inc/stm32f0xx_ll_tim.h **** 
 451:Drivers/STM32F0xx_HAL_Driver/Inc/stm32f0xx_ll_tim.h ****                                       This feature can be modified afterwards using unitary functio
 452:Drivers/STM32F0xx_HAL_Driver/Inc/stm32f0xx_ll_tim.h ****                                       @ref LL_TIM_EnableBRK() or @ref LL_TIM_DisableBRK()
 453:Drivers/STM32F0xx_HAL_Driver/Inc/stm32f0xx_ll_tim.h **** 
 454:Drivers/STM32F0xx_HAL_Driver/Inc/stm32f0xx_ll_tim.h ****                                       @note This bit-field can not be modified as long as LOCK leve
 455:Drivers/STM32F0xx_HAL_Driver/Inc/stm32f0xx_ll_tim.h ****                                       programmed. */
 456:Drivers/STM32F0xx_HAL_Driver/Inc/stm32f0xx_ll_tim.h **** 
 457:Drivers/STM32F0xx_HAL_Driver/Inc/stm32f0xx_ll_tim.h ****   uint32_t BreakPolarity;        /*!< Specifies the TIM Break Input pin polarity.
 458:Drivers/STM32F0xx_HAL_Driver/Inc/stm32f0xx_ll_tim.h ****                                       This parameter can be a value of @ref TIM_LL_EC_BREAK_POLARIT
 459:Drivers/STM32F0xx_HAL_Driver/Inc/stm32f0xx_ll_tim.h **** 
 460:Drivers/STM32F0xx_HAL_Driver/Inc/stm32f0xx_ll_tim.h ****                                       This feature can be modified afterwards using unitary functio
 461:Drivers/STM32F0xx_HAL_Driver/Inc/stm32f0xx_ll_tim.h ****                                       @ref LL_TIM_ConfigBRK()
 462:Drivers/STM32F0xx_HAL_Driver/Inc/stm32f0xx_ll_tim.h **** 
 463:Drivers/STM32F0xx_HAL_Driver/Inc/stm32f0xx_ll_tim.h ****                                       @note This bit-field can not be modified as long as LOCK leve
 464:Drivers/STM32F0xx_HAL_Driver/Inc/stm32f0xx_ll_tim.h ****                                       programmed. */
 465:Drivers/STM32F0xx_HAL_Driver/Inc/stm32f0xx_ll_tim.h **** 
 466:Drivers/STM32F0xx_HAL_Driver/Inc/stm32f0xx_ll_tim.h ****   uint32_t AutomaticOutput;      /*!< Specifies whether the TIM Automatic Output feature is enabled
 467:Drivers/STM32F0xx_HAL_Driver/Inc/stm32f0xx_ll_tim.h ****                                       This parameter can be a value of @ref TIM_LL_EC_AUTOMATICOUTP
 468:Drivers/STM32F0xx_HAL_Driver/Inc/stm32f0xx_ll_tim.h **** 
 469:Drivers/STM32F0xx_HAL_Driver/Inc/stm32f0xx_ll_tim.h ****                                       This feature can be modified afterwards using unitary functio
 470:Drivers/STM32F0xx_HAL_Driver/Inc/stm32f0xx_ll_tim.h ****                                       @ref LL_TIM_EnableAutomaticOutput() or @ref LL_TIM_DisableAut
 471:Drivers/STM32F0xx_HAL_Driver/Inc/stm32f0xx_ll_tim.h **** 
 472:Drivers/STM32F0xx_HAL_Driver/Inc/stm32f0xx_ll_tim.h ****                                       @note This bit-field can not be modified as long as LOCK leve
 473:Drivers/STM32F0xx_HAL_Driver/Inc/stm32f0xx_ll_tim.h ****                                       programmed. */
 474:Drivers/STM32F0xx_HAL_Driver/Inc/stm32f0xx_ll_tim.h **** } LL_TIM_BDTR_InitTypeDef;
 475:Drivers/STM32F0xx_HAL_Driver/Inc/stm32f0xx_ll_tim.h **** 
 476:Drivers/STM32F0xx_HAL_Driver/Inc/stm32f0xx_ll_tim.h **** /**
 477:Drivers/STM32F0xx_HAL_Driver/Inc/stm32f0xx_ll_tim.h ****   * @}
 478:Drivers/STM32F0xx_HAL_Driver/Inc/stm32f0xx_ll_tim.h ****   */
 479:Drivers/STM32F0xx_HAL_Driver/Inc/stm32f0xx_ll_tim.h **** #endif /* USE_FULL_LL_DRIVER */
 480:Drivers/STM32F0xx_HAL_Driver/Inc/stm32f0xx_ll_tim.h **** 
 481:Drivers/STM32F0xx_HAL_Driver/Inc/stm32f0xx_ll_tim.h **** /* Exported constants --------------------------------------------------------*/
 482:Drivers/STM32F0xx_HAL_Driver/Inc/stm32f0xx_ll_tim.h **** /** @defgroup TIM_LL_Exported_Constants TIM Exported Constants
 483:Drivers/STM32F0xx_HAL_Driver/Inc/stm32f0xx_ll_tim.h ****   * @{
 484:Drivers/STM32F0xx_HAL_Driver/Inc/stm32f0xx_ll_tim.h ****   */
 485:Drivers/STM32F0xx_HAL_Driver/Inc/stm32f0xx_ll_tim.h **** 
 486:Drivers/STM32F0xx_HAL_Driver/Inc/stm32f0xx_ll_tim.h **** /** @defgroup TIM_LL_EC_GET_FLAG Get Flags Defines
 487:Drivers/STM32F0xx_HAL_Driver/Inc/stm32f0xx_ll_tim.h ****   * @brief    Flags defines which can be used with LL_TIM_ReadReg function.
 488:Drivers/STM32F0xx_HAL_Driver/Inc/stm32f0xx_ll_tim.h ****   * @{
 489:Drivers/STM32F0xx_HAL_Driver/Inc/stm32f0xx_ll_tim.h ****   */
 490:Drivers/STM32F0xx_HAL_Driver/Inc/stm32f0xx_ll_tim.h **** #define LL_TIM_SR_UIF                          TIM_SR_UIF           /*!< Update interrupt flag */
 491:Drivers/STM32F0xx_HAL_Driver/Inc/stm32f0xx_ll_tim.h **** #define LL_TIM_SR_CC1IF                        TIM_SR_CC1IF         /*!< Capture/compare 1 interrup
 492:Drivers/STM32F0xx_HAL_Driver/Inc/stm32f0xx_ll_tim.h **** #define LL_TIM_SR_CC2IF                        TIM_SR_CC2IF         /*!< Capture/compare 2 interrup
 493:Drivers/STM32F0xx_HAL_Driver/Inc/stm32f0xx_ll_tim.h **** #define LL_TIM_SR_CC3IF                        TIM_SR_CC3IF         /*!< Capture/compare 3 interrup
 494:Drivers/STM32F0xx_HAL_Driver/Inc/stm32f0xx_ll_tim.h **** #define LL_TIM_SR_CC4IF                        TIM_SR_CC4IF         /*!< Capture/compare 4 interrup
 495:Drivers/STM32F0xx_HAL_Driver/Inc/stm32f0xx_ll_tim.h **** #define LL_TIM_SR_COMIF                        TIM_SR_COMIF         /*!< COM interrupt flag */
 496:Drivers/STM32F0xx_HAL_Driver/Inc/stm32f0xx_ll_tim.h **** #define LL_TIM_SR_TIF                          TIM_SR_TIF           /*!< Trigger interrupt flag */
 497:Drivers/STM32F0xx_HAL_Driver/Inc/stm32f0xx_ll_tim.h **** #define LL_TIM_SR_BIF                          TIM_SR_BIF           /*!< Break interrupt flag */
 498:Drivers/STM32F0xx_HAL_Driver/Inc/stm32f0xx_ll_tim.h **** #define LL_TIM_SR_CC1OF                        TIM_SR_CC1OF         /*!< Capture/Compare 1 overcapt
 499:Drivers/STM32F0xx_HAL_Driver/Inc/stm32f0xx_ll_tim.h **** #define LL_TIM_SR_CC2OF                        TIM_SR_CC2OF         /*!< Capture/Compare 2 overcapt
 500:Drivers/STM32F0xx_HAL_Driver/Inc/stm32f0xx_ll_tim.h **** #define LL_TIM_SR_CC3OF                        TIM_SR_CC3OF         /*!< Capture/Compare 3 overcapt
 501:Drivers/STM32F0xx_HAL_Driver/Inc/stm32f0xx_ll_tim.h **** #define LL_TIM_SR_CC4OF                        TIM_SR_CC4OF         /*!< Capture/Compare 4 overcapt
 502:Drivers/STM32F0xx_HAL_Driver/Inc/stm32f0xx_ll_tim.h **** /**
 503:Drivers/STM32F0xx_HAL_Driver/Inc/stm32f0xx_ll_tim.h ****   * @}
 504:Drivers/STM32F0xx_HAL_Driver/Inc/stm32f0xx_ll_tim.h ****   */
 505:Drivers/STM32F0xx_HAL_Driver/Inc/stm32f0xx_ll_tim.h **** 
 506:Drivers/STM32F0xx_HAL_Driver/Inc/stm32f0xx_ll_tim.h **** #if defined(USE_FULL_LL_DRIVER)
ARM GAS  C:\Users\ADMINI~1\AppData\Local\Temp\ccNQkssi.s 			page 16


 507:Drivers/STM32F0xx_HAL_Driver/Inc/stm32f0xx_ll_tim.h **** /** @defgroup TIM_LL_EC_BREAK_ENABLE Break Enable
 508:Drivers/STM32F0xx_HAL_Driver/Inc/stm32f0xx_ll_tim.h ****   * @{
 509:Drivers/STM32F0xx_HAL_Driver/Inc/stm32f0xx_ll_tim.h ****   */
 510:Drivers/STM32F0xx_HAL_Driver/Inc/stm32f0xx_ll_tim.h **** #define LL_TIM_BREAK_DISABLE            0x00000000U             /*!< Break function disabled */
 511:Drivers/STM32F0xx_HAL_Driver/Inc/stm32f0xx_ll_tim.h **** #define LL_TIM_BREAK_ENABLE             TIM_BDTR_BKE            /*!< Break function enabled */
 512:Drivers/STM32F0xx_HAL_Driver/Inc/stm32f0xx_ll_tim.h **** /**
 513:Drivers/STM32F0xx_HAL_Driver/Inc/stm32f0xx_ll_tim.h ****   * @}
 514:Drivers/STM32F0xx_HAL_Driver/Inc/stm32f0xx_ll_tim.h ****   */
 515:Drivers/STM32F0xx_HAL_Driver/Inc/stm32f0xx_ll_tim.h **** 
 516:Drivers/STM32F0xx_HAL_Driver/Inc/stm32f0xx_ll_tim.h **** /** @defgroup TIM_LL_EC_AUTOMATICOUTPUT_ENABLE Automatic output enable
 517:Drivers/STM32F0xx_HAL_Driver/Inc/stm32f0xx_ll_tim.h ****   * @{
 518:Drivers/STM32F0xx_HAL_Driver/Inc/stm32f0xx_ll_tim.h ****   */
 519:Drivers/STM32F0xx_HAL_Driver/Inc/stm32f0xx_ll_tim.h **** #define LL_TIM_AUTOMATICOUTPUT_DISABLE         0x00000000U             /*!< MOE can be set only by 
 520:Drivers/STM32F0xx_HAL_Driver/Inc/stm32f0xx_ll_tim.h **** #define LL_TIM_AUTOMATICOUTPUT_ENABLE          TIM_BDTR_AOE            /*!< MOE can be set by softw
 521:Drivers/STM32F0xx_HAL_Driver/Inc/stm32f0xx_ll_tim.h **** /**
 522:Drivers/STM32F0xx_HAL_Driver/Inc/stm32f0xx_ll_tim.h ****   * @}
 523:Drivers/STM32F0xx_HAL_Driver/Inc/stm32f0xx_ll_tim.h ****   */
 524:Drivers/STM32F0xx_HAL_Driver/Inc/stm32f0xx_ll_tim.h **** #endif /* USE_FULL_LL_DRIVER */
 525:Drivers/STM32F0xx_HAL_Driver/Inc/stm32f0xx_ll_tim.h **** 
 526:Drivers/STM32F0xx_HAL_Driver/Inc/stm32f0xx_ll_tim.h **** /** @defgroup TIM_LL_EC_IT IT Defines
 527:Drivers/STM32F0xx_HAL_Driver/Inc/stm32f0xx_ll_tim.h ****   * @brief    IT defines which can be used with LL_TIM_ReadReg and  LL_TIM_WriteReg functions.
 528:Drivers/STM32F0xx_HAL_Driver/Inc/stm32f0xx_ll_tim.h ****   * @{
 529:Drivers/STM32F0xx_HAL_Driver/Inc/stm32f0xx_ll_tim.h ****   */
 530:Drivers/STM32F0xx_HAL_Driver/Inc/stm32f0xx_ll_tim.h **** #define LL_TIM_DIER_UIE                        TIM_DIER_UIE         /*!< Update interrupt enable */
 531:Drivers/STM32F0xx_HAL_Driver/Inc/stm32f0xx_ll_tim.h **** #define LL_TIM_DIER_CC1IE                      TIM_DIER_CC1IE       /*!< Capture/compare 1 interrup
 532:Drivers/STM32F0xx_HAL_Driver/Inc/stm32f0xx_ll_tim.h **** #define LL_TIM_DIER_CC2IE                      TIM_DIER_CC2IE       /*!< Capture/compare 2 interrup
 533:Drivers/STM32F0xx_HAL_Driver/Inc/stm32f0xx_ll_tim.h **** #define LL_TIM_DIER_CC3IE                      TIM_DIER_CC3IE       /*!< Capture/compare 3 interrup
 534:Drivers/STM32F0xx_HAL_Driver/Inc/stm32f0xx_ll_tim.h **** #define LL_TIM_DIER_CC4IE                      TIM_DIER_CC4IE       /*!< Capture/compare 4 interrup
 535:Drivers/STM32F0xx_HAL_Driver/Inc/stm32f0xx_ll_tim.h **** #define LL_TIM_DIER_COMIE                      TIM_DIER_COMIE       /*!< COM interrupt enable */
 536:Drivers/STM32F0xx_HAL_Driver/Inc/stm32f0xx_ll_tim.h **** #define LL_TIM_DIER_TIE                        TIM_DIER_TIE         /*!< Trigger interrupt enable *
 537:Drivers/STM32F0xx_HAL_Driver/Inc/stm32f0xx_ll_tim.h **** #define LL_TIM_DIER_BIE                        TIM_DIER_BIE         /*!< Break interrupt enable */
 538:Drivers/STM32F0xx_HAL_Driver/Inc/stm32f0xx_ll_tim.h **** /**
 539:Drivers/STM32F0xx_HAL_Driver/Inc/stm32f0xx_ll_tim.h ****   * @}
 540:Drivers/STM32F0xx_HAL_Driver/Inc/stm32f0xx_ll_tim.h ****   */
 541:Drivers/STM32F0xx_HAL_Driver/Inc/stm32f0xx_ll_tim.h **** 
 542:Drivers/STM32F0xx_HAL_Driver/Inc/stm32f0xx_ll_tim.h **** /** @defgroup TIM_LL_EC_UPDATESOURCE Update Source
 543:Drivers/STM32F0xx_HAL_Driver/Inc/stm32f0xx_ll_tim.h ****   * @{
 544:Drivers/STM32F0xx_HAL_Driver/Inc/stm32f0xx_ll_tim.h ****   */
 545:Drivers/STM32F0xx_HAL_Driver/Inc/stm32f0xx_ll_tim.h **** #define LL_TIM_UPDATESOURCE_REGULAR            0x00000000U          /*!< Counter overflow/underflow
 546:Drivers/STM32F0xx_HAL_Driver/Inc/stm32f0xx_ll_tim.h **** #define LL_TIM_UPDATESOURCE_COUNTER            TIM_CR1_URS          /*!< Only counter overflow/unde
 547:Drivers/STM32F0xx_HAL_Driver/Inc/stm32f0xx_ll_tim.h **** /**
 548:Drivers/STM32F0xx_HAL_Driver/Inc/stm32f0xx_ll_tim.h ****   * @}
 549:Drivers/STM32F0xx_HAL_Driver/Inc/stm32f0xx_ll_tim.h ****   */
 550:Drivers/STM32F0xx_HAL_Driver/Inc/stm32f0xx_ll_tim.h **** 
 551:Drivers/STM32F0xx_HAL_Driver/Inc/stm32f0xx_ll_tim.h **** /** @defgroup TIM_LL_EC_ONEPULSEMODE One Pulse Mode
 552:Drivers/STM32F0xx_HAL_Driver/Inc/stm32f0xx_ll_tim.h ****   * @{
 553:Drivers/STM32F0xx_HAL_Driver/Inc/stm32f0xx_ll_tim.h ****   */
 554:Drivers/STM32F0xx_HAL_Driver/Inc/stm32f0xx_ll_tim.h **** #define LL_TIM_ONEPULSEMODE_SINGLE             TIM_CR1_OPM          /*!< Counter stops counting at 
 555:Drivers/STM32F0xx_HAL_Driver/Inc/stm32f0xx_ll_tim.h **** #define LL_TIM_ONEPULSEMODE_REPETITIVE         0x00000000U          /*!< Counter is not stopped at 
 556:Drivers/STM32F0xx_HAL_Driver/Inc/stm32f0xx_ll_tim.h **** /**
 557:Drivers/STM32F0xx_HAL_Driver/Inc/stm32f0xx_ll_tim.h ****   * @}
 558:Drivers/STM32F0xx_HAL_Driver/Inc/stm32f0xx_ll_tim.h ****   */
 559:Drivers/STM32F0xx_HAL_Driver/Inc/stm32f0xx_ll_tim.h **** 
 560:Drivers/STM32F0xx_HAL_Driver/Inc/stm32f0xx_ll_tim.h **** /** @defgroup TIM_LL_EC_COUNTERMODE Counter Mode
 561:Drivers/STM32F0xx_HAL_Driver/Inc/stm32f0xx_ll_tim.h ****   * @{
 562:Drivers/STM32F0xx_HAL_Driver/Inc/stm32f0xx_ll_tim.h ****   */
 563:Drivers/STM32F0xx_HAL_Driver/Inc/stm32f0xx_ll_tim.h **** #define LL_TIM_COUNTERMODE_UP                  0x00000000U          /*!<Counter used as upcounter *
ARM GAS  C:\Users\ADMINI~1\AppData\Local\Temp\ccNQkssi.s 			page 17


 564:Drivers/STM32F0xx_HAL_Driver/Inc/stm32f0xx_ll_tim.h **** #define LL_TIM_COUNTERMODE_DOWN                TIM_CR1_DIR          /*!< Counter used as downcounte
 565:Drivers/STM32F0xx_HAL_Driver/Inc/stm32f0xx_ll_tim.h **** #define LL_TIM_COUNTERMODE_CENTER_DOWN         TIM_CR1_CMS_0        /*!< The counter counts up and 
 566:Drivers/STM32F0xx_HAL_Driver/Inc/stm32f0xx_ll_tim.h **** #define LL_TIM_COUNTERMODE_CENTER_UP           TIM_CR1_CMS_1        /*!<The counter counts up and d
 567:Drivers/STM32F0xx_HAL_Driver/Inc/stm32f0xx_ll_tim.h **** #define LL_TIM_COUNTERMODE_CENTER_UP_DOWN      TIM_CR1_CMS          /*!< The counter counts up and 
 568:Drivers/STM32F0xx_HAL_Driver/Inc/stm32f0xx_ll_tim.h **** /**
 569:Drivers/STM32F0xx_HAL_Driver/Inc/stm32f0xx_ll_tim.h ****   * @}
 570:Drivers/STM32F0xx_HAL_Driver/Inc/stm32f0xx_ll_tim.h ****   */
 571:Drivers/STM32F0xx_HAL_Driver/Inc/stm32f0xx_ll_tim.h **** 
 572:Drivers/STM32F0xx_HAL_Driver/Inc/stm32f0xx_ll_tim.h **** /** @defgroup TIM_LL_EC_CLOCKDIVISION Clock Division
 573:Drivers/STM32F0xx_HAL_Driver/Inc/stm32f0xx_ll_tim.h ****   * @{
 574:Drivers/STM32F0xx_HAL_Driver/Inc/stm32f0xx_ll_tim.h ****   */
 575:Drivers/STM32F0xx_HAL_Driver/Inc/stm32f0xx_ll_tim.h **** #define LL_TIM_CLOCKDIVISION_DIV1              0x00000000U          /*!< tDTS=tCK_INT */
 576:Drivers/STM32F0xx_HAL_Driver/Inc/stm32f0xx_ll_tim.h **** #define LL_TIM_CLOCKDIVISION_DIV2              TIM_CR1_CKD_0        /*!< tDTS=2*tCK_INT */
 577:Drivers/STM32F0xx_HAL_Driver/Inc/stm32f0xx_ll_tim.h **** #define LL_TIM_CLOCKDIVISION_DIV4              TIM_CR1_CKD_1        /*!< tDTS=4*tCK_INT */
 578:Drivers/STM32F0xx_HAL_Driver/Inc/stm32f0xx_ll_tim.h **** /**
 579:Drivers/STM32F0xx_HAL_Driver/Inc/stm32f0xx_ll_tim.h ****   * @}
 580:Drivers/STM32F0xx_HAL_Driver/Inc/stm32f0xx_ll_tim.h ****   */
 581:Drivers/STM32F0xx_HAL_Driver/Inc/stm32f0xx_ll_tim.h **** 
 582:Drivers/STM32F0xx_HAL_Driver/Inc/stm32f0xx_ll_tim.h **** /** @defgroup TIM_LL_EC_COUNTERDIRECTION Counter Direction
 583:Drivers/STM32F0xx_HAL_Driver/Inc/stm32f0xx_ll_tim.h ****   * @{
 584:Drivers/STM32F0xx_HAL_Driver/Inc/stm32f0xx_ll_tim.h ****   */
 585:Drivers/STM32F0xx_HAL_Driver/Inc/stm32f0xx_ll_tim.h **** #define LL_TIM_COUNTERDIRECTION_UP             0x00000000U          /*!< Timer counter counts up */
 586:Drivers/STM32F0xx_HAL_Driver/Inc/stm32f0xx_ll_tim.h **** #define LL_TIM_COUNTERDIRECTION_DOWN           TIM_CR1_DIR          /*!< Timer counter counts down 
 587:Drivers/STM32F0xx_HAL_Driver/Inc/stm32f0xx_ll_tim.h **** /**
 588:Drivers/STM32F0xx_HAL_Driver/Inc/stm32f0xx_ll_tim.h ****   * @}
 589:Drivers/STM32F0xx_HAL_Driver/Inc/stm32f0xx_ll_tim.h ****   */
 590:Drivers/STM32F0xx_HAL_Driver/Inc/stm32f0xx_ll_tim.h **** 
 591:Drivers/STM32F0xx_HAL_Driver/Inc/stm32f0xx_ll_tim.h **** /** @defgroup TIM_LL_EC_CCUPDATESOURCE Capture Compare  Update Source
 592:Drivers/STM32F0xx_HAL_Driver/Inc/stm32f0xx_ll_tim.h ****   * @{
 593:Drivers/STM32F0xx_HAL_Driver/Inc/stm32f0xx_ll_tim.h ****   */
 594:Drivers/STM32F0xx_HAL_Driver/Inc/stm32f0xx_ll_tim.h **** #define LL_TIM_CCUPDATESOURCE_COMG_ONLY        0x00000000U          /*!< Capture/compare control bi
 595:Drivers/STM32F0xx_HAL_Driver/Inc/stm32f0xx_ll_tim.h **** #define LL_TIM_CCUPDATESOURCE_COMG_AND_TRGI    TIM_CR2_CCUS         /*!< Capture/compare control bi
 596:Drivers/STM32F0xx_HAL_Driver/Inc/stm32f0xx_ll_tim.h **** /**
 597:Drivers/STM32F0xx_HAL_Driver/Inc/stm32f0xx_ll_tim.h ****   * @}
 598:Drivers/STM32F0xx_HAL_Driver/Inc/stm32f0xx_ll_tim.h ****   */
 599:Drivers/STM32F0xx_HAL_Driver/Inc/stm32f0xx_ll_tim.h **** 
 600:Drivers/STM32F0xx_HAL_Driver/Inc/stm32f0xx_ll_tim.h **** /** @defgroup TIM_LL_EC_CCDMAREQUEST Capture Compare DMA Request
 601:Drivers/STM32F0xx_HAL_Driver/Inc/stm32f0xx_ll_tim.h ****   * @{
 602:Drivers/STM32F0xx_HAL_Driver/Inc/stm32f0xx_ll_tim.h ****   */
 603:Drivers/STM32F0xx_HAL_Driver/Inc/stm32f0xx_ll_tim.h **** #define LL_TIM_CCDMAREQUEST_CC                 0x00000000U          /*!< CCx DMA request sent when 
 604:Drivers/STM32F0xx_HAL_Driver/Inc/stm32f0xx_ll_tim.h **** #define LL_TIM_CCDMAREQUEST_UPDATE             TIM_CR2_CCDS         /*!< CCx DMA requests sent when
 605:Drivers/STM32F0xx_HAL_Driver/Inc/stm32f0xx_ll_tim.h **** /**
 606:Drivers/STM32F0xx_HAL_Driver/Inc/stm32f0xx_ll_tim.h ****   * @}
 607:Drivers/STM32F0xx_HAL_Driver/Inc/stm32f0xx_ll_tim.h ****   */
 608:Drivers/STM32F0xx_HAL_Driver/Inc/stm32f0xx_ll_tim.h **** 
 609:Drivers/STM32F0xx_HAL_Driver/Inc/stm32f0xx_ll_tim.h **** /** @defgroup TIM_LL_EC_LOCKLEVEL Lock Level
 610:Drivers/STM32F0xx_HAL_Driver/Inc/stm32f0xx_ll_tim.h ****   * @{
 611:Drivers/STM32F0xx_HAL_Driver/Inc/stm32f0xx_ll_tim.h ****   */
 612:Drivers/STM32F0xx_HAL_Driver/Inc/stm32f0xx_ll_tim.h **** #define LL_TIM_LOCKLEVEL_OFF                   0x00000000U          /*!< LOCK OFF - No bit is write
 613:Drivers/STM32F0xx_HAL_Driver/Inc/stm32f0xx_ll_tim.h **** #define LL_TIM_LOCKLEVEL_1                     TIM_BDTR_LOCK_0      /*!< LOCK Level 1 */
 614:Drivers/STM32F0xx_HAL_Driver/Inc/stm32f0xx_ll_tim.h **** #define LL_TIM_LOCKLEVEL_2                     TIM_BDTR_LOCK_1      /*!< LOCK Level 2 */
 615:Drivers/STM32F0xx_HAL_Driver/Inc/stm32f0xx_ll_tim.h **** #define LL_TIM_LOCKLEVEL_3                     TIM_BDTR_LOCK        /*!< LOCK Level 3 */
 616:Drivers/STM32F0xx_HAL_Driver/Inc/stm32f0xx_ll_tim.h **** /**
 617:Drivers/STM32F0xx_HAL_Driver/Inc/stm32f0xx_ll_tim.h ****   * @}
 618:Drivers/STM32F0xx_HAL_Driver/Inc/stm32f0xx_ll_tim.h ****   */
 619:Drivers/STM32F0xx_HAL_Driver/Inc/stm32f0xx_ll_tim.h **** 
 620:Drivers/STM32F0xx_HAL_Driver/Inc/stm32f0xx_ll_tim.h **** /** @defgroup TIM_LL_EC_CHANNEL Channel
ARM GAS  C:\Users\ADMINI~1\AppData\Local\Temp\ccNQkssi.s 			page 18


 621:Drivers/STM32F0xx_HAL_Driver/Inc/stm32f0xx_ll_tim.h ****   * @{
 622:Drivers/STM32F0xx_HAL_Driver/Inc/stm32f0xx_ll_tim.h ****   */
 623:Drivers/STM32F0xx_HAL_Driver/Inc/stm32f0xx_ll_tim.h **** #define LL_TIM_CHANNEL_CH1                     TIM_CCER_CC1E     /*!< Timer input/output channel 1 
 624:Drivers/STM32F0xx_HAL_Driver/Inc/stm32f0xx_ll_tim.h **** #define LL_TIM_CHANNEL_CH1N                    TIM_CCER_CC1NE    /*!< Timer complementary output ch
 625:Drivers/STM32F0xx_HAL_Driver/Inc/stm32f0xx_ll_tim.h **** #define LL_TIM_CHANNEL_CH2                     TIM_CCER_CC2E     /*!< Timer input/output channel 2 
 626:Drivers/STM32F0xx_HAL_Driver/Inc/stm32f0xx_ll_tim.h **** #define LL_TIM_CHANNEL_CH2N                    TIM_CCER_CC2NE    /*!< Timer complementary output ch
 627:Drivers/STM32F0xx_HAL_Driver/Inc/stm32f0xx_ll_tim.h **** #define LL_TIM_CHANNEL_CH3                     TIM_CCER_CC3E     /*!< Timer input/output channel 3 
 628:Drivers/STM32F0xx_HAL_Driver/Inc/stm32f0xx_ll_tim.h **** #define LL_TIM_CHANNEL_CH3N                    TIM_CCER_CC3NE    /*!< Timer complementary output ch
 629:Drivers/STM32F0xx_HAL_Driver/Inc/stm32f0xx_ll_tim.h **** #define LL_TIM_CHANNEL_CH4                     TIM_CCER_CC4E     /*!< Timer input/output channel 4 
 630:Drivers/STM32F0xx_HAL_Driver/Inc/stm32f0xx_ll_tim.h **** /**
 631:Drivers/STM32F0xx_HAL_Driver/Inc/stm32f0xx_ll_tim.h ****   * @}
 632:Drivers/STM32F0xx_HAL_Driver/Inc/stm32f0xx_ll_tim.h ****   */
 633:Drivers/STM32F0xx_HAL_Driver/Inc/stm32f0xx_ll_tim.h **** 
 634:Drivers/STM32F0xx_HAL_Driver/Inc/stm32f0xx_ll_tim.h **** #if defined(USE_FULL_LL_DRIVER)
 635:Drivers/STM32F0xx_HAL_Driver/Inc/stm32f0xx_ll_tim.h **** /** @defgroup TIM_LL_EC_OCSTATE Output Configuration State
 636:Drivers/STM32F0xx_HAL_Driver/Inc/stm32f0xx_ll_tim.h ****   * @{
 637:Drivers/STM32F0xx_HAL_Driver/Inc/stm32f0xx_ll_tim.h ****   */
 638:Drivers/STM32F0xx_HAL_Driver/Inc/stm32f0xx_ll_tim.h **** #define LL_TIM_OCSTATE_DISABLE                 0x00000000U             /*!< OCx is not active */
 639:Drivers/STM32F0xx_HAL_Driver/Inc/stm32f0xx_ll_tim.h **** #define LL_TIM_OCSTATE_ENABLE                  TIM_CCER_CC1E           /*!< OCx signal is output on
 640:Drivers/STM32F0xx_HAL_Driver/Inc/stm32f0xx_ll_tim.h **** /**
 641:Drivers/STM32F0xx_HAL_Driver/Inc/stm32f0xx_ll_tim.h ****   * @}
 642:Drivers/STM32F0xx_HAL_Driver/Inc/stm32f0xx_ll_tim.h ****   */
 643:Drivers/STM32F0xx_HAL_Driver/Inc/stm32f0xx_ll_tim.h **** #endif /* USE_FULL_LL_DRIVER */
 644:Drivers/STM32F0xx_HAL_Driver/Inc/stm32f0xx_ll_tim.h **** 
 645:Drivers/STM32F0xx_HAL_Driver/Inc/stm32f0xx_ll_tim.h **** /** @defgroup TIM_LL_EC_OCMODE Output Configuration Mode
 646:Drivers/STM32F0xx_HAL_Driver/Inc/stm32f0xx_ll_tim.h ****   * @{
 647:Drivers/STM32F0xx_HAL_Driver/Inc/stm32f0xx_ll_tim.h ****   */
 648:Drivers/STM32F0xx_HAL_Driver/Inc/stm32f0xx_ll_tim.h **** #define LL_TIM_OCMODE_FROZEN                   0x00000000U                                         
 649:Drivers/STM32F0xx_HAL_Driver/Inc/stm32f0xx_ll_tim.h **** #define LL_TIM_OCMODE_ACTIVE                   TIM_CCMR1_OC1M_0                                    
 650:Drivers/STM32F0xx_HAL_Driver/Inc/stm32f0xx_ll_tim.h **** #define LL_TIM_OCMODE_INACTIVE                 TIM_CCMR1_OC1M_1                                    
 651:Drivers/STM32F0xx_HAL_Driver/Inc/stm32f0xx_ll_tim.h **** #define LL_TIM_OCMODE_TOGGLE                   (TIM_CCMR1_OC1M_1 | TIM_CCMR1_OC1M_0)               
 652:Drivers/STM32F0xx_HAL_Driver/Inc/stm32f0xx_ll_tim.h **** #define LL_TIM_OCMODE_FORCED_INACTIVE          TIM_CCMR1_OC1M_2                                    
 653:Drivers/STM32F0xx_HAL_Driver/Inc/stm32f0xx_ll_tim.h **** #define LL_TIM_OCMODE_FORCED_ACTIVE            (TIM_CCMR1_OC1M_2 | TIM_CCMR1_OC1M_0)               
 654:Drivers/STM32F0xx_HAL_Driver/Inc/stm32f0xx_ll_tim.h **** #define LL_TIM_OCMODE_PWM1                     (TIM_CCMR1_OC1M_2 | TIM_CCMR1_OC1M_1)               
 655:Drivers/STM32F0xx_HAL_Driver/Inc/stm32f0xx_ll_tim.h **** #define LL_TIM_OCMODE_PWM2                     (TIM_CCMR1_OC1M_2 | TIM_CCMR1_OC1M_1 | TIM_CCMR1_OC1
 656:Drivers/STM32F0xx_HAL_Driver/Inc/stm32f0xx_ll_tim.h **** /**
 657:Drivers/STM32F0xx_HAL_Driver/Inc/stm32f0xx_ll_tim.h ****   * @}
 658:Drivers/STM32F0xx_HAL_Driver/Inc/stm32f0xx_ll_tim.h ****   */
 659:Drivers/STM32F0xx_HAL_Driver/Inc/stm32f0xx_ll_tim.h **** 
 660:Drivers/STM32F0xx_HAL_Driver/Inc/stm32f0xx_ll_tim.h **** /** @defgroup TIM_LL_EC_OCPOLARITY Output Configuration Polarity
 661:Drivers/STM32F0xx_HAL_Driver/Inc/stm32f0xx_ll_tim.h ****   * @{
 662:Drivers/STM32F0xx_HAL_Driver/Inc/stm32f0xx_ll_tim.h ****   */
 663:Drivers/STM32F0xx_HAL_Driver/Inc/stm32f0xx_ll_tim.h **** #define LL_TIM_OCPOLARITY_HIGH                 0x00000000U                 /*!< OCxactive high*/
 664:Drivers/STM32F0xx_HAL_Driver/Inc/stm32f0xx_ll_tim.h **** #define LL_TIM_OCPOLARITY_LOW                  TIM_CCER_CC1P               /*!< OCxactive low*/
 665:Drivers/STM32F0xx_HAL_Driver/Inc/stm32f0xx_ll_tim.h **** /**
 666:Drivers/STM32F0xx_HAL_Driver/Inc/stm32f0xx_ll_tim.h ****   * @}
 667:Drivers/STM32F0xx_HAL_Driver/Inc/stm32f0xx_ll_tim.h ****   */
 668:Drivers/STM32F0xx_HAL_Driver/Inc/stm32f0xx_ll_tim.h **** 
 669:Drivers/STM32F0xx_HAL_Driver/Inc/stm32f0xx_ll_tim.h **** /** @defgroup TIM_LL_EC_OCIDLESTATE Output Configuration Idle State
 670:Drivers/STM32F0xx_HAL_Driver/Inc/stm32f0xx_ll_tim.h ****   * @{
 671:Drivers/STM32F0xx_HAL_Driver/Inc/stm32f0xx_ll_tim.h ****   */
 672:Drivers/STM32F0xx_HAL_Driver/Inc/stm32f0xx_ll_tim.h **** #define LL_TIM_OCIDLESTATE_LOW                 0x00000000U             /*!<OCx=0 (after a dead-time
 673:Drivers/STM32F0xx_HAL_Driver/Inc/stm32f0xx_ll_tim.h **** #define LL_TIM_OCIDLESTATE_HIGH                TIM_CR2_OIS1            /*!<OCx=1 (after a dead-time
 674:Drivers/STM32F0xx_HAL_Driver/Inc/stm32f0xx_ll_tim.h **** /**
 675:Drivers/STM32F0xx_HAL_Driver/Inc/stm32f0xx_ll_tim.h ****   * @}
 676:Drivers/STM32F0xx_HAL_Driver/Inc/stm32f0xx_ll_tim.h ****   */
 677:Drivers/STM32F0xx_HAL_Driver/Inc/stm32f0xx_ll_tim.h **** 
ARM GAS  C:\Users\ADMINI~1\AppData\Local\Temp\ccNQkssi.s 			page 19


 678:Drivers/STM32F0xx_HAL_Driver/Inc/stm32f0xx_ll_tim.h **** 
 679:Drivers/STM32F0xx_HAL_Driver/Inc/stm32f0xx_ll_tim.h **** /** @defgroup TIM_LL_EC_ACTIVEINPUT Active Input Selection
 680:Drivers/STM32F0xx_HAL_Driver/Inc/stm32f0xx_ll_tim.h ****   * @{
 681:Drivers/STM32F0xx_HAL_Driver/Inc/stm32f0xx_ll_tim.h ****   */
 682:Drivers/STM32F0xx_HAL_Driver/Inc/stm32f0xx_ll_tim.h **** #define LL_TIM_ACTIVEINPUT_DIRECTTI            (TIM_CCMR1_CC1S_0 << 16U) /*!< ICx is mapped on TIx 
 683:Drivers/STM32F0xx_HAL_Driver/Inc/stm32f0xx_ll_tim.h **** #define LL_TIM_ACTIVEINPUT_INDIRECTTI          (TIM_CCMR1_CC1S_1 << 16U) /*!< ICx is mapped on TIy 
 684:Drivers/STM32F0xx_HAL_Driver/Inc/stm32f0xx_ll_tim.h **** #define LL_TIM_ACTIVEINPUT_TRC                 (TIM_CCMR1_CC1S << 16U)   /*!< ICx is mapped on TRC 
 685:Drivers/STM32F0xx_HAL_Driver/Inc/stm32f0xx_ll_tim.h **** /**
 686:Drivers/STM32F0xx_HAL_Driver/Inc/stm32f0xx_ll_tim.h ****   * @}
 687:Drivers/STM32F0xx_HAL_Driver/Inc/stm32f0xx_ll_tim.h ****   */
 688:Drivers/STM32F0xx_HAL_Driver/Inc/stm32f0xx_ll_tim.h **** 
 689:Drivers/STM32F0xx_HAL_Driver/Inc/stm32f0xx_ll_tim.h **** /** @defgroup TIM_LL_EC_ICPSC Input Configuration Prescaler
 690:Drivers/STM32F0xx_HAL_Driver/Inc/stm32f0xx_ll_tim.h ****   * @{
 691:Drivers/STM32F0xx_HAL_Driver/Inc/stm32f0xx_ll_tim.h ****   */
 692:Drivers/STM32F0xx_HAL_Driver/Inc/stm32f0xx_ll_tim.h **** #define LL_TIM_ICPSC_DIV1                      0x00000000U                    /*!< No prescaler, ca
 693:Drivers/STM32F0xx_HAL_Driver/Inc/stm32f0xx_ll_tim.h **** #define LL_TIM_ICPSC_DIV2                      (TIM_CCMR1_IC1PSC_0 << 16U)    /*!< Capture is done 
 694:Drivers/STM32F0xx_HAL_Driver/Inc/stm32f0xx_ll_tim.h **** #define LL_TIM_ICPSC_DIV4                      (TIM_CCMR1_IC1PSC_1 << 16U)    /*!< Capture is done 
 695:Drivers/STM32F0xx_HAL_Driver/Inc/stm32f0xx_ll_tim.h **** #define LL_TIM_ICPSC_DIV8                      (TIM_CCMR1_IC1PSC << 16U)      /*!< Capture is done 
 696:Drivers/STM32F0xx_HAL_Driver/Inc/stm32f0xx_ll_tim.h **** /**
 697:Drivers/STM32F0xx_HAL_Driver/Inc/stm32f0xx_ll_tim.h ****   * @}
 698:Drivers/STM32F0xx_HAL_Driver/Inc/stm32f0xx_ll_tim.h ****   */
 699:Drivers/STM32F0xx_HAL_Driver/Inc/stm32f0xx_ll_tim.h **** 
 700:Drivers/STM32F0xx_HAL_Driver/Inc/stm32f0xx_ll_tim.h **** /** @defgroup TIM_LL_EC_IC_FILTER Input Configuration Filter
 701:Drivers/STM32F0xx_HAL_Driver/Inc/stm32f0xx_ll_tim.h ****   * @{
 702:Drivers/STM32F0xx_HAL_Driver/Inc/stm32f0xx_ll_tim.h ****   */
 703:Drivers/STM32F0xx_HAL_Driver/Inc/stm32f0xx_ll_tim.h **** #define LL_TIM_IC_FILTER_FDIV1                 0x00000000U                                         
 704:Drivers/STM32F0xx_HAL_Driver/Inc/stm32f0xx_ll_tim.h **** #define LL_TIM_IC_FILTER_FDIV1_N2              (TIM_CCMR1_IC1F_0 << 16U)                           
 705:Drivers/STM32F0xx_HAL_Driver/Inc/stm32f0xx_ll_tim.h **** #define LL_TIM_IC_FILTER_FDIV1_N4              (TIM_CCMR1_IC1F_1 << 16U)                           
 706:Drivers/STM32F0xx_HAL_Driver/Inc/stm32f0xx_ll_tim.h **** #define LL_TIM_IC_FILTER_FDIV1_N8              ((TIM_CCMR1_IC1F_1 | TIM_CCMR1_IC1F_0) << 16U)      
 707:Drivers/STM32F0xx_HAL_Driver/Inc/stm32f0xx_ll_tim.h **** #define LL_TIM_IC_FILTER_FDIV2_N6              (TIM_CCMR1_IC1F_2 << 16U)                           
 708:Drivers/STM32F0xx_HAL_Driver/Inc/stm32f0xx_ll_tim.h **** #define LL_TIM_IC_FILTER_FDIV2_N8              ((TIM_CCMR1_IC1F_2 | TIM_CCMR1_IC1F_0) << 16U)      
 709:Drivers/STM32F0xx_HAL_Driver/Inc/stm32f0xx_ll_tim.h **** #define LL_TIM_IC_FILTER_FDIV4_N6              ((TIM_CCMR1_IC1F_2 | TIM_CCMR1_IC1F_1) << 16U)      
 710:Drivers/STM32F0xx_HAL_Driver/Inc/stm32f0xx_ll_tim.h **** #define LL_TIM_IC_FILTER_FDIV4_N8              ((TIM_CCMR1_IC1F_2 | TIM_CCMR1_IC1F_1 | TIM_CCMR1_IC
 711:Drivers/STM32F0xx_HAL_Driver/Inc/stm32f0xx_ll_tim.h **** #define LL_TIM_IC_FILTER_FDIV8_N6              (TIM_CCMR1_IC1F_3 << 16U)                           
 712:Drivers/STM32F0xx_HAL_Driver/Inc/stm32f0xx_ll_tim.h **** #define LL_TIM_IC_FILTER_FDIV8_N8              ((TIM_CCMR1_IC1F_3 | TIM_CCMR1_IC1F_0) << 16U)      
 713:Drivers/STM32F0xx_HAL_Driver/Inc/stm32f0xx_ll_tim.h **** #define LL_TIM_IC_FILTER_FDIV16_N5             ((TIM_CCMR1_IC1F_3 | TIM_CCMR1_IC1F_1) << 16U)      
 714:Drivers/STM32F0xx_HAL_Driver/Inc/stm32f0xx_ll_tim.h **** #define LL_TIM_IC_FILTER_FDIV16_N6             ((TIM_CCMR1_IC1F_3 | TIM_CCMR1_IC1F_1 | TIM_CCMR1_IC
 715:Drivers/STM32F0xx_HAL_Driver/Inc/stm32f0xx_ll_tim.h **** #define LL_TIM_IC_FILTER_FDIV16_N8             ((TIM_CCMR1_IC1F_3 | TIM_CCMR1_IC1F_2) << 16U)      
 716:Drivers/STM32F0xx_HAL_Driver/Inc/stm32f0xx_ll_tim.h **** #define LL_TIM_IC_FILTER_FDIV32_N5             ((TIM_CCMR1_IC1F_3 | TIM_CCMR1_IC1F_2 | TIM_CCMR1_IC
 717:Drivers/STM32F0xx_HAL_Driver/Inc/stm32f0xx_ll_tim.h **** #define LL_TIM_IC_FILTER_FDIV32_N6             ((TIM_CCMR1_IC1F_3 | TIM_CCMR1_IC1F_2 | TIM_CCMR1_IC
 718:Drivers/STM32F0xx_HAL_Driver/Inc/stm32f0xx_ll_tim.h **** #define LL_TIM_IC_FILTER_FDIV32_N8             (TIM_CCMR1_IC1F << 16U)                             
 719:Drivers/STM32F0xx_HAL_Driver/Inc/stm32f0xx_ll_tim.h **** /**
 720:Drivers/STM32F0xx_HAL_Driver/Inc/stm32f0xx_ll_tim.h ****   * @}
 721:Drivers/STM32F0xx_HAL_Driver/Inc/stm32f0xx_ll_tim.h ****   */
 722:Drivers/STM32F0xx_HAL_Driver/Inc/stm32f0xx_ll_tim.h **** 
 723:Drivers/STM32F0xx_HAL_Driver/Inc/stm32f0xx_ll_tim.h **** /** @defgroup TIM_LL_EC_IC_POLARITY Input Configuration Polarity
 724:Drivers/STM32F0xx_HAL_Driver/Inc/stm32f0xx_ll_tim.h ****   * @{
 725:Drivers/STM32F0xx_HAL_Driver/Inc/stm32f0xx_ll_tim.h ****   */
 726:Drivers/STM32F0xx_HAL_Driver/Inc/stm32f0xx_ll_tim.h **** #define LL_TIM_IC_POLARITY_RISING              0x00000000U                      /*!< The circuit is
 727:Drivers/STM32F0xx_HAL_Driver/Inc/stm32f0xx_ll_tim.h **** #define LL_TIM_IC_POLARITY_FALLING             TIM_CCER_CC1P                    /*!< The circuit is
 728:Drivers/STM32F0xx_HAL_Driver/Inc/stm32f0xx_ll_tim.h **** #define LL_TIM_IC_POLARITY_BOTHEDGE            (TIM_CCER_CC1P | TIM_CCER_CC1NP) /*!< The circuit is
 729:Drivers/STM32F0xx_HAL_Driver/Inc/stm32f0xx_ll_tim.h **** /**
 730:Drivers/STM32F0xx_HAL_Driver/Inc/stm32f0xx_ll_tim.h ****   * @}
 731:Drivers/STM32F0xx_HAL_Driver/Inc/stm32f0xx_ll_tim.h ****   */
 732:Drivers/STM32F0xx_HAL_Driver/Inc/stm32f0xx_ll_tim.h **** 
 733:Drivers/STM32F0xx_HAL_Driver/Inc/stm32f0xx_ll_tim.h **** /** @defgroup TIM_LL_EC_CLOCKSOURCE Clock Source
 734:Drivers/STM32F0xx_HAL_Driver/Inc/stm32f0xx_ll_tim.h ****   * @{
ARM GAS  C:\Users\ADMINI~1\AppData\Local\Temp\ccNQkssi.s 			page 20


 735:Drivers/STM32F0xx_HAL_Driver/Inc/stm32f0xx_ll_tim.h ****   */
 736:Drivers/STM32F0xx_HAL_Driver/Inc/stm32f0xx_ll_tim.h **** #define LL_TIM_CLOCKSOURCE_INTERNAL            0x00000000U                                         
 737:Drivers/STM32F0xx_HAL_Driver/Inc/stm32f0xx_ll_tim.h **** #define LL_TIM_CLOCKSOURCE_EXT_MODE1           (TIM_SMCR_SMS_2 | TIM_SMCR_SMS_1 | TIM_SMCR_SMS_0)  
 738:Drivers/STM32F0xx_HAL_Driver/Inc/stm32f0xx_ll_tim.h **** #define LL_TIM_CLOCKSOURCE_EXT_MODE2           TIM_SMCR_ECE                                        
 739:Drivers/STM32F0xx_HAL_Driver/Inc/stm32f0xx_ll_tim.h **** /**
 740:Drivers/STM32F0xx_HAL_Driver/Inc/stm32f0xx_ll_tim.h ****   * @}
 741:Drivers/STM32F0xx_HAL_Driver/Inc/stm32f0xx_ll_tim.h ****   */
 742:Drivers/STM32F0xx_HAL_Driver/Inc/stm32f0xx_ll_tim.h **** 
 743:Drivers/STM32F0xx_HAL_Driver/Inc/stm32f0xx_ll_tim.h **** /** @defgroup TIM_LL_EC_ENCODERMODE Encoder Mode
 744:Drivers/STM32F0xx_HAL_Driver/Inc/stm32f0xx_ll_tim.h ****   * @{
 745:Drivers/STM32F0xx_HAL_Driver/Inc/stm32f0xx_ll_tim.h ****   */
 746:Drivers/STM32F0xx_HAL_Driver/Inc/stm32f0xx_ll_tim.h **** #define LL_TIM_ENCODERMODE_X2_TI1                     TIM_SMCR_SMS_0                               
 747:Drivers/STM32F0xx_HAL_Driver/Inc/stm32f0xx_ll_tim.h **** #define LL_TIM_ENCODERMODE_X2_TI2                     TIM_SMCR_SMS_1                               
 748:Drivers/STM32F0xx_HAL_Driver/Inc/stm32f0xx_ll_tim.h **** #define LL_TIM_ENCODERMODE_X4_TI12                   (TIM_SMCR_SMS_1 | TIM_SMCR_SMS_0)             
 749:Drivers/STM32F0xx_HAL_Driver/Inc/stm32f0xx_ll_tim.h **** /**
 750:Drivers/STM32F0xx_HAL_Driver/Inc/stm32f0xx_ll_tim.h ****   * @}
 751:Drivers/STM32F0xx_HAL_Driver/Inc/stm32f0xx_ll_tim.h ****   */
 752:Drivers/STM32F0xx_HAL_Driver/Inc/stm32f0xx_ll_tim.h **** 
 753:Drivers/STM32F0xx_HAL_Driver/Inc/stm32f0xx_ll_tim.h **** /** @defgroup TIM_LL_EC_TRGO Trigger Output
 754:Drivers/STM32F0xx_HAL_Driver/Inc/stm32f0xx_ll_tim.h ****   * @{
 755:Drivers/STM32F0xx_HAL_Driver/Inc/stm32f0xx_ll_tim.h ****   */
 756:Drivers/STM32F0xx_HAL_Driver/Inc/stm32f0xx_ll_tim.h **** #define LL_TIM_TRGO_RESET                      0x00000000U                                     /*!<
 757:Drivers/STM32F0xx_HAL_Driver/Inc/stm32f0xx_ll_tim.h **** #define LL_TIM_TRGO_ENABLE                     TIM_CR2_MMS_0                                   /*!<
 758:Drivers/STM32F0xx_HAL_Driver/Inc/stm32f0xx_ll_tim.h **** #define LL_TIM_TRGO_UPDATE                     TIM_CR2_MMS_1                                   /*!<
 759:Drivers/STM32F0xx_HAL_Driver/Inc/stm32f0xx_ll_tim.h **** #define LL_TIM_TRGO_CC1IF                      (TIM_CR2_MMS_1 | TIM_CR2_MMS_0)                 /*!<
 760:Drivers/STM32F0xx_HAL_Driver/Inc/stm32f0xx_ll_tim.h **** #define LL_TIM_TRGO_OC1REF                     TIM_CR2_MMS_2                                   /*!<
 761:Drivers/STM32F0xx_HAL_Driver/Inc/stm32f0xx_ll_tim.h **** #define LL_TIM_TRGO_OC2REF                     (TIM_CR2_MMS_2 | TIM_CR2_MMS_0)                 /*!<
 762:Drivers/STM32F0xx_HAL_Driver/Inc/stm32f0xx_ll_tim.h **** #define LL_TIM_TRGO_OC3REF                     (TIM_CR2_MMS_2 | TIM_CR2_MMS_1)                 /*!<
 763:Drivers/STM32F0xx_HAL_Driver/Inc/stm32f0xx_ll_tim.h **** #define LL_TIM_TRGO_OC4REF                     (TIM_CR2_MMS_2 | TIM_CR2_MMS_1 | TIM_CR2_MMS_0) /*!<
 764:Drivers/STM32F0xx_HAL_Driver/Inc/stm32f0xx_ll_tim.h **** /**
 765:Drivers/STM32F0xx_HAL_Driver/Inc/stm32f0xx_ll_tim.h ****   * @}
 766:Drivers/STM32F0xx_HAL_Driver/Inc/stm32f0xx_ll_tim.h ****   */
 767:Drivers/STM32F0xx_HAL_Driver/Inc/stm32f0xx_ll_tim.h **** 
 768:Drivers/STM32F0xx_HAL_Driver/Inc/stm32f0xx_ll_tim.h **** 
 769:Drivers/STM32F0xx_HAL_Driver/Inc/stm32f0xx_ll_tim.h **** /** @defgroup TIM_LL_EC_SLAVEMODE Slave Mode
 770:Drivers/STM32F0xx_HAL_Driver/Inc/stm32f0xx_ll_tim.h ****   * @{
 771:Drivers/STM32F0xx_HAL_Driver/Inc/stm32f0xx_ll_tim.h ****   */
 772:Drivers/STM32F0xx_HAL_Driver/Inc/stm32f0xx_ll_tim.h **** #define LL_TIM_SLAVEMODE_DISABLED              0x00000000U                         /*!< Slave mode 
 773:Drivers/STM32F0xx_HAL_Driver/Inc/stm32f0xx_ll_tim.h **** #define LL_TIM_SLAVEMODE_RESET                 TIM_SMCR_SMS_2                      /*!< Reset Mode 
 774:Drivers/STM32F0xx_HAL_Driver/Inc/stm32f0xx_ll_tim.h **** #define LL_TIM_SLAVEMODE_GATED                 (TIM_SMCR_SMS_2 | TIM_SMCR_SMS_0)   /*!< Gated Mode 
 775:Drivers/STM32F0xx_HAL_Driver/Inc/stm32f0xx_ll_tim.h **** #define LL_TIM_SLAVEMODE_TRIGGER               (TIM_SMCR_SMS_2 | TIM_SMCR_SMS_1)   /*!< Trigger Mod
 776:Drivers/STM32F0xx_HAL_Driver/Inc/stm32f0xx_ll_tim.h **** /**
 777:Drivers/STM32F0xx_HAL_Driver/Inc/stm32f0xx_ll_tim.h ****   * @}
 778:Drivers/STM32F0xx_HAL_Driver/Inc/stm32f0xx_ll_tim.h ****   */
 779:Drivers/STM32F0xx_HAL_Driver/Inc/stm32f0xx_ll_tim.h **** 
 780:Drivers/STM32F0xx_HAL_Driver/Inc/stm32f0xx_ll_tim.h **** /** @defgroup TIM_LL_EC_TS Trigger Selection
 781:Drivers/STM32F0xx_HAL_Driver/Inc/stm32f0xx_ll_tim.h ****   * @{
 782:Drivers/STM32F0xx_HAL_Driver/Inc/stm32f0xx_ll_tim.h ****   */
 783:Drivers/STM32F0xx_HAL_Driver/Inc/stm32f0xx_ll_tim.h **** #define LL_TIM_TS_ITR0                         0x00000000U                                         
 784:Drivers/STM32F0xx_HAL_Driver/Inc/stm32f0xx_ll_tim.h **** #define LL_TIM_TS_ITR1                         TIM_SMCR_TS_0                                       
 785:Drivers/STM32F0xx_HAL_Driver/Inc/stm32f0xx_ll_tim.h **** #define LL_TIM_TS_ITR2                         TIM_SMCR_TS_1                                       
 786:Drivers/STM32F0xx_HAL_Driver/Inc/stm32f0xx_ll_tim.h **** #define LL_TIM_TS_ITR3                         (TIM_SMCR_TS_0 | TIM_SMCR_TS_1)                     
 787:Drivers/STM32F0xx_HAL_Driver/Inc/stm32f0xx_ll_tim.h **** #define LL_TIM_TS_TI1F_ED                      TIM_SMCR_TS_2                                       
 788:Drivers/STM32F0xx_HAL_Driver/Inc/stm32f0xx_ll_tim.h **** #define LL_TIM_TS_TI1FP1                       (TIM_SMCR_TS_2 | TIM_SMCR_TS_0)                     
 789:Drivers/STM32F0xx_HAL_Driver/Inc/stm32f0xx_ll_tim.h **** #define LL_TIM_TS_TI2FP2                       (TIM_SMCR_TS_2 | TIM_SMCR_TS_1)                     
 790:Drivers/STM32F0xx_HAL_Driver/Inc/stm32f0xx_ll_tim.h **** #define LL_TIM_TS_ETRF                         (TIM_SMCR_TS_2 | TIM_SMCR_TS_1 | TIM_SMCR_TS_0)     
 791:Drivers/STM32F0xx_HAL_Driver/Inc/stm32f0xx_ll_tim.h **** /**
ARM GAS  C:\Users\ADMINI~1\AppData\Local\Temp\ccNQkssi.s 			page 21


 792:Drivers/STM32F0xx_HAL_Driver/Inc/stm32f0xx_ll_tim.h ****   * @}
 793:Drivers/STM32F0xx_HAL_Driver/Inc/stm32f0xx_ll_tim.h ****   */
 794:Drivers/STM32F0xx_HAL_Driver/Inc/stm32f0xx_ll_tim.h **** 
 795:Drivers/STM32F0xx_HAL_Driver/Inc/stm32f0xx_ll_tim.h **** /** @defgroup TIM_LL_EC_ETR_POLARITY External Trigger Polarity
 796:Drivers/STM32F0xx_HAL_Driver/Inc/stm32f0xx_ll_tim.h ****   * @{
 797:Drivers/STM32F0xx_HAL_Driver/Inc/stm32f0xx_ll_tim.h ****   */
 798:Drivers/STM32F0xx_HAL_Driver/Inc/stm32f0xx_ll_tim.h **** #define LL_TIM_ETR_POLARITY_NONINVERTED        0x00000000U             /*!< ETR is non-inverted, ac
 799:Drivers/STM32F0xx_HAL_Driver/Inc/stm32f0xx_ll_tim.h **** #define LL_TIM_ETR_POLARITY_INVERTED           TIM_SMCR_ETP            /*!< ETR is inverted, active
 800:Drivers/STM32F0xx_HAL_Driver/Inc/stm32f0xx_ll_tim.h **** /**
 801:Drivers/STM32F0xx_HAL_Driver/Inc/stm32f0xx_ll_tim.h ****   * @}
 802:Drivers/STM32F0xx_HAL_Driver/Inc/stm32f0xx_ll_tim.h ****   */
 803:Drivers/STM32F0xx_HAL_Driver/Inc/stm32f0xx_ll_tim.h **** 
 804:Drivers/STM32F0xx_HAL_Driver/Inc/stm32f0xx_ll_tim.h **** /** @defgroup TIM_LL_EC_ETR_PRESCALER External Trigger Prescaler
 805:Drivers/STM32F0xx_HAL_Driver/Inc/stm32f0xx_ll_tim.h ****   * @{
 806:Drivers/STM32F0xx_HAL_Driver/Inc/stm32f0xx_ll_tim.h ****   */
 807:Drivers/STM32F0xx_HAL_Driver/Inc/stm32f0xx_ll_tim.h **** #define LL_TIM_ETR_PRESCALER_DIV1              0x00000000U             /*!< ETR prescaler OFF */
 808:Drivers/STM32F0xx_HAL_Driver/Inc/stm32f0xx_ll_tim.h **** #define LL_TIM_ETR_PRESCALER_DIV2              TIM_SMCR_ETPS_0         /*!< ETR frequency is divide
 809:Drivers/STM32F0xx_HAL_Driver/Inc/stm32f0xx_ll_tim.h **** #define LL_TIM_ETR_PRESCALER_DIV4              TIM_SMCR_ETPS_1         /*!< ETR frequency is divide
 810:Drivers/STM32F0xx_HAL_Driver/Inc/stm32f0xx_ll_tim.h **** #define LL_TIM_ETR_PRESCALER_DIV8              TIM_SMCR_ETPS           /*!< ETR frequency is divide
 811:Drivers/STM32F0xx_HAL_Driver/Inc/stm32f0xx_ll_tim.h **** /**
 812:Drivers/STM32F0xx_HAL_Driver/Inc/stm32f0xx_ll_tim.h ****   * @}
 813:Drivers/STM32F0xx_HAL_Driver/Inc/stm32f0xx_ll_tim.h ****   */
 814:Drivers/STM32F0xx_HAL_Driver/Inc/stm32f0xx_ll_tim.h **** 
 815:Drivers/STM32F0xx_HAL_Driver/Inc/stm32f0xx_ll_tim.h **** /** @defgroup TIM_LL_EC_ETR_FILTER External Trigger Filter
 816:Drivers/STM32F0xx_HAL_Driver/Inc/stm32f0xx_ll_tim.h ****   * @{
 817:Drivers/STM32F0xx_HAL_Driver/Inc/stm32f0xx_ll_tim.h ****   */
 818:Drivers/STM32F0xx_HAL_Driver/Inc/stm32f0xx_ll_tim.h **** #define LL_TIM_ETR_FILTER_FDIV1                0x00000000U                                         
 819:Drivers/STM32F0xx_HAL_Driver/Inc/stm32f0xx_ll_tim.h **** #define LL_TIM_ETR_FILTER_FDIV1_N2             TIM_SMCR_ETF_0                                      
 820:Drivers/STM32F0xx_HAL_Driver/Inc/stm32f0xx_ll_tim.h **** #define LL_TIM_ETR_FILTER_FDIV1_N4             TIM_SMCR_ETF_1                                      
 821:Drivers/STM32F0xx_HAL_Driver/Inc/stm32f0xx_ll_tim.h **** #define LL_TIM_ETR_FILTER_FDIV1_N8             (TIM_SMCR_ETF_1 | TIM_SMCR_ETF_0)                   
 822:Drivers/STM32F0xx_HAL_Driver/Inc/stm32f0xx_ll_tim.h **** #define LL_TIM_ETR_FILTER_FDIV2_N6             TIM_SMCR_ETF_2                                      
 823:Drivers/STM32F0xx_HAL_Driver/Inc/stm32f0xx_ll_tim.h **** #define LL_TIM_ETR_FILTER_FDIV2_N8             (TIM_SMCR_ETF_2 | TIM_SMCR_ETF_0)                   
 824:Drivers/STM32F0xx_HAL_Driver/Inc/stm32f0xx_ll_tim.h **** #define LL_TIM_ETR_FILTER_FDIV4_N6             (TIM_SMCR_ETF_2 | TIM_SMCR_ETF_1)                   
 825:Drivers/STM32F0xx_HAL_Driver/Inc/stm32f0xx_ll_tim.h **** #define LL_TIM_ETR_FILTER_FDIV4_N8             (TIM_SMCR_ETF_2 | TIM_SMCR_ETF_1 | TIM_SMCR_ETF_0)  
 826:Drivers/STM32F0xx_HAL_Driver/Inc/stm32f0xx_ll_tim.h **** #define LL_TIM_ETR_FILTER_FDIV8_N6             TIM_SMCR_ETF_3                                      
 827:Drivers/STM32F0xx_HAL_Driver/Inc/stm32f0xx_ll_tim.h **** #define LL_TIM_ETR_FILTER_FDIV8_N8             (TIM_SMCR_ETF_3 | TIM_SMCR_ETF_0)                   
 828:Drivers/STM32F0xx_HAL_Driver/Inc/stm32f0xx_ll_tim.h **** #define LL_TIM_ETR_FILTER_FDIV16_N5            (TIM_SMCR_ETF_3 | TIM_SMCR_ETF_1)                   
 829:Drivers/STM32F0xx_HAL_Driver/Inc/stm32f0xx_ll_tim.h **** #define LL_TIM_ETR_FILTER_FDIV16_N6            (TIM_SMCR_ETF_3 | TIM_SMCR_ETF_1 | TIM_SMCR_ETF_0)  
 830:Drivers/STM32F0xx_HAL_Driver/Inc/stm32f0xx_ll_tim.h **** #define LL_TIM_ETR_FILTER_FDIV16_N8            (TIM_SMCR_ETF_3 | TIM_SMCR_ETF_2)                   
 831:Drivers/STM32F0xx_HAL_Driver/Inc/stm32f0xx_ll_tim.h **** #define LL_TIM_ETR_FILTER_FDIV32_N5            (TIM_SMCR_ETF_3 | TIM_SMCR_ETF_2 | TIM_SMCR_ETF_0)  
 832:Drivers/STM32F0xx_HAL_Driver/Inc/stm32f0xx_ll_tim.h **** #define LL_TIM_ETR_FILTER_FDIV32_N6            (TIM_SMCR_ETF_3 | TIM_SMCR_ETF_2 | TIM_SMCR_ETF_1)  
 833:Drivers/STM32F0xx_HAL_Driver/Inc/stm32f0xx_ll_tim.h **** #define LL_TIM_ETR_FILTER_FDIV32_N8            TIM_SMCR_ETF                                        
 834:Drivers/STM32F0xx_HAL_Driver/Inc/stm32f0xx_ll_tim.h **** /**
 835:Drivers/STM32F0xx_HAL_Driver/Inc/stm32f0xx_ll_tim.h ****   * @}
 836:Drivers/STM32F0xx_HAL_Driver/Inc/stm32f0xx_ll_tim.h ****   */
 837:Drivers/STM32F0xx_HAL_Driver/Inc/stm32f0xx_ll_tim.h **** 
 838:Drivers/STM32F0xx_HAL_Driver/Inc/stm32f0xx_ll_tim.h **** 
 839:Drivers/STM32F0xx_HAL_Driver/Inc/stm32f0xx_ll_tim.h **** /** @defgroup TIM_LL_EC_BREAK_POLARITY break polarity
 840:Drivers/STM32F0xx_HAL_Driver/Inc/stm32f0xx_ll_tim.h ****   * @{
 841:Drivers/STM32F0xx_HAL_Driver/Inc/stm32f0xx_ll_tim.h ****   */
 842:Drivers/STM32F0xx_HAL_Driver/Inc/stm32f0xx_ll_tim.h **** #define LL_TIM_BREAK_POLARITY_LOW              0x00000000U               /*!< Break input BRK is ac
 843:Drivers/STM32F0xx_HAL_Driver/Inc/stm32f0xx_ll_tim.h **** #define LL_TIM_BREAK_POLARITY_HIGH             TIM_BDTR_BKP              /*!< Break input BRK is ac
 844:Drivers/STM32F0xx_HAL_Driver/Inc/stm32f0xx_ll_tim.h **** /**
 845:Drivers/STM32F0xx_HAL_Driver/Inc/stm32f0xx_ll_tim.h ****   * @}
 846:Drivers/STM32F0xx_HAL_Driver/Inc/stm32f0xx_ll_tim.h ****   */
 847:Drivers/STM32F0xx_HAL_Driver/Inc/stm32f0xx_ll_tim.h **** 
 848:Drivers/STM32F0xx_HAL_Driver/Inc/stm32f0xx_ll_tim.h **** 
ARM GAS  C:\Users\ADMINI~1\AppData\Local\Temp\ccNQkssi.s 			page 22


 849:Drivers/STM32F0xx_HAL_Driver/Inc/stm32f0xx_ll_tim.h **** 
 850:Drivers/STM32F0xx_HAL_Driver/Inc/stm32f0xx_ll_tim.h **** 
 851:Drivers/STM32F0xx_HAL_Driver/Inc/stm32f0xx_ll_tim.h **** /** @defgroup TIM_LL_EC_OSSI OSSI
 852:Drivers/STM32F0xx_HAL_Driver/Inc/stm32f0xx_ll_tim.h ****   * @{
 853:Drivers/STM32F0xx_HAL_Driver/Inc/stm32f0xx_ll_tim.h ****   */
 854:Drivers/STM32F0xx_HAL_Driver/Inc/stm32f0xx_ll_tim.h **** #define LL_TIM_OSSI_DISABLE                    0x00000000U             /*!< When inactive, OCx/OCxN
 855:Drivers/STM32F0xx_HAL_Driver/Inc/stm32f0xx_ll_tim.h **** #define LL_TIM_OSSI_ENABLE                     TIM_BDTR_OSSI           /*!< When inactive, OxC/OCxN
 856:Drivers/STM32F0xx_HAL_Driver/Inc/stm32f0xx_ll_tim.h **** /**
 857:Drivers/STM32F0xx_HAL_Driver/Inc/stm32f0xx_ll_tim.h ****   * @}
 858:Drivers/STM32F0xx_HAL_Driver/Inc/stm32f0xx_ll_tim.h ****   */
 859:Drivers/STM32F0xx_HAL_Driver/Inc/stm32f0xx_ll_tim.h **** 
 860:Drivers/STM32F0xx_HAL_Driver/Inc/stm32f0xx_ll_tim.h **** /** @defgroup TIM_LL_EC_OSSR OSSR
 861:Drivers/STM32F0xx_HAL_Driver/Inc/stm32f0xx_ll_tim.h ****   * @{
 862:Drivers/STM32F0xx_HAL_Driver/Inc/stm32f0xx_ll_tim.h ****   */
 863:Drivers/STM32F0xx_HAL_Driver/Inc/stm32f0xx_ll_tim.h **** #define LL_TIM_OSSR_DISABLE                    0x00000000U             /*!< When inactive, OCx/OCxN
 864:Drivers/STM32F0xx_HAL_Driver/Inc/stm32f0xx_ll_tim.h **** #define LL_TIM_OSSR_ENABLE                     TIM_BDTR_OSSR           /*!< When inactive, OC/OCN o
 865:Drivers/STM32F0xx_HAL_Driver/Inc/stm32f0xx_ll_tim.h **** /**
 866:Drivers/STM32F0xx_HAL_Driver/Inc/stm32f0xx_ll_tim.h ****   * @}
 867:Drivers/STM32F0xx_HAL_Driver/Inc/stm32f0xx_ll_tim.h ****   */
 868:Drivers/STM32F0xx_HAL_Driver/Inc/stm32f0xx_ll_tim.h **** 
 869:Drivers/STM32F0xx_HAL_Driver/Inc/stm32f0xx_ll_tim.h **** 
 870:Drivers/STM32F0xx_HAL_Driver/Inc/stm32f0xx_ll_tim.h **** /** @defgroup TIM_LL_EC_DMABURST_BASEADDR DMA Burst Base Address
 871:Drivers/STM32F0xx_HAL_Driver/Inc/stm32f0xx_ll_tim.h ****   * @{
 872:Drivers/STM32F0xx_HAL_Driver/Inc/stm32f0xx_ll_tim.h ****   */
 873:Drivers/STM32F0xx_HAL_Driver/Inc/stm32f0xx_ll_tim.h **** #define LL_TIM_DMABURST_BASEADDR_CR1           0x00000000U                                         
 874:Drivers/STM32F0xx_HAL_Driver/Inc/stm32f0xx_ll_tim.h **** #define LL_TIM_DMABURST_BASEADDR_CR2           TIM_DCR_DBA_0                                       
 875:Drivers/STM32F0xx_HAL_Driver/Inc/stm32f0xx_ll_tim.h **** #define LL_TIM_DMABURST_BASEADDR_SMCR          TIM_DCR_DBA_1                                       
 876:Drivers/STM32F0xx_HAL_Driver/Inc/stm32f0xx_ll_tim.h **** #define LL_TIM_DMABURST_BASEADDR_DIER          (TIM_DCR_DBA_1 |  TIM_DCR_DBA_0)                    
 877:Drivers/STM32F0xx_HAL_Driver/Inc/stm32f0xx_ll_tim.h **** #define LL_TIM_DMABURST_BASEADDR_SR            TIM_DCR_DBA_2                                       
 878:Drivers/STM32F0xx_HAL_Driver/Inc/stm32f0xx_ll_tim.h **** #define LL_TIM_DMABURST_BASEADDR_EGR           (TIM_DCR_DBA_2 | TIM_DCR_DBA_0)                     
 879:Drivers/STM32F0xx_HAL_Driver/Inc/stm32f0xx_ll_tim.h **** #define LL_TIM_DMABURST_BASEADDR_CCMR1         (TIM_DCR_DBA_2 | TIM_DCR_DBA_1)                     
 880:Drivers/STM32F0xx_HAL_Driver/Inc/stm32f0xx_ll_tim.h **** #define LL_TIM_DMABURST_BASEADDR_CCMR2         (TIM_DCR_DBA_2 | TIM_DCR_DBA_1 | TIM_DCR_DBA_0)     
 881:Drivers/STM32F0xx_HAL_Driver/Inc/stm32f0xx_ll_tim.h **** #define LL_TIM_DMABURST_BASEADDR_CCER          TIM_DCR_DBA_3                                       
 882:Drivers/STM32F0xx_HAL_Driver/Inc/stm32f0xx_ll_tim.h **** #define LL_TIM_DMABURST_BASEADDR_CNT           (TIM_DCR_DBA_3 | TIM_DCR_DBA_0)                     
 883:Drivers/STM32F0xx_HAL_Driver/Inc/stm32f0xx_ll_tim.h **** #define LL_TIM_DMABURST_BASEADDR_PSC           (TIM_DCR_DBA_3 | TIM_DCR_DBA_1)                     
 884:Drivers/STM32F0xx_HAL_Driver/Inc/stm32f0xx_ll_tim.h **** #define LL_TIM_DMABURST_BASEADDR_ARR           (TIM_DCR_DBA_3 | TIM_DCR_DBA_1 | TIM_DCR_DBA_0)     
 885:Drivers/STM32F0xx_HAL_Driver/Inc/stm32f0xx_ll_tim.h **** #define LL_TIM_DMABURST_BASEADDR_RCR           (TIM_DCR_DBA_3 | TIM_DCR_DBA_2)                     
 886:Drivers/STM32F0xx_HAL_Driver/Inc/stm32f0xx_ll_tim.h **** #define LL_TIM_DMABURST_BASEADDR_CCR1          (TIM_DCR_DBA_3 | TIM_DCR_DBA_2 | TIM_DCR_DBA_0)     
 887:Drivers/STM32F0xx_HAL_Driver/Inc/stm32f0xx_ll_tim.h **** #define LL_TIM_DMABURST_BASEADDR_CCR2          (TIM_DCR_DBA_3 | TIM_DCR_DBA_2 | TIM_DCR_DBA_1)     
 888:Drivers/STM32F0xx_HAL_Driver/Inc/stm32f0xx_ll_tim.h **** #define LL_TIM_DMABURST_BASEADDR_CCR3          (TIM_DCR_DBA_3 | TIM_DCR_DBA_2 | TIM_DCR_DBA_1 | TIM
 889:Drivers/STM32F0xx_HAL_Driver/Inc/stm32f0xx_ll_tim.h **** #define LL_TIM_DMABURST_BASEADDR_CCR4          TIM_DCR_DBA_4                                       
 890:Drivers/STM32F0xx_HAL_Driver/Inc/stm32f0xx_ll_tim.h **** #define LL_TIM_DMABURST_BASEADDR_BDTR          (TIM_DCR_DBA_4 | TIM_DCR_DBA_0)                     
 891:Drivers/STM32F0xx_HAL_Driver/Inc/stm32f0xx_ll_tim.h **** /**
 892:Drivers/STM32F0xx_HAL_Driver/Inc/stm32f0xx_ll_tim.h ****   * @}
 893:Drivers/STM32F0xx_HAL_Driver/Inc/stm32f0xx_ll_tim.h ****   */
 894:Drivers/STM32F0xx_HAL_Driver/Inc/stm32f0xx_ll_tim.h **** 
 895:Drivers/STM32F0xx_HAL_Driver/Inc/stm32f0xx_ll_tim.h **** /** @defgroup TIM_LL_EC_DMABURST_LENGTH DMA Burst Length
 896:Drivers/STM32F0xx_HAL_Driver/Inc/stm32f0xx_ll_tim.h ****   * @{
 897:Drivers/STM32F0xx_HAL_Driver/Inc/stm32f0xx_ll_tim.h ****   */
 898:Drivers/STM32F0xx_HAL_Driver/Inc/stm32f0xx_ll_tim.h **** #define LL_TIM_DMABURST_LENGTH_1TRANSFER       0x00000000U                                         
 899:Drivers/STM32F0xx_HAL_Driver/Inc/stm32f0xx_ll_tim.h **** #define LL_TIM_DMABURST_LENGTH_2TRANSFERS      TIM_DCR_DBL_0                                       
 900:Drivers/STM32F0xx_HAL_Driver/Inc/stm32f0xx_ll_tim.h **** #define LL_TIM_DMABURST_LENGTH_3TRANSFERS      TIM_DCR_DBL_1                                       
 901:Drivers/STM32F0xx_HAL_Driver/Inc/stm32f0xx_ll_tim.h **** #define LL_TIM_DMABURST_LENGTH_4TRANSFERS      (TIM_DCR_DBL_1 |  TIM_DCR_DBL_0)                    
 902:Drivers/STM32F0xx_HAL_Driver/Inc/stm32f0xx_ll_tim.h **** #define LL_TIM_DMABURST_LENGTH_5TRANSFERS      TIM_DCR_DBL_2                                       
 903:Drivers/STM32F0xx_HAL_Driver/Inc/stm32f0xx_ll_tim.h **** #define LL_TIM_DMABURST_LENGTH_6TRANSFERS      (TIM_DCR_DBL_2 | TIM_DCR_DBL_0)                     
 904:Drivers/STM32F0xx_HAL_Driver/Inc/stm32f0xx_ll_tim.h **** #define LL_TIM_DMABURST_LENGTH_7TRANSFERS      (TIM_DCR_DBL_2 | TIM_DCR_DBL_1)                     
 905:Drivers/STM32F0xx_HAL_Driver/Inc/stm32f0xx_ll_tim.h **** #define LL_TIM_DMABURST_LENGTH_8TRANSFERS      (TIM_DCR_DBL_2 | TIM_DCR_DBL_1 | TIM_DCR_DBL_0)     
ARM GAS  C:\Users\ADMINI~1\AppData\Local\Temp\ccNQkssi.s 			page 23


 906:Drivers/STM32F0xx_HAL_Driver/Inc/stm32f0xx_ll_tim.h **** #define LL_TIM_DMABURST_LENGTH_9TRANSFERS      TIM_DCR_DBL_3                                       
 907:Drivers/STM32F0xx_HAL_Driver/Inc/stm32f0xx_ll_tim.h **** #define LL_TIM_DMABURST_LENGTH_10TRANSFERS     (TIM_DCR_DBL_3 | TIM_DCR_DBL_0)                     
 908:Drivers/STM32F0xx_HAL_Driver/Inc/stm32f0xx_ll_tim.h **** #define LL_TIM_DMABURST_LENGTH_11TRANSFERS     (TIM_DCR_DBL_3 | TIM_DCR_DBL_1)                     
 909:Drivers/STM32F0xx_HAL_Driver/Inc/stm32f0xx_ll_tim.h **** #define LL_TIM_DMABURST_LENGTH_12TRANSFERS     (TIM_DCR_DBL_3 | TIM_DCR_DBL_1 | TIM_DCR_DBL_0)     
 910:Drivers/STM32F0xx_HAL_Driver/Inc/stm32f0xx_ll_tim.h **** #define LL_TIM_DMABURST_LENGTH_13TRANSFERS     (TIM_DCR_DBL_3 | TIM_DCR_DBL_2)                     
 911:Drivers/STM32F0xx_HAL_Driver/Inc/stm32f0xx_ll_tim.h **** #define LL_TIM_DMABURST_LENGTH_14TRANSFERS     (TIM_DCR_DBL_3 | TIM_DCR_DBL_2 | TIM_DCR_DBL_0)     
 912:Drivers/STM32F0xx_HAL_Driver/Inc/stm32f0xx_ll_tim.h **** #define LL_TIM_DMABURST_LENGTH_15TRANSFERS     (TIM_DCR_DBL_3 | TIM_DCR_DBL_2 | TIM_DCR_DBL_1)     
 913:Drivers/STM32F0xx_HAL_Driver/Inc/stm32f0xx_ll_tim.h **** #define LL_TIM_DMABURST_LENGTH_16TRANSFERS     (TIM_DCR_DBL_3 | TIM_DCR_DBL_2 | TIM_DCR_DBL_1 | TIM
 914:Drivers/STM32F0xx_HAL_Driver/Inc/stm32f0xx_ll_tim.h **** #define LL_TIM_DMABURST_LENGTH_17TRANSFERS     TIM_DCR_DBL_4                                       
 915:Drivers/STM32F0xx_HAL_Driver/Inc/stm32f0xx_ll_tim.h **** #define LL_TIM_DMABURST_LENGTH_18TRANSFERS     (TIM_DCR_DBL_4 |  TIM_DCR_DBL_0)                    
 916:Drivers/STM32F0xx_HAL_Driver/Inc/stm32f0xx_ll_tim.h **** /**
 917:Drivers/STM32F0xx_HAL_Driver/Inc/stm32f0xx_ll_tim.h ****   * @}
 918:Drivers/STM32F0xx_HAL_Driver/Inc/stm32f0xx_ll_tim.h ****   */
 919:Drivers/STM32F0xx_HAL_Driver/Inc/stm32f0xx_ll_tim.h **** 
 920:Drivers/STM32F0xx_HAL_Driver/Inc/stm32f0xx_ll_tim.h **** 
 921:Drivers/STM32F0xx_HAL_Driver/Inc/stm32f0xx_ll_tim.h **** #define LL_TIM_TIM14_TI1_RMP_GPIO     TIM14_OR_RMP_MASK                                            
 922:Drivers/STM32F0xx_HAL_Driver/Inc/stm32f0xx_ll_tim.h **** #define LL_TIM_TIM14_TI1_RMP_RTC_CLK  (TIM14_OR_TI1_RMP_0  | TIM14_OR_RMP_MASK)                    
 923:Drivers/STM32F0xx_HAL_Driver/Inc/stm32f0xx_ll_tim.h **** #define LL_TIM_TIM14_TI1_RMP_HSE      (TIM14_OR_TI1_RMP_1  | TIM14_OR_RMP_MASK)                    
 924:Drivers/STM32F0xx_HAL_Driver/Inc/stm32f0xx_ll_tim.h **** #define LL_TIM_TIM14_TI1_RMP_MCO      (TIM14_OR_TI1_RMP_0  | TIM14_OR_TI1_RMP_1  | TIM14_OR_RMP_MAS
 925:Drivers/STM32F0xx_HAL_Driver/Inc/stm32f0xx_ll_tim.h **** 
 926:Drivers/STM32F0xx_HAL_Driver/Inc/stm32f0xx_ll_tim.h **** 
 927:Drivers/STM32F0xx_HAL_Driver/Inc/stm32f0xx_ll_tim.h **** /** @defgroup TIM_LL_EC_OCREF_CLR_INT OCREF clear input selection
 928:Drivers/STM32F0xx_HAL_Driver/Inc/stm32f0xx_ll_tim.h ****   * @{
 929:Drivers/STM32F0xx_HAL_Driver/Inc/stm32f0xx_ll_tim.h ****   */
 930:Drivers/STM32F0xx_HAL_Driver/Inc/stm32f0xx_ll_tim.h **** #define LL_TIM_OCREF_CLR_INT_OCREF_CLR     0x00000000U         /*!< OCREF_CLR_INT is connected to t
 931:Drivers/STM32F0xx_HAL_Driver/Inc/stm32f0xx_ll_tim.h **** #define LL_TIM_OCREF_CLR_INT_ETR           TIM_SMCR_OCCS       /*!< OCREF_CLR_INT is connected to E
 932:Drivers/STM32F0xx_HAL_Driver/Inc/stm32f0xx_ll_tim.h **** /**
 933:Drivers/STM32F0xx_HAL_Driver/Inc/stm32f0xx_ll_tim.h ****   * @}
 934:Drivers/STM32F0xx_HAL_Driver/Inc/stm32f0xx_ll_tim.h ****   */
 935:Drivers/STM32F0xx_HAL_Driver/Inc/stm32f0xx_ll_tim.h **** 
 936:Drivers/STM32F0xx_HAL_Driver/Inc/stm32f0xx_ll_tim.h **** /**
 937:Drivers/STM32F0xx_HAL_Driver/Inc/stm32f0xx_ll_tim.h ****   * @}
 938:Drivers/STM32F0xx_HAL_Driver/Inc/stm32f0xx_ll_tim.h ****   */
 939:Drivers/STM32F0xx_HAL_Driver/Inc/stm32f0xx_ll_tim.h **** 
 940:Drivers/STM32F0xx_HAL_Driver/Inc/stm32f0xx_ll_tim.h **** /* Exported macro ------------------------------------------------------------*/
 941:Drivers/STM32F0xx_HAL_Driver/Inc/stm32f0xx_ll_tim.h **** /** @defgroup TIM_LL_Exported_Macros TIM Exported Macros
 942:Drivers/STM32F0xx_HAL_Driver/Inc/stm32f0xx_ll_tim.h ****   * @{
 943:Drivers/STM32F0xx_HAL_Driver/Inc/stm32f0xx_ll_tim.h ****   */
 944:Drivers/STM32F0xx_HAL_Driver/Inc/stm32f0xx_ll_tim.h **** 
 945:Drivers/STM32F0xx_HAL_Driver/Inc/stm32f0xx_ll_tim.h **** /** @defgroup TIM_LL_EM_WRITE_READ Common Write and read registers Macros
 946:Drivers/STM32F0xx_HAL_Driver/Inc/stm32f0xx_ll_tim.h ****   * @{
 947:Drivers/STM32F0xx_HAL_Driver/Inc/stm32f0xx_ll_tim.h ****   */
 948:Drivers/STM32F0xx_HAL_Driver/Inc/stm32f0xx_ll_tim.h **** /**
 949:Drivers/STM32F0xx_HAL_Driver/Inc/stm32f0xx_ll_tim.h ****   * @brief  Write a value in TIM register.
 950:Drivers/STM32F0xx_HAL_Driver/Inc/stm32f0xx_ll_tim.h ****   * @param  __INSTANCE__ TIM Instance
 951:Drivers/STM32F0xx_HAL_Driver/Inc/stm32f0xx_ll_tim.h ****   * @param  __REG__ Register to be written
 952:Drivers/STM32F0xx_HAL_Driver/Inc/stm32f0xx_ll_tim.h ****   * @param  __VALUE__ Value to be written in the register
 953:Drivers/STM32F0xx_HAL_Driver/Inc/stm32f0xx_ll_tim.h ****   * @retval None
 954:Drivers/STM32F0xx_HAL_Driver/Inc/stm32f0xx_ll_tim.h ****   */
 955:Drivers/STM32F0xx_HAL_Driver/Inc/stm32f0xx_ll_tim.h **** #define LL_TIM_WriteReg(__INSTANCE__, __REG__, __VALUE__) WRITE_REG((__INSTANCE__)->__REG__, (__VAL
 956:Drivers/STM32F0xx_HAL_Driver/Inc/stm32f0xx_ll_tim.h **** 
 957:Drivers/STM32F0xx_HAL_Driver/Inc/stm32f0xx_ll_tim.h **** /**
 958:Drivers/STM32F0xx_HAL_Driver/Inc/stm32f0xx_ll_tim.h ****   * @brief  Read a value in TIM register.
 959:Drivers/STM32F0xx_HAL_Driver/Inc/stm32f0xx_ll_tim.h ****   * @param  __INSTANCE__ TIM Instance
 960:Drivers/STM32F0xx_HAL_Driver/Inc/stm32f0xx_ll_tim.h ****   * @param  __REG__ Register to be read
 961:Drivers/STM32F0xx_HAL_Driver/Inc/stm32f0xx_ll_tim.h ****   * @retval Register value
 962:Drivers/STM32F0xx_HAL_Driver/Inc/stm32f0xx_ll_tim.h ****   */
ARM GAS  C:\Users\ADMINI~1\AppData\Local\Temp\ccNQkssi.s 			page 24


 963:Drivers/STM32F0xx_HAL_Driver/Inc/stm32f0xx_ll_tim.h **** #define LL_TIM_ReadReg(__INSTANCE__, __REG__) READ_REG((__INSTANCE__)->__REG__)
 964:Drivers/STM32F0xx_HAL_Driver/Inc/stm32f0xx_ll_tim.h **** /**
 965:Drivers/STM32F0xx_HAL_Driver/Inc/stm32f0xx_ll_tim.h ****   * @}
 966:Drivers/STM32F0xx_HAL_Driver/Inc/stm32f0xx_ll_tim.h ****   */
 967:Drivers/STM32F0xx_HAL_Driver/Inc/stm32f0xx_ll_tim.h **** 
 968:Drivers/STM32F0xx_HAL_Driver/Inc/stm32f0xx_ll_tim.h **** /** @defgroup TIM_LL_EM_Exported_Macros Exported_Macros
 969:Drivers/STM32F0xx_HAL_Driver/Inc/stm32f0xx_ll_tim.h ****   * @{
 970:Drivers/STM32F0xx_HAL_Driver/Inc/stm32f0xx_ll_tim.h ****   */
 971:Drivers/STM32F0xx_HAL_Driver/Inc/stm32f0xx_ll_tim.h **** 
 972:Drivers/STM32F0xx_HAL_Driver/Inc/stm32f0xx_ll_tim.h **** /**
 973:Drivers/STM32F0xx_HAL_Driver/Inc/stm32f0xx_ll_tim.h ****   * @brief  HELPER macro calculating DTG[0:7] in the TIMx_BDTR register to achieve the requested de
 974:Drivers/STM32F0xx_HAL_Driver/Inc/stm32f0xx_ll_tim.h ****   * @note ex: @ref __LL_TIM_CALC_DEADTIME (80000000, @ref LL_TIM_GetClockDivision (), 120);
 975:Drivers/STM32F0xx_HAL_Driver/Inc/stm32f0xx_ll_tim.h ****   * @param  __TIMCLK__ timer input clock frequency (in Hz)
 976:Drivers/STM32F0xx_HAL_Driver/Inc/stm32f0xx_ll_tim.h ****   * @param  __CKD__ This parameter can be one of the following values:
 977:Drivers/STM32F0xx_HAL_Driver/Inc/stm32f0xx_ll_tim.h ****   *         @arg @ref LL_TIM_CLOCKDIVISION_DIV1
 978:Drivers/STM32F0xx_HAL_Driver/Inc/stm32f0xx_ll_tim.h ****   *         @arg @ref LL_TIM_CLOCKDIVISION_DIV2
 979:Drivers/STM32F0xx_HAL_Driver/Inc/stm32f0xx_ll_tim.h ****   *         @arg @ref LL_TIM_CLOCKDIVISION_DIV4
 980:Drivers/STM32F0xx_HAL_Driver/Inc/stm32f0xx_ll_tim.h ****   * @param  __DT__ deadtime duration (in ns)
 981:Drivers/STM32F0xx_HAL_Driver/Inc/stm32f0xx_ll_tim.h ****   * @retval DTG[0:7]
 982:Drivers/STM32F0xx_HAL_Driver/Inc/stm32f0xx_ll_tim.h ****   */
 983:Drivers/STM32F0xx_HAL_Driver/Inc/stm32f0xx_ll_tim.h **** #define __LL_TIM_CALC_DEADTIME(__TIMCLK__, __CKD__, __DT__)  \
 984:Drivers/STM32F0xx_HAL_Driver/Inc/stm32f0xx_ll_tim.h ****   ( (((uint64_t)((__DT__)*1000U)) < ((DT_DELAY_1+1U) * TIM_CALC_DTS((__TIMCLK__), (__CKD__))))    ?
 985:Drivers/STM32F0xx_HAL_Driver/Inc/stm32f0xx_ll_tim.h ****     (uint8_t)(((uint64_t)((__DT__)*1000U) / TIM_CALC_DTS((__TIMCLK__), (__CKD__)))  & DT_DELAY_1) :
 986:Drivers/STM32F0xx_HAL_Driver/Inc/stm32f0xx_ll_tim.h ****     (((uint64_t)((__DT__)*1000U)) < ((64U + (DT_DELAY_2+1U)) * 2U * TIM_CALC_DTS((__TIMCLK__), (__C
 987:Drivers/STM32F0xx_HAL_Driver/Inc/stm32f0xx_ll_tim.h ****     (uint8_t)(DT_RANGE_2 | ((uint8_t)((uint8_t)((((uint64_t)((__DT__)*1000U))/ TIM_CALC_DTS((__TIMC
 988:Drivers/STM32F0xx_HAL_Driver/Inc/stm32f0xx_ll_tim.h ****                                                  (__CKD__))) >> 1U) - (uint8_t) 64) & DT_DELAY_2)) 
 989:Drivers/STM32F0xx_HAL_Driver/Inc/stm32f0xx_ll_tim.h ****     (((uint64_t)((__DT__)*1000U)) < ((32U + (DT_DELAY_3+1U)) * 8U * TIM_CALC_DTS((__TIMCLK__), (__C
 990:Drivers/STM32F0xx_HAL_Driver/Inc/stm32f0xx_ll_tim.h ****     (uint8_t)(DT_RANGE_3 | ((uint8_t)((uint8_t)(((((uint64_t)(__DT__)*1000U))/ TIM_CALC_DTS((__TIMC
 991:Drivers/STM32F0xx_HAL_Driver/Inc/stm32f0xx_ll_tim.h ****                                                  (__CKD__))) >> 3U) - (uint8_t) 32) & DT_DELAY_3)) 
 992:Drivers/STM32F0xx_HAL_Driver/Inc/stm32f0xx_ll_tim.h ****     (((uint64_t)((__DT__)*1000U)) < ((32U + (DT_DELAY_4+1U)) * 16U * TIM_CALC_DTS((__TIMCLK__), (__
 993:Drivers/STM32F0xx_HAL_Driver/Inc/stm32f0xx_ll_tim.h ****     (uint8_t)(DT_RANGE_4 | ((uint8_t)((uint8_t)(((((uint64_t)(__DT__)*1000U))/ TIM_CALC_DTS((__TIMC
 994:Drivers/STM32F0xx_HAL_Driver/Inc/stm32f0xx_ll_tim.h ****                                                  (__CKD__))) >> 4U) - (uint8_t) 32) & DT_DELAY_4)) 
 995:Drivers/STM32F0xx_HAL_Driver/Inc/stm32f0xx_ll_tim.h ****     0U)
 996:Drivers/STM32F0xx_HAL_Driver/Inc/stm32f0xx_ll_tim.h **** 
 997:Drivers/STM32F0xx_HAL_Driver/Inc/stm32f0xx_ll_tim.h **** /**
 998:Drivers/STM32F0xx_HAL_Driver/Inc/stm32f0xx_ll_tim.h ****   * @brief  HELPER macro calculating the prescaler value to achieve the required counter clock freq
 999:Drivers/STM32F0xx_HAL_Driver/Inc/stm32f0xx_ll_tim.h ****   * @note ex: @ref __LL_TIM_CALC_PSC (80000000, 1000000);
1000:Drivers/STM32F0xx_HAL_Driver/Inc/stm32f0xx_ll_tim.h ****   * @param  __TIMCLK__ timer input clock frequency (in Hz)
1001:Drivers/STM32F0xx_HAL_Driver/Inc/stm32f0xx_ll_tim.h ****   * @param  __CNTCLK__ counter clock frequency (in Hz)
1002:Drivers/STM32F0xx_HAL_Driver/Inc/stm32f0xx_ll_tim.h ****   * @retval Prescaler value  (between Min_Data=0 and Max_Data=65535)
1003:Drivers/STM32F0xx_HAL_Driver/Inc/stm32f0xx_ll_tim.h ****   */
1004:Drivers/STM32F0xx_HAL_Driver/Inc/stm32f0xx_ll_tim.h **** #define __LL_TIM_CALC_PSC(__TIMCLK__, __CNTCLK__)   \
1005:Drivers/STM32F0xx_HAL_Driver/Inc/stm32f0xx_ll_tim.h ****   (((__TIMCLK__) >= (__CNTCLK__)) ? (uint32_t)(((__TIMCLK__)/(__CNTCLK__)) - 1U) : 0U)
1006:Drivers/STM32F0xx_HAL_Driver/Inc/stm32f0xx_ll_tim.h **** 
1007:Drivers/STM32F0xx_HAL_Driver/Inc/stm32f0xx_ll_tim.h **** /**
1008:Drivers/STM32F0xx_HAL_Driver/Inc/stm32f0xx_ll_tim.h ****   * @brief  HELPER macro calculating the auto-reload value to achieve the required output signal fr
1009:Drivers/STM32F0xx_HAL_Driver/Inc/stm32f0xx_ll_tim.h ****   * @note ex: @ref __LL_TIM_CALC_ARR (1000000, @ref LL_TIM_GetPrescaler (), 10000);
1010:Drivers/STM32F0xx_HAL_Driver/Inc/stm32f0xx_ll_tim.h ****   * @param  __TIMCLK__ timer input clock frequency (in Hz)
1011:Drivers/STM32F0xx_HAL_Driver/Inc/stm32f0xx_ll_tim.h ****   * @param  __PSC__ prescaler
1012:Drivers/STM32F0xx_HAL_Driver/Inc/stm32f0xx_ll_tim.h ****   * @param  __FREQ__ output signal frequency (in Hz)
1013:Drivers/STM32F0xx_HAL_Driver/Inc/stm32f0xx_ll_tim.h ****   * @retval  Auto-reload value  (between Min_Data=0 and Max_Data=65535)
1014:Drivers/STM32F0xx_HAL_Driver/Inc/stm32f0xx_ll_tim.h ****   */
1015:Drivers/STM32F0xx_HAL_Driver/Inc/stm32f0xx_ll_tim.h **** #define __LL_TIM_CALC_ARR(__TIMCLK__, __PSC__, __FREQ__) \
1016:Drivers/STM32F0xx_HAL_Driver/Inc/stm32f0xx_ll_tim.h ****   ((((__TIMCLK__)/((__PSC__) + 1U)) >= (__FREQ__)) ? (((__TIMCLK__)/((__FREQ__) * ((__PSC__) + 1U))
1017:Drivers/STM32F0xx_HAL_Driver/Inc/stm32f0xx_ll_tim.h **** 
1018:Drivers/STM32F0xx_HAL_Driver/Inc/stm32f0xx_ll_tim.h **** /**
1019:Drivers/STM32F0xx_HAL_Driver/Inc/stm32f0xx_ll_tim.h ****   * @brief  HELPER macro calculating the compare value required to achieve the required timer outpu
ARM GAS  C:\Users\ADMINI~1\AppData\Local\Temp\ccNQkssi.s 			page 25


1020:Drivers/STM32F0xx_HAL_Driver/Inc/stm32f0xx_ll_tim.h ****   *         active/inactive delay.
1021:Drivers/STM32F0xx_HAL_Driver/Inc/stm32f0xx_ll_tim.h ****   * @note ex: @ref __LL_TIM_CALC_DELAY (1000000, @ref LL_TIM_GetPrescaler (), 10);
1022:Drivers/STM32F0xx_HAL_Driver/Inc/stm32f0xx_ll_tim.h ****   * @param  __TIMCLK__ timer input clock frequency (in Hz)
1023:Drivers/STM32F0xx_HAL_Driver/Inc/stm32f0xx_ll_tim.h ****   * @param  __PSC__ prescaler
1024:Drivers/STM32F0xx_HAL_Driver/Inc/stm32f0xx_ll_tim.h ****   * @param  __DELAY__ timer output compare active/inactive delay (in us)
1025:Drivers/STM32F0xx_HAL_Driver/Inc/stm32f0xx_ll_tim.h ****   * @retval Compare value  (between Min_Data=0 and Max_Data=65535)
1026:Drivers/STM32F0xx_HAL_Driver/Inc/stm32f0xx_ll_tim.h ****   */
1027:Drivers/STM32F0xx_HAL_Driver/Inc/stm32f0xx_ll_tim.h **** #define __LL_TIM_CALC_DELAY(__TIMCLK__, __PSC__, __DELAY__)  \
1028:Drivers/STM32F0xx_HAL_Driver/Inc/stm32f0xx_ll_tim.h ****   ((uint32_t)(((uint64_t)(__TIMCLK__) * (uint64_t)(__DELAY__)) \
1029:Drivers/STM32F0xx_HAL_Driver/Inc/stm32f0xx_ll_tim.h ****               / ((uint64_t)1000000U * (uint64_t)((__PSC__) + 1U))))
1030:Drivers/STM32F0xx_HAL_Driver/Inc/stm32f0xx_ll_tim.h **** 
1031:Drivers/STM32F0xx_HAL_Driver/Inc/stm32f0xx_ll_tim.h **** /**
1032:Drivers/STM32F0xx_HAL_Driver/Inc/stm32f0xx_ll_tim.h ****   * @brief  HELPER macro calculating the auto-reload value to achieve the required pulse duration
1033:Drivers/STM32F0xx_HAL_Driver/Inc/stm32f0xx_ll_tim.h ****   *         (when the timer operates in one pulse mode).
1034:Drivers/STM32F0xx_HAL_Driver/Inc/stm32f0xx_ll_tim.h ****   * @note ex: @ref __LL_TIM_CALC_PULSE (1000000, @ref LL_TIM_GetPrescaler (), 10, 20);
1035:Drivers/STM32F0xx_HAL_Driver/Inc/stm32f0xx_ll_tim.h ****   * @param  __TIMCLK__ timer input clock frequency (in Hz)
1036:Drivers/STM32F0xx_HAL_Driver/Inc/stm32f0xx_ll_tim.h ****   * @param  __PSC__ prescaler
1037:Drivers/STM32F0xx_HAL_Driver/Inc/stm32f0xx_ll_tim.h ****   * @param  __DELAY__ timer output compare active/inactive delay (in us)
1038:Drivers/STM32F0xx_HAL_Driver/Inc/stm32f0xx_ll_tim.h ****   * @param  __PULSE__ pulse duration (in us)
1039:Drivers/STM32F0xx_HAL_Driver/Inc/stm32f0xx_ll_tim.h ****   * @retval Auto-reload value  (between Min_Data=0 and Max_Data=65535)
1040:Drivers/STM32F0xx_HAL_Driver/Inc/stm32f0xx_ll_tim.h ****   */
1041:Drivers/STM32F0xx_HAL_Driver/Inc/stm32f0xx_ll_tim.h **** #define __LL_TIM_CALC_PULSE(__TIMCLK__, __PSC__, __DELAY__, __PULSE__)  \
1042:Drivers/STM32F0xx_HAL_Driver/Inc/stm32f0xx_ll_tim.h ****   ((uint32_t)(__LL_TIM_CALC_DELAY((__TIMCLK__), (__PSC__), (__PULSE__)) \
1043:Drivers/STM32F0xx_HAL_Driver/Inc/stm32f0xx_ll_tim.h ****               + __LL_TIM_CALC_DELAY((__TIMCLK__), (__PSC__), (__DELAY__))))
1044:Drivers/STM32F0xx_HAL_Driver/Inc/stm32f0xx_ll_tim.h **** 
1045:Drivers/STM32F0xx_HAL_Driver/Inc/stm32f0xx_ll_tim.h **** /**
1046:Drivers/STM32F0xx_HAL_Driver/Inc/stm32f0xx_ll_tim.h ****   * @brief  HELPER macro retrieving the ratio of the input capture prescaler
1047:Drivers/STM32F0xx_HAL_Driver/Inc/stm32f0xx_ll_tim.h ****   * @note ex: @ref __LL_TIM_GET_ICPSC_RATIO (@ref LL_TIM_IC_GetPrescaler ());
1048:Drivers/STM32F0xx_HAL_Driver/Inc/stm32f0xx_ll_tim.h ****   * @param  __ICPSC__ This parameter can be one of the following values:
1049:Drivers/STM32F0xx_HAL_Driver/Inc/stm32f0xx_ll_tim.h ****   *         @arg @ref LL_TIM_ICPSC_DIV1
1050:Drivers/STM32F0xx_HAL_Driver/Inc/stm32f0xx_ll_tim.h ****   *         @arg @ref LL_TIM_ICPSC_DIV2
1051:Drivers/STM32F0xx_HAL_Driver/Inc/stm32f0xx_ll_tim.h ****   *         @arg @ref LL_TIM_ICPSC_DIV4
1052:Drivers/STM32F0xx_HAL_Driver/Inc/stm32f0xx_ll_tim.h ****   *         @arg @ref LL_TIM_ICPSC_DIV8
1053:Drivers/STM32F0xx_HAL_Driver/Inc/stm32f0xx_ll_tim.h ****   * @retval Input capture prescaler ratio (1, 2, 4 or 8)
1054:Drivers/STM32F0xx_HAL_Driver/Inc/stm32f0xx_ll_tim.h ****   */
1055:Drivers/STM32F0xx_HAL_Driver/Inc/stm32f0xx_ll_tim.h **** #define __LL_TIM_GET_ICPSC_RATIO(__ICPSC__)  \
1056:Drivers/STM32F0xx_HAL_Driver/Inc/stm32f0xx_ll_tim.h ****   ((uint32_t)(0x01U << (((__ICPSC__) >> 16U) >> TIM_CCMR1_IC1PSC_Pos)))
1057:Drivers/STM32F0xx_HAL_Driver/Inc/stm32f0xx_ll_tim.h **** 
1058:Drivers/STM32F0xx_HAL_Driver/Inc/stm32f0xx_ll_tim.h **** 
1059:Drivers/STM32F0xx_HAL_Driver/Inc/stm32f0xx_ll_tim.h **** /**
1060:Drivers/STM32F0xx_HAL_Driver/Inc/stm32f0xx_ll_tim.h ****   * @}
1061:Drivers/STM32F0xx_HAL_Driver/Inc/stm32f0xx_ll_tim.h ****   */
1062:Drivers/STM32F0xx_HAL_Driver/Inc/stm32f0xx_ll_tim.h **** 
1063:Drivers/STM32F0xx_HAL_Driver/Inc/stm32f0xx_ll_tim.h **** 
1064:Drivers/STM32F0xx_HAL_Driver/Inc/stm32f0xx_ll_tim.h **** /**
1065:Drivers/STM32F0xx_HAL_Driver/Inc/stm32f0xx_ll_tim.h ****   * @}
1066:Drivers/STM32F0xx_HAL_Driver/Inc/stm32f0xx_ll_tim.h ****   */
1067:Drivers/STM32F0xx_HAL_Driver/Inc/stm32f0xx_ll_tim.h **** 
1068:Drivers/STM32F0xx_HAL_Driver/Inc/stm32f0xx_ll_tim.h **** /* Exported functions --------------------------------------------------------*/
1069:Drivers/STM32F0xx_HAL_Driver/Inc/stm32f0xx_ll_tim.h **** /** @defgroup TIM_LL_Exported_Functions TIM Exported Functions
1070:Drivers/STM32F0xx_HAL_Driver/Inc/stm32f0xx_ll_tim.h ****   * @{
1071:Drivers/STM32F0xx_HAL_Driver/Inc/stm32f0xx_ll_tim.h ****   */
1072:Drivers/STM32F0xx_HAL_Driver/Inc/stm32f0xx_ll_tim.h **** 
1073:Drivers/STM32F0xx_HAL_Driver/Inc/stm32f0xx_ll_tim.h **** /** @defgroup TIM_LL_EF_Time_Base Time Base configuration
1074:Drivers/STM32F0xx_HAL_Driver/Inc/stm32f0xx_ll_tim.h ****   * @{
1075:Drivers/STM32F0xx_HAL_Driver/Inc/stm32f0xx_ll_tim.h ****   */
1076:Drivers/STM32F0xx_HAL_Driver/Inc/stm32f0xx_ll_tim.h **** /**
ARM GAS  C:\Users\ADMINI~1\AppData\Local\Temp\ccNQkssi.s 			page 26


1077:Drivers/STM32F0xx_HAL_Driver/Inc/stm32f0xx_ll_tim.h ****   * @brief  Enable timer counter.
1078:Drivers/STM32F0xx_HAL_Driver/Inc/stm32f0xx_ll_tim.h ****   * @rmtoll CR1          CEN           LL_TIM_EnableCounter
1079:Drivers/STM32F0xx_HAL_Driver/Inc/stm32f0xx_ll_tim.h ****   * @param  TIMx Timer instance
1080:Drivers/STM32F0xx_HAL_Driver/Inc/stm32f0xx_ll_tim.h ****   * @retval None
1081:Drivers/STM32F0xx_HAL_Driver/Inc/stm32f0xx_ll_tim.h ****   */
1082:Drivers/STM32F0xx_HAL_Driver/Inc/stm32f0xx_ll_tim.h **** __STATIC_INLINE void LL_TIM_EnableCounter(TIM_TypeDef *TIMx)
1083:Drivers/STM32F0xx_HAL_Driver/Inc/stm32f0xx_ll_tim.h **** {
1084:Drivers/STM32F0xx_HAL_Driver/Inc/stm32f0xx_ll_tim.h ****   SET_BIT(TIMx->CR1, TIM_CR1_CEN);
1085:Drivers/STM32F0xx_HAL_Driver/Inc/stm32f0xx_ll_tim.h **** }
1086:Drivers/STM32F0xx_HAL_Driver/Inc/stm32f0xx_ll_tim.h **** 
1087:Drivers/STM32F0xx_HAL_Driver/Inc/stm32f0xx_ll_tim.h **** /**
1088:Drivers/STM32F0xx_HAL_Driver/Inc/stm32f0xx_ll_tim.h ****   * @brief  Disable timer counter.
1089:Drivers/STM32F0xx_HAL_Driver/Inc/stm32f0xx_ll_tim.h ****   * @rmtoll CR1          CEN           LL_TIM_DisableCounter
1090:Drivers/STM32F0xx_HAL_Driver/Inc/stm32f0xx_ll_tim.h ****   * @param  TIMx Timer instance
1091:Drivers/STM32F0xx_HAL_Driver/Inc/stm32f0xx_ll_tim.h ****   * @retval None
1092:Drivers/STM32F0xx_HAL_Driver/Inc/stm32f0xx_ll_tim.h ****   */
1093:Drivers/STM32F0xx_HAL_Driver/Inc/stm32f0xx_ll_tim.h **** __STATIC_INLINE void LL_TIM_DisableCounter(TIM_TypeDef *TIMx)
1094:Drivers/STM32F0xx_HAL_Driver/Inc/stm32f0xx_ll_tim.h **** {
1095:Drivers/STM32F0xx_HAL_Driver/Inc/stm32f0xx_ll_tim.h ****   CLEAR_BIT(TIMx->CR1, TIM_CR1_CEN);
1096:Drivers/STM32F0xx_HAL_Driver/Inc/stm32f0xx_ll_tim.h **** }
1097:Drivers/STM32F0xx_HAL_Driver/Inc/stm32f0xx_ll_tim.h **** 
1098:Drivers/STM32F0xx_HAL_Driver/Inc/stm32f0xx_ll_tim.h **** /**
1099:Drivers/STM32F0xx_HAL_Driver/Inc/stm32f0xx_ll_tim.h ****   * @brief  Indicates whether the timer counter is enabled.
1100:Drivers/STM32F0xx_HAL_Driver/Inc/stm32f0xx_ll_tim.h ****   * @rmtoll CR1          CEN           LL_TIM_IsEnabledCounter
1101:Drivers/STM32F0xx_HAL_Driver/Inc/stm32f0xx_ll_tim.h ****   * @param  TIMx Timer instance
1102:Drivers/STM32F0xx_HAL_Driver/Inc/stm32f0xx_ll_tim.h ****   * @retval State of bit (1 or 0).
1103:Drivers/STM32F0xx_HAL_Driver/Inc/stm32f0xx_ll_tim.h ****   */
1104:Drivers/STM32F0xx_HAL_Driver/Inc/stm32f0xx_ll_tim.h **** __STATIC_INLINE uint32_t LL_TIM_IsEnabledCounter(TIM_TypeDef *TIMx)
1105:Drivers/STM32F0xx_HAL_Driver/Inc/stm32f0xx_ll_tim.h **** {
1106:Drivers/STM32F0xx_HAL_Driver/Inc/stm32f0xx_ll_tim.h ****   return ((READ_BIT(TIMx->CR1, TIM_CR1_CEN) == (TIM_CR1_CEN)) ? 1UL : 0UL);
1107:Drivers/STM32F0xx_HAL_Driver/Inc/stm32f0xx_ll_tim.h **** }
1108:Drivers/STM32F0xx_HAL_Driver/Inc/stm32f0xx_ll_tim.h **** 
1109:Drivers/STM32F0xx_HAL_Driver/Inc/stm32f0xx_ll_tim.h **** /**
1110:Drivers/STM32F0xx_HAL_Driver/Inc/stm32f0xx_ll_tim.h ****   * @brief  Enable update event generation.
1111:Drivers/STM32F0xx_HAL_Driver/Inc/stm32f0xx_ll_tim.h ****   * @rmtoll CR1          UDIS          LL_TIM_EnableUpdateEvent
1112:Drivers/STM32F0xx_HAL_Driver/Inc/stm32f0xx_ll_tim.h ****   * @param  TIMx Timer instance
1113:Drivers/STM32F0xx_HAL_Driver/Inc/stm32f0xx_ll_tim.h ****   * @retval None
1114:Drivers/STM32F0xx_HAL_Driver/Inc/stm32f0xx_ll_tim.h ****   */
1115:Drivers/STM32F0xx_HAL_Driver/Inc/stm32f0xx_ll_tim.h **** __STATIC_INLINE void LL_TIM_EnableUpdateEvent(TIM_TypeDef *TIMx)
1116:Drivers/STM32F0xx_HAL_Driver/Inc/stm32f0xx_ll_tim.h **** {
1117:Drivers/STM32F0xx_HAL_Driver/Inc/stm32f0xx_ll_tim.h ****   CLEAR_BIT(TIMx->CR1, TIM_CR1_UDIS);
1118:Drivers/STM32F0xx_HAL_Driver/Inc/stm32f0xx_ll_tim.h **** }
1119:Drivers/STM32F0xx_HAL_Driver/Inc/stm32f0xx_ll_tim.h **** 
1120:Drivers/STM32F0xx_HAL_Driver/Inc/stm32f0xx_ll_tim.h **** /**
1121:Drivers/STM32F0xx_HAL_Driver/Inc/stm32f0xx_ll_tim.h ****   * @brief  Disable update event generation.
1122:Drivers/STM32F0xx_HAL_Driver/Inc/stm32f0xx_ll_tim.h ****   * @rmtoll CR1          UDIS          LL_TIM_DisableUpdateEvent
1123:Drivers/STM32F0xx_HAL_Driver/Inc/stm32f0xx_ll_tim.h ****   * @param  TIMx Timer instance
1124:Drivers/STM32F0xx_HAL_Driver/Inc/stm32f0xx_ll_tim.h ****   * @retval None
1125:Drivers/STM32F0xx_HAL_Driver/Inc/stm32f0xx_ll_tim.h ****   */
1126:Drivers/STM32F0xx_HAL_Driver/Inc/stm32f0xx_ll_tim.h **** __STATIC_INLINE void LL_TIM_DisableUpdateEvent(TIM_TypeDef *TIMx)
1127:Drivers/STM32F0xx_HAL_Driver/Inc/stm32f0xx_ll_tim.h **** {
1128:Drivers/STM32F0xx_HAL_Driver/Inc/stm32f0xx_ll_tim.h ****   SET_BIT(TIMx->CR1, TIM_CR1_UDIS);
1129:Drivers/STM32F0xx_HAL_Driver/Inc/stm32f0xx_ll_tim.h **** }
1130:Drivers/STM32F0xx_HAL_Driver/Inc/stm32f0xx_ll_tim.h **** 
1131:Drivers/STM32F0xx_HAL_Driver/Inc/stm32f0xx_ll_tim.h **** /**
1132:Drivers/STM32F0xx_HAL_Driver/Inc/stm32f0xx_ll_tim.h ****   * @brief  Indicates whether update event generation is enabled.
1133:Drivers/STM32F0xx_HAL_Driver/Inc/stm32f0xx_ll_tim.h ****   * @rmtoll CR1          UDIS          LL_TIM_IsEnabledUpdateEvent
ARM GAS  C:\Users\ADMINI~1\AppData\Local\Temp\ccNQkssi.s 			page 27


1134:Drivers/STM32F0xx_HAL_Driver/Inc/stm32f0xx_ll_tim.h ****   * @param  TIMx Timer instance
1135:Drivers/STM32F0xx_HAL_Driver/Inc/stm32f0xx_ll_tim.h ****   * @retval Inverted state of bit (0 or 1).
1136:Drivers/STM32F0xx_HAL_Driver/Inc/stm32f0xx_ll_tim.h ****   */
1137:Drivers/STM32F0xx_HAL_Driver/Inc/stm32f0xx_ll_tim.h **** __STATIC_INLINE uint32_t LL_TIM_IsEnabledUpdateEvent(TIM_TypeDef *TIMx)
1138:Drivers/STM32F0xx_HAL_Driver/Inc/stm32f0xx_ll_tim.h **** {
1139:Drivers/STM32F0xx_HAL_Driver/Inc/stm32f0xx_ll_tim.h ****   return ((READ_BIT(TIMx->CR1, TIM_CR1_UDIS) == (uint32_t)RESET) ? 1UL : 0UL);
1140:Drivers/STM32F0xx_HAL_Driver/Inc/stm32f0xx_ll_tim.h **** }
1141:Drivers/STM32F0xx_HAL_Driver/Inc/stm32f0xx_ll_tim.h **** 
1142:Drivers/STM32F0xx_HAL_Driver/Inc/stm32f0xx_ll_tim.h **** /**
1143:Drivers/STM32F0xx_HAL_Driver/Inc/stm32f0xx_ll_tim.h ****   * @brief  Set update event source
1144:Drivers/STM32F0xx_HAL_Driver/Inc/stm32f0xx_ll_tim.h ****   * @note Update event source set to LL_TIM_UPDATESOURCE_REGULAR: any of the following events
1145:Drivers/STM32F0xx_HAL_Driver/Inc/stm32f0xx_ll_tim.h ****   *       generate an update interrupt or DMA request if enabled:
1146:Drivers/STM32F0xx_HAL_Driver/Inc/stm32f0xx_ll_tim.h ****   *        - Counter overflow/underflow
1147:Drivers/STM32F0xx_HAL_Driver/Inc/stm32f0xx_ll_tim.h ****   *        - Setting the UG bit
1148:Drivers/STM32F0xx_HAL_Driver/Inc/stm32f0xx_ll_tim.h ****   *        - Update generation through the slave mode controller
1149:Drivers/STM32F0xx_HAL_Driver/Inc/stm32f0xx_ll_tim.h ****   * @note Update event source set to LL_TIM_UPDATESOURCE_COUNTER: only counter
1150:Drivers/STM32F0xx_HAL_Driver/Inc/stm32f0xx_ll_tim.h ****   *       overflow/underflow generates an update interrupt or DMA request if enabled.
1151:Drivers/STM32F0xx_HAL_Driver/Inc/stm32f0xx_ll_tim.h ****   * @rmtoll CR1          URS           LL_TIM_SetUpdateSource
1152:Drivers/STM32F0xx_HAL_Driver/Inc/stm32f0xx_ll_tim.h ****   * @param  TIMx Timer instance
1153:Drivers/STM32F0xx_HAL_Driver/Inc/stm32f0xx_ll_tim.h ****   * @param  UpdateSource This parameter can be one of the following values:
1154:Drivers/STM32F0xx_HAL_Driver/Inc/stm32f0xx_ll_tim.h ****   *         @arg @ref LL_TIM_UPDATESOURCE_REGULAR
1155:Drivers/STM32F0xx_HAL_Driver/Inc/stm32f0xx_ll_tim.h ****   *         @arg @ref LL_TIM_UPDATESOURCE_COUNTER
1156:Drivers/STM32F0xx_HAL_Driver/Inc/stm32f0xx_ll_tim.h ****   * @retval None
1157:Drivers/STM32F0xx_HAL_Driver/Inc/stm32f0xx_ll_tim.h ****   */
1158:Drivers/STM32F0xx_HAL_Driver/Inc/stm32f0xx_ll_tim.h **** __STATIC_INLINE void LL_TIM_SetUpdateSource(TIM_TypeDef *TIMx, uint32_t UpdateSource)
1159:Drivers/STM32F0xx_HAL_Driver/Inc/stm32f0xx_ll_tim.h **** {
1160:Drivers/STM32F0xx_HAL_Driver/Inc/stm32f0xx_ll_tim.h ****   MODIFY_REG(TIMx->CR1, TIM_CR1_URS, UpdateSource);
1161:Drivers/STM32F0xx_HAL_Driver/Inc/stm32f0xx_ll_tim.h **** }
1162:Drivers/STM32F0xx_HAL_Driver/Inc/stm32f0xx_ll_tim.h **** 
1163:Drivers/STM32F0xx_HAL_Driver/Inc/stm32f0xx_ll_tim.h **** /**
1164:Drivers/STM32F0xx_HAL_Driver/Inc/stm32f0xx_ll_tim.h ****   * @brief  Get actual event update source
1165:Drivers/STM32F0xx_HAL_Driver/Inc/stm32f0xx_ll_tim.h ****   * @rmtoll CR1          URS           LL_TIM_GetUpdateSource
1166:Drivers/STM32F0xx_HAL_Driver/Inc/stm32f0xx_ll_tim.h ****   * @param  TIMx Timer instance
1167:Drivers/STM32F0xx_HAL_Driver/Inc/stm32f0xx_ll_tim.h ****   * @retval Returned value can be one of the following values:
1168:Drivers/STM32F0xx_HAL_Driver/Inc/stm32f0xx_ll_tim.h ****   *         @arg @ref LL_TIM_UPDATESOURCE_REGULAR
1169:Drivers/STM32F0xx_HAL_Driver/Inc/stm32f0xx_ll_tim.h ****   *         @arg @ref LL_TIM_UPDATESOURCE_COUNTER
1170:Drivers/STM32F0xx_HAL_Driver/Inc/stm32f0xx_ll_tim.h ****   */
1171:Drivers/STM32F0xx_HAL_Driver/Inc/stm32f0xx_ll_tim.h **** __STATIC_INLINE uint32_t LL_TIM_GetUpdateSource(TIM_TypeDef *TIMx)
1172:Drivers/STM32F0xx_HAL_Driver/Inc/stm32f0xx_ll_tim.h **** {
1173:Drivers/STM32F0xx_HAL_Driver/Inc/stm32f0xx_ll_tim.h ****   return (uint32_t)(READ_BIT(TIMx->CR1, TIM_CR1_URS));
1174:Drivers/STM32F0xx_HAL_Driver/Inc/stm32f0xx_ll_tim.h **** }
1175:Drivers/STM32F0xx_HAL_Driver/Inc/stm32f0xx_ll_tim.h **** 
1176:Drivers/STM32F0xx_HAL_Driver/Inc/stm32f0xx_ll_tim.h **** /**
1177:Drivers/STM32F0xx_HAL_Driver/Inc/stm32f0xx_ll_tim.h ****   * @brief  Set one pulse mode (one shot v.s. repetitive).
1178:Drivers/STM32F0xx_HAL_Driver/Inc/stm32f0xx_ll_tim.h ****   * @rmtoll CR1          OPM           LL_TIM_SetOnePulseMode
1179:Drivers/STM32F0xx_HAL_Driver/Inc/stm32f0xx_ll_tim.h ****   * @param  TIMx Timer instance
1180:Drivers/STM32F0xx_HAL_Driver/Inc/stm32f0xx_ll_tim.h ****   * @param  OnePulseMode This parameter can be one of the following values:
1181:Drivers/STM32F0xx_HAL_Driver/Inc/stm32f0xx_ll_tim.h ****   *         @arg @ref LL_TIM_ONEPULSEMODE_SINGLE
1182:Drivers/STM32F0xx_HAL_Driver/Inc/stm32f0xx_ll_tim.h ****   *         @arg @ref LL_TIM_ONEPULSEMODE_REPETITIVE
1183:Drivers/STM32F0xx_HAL_Driver/Inc/stm32f0xx_ll_tim.h ****   * @retval None
1184:Drivers/STM32F0xx_HAL_Driver/Inc/stm32f0xx_ll_tim.h ****   */
1185:Drivers/STM32F0xx_HAL_Driver/Inc/stm32f0xx_ll_tim.h **** __STATIC_INLINE void LL_TIM_SetOnePulseMode(TIM_TypeDef *TIMx, uint32_t OnePulseMode)
1186:Drivers/STM32F0xx_HAL_Driver/Inc/stm32f0xx_ll_tim.h **** {
1187:Drivers/STM32F0xx_HAL_Driver/Inc/stm32f0xx_ll_tim.h ****   MODIFY_REG(TIMx->CR1, TIM_CR1_OPM, OnePulseMode);
1188:Drivers/STM32F0xx_HAL_Driver/Inc/stm32f0xx_ll_tim.h **** }
1189:Drivers/STM32F0xx_HAL_Driver/Inc/stm32f0xx_ll_tim.h **** 
1190:Drivers/STM32F0xx_HAL_Driver/Inc/stm32f0xx_ll_tim.h **** /**
ARM GAS  C:\Users\ADMINI~1\AppData\Local\Temp\ccNQkssi.s 			page 28


1191:Drivers/STM32F0xx_HAL_Driver/Inc/stm32f0xx_ll_tim.h ****   * @brief  Get actual one pulse mode.
1192:Drivers/STM32F0xx_HAL_Driver/Inc/stm32f0xx_ll_tim.h ****   * @rmtoll CR1          OPM           LL_TIM_GetOnePulseMode
1193:Drivers/STM32F0xx_HAL_Driver/Inc/stm32f0xx_ll_tim.h ****   * @param  TIMx Timer instance
1194:Drivers/STM32F0xx_HAL_Driver/Inc/stm32f0xx_ll_tim.h ****   * @retval Returned value can be one of the following values:
1195:Drivers/STM32F0xx_HAL_Driver/Inc/stm32f0xx_ll_tim.h ****   *         @arg @ref LL_TIM_ONEPULSEMODE_SINGLE
1196:Drivers/STM32F0xx_HAL_Driver/Inc/stm32f0xx_ll_tim.h ****   *         @arg @ref LL_TIM_ONEPULSEMODE_REPETITIVE
1197:Drivers/STM32F0xx_HAL_Driver/Inc/stm32f0xx_ll_tim.h ****   */
1198:Drivers/STM32F0xx_HAL_Driver/Inc/stm32f0xx_ll_tim.h **** __STATIC_INLINE uint32_t LL_TIM_GetOnePulseMode(TIM_TypeDef *TIMx)
1199:Drivers/STM32F0xx_HAL_Driver/Inc/stm32f0xx_ll_tim.h **** {
1200:Drivers/STM32F0xx_HAL_Driver/Inc/stm32f0xx_ll_tim.h ****   return (uint32_t)(READ_BIT(TIMx->CR1, TIM_CR1_OPM));
1201:Drivers/STM32F0xx_HAL_Driver/Inc/stm32f0xx_ll_tim.h **** }
1202:Drivers/STM32F0xx_HAL_Driver/Inc/stm32f0xx_ll_tim.h **** 
1203:Drivers/STM32F0xx_HAL_Driver/Inc/stm32f0xx_ll_tim.h **** /**
1204:Drivers/STM32F0xx_HAL_Driver/Inc/stm32f0xx_ll_tim.h ****   * @brief  Set the timer counter counting mode.
1205:Drivers/STM32F0xx_HAL_Driver/Inc/stm32f0xx_ll_tim.h ****   * @note Macro IS_TIM_COUNTER_MODE_SELECT_INSTANCE(TIMx) can be used to
1206:Drivers/STM32F0xx_HAL_Driver/Inc/stm32f0xx_ll_tim.h ****   *       check whether or not the counter mode selection feature is supported
1207:Drivers/STM32F0xx_HAL_Driver/Inc/stm32f0xx_ll_tim.h ****   *       by a timer instance.
1208:Drivers/STM32F0xx_HAL_Driver/Inc/stm32f0xx_ll_tim.h ****   * @note Switching from Center Aligned counter mode to Edge counter mode (or reverse)
1209:Drivers/STM32F0xx_HAL_Driver/Inc/stm32f0xx_ll_tim.h ****   *       requires a timer reset to avoid unexpected direction
1210:Drivers/STM32F0xx_HAL_Driver/Inc/stm32f0xx_ll_tim.h ****   *       due to DIR bit readonly in center aligned mode.
1211:Drivers/STM32F0xx_HAL_Driver/Inc/stm32f0xx_ll_tim.h ****   * @rmtoll CR1          DIR           LL_TIM_SetCounterMode\n
1212:Drivers/STM32F0xx_HAL_Driver/Inc/stm32f0xx_ll_tim.h ****   *         CR1          CMS           LL_TIM_SetCounterMode
1213:Drivers/STM32F0xx_HAL_Driver/Inc/stm32f0xx_ll_tim.h ****   * @param  TIMx Timer instance
1214:Drivers/STM32F0xx_HAL_Driver/Inc/stm32f0xx_ll_tim.h ****   * @param  CounterMode This parameter can be one of the following values:
1215:Drivers/STM32F0xx_HAL_Driver/Inc/stm32f0xx_ll_tim.h ****   *         @arg @ref LL_TIM_COUNTERMODE_UP
1216:Drivers/STM32F0xx_HAL_Driver/Inc/stm32f0xx_ll_tim.h ****   *         @arg @ref LL_TIM_COUNTERMODE_DOWN
1217:Drivers/STM32F0xx_HAL_Driver/Inc/stm32f0xx_ll_tim.h ****   *         @arg @ref LL_TIM_COUNTERMODE_CENTER_UP
1218:Drivers/STM32F0xx_HAL_Driver/Inc/stm32f0xx_ll_tim.h ****   *         @arg @ref LL_TIM_COUNTERMODE_CENTER_DOWN
1219:Drivers/STM32F0xx_HAL_Driver/Inc/stm32f0xx_ll_tim.h ****   *         @arg @ref LL_TIM_COUNTERMODE_CENTER_UP_DOWN
1220:Drivers/STM32F0xx_HAL_Driver/Inc/stm32f0xx_ll_tim.h ****   * @retval None
1221:Drivers/STM32F0xx_HAL_Driver/Inc/stm32f0xx_ll_tim.h ****   */
1222:Drivers/STM32F0xx_HAL_Driver/Inc/stm32f0xx_ll_tim.h **** __STATIC_INLINE void LL_TIM_SetCounterMode(TIM_TypeDef *TIMx, uint32_t CounterMode)
1223:Drivers/STM32F0xx_HAL_Driver/Inc/stm32f0xx_ll_tim.h **** {
1224:Drivers/STM32F0xx_HAL_Driver/Inc/stm32f0xx_ll_tim.h ****   MODIFY_REG(TIMx->CR1, (TIM_CR1_DIR | TIM_CR1_CMS), CounterMode);
1225:Drivers/STM32F0xx_HAL_Driver/Inc/stm32f0xx_ll_tim.h **** }
1226:Drivers/STM32F0xx_HAL_Driver/Inc/stm32f0xx_ll_tim.h **** 
1227:Drivers/STM32F0xx_HAL_Driver/Inc/stm32f0xx_ll_tim.h **** /**
1228:Drivers/STM32F0xx_HAL_Driver/Inc/stm32f0xx_ll_tim.h ****   * @brief  Get actual counter mode.
1229:Drivers/STM32F0xx_HAL_Driver/Inc/stm32f0xx_ll_tim.h ****   * @note Macro IS_TIM_COUNTER_MODE_SELECT_INSTANCE(TIMx) can be used to
1230:Drivers/STM32F0xx_HAL_Driver/Inc/stm32f0xx_ll_tim.h ****   *       check whether or not the counter mode selection feature is supported
1231:Drivers/STM32F0xx_HAL_Driver/Inc/stm32f0xx_ll_tim.h ****   *       by a timer instance.
1232:Drivers/STM32F0xx_HAL_Driver/Inc/stm32f0xx_ll_tim.h ****   * @rmtoll CR1          DIR           LL_TIM_GetCounterMode\n
1233:Drivers/STM32F0xx_HAL_Driver/Inc/stm32f0xx_ll_tim.h ****   *         CR1          CMS           LL_TIM_GetCounterMode
1234:Drivers/STM32F0xx_HAL_Driver/Inc/stm32f0xx_ll_tim.h ****   * @param  TIMx Timer instance
1235:Drivers/STM32F0xx_HAL_Driver/Inc/stm32f0xx_ll_tim.h ****   * @retval Returned value can be one of the following values:
1236:Drivers/STM32F0xx_HAL_Driver/Inc/stm32f0xx_ll_tim.h ****   *         @arg @ref LL_TIM_COUNTERMODE_UP
1237:Drivers/STM32F0xx_HAL_Driver/Inc/stm32f0xx_ll_tim.h ****   *         @arg @ref LL_TIM_COUNTERMODE_DOWN
1238:Drivers/STM32F0xx_HAL_Driver/Inc/stm32f0xx_ll_tim.h ****   *         @arg @ref LL_TIM_COUNTERMODE_CENTER_UP
1239:Drivers/STM32F0xx_HAL_Driver/Inc/stm32f0xx_ll_tim.h ****   *         @arg @ref LL_TIM_COUNTERMODE_CENTER_DOWN
1240:Drivers/STM32F0xx_HAL_Driver/Inc/stm32f0xx_ll_tim.h ****   *         @arg @ref LL_TIM_COUNTERMODE_CENTER_UP_DOWN
1241:Drivers/STM32F0xx_HAL_Driver/Inc/stm32f0xx_ll_tim.h ****   */
1242:Drivers/STM32F0xx_HAL_Driver/Inc/stm32f0xx_ll_tim.h **** __STATIC_INLINE uint32_t LL_TIM_GetCounterMode(TIM_TypeDef *TIMx)
1243:Drivers/STM32F0xx_HAL_Driver/Inc/stm32f0xx_ll_tim.h **** {
1244:Drivers/STM32F0xx_HAL_Driver/Inc/stm32f0xx_ll_tim.h ****   uint32_t counter_mode;
1245:Drivers/STM32F0xx_HAL_Driver/Inc/stm32f0xx_ll_tim.h **** 
1246:Drivers/STM32F0xx_HAL_Driver/Inc/stm32f0xx_ll_tim.h ****   counter_mode = (uint32_t)(READ_BIT(TIMx->CR1, TIM_CR1_CMS));
1247:Drivers/STM32F0xx_HAL_Driver/Inc/stm32f0xx_ll_tim.h **** 
ARM GAS  C:\Users\ADMINI~1\AppData\Local\Temp\ccNQkssi.s 			page 29


1248:Drivers/STM32F0xx_HAL_Driver/Inc/stm32f0xx_ll_tim.h ****   if (counter_mode == 0U)
1249:Drivers/STM32F0xx_HAL_Driver/Inc/stm32f0xx_ll_tim.h ****   {
1250:Drivers/STM32F0xx_HAL_Driver/Inc/stm32f0xx_ll_tim.h ****     counter_mode = (uint32_t)(READ_BIT(TIMx->CR1, TIM_CR1_DIR));
1251:Drivers/STM32F0xx_HAL_Driver/Inc/stm32f0xx_ll_tim.h ****   }
1252:Drivers/STM32F0xx_HAL_Driver/Inc/stm32f0xx_ll_tim.h **** 
1253:Drivers/STM32F0xx_HAL_Driver/Inc/stm32f0xx_ll_tim.h ****   return counter_mode;
1254:Drivers/STM32F0xx_HAL_Driver/Inc/stm32f0xx_ll_tim.h **** }
1255:Drivers/STM32F0xx_HAL_Driver/Inc/stm32f0xx_ll_tim.h **** 
1256:Drivers/STM32F0xx_HAL_Driver/Inc/stm32f0xx_ll_tim.h **** /**
1257:Drivers/STM32F0xx_HAL_Driver/Inc/stm32f0xx_ll_tim.h ****   * @brief  Enable auto-reload (ARR) preload.
1258:Drivers/STM32F0xx_HAL_Driver/Inc/stm32f0xx_ll_tim.h ****   * @rmtoll CR1          ARPE          LL_TIM_EnableARRPreload
1259:Drivers/STM32F0xx_HAL_Driver/Inc/stm32f0xx_ll_tim.h ****   * @param  TIMx Timer instance
1260:Drivers/STM32F0xx_HAL_Driver/Inc/stm32f0xx_ll_tim.h ****   * @retval None
1261:Drivers/STM32F0xx_HAL_Driver/Inc/stm32f0xx_ll_tim.h ****   */
1262:Drivers/STM32F0xx_HAL_Driver/Inc/stm32f0xx_ll_tim.h **** __STATIC_INLINE void LL_TIM_EnableARRPreload(TIM_TypeDef *TIMx)
1263:Drivers/STM32F0xx_HAL_Driver/Inc/stm32f0xx_ll_tim.h **** {
1264:Drivers/STM32F0xx_HAL_Driver/Inc/stm32f0xx_ll_tim.h ****   SET_BIT(TIMx->CR1, TIM_CR1_ARPE);
1265:Drivers/STM32F0xx_HAL_Driver/Inc/stm32f0xx_ll_tim.h **** }
1266:Drivers/STM32F0xx_HAL_Driver/Inc/stm32f0xx_ll_tim.h **** 
1267:Drivers/STM32F0xx_HAL_Driver/Inc/stm32f0xx_ll_tim.h **** /**
1268:Drivers/STM32F0xx_HAL_Driver/Inc/stm32f0xx_ll_tim.h ****   * @brief  Disable auto-reload (ARR) preload.
1269:Drivers/STM32F0xx_HAL_Driver/Inc/stm32f0xx_ll_tim.h ****   * @rmtoll CR1          ARPE          LL_TIM_DisableARRPreload
1270:Drivers/STM32F0xx_HAL_Driver/Inc/stm32f0xx_ll_tim.h ****   * @param  TIMx Timer instance
1271:Drivers/STM32F0xx_HAL_Driver/Inc/stm32f0xx_ll_tim.h ****   * @retval None
1272:Drivers/STM32F0xx_HAL_Driver/Inc/stm32f0xx_ll_tim.h ****   */
1273:Drivers/STM32F0xx_HAL_Driver/Inc/stm32f0xx_ll_tim.h **** __STATIC_INLINE void LL_TIM_DisableARRPreload(TIM_TypeDef *TIMx)
1274:Drivers/STM32F0xx_HAL_Driver/Inc/stm32f0xx_ll_tim.h **** {
1275:Drivers/STM32F0xx_HAL_Driver/Inc/stm32f0xx_ll_tim.h ****   CLEAR_BIT(TIMx->CR1, TIM_CR1_ARPE);
1276:Drivers/STM32F0xx_HAL_Driver/Inc/stm32f0xx_ll_tim.h **** }
1277:Drivers/STM32F0xx_HAL_Driver/Inc/stm32f0xx_ll_tim.h **** 
1278:Drivers/STM32F0xx_HAL_Driver/Inc/stm32f0xx_ll_tim.h **** /**
1279:Drivers/STM32F0xx_HAL_Driver/Inc/stm32f0xx_ll_tim.h ****   * @brief  Indicates whether auto-reload (ARR) preload is enabled.
1280:Drivers/STM32F0xx_HAL_Driver/Inc/stm32f0xx_ll_tim.h ****   * @rmtoll CR1          ARPE          LL_TIM_IsEnabledARRPreload
1281:Drivers/STM32F0xx_HAL_Driver/Inc/stm32f0xx_ll_tim.h ****   * @param  TIMx Timer instance
1282:Drivers/STM32F0xx_HAL_Driver/Inc/stm32f0xx_ll_tim.h ****   * @retval State of bit (1 or 0).
1283:Drivers/STM32F0xx_HAL_Driver/Inc/stm32f0xx_ll_tim.h ****   */
1284:Drivers/STM32F0xx_HAL_Driver/Inc/stm32f0xx_ll_tim.h **** __STATIC_INLINE uint32_t LL_TIM_IsEnabledARRPreload(TIM_TypeDef *TIMx)
1285:Drivers/STM32F0xx_HAL_Driver/Inc/stm32f0xx_ll_tim.h **** {
1286:Drivers/STM32F0xx_HAL_Driver/Inc/stm32f0xx_ll_tim.h ****   return ((READ_BIT(TIMx->CR1, TIM_CR1_ARPE) == (TIM_CR1_ARPE)) ? 1UL : 0UL);
1287:Drivers/STM32F0xx_HAL_Driver/Inc/stm32f0xx_ll_tim.h **** }
1288:Drivers/STM32F0xx_HAL_Driver/Inc/stm32f0xx_ll_tim.h **** 
1289:Drivers/STM32F0xx_HAL_Driver/Inc/stm32f0xx_ll_tim.h **** /**
1290:Drivers/STM32F0xx_HAL_Driver/Inc/stm32f0xx_ll_tim.h ****   * @brief  Set the division ratio between the timer clock  and the sampling clock used by the dead
1291:Drivers/STM32F0xx_HAL_Driver/Inc/stm32f0xx_ll_tim.h ****   *         (when supported) and the digital filters.
1292:Drivers/STM32F0xx_HAL_Driver/Inc/stm32f0xx_ll_tim.h ****   * @note Macro IS_TIM_CLOCK_DIVISION_INSTANCE(TIMx) can be used to check
1293:Drivers/STM32F0xx_HAL_Driver/Inc/stm32f0xx_ll_tim.h ****   *       whether or not the clock division feature is supported by the timer
1294:Drivers/STM32F0xx_HAL_Driver/Inc/stm32f0xx_ll_tim.h ****   *       instance.
1295:Drivers/STM32F0xx_HAL_Driver/Inc/stm32f0xx_ll_tim.h ****   * @rmtoll CR1          CKD           LL_TIM_SetClockDivision
1296:Drivers/STM32F0xx_HAL_Driver/Inc/stm32f0xx_ll_tim.h ****   * @param  TIMx Timer instance
1297:Drivers/STM32F0xx_HAL_Driver/Inc/stm32f0xx_ll_tim.h ****   * @param  ClockDivision This parameter can be one of the following values:
1298:Drivers/STM32F0xx_HAL_Driver/Inc/stm32f0xx_ll_tim.h ****   *         @arg @ref LL_TIM_CLOCKDIVISION_DIV1
1299:Drivers/STM32F0xx_HAL_Driver/Inc/stm32f0xx_ll_tim.h ****   *         @arg @ref LL_TIM_CLOCKDIVISION_DIV2
1300:Drivers/STM32F0xx_HAL_Driver/Inc/stm32f0xx_ll_tim.h ****   *         @arg @ref LL_TIM_CLOCKDIVISION_DIV4
1301:Drivers/STM32F0xx_HAL_Driver/Inc/stm32f0xx_ll_tim.h ****   * @retval None
1302:Drivers/STM32F0xx_HAL_Driver/Inc/stm32f0xx_ll_tim.h ****   */
1303:Drivers/STM32F0xx_HAL_Driver/Inc/stm32f0xx_ll_tim.h **** __STATIC_INLINE void LL_TIM_SetClockDivision(TIM_TypeDef *TIMx, uint32_t ClockDivision)
1304:Drivers/STM32F0xx_HAL_Driver/Inc/stm32f0xx_ll_tim.h **** {
ARM GAS  C:\Users\ADMINI~1\AppData\Local\Temp\ccNQkssi.s 			page 30


1305:Drivers/STM32F0xx_HAL_Driver/Inc/stm32f0xx_ll_tim.h ****   MODIFY_REG(TIMx->CR1, TIM_CR1_CKD, ClockDivision);
1306:Drivers/STM32F0xx_HAL_Driver/Inc/stm32f0xx_ll_tim.h **** }
1307:Drivers/STM32F0xx_HAL_Driver/Inc/stm32f0xx_ll_tim.h **** 
1308:Drivers/STM32F0xx_HAL_Driver/Inc/stm32f0xx_ll_tim.h **** /**
1309:Drivers/STM32F0xx_HAL_Driver/Inc/stm32f0xx_ll_tim.h ****   * @brief  Get the actual division ratio between the timer clock  and the sampling clock used by t
1310:Drivers/STM32F0xx_HAL_Driver/Inc/stm32f0xx_ll_tim.h ****   *         generators (when supported) and the digital filters.
1311:Drivers/STM32F0xx_HAL_Driver/Inc/stm32f0xx_ll_tim.h ****   * @note Macro IS_TIM_CLOCK_DIVISION_INSTANCE(TIMx) can be used to check
1312:Drivers/STM32F0xx_HAL_Driver/Inc/stm32f0xx_ll_tim.h ****   *       whether or not the clock division feature is supported by the timer
1313:Drivers/STM32F0xx_HAL_Driver/Inc/stm32f0xx_ll_tim.h ****   *       instance.
1314:Drivers/STM32F0xx_HAL_Driver/Inc/stm32f0xx_ll_tim.h ****   * @rmtoll CR1          CKD           LL_TIM_GetClockDivision
1315:Drivers/STM32F0xx_HAL_Driver/Inc/stm32f0xx_ll_tim.h ****   * @param  TIMx Timer instance
1316:Drivers/STM32F0xx_HAL_Driver/Inc/stm32f0xx_ll_tim.h ****   * @retval Returned value can be one of the following values:
1317:Drivers/STM32F0xx_HAL_Driver/Inc/stm32f0xx_ll_tim.h ****   *         @arg @ref LL_TIM_CLOCKDIVISION_DIV1
1318:Drivers/STM32F0xx_HAL_Driver/Inc/stm32f0xx_ll_tim.h ****   *         @arg @ref LL_TIM_CLOCKDIVISION_DIV2
1319:Drivers/STM32F0xx_HAL_Driver/Inc/stm32f0xx_ll_tim.h ****   *         @arg @ref LL_TIM_CLOCKDIVISION_DIV4
1320:Drivers/STM32F0xx_HAL_Driver/Inc/stm32f0xx_ll_tim.h ****   */
1321:Drivers/STM32F0xx_HAL_Driver/Inc/stm32f0xx_ll_tim.h **** __STATIC_INLINE uint32_t LL_TIM_GetClockDivision(TIM_TypeDef *TIMx)
1322:Drivers/STM32F0xx_HAL_Driver/Inc/stm32f0xx_ll_tim.h **** {
1323:Drivers/STM32F0xx_HAL_Driver/Inc/stm32f0xx_ll_tim.h ****   return (uint32_t)(READ_BIT(TIMx->CR1, TIM_CR1_CKD));
1324:Drivers/STM32F0xx_HAL_Driver/Inc/stm32f0xx_ll_tim.h **** }
1325:Drivers/STM32F0xx_HAL_Driver/Inc/stm32f0xx_ll_tim.h **** 
1326:Drivers/STM32F0xx_HAL_Driver/Inc/stm32f0xx_ll_tim.h **** /**
1327:Drivers/STM32F0xx_HAL_Driver/Inc/stm32f0xx_ll_tim.h ****   * @brief  Set the counter value.
1328:Drivers/STM32F0xx_HAL_Driver/Inc/stm32f0xx_ll_tim.h ****   * @note Macro IS_TIM_32B_COUNTER_INSTANCE(TIMx) can be used to check
1329:Drivers/STM32F0xx_HAL_Driver/Inc/stm32f0xx_ll_tim.h ****   *       whether or not a timer instance supports a 32 bits counter.
1330:Drivers/STM32F0xx_HAL_Driver/Inc/stm32f0xx_ll_tim.h ****   * @rmtoll CNT          CNT           LL_TIM_SetCounter
1331:Drivers/STM32F0xx_HAL_Driver/Inc/stm32f0xx_ll_tim.h ****   * @param  TIMx Timer instance
1332:Drivers/STM32F0xx_HAL_Driver/Inc/stm32f0xx_ll_tim.h ****   * @param  Counter Counter value (between Min_Data=0 and Max_Data=0xFFFF or 0xFFFFFFFF)
1333:Drivers/STM32F0xx_HAL_Driver/Inc/stm32f0xx_ll_tim.h ****   * @retval None
1334:Drivers/STM32F0xx_HAL_Driver/Inc/stm32f0xx_ll_tim.h ****   */
1335:Drivers/STM32F0xx_HAL_Driver/Inc/stm32f0xx_ll_tim.h **** __STATIC_INLINE void LL_TIM_SetCounter(TIM_TypeDef *TIMx, uint32_t Counter)
1336:Drivers/STM32F0xx_HAL_Driver/Inc/stm32f0xx_ll_tim.h **** {
1337:Drivers/STM32F0xx_HAL_Driver/Inc/stm32f0xx_ll_tim.h ****   WRITE_REG(TIMx->CNT, Counter);
1338:Drivers/STM32F0xx_HAL_Driver/Inc/stm32f0xx_ll_tim.h **** }
1339:Drivers/STM32F0xx_HAL_Driver/Inc/stm32f0xx_ll_tim.h **** 
1340:Drivers/STM32F0xx_HAL_Driver/Inc/stm32f0xx_ll_tim.h **** /**
1341:Drivers/STM32F0xx_HAL_Driver/Inc/stm32f0xx_ll_tim.h ****   * @brief  Get the counter value.
1342:Drivers/STM32F0xx_HAL_Driver/Inc/stm32f0xx_ll_tim.h ****   * @note Macro IS_TIM_32B_COUNTER_INSTANCE(TIMx) can be used to check
1343:Drivers/STM32F0xx_HAL_Driver/Inc/stm32f0xx_ll_tim.h ****   *       whether or not a timer instance supports a 32 bits counter.
1344:Drivers/STM32F0xx_HAL_Driver/Inc/stm32f0xx_ll_tim.h ****   * @rmtoll CNT          CNT           LL_TIM_GetCounter
1345:Drivers/STM32F0xx_HAL_Driver/Inc/stm32f0xx_ll_tim.h ****   * @param  TIMx Timer instance
1346:Drivers/STM32F0xx_HAL_Driver/Inc/stm32f0xx_ll_tim.h ****   * @retval Counter value (between Min_Data=0 and Max_Data=0xFFFF or 0xFFFFFFFF)
1347:Drivers/STM32F0xx_HAL_Driver/Inc/stm32f0xx_ll_tim.h ****   */
1348:Drivers/STM32F0xx_HAL_Driver/Inc/stm32f0xx_ll_tim.h **** __STATIC_INLINE uint32_t LL_TIM_GetCounter(TIM_TypeDef *TIMx)
1349:Drivers/STM32F0xx_HAL_Driver/Inc/stm32f0xx_ll_tim.h **** {
1350:Drivers/STM32F0xx_HAL_Driver/Inc/stm32f0xx_ll_tim.h ****   return (uint32_t)(READ_REG(TIMx->CNT));
1351:Drivers/STM32F0xx_HAL_Driver/Inc/stm32f0xx_ll_tim.h **** }
1352:Drivers/STM32F0xx_HAL_Driver/Inc/stm32f0xx_ll_tim.h **** 
1353:Drivers/STM32F0xx_HAL_Driver/Inc/stm32f0xx_ll_tim.h **** /**
1354:Drivers/STM32F0xx_HAL_Driver/Inc/stm32f0xx_ll_tim.h ****   * @brief  Get the current direction of the counter
1355:Drivers/STM32F0xx_HAL_Driver/Inc/stm32f0xx_ll_tim.h ****   * @rmtoll CR1          DIR           LL_TIM_GetDirection
1356:Drivers/STM32F0xx_HAL_Driver/Inc/stm32f0xx_ll_tim.h ****   * @param  TIMx Timer instance
1357:Drivers/STM32F0xx_HAL_Driver/Inc/stm32f0xx_ll_tim.h ****   * @retval Returned value can be one of the following values:
1358:Drivers/STM32F0xx_HAL_Driver/Inc/stm32f0xx_ll_tim.h ****   *         @arg @ref LL_TIM_COUNTERDIRECTION_UP
1359:Drivers/STM32F0xx_HAL_Driver/Inc/stm32f0xx_ll_tim.h ****   *         @arg @ref LL_TIM_COUNTERDIRECTION_DOWN
1360:Drivers/STM32F0xx_HAL_Driver/Inc/stm32f0xx_ll_tim.h ****   */
1361:Drivers/STM32F0xx_HAL_Driver/Inc/stm32f0xx_ll_tim.h **** __STATIC_INLINE uint32_t LL_TIM_GetDirection(TIM_TypeDef *TIMx)
ARM GAS  C:\Users\ADMINI~1\AppData\Local\Temp\ccNQkssi.s 			page 31


1362:Drivers/STM32F0xx_HAL_Driver/Inc/stm32f0xx_ll_tim.h **** {
1363:Drivers/STM32F0xx_HAL_Driver/Inc/stm32f0xx_ll_tim.h ****   return (uint32_t)(READ_BIT(TIMx->CR1, TIM_CR1_DIR));
1364:Drivers/STM32F0xx_HAL_Driver/Inc/stm32f0xx_ll_tim.h **** }
1365:Drivers/STM32F0xx_HAL_Driver/Inc/stm32f0xx_ll_tim.h **** 
1366:Drivers/STM32F0xx_HAL_Driver/Inc/stm32f0xx_ll_tim.h **** /**
1367:Drivers/STM32F0xx_HAL_Driver/Inc/stm32f0xx_ll_tim.h ****   * @brief  Set the prescaler value.
1368:Drivers/STM32F0xx_HAL_Driver/Inc/stm32f0xx_ll_tim.h ****   * @note The counter clock frequency CK_CNT is equal to fCK_PSC / (PSC[15:0] + 1).
1369:Drivers/STM32F0xx_HAL_Driver/Inc/stm32f0xx_ll_tim.h ****   * @note The prescaler can be changed on the fly as this control register is buffered. The new
1370:Drivers/STM32F0xx_HAL_Driver/Inc/stm32f0xx_ll_tim.h ****   *       prescaler ratio is taken into account at the next update event.
1371:Drivers/STM32F0xx_HAL_Driver/Inc/stm32f0xx_ll_tim.h ****   * @note Helper macro @ref __LL_TIM_CALC_PSC can be used to calculate the Prescaler parameter
1372:Drivers/STM32F0xx_HAL_Driver/Inc/stm32f0xx_ll_tim.h ****   * @rmtoll PSC          PSC           LL_TIM_SetPrescaler
1373:Drivers/STM32F0xx_HAL_Driver/Inc/stm32f0xx_ll_tim.h ****   * @param  TIMx Timer instance
1374:Drivers/STM32F0xx_HAL_Driver/Inc/stm32f0xx_ll_tim.h ****   * @param  Prescaler between Min_Data=0 and Max_Data=65535
1375:Drivers/STM32F0xx_HAL_Driver/Inc/stm32f0xx_ll_tim.h ****   * @retval None
1376:Drivers/STM32F0xx_HAL_Driver/Inc/stm32f0xx_ll_tim.h ****   */
1377:Drivers/STM32F0xx_HAL_Driver/Inc/stm32f0xx_ll_tim.h **** __STATIC_INLINE void LL_TIM_SetPrescaler(TIM_TypeDef *TIMx, uint32_t Prescaler)
1378:Drivers/STM32F0xx_HAL_Driver/Inc/stm32f0xx_ll_tim.h **** {
1379:Drivers/STM32F0xx_HAL_Driver/Inc/stm32f0xx_ll_tim.h ****   WRITE_REG(TIMx->PSC, Prescaler);
1380:Drivers/STM32F0xx_HAL_Driver/Inc/stm32f0xx_ll_tim.h **** }
1381:Drivers/STM32F0xx_HAL_Driver/Inc/stm32f0xx_ll_tim.h **** 
1382:Drivers/STM32F0xx_HAL_Driver/Inc/stm32f0xx_ll_tim.h **** /**
1383:Drivers/STM32F0xx_HAL_Driver/Inc/stm32f0xx_ll_tim.h ****   * @brief  Get the prescaler value.
1384:Drivers/STM32F0xx_HAL_Driver/Inc/stm32f0xx_ll_tim.h ****   * @rmtoll PSC          PSC           LL_TIM_GetPrescaler
1385:Drivers/STM32F0xx_HAL_Driver/Inc/stm32f0xx_ll_tim.h ****   * @param  TIMx Timer instance
1386:Drivers/STM32F0xx_HAL_Driver/Inc/stm32f0xx_ll_tim.h ****   * @retval  Prescaler value between Min_Data=0 and Max_Data=65535
1387:Drivers/STM32F0xx_HAL_Driver/Inc/stm32f0xx_ll_tim.h ****   */
1388:Drivers/STM32F0xx_HAL_Driver/Inc/stm32f0xx_ll_tim.h **** __STATIC_INLINE uint32_t LL_TIM_GetPrescaler(TIM_TypeDef *TIMx)
1389:Drivers/STM32F0xx_HAL_Driver/Inc/stm32f0xx_ll_tim.h **** {
1390:Drivers/STM32F0xx_HAL_Driver/Inc/stm32f0xx_ll_tim.h ****   return (uint32_t)(READ_REG(TIMx->PSC));
1391:Drivers/STM32F0xx_HAL_Driver/Inc/stm32f0xx_ll_tim.h **** }
1392:Drivers/STM32F0xx_HAL_Driver/Inc/stm32f0xx_ll_tim.h **** 
1393:Drivers/STM32F0xx_HAL_Driver/Inc/stm32f0xx_ll_tim.h **** /**
1394:Drivers/STM32F0xx_HAL_Driver/Inc/stm32f0xx_ll_tim.h ****   * @brief  Set the auto-reload value.
1395:Drivers/STM32F0xx_HAL_Driver/Inc/stm32f0xx_ll_tim.h ****   * @note The counter is blocked while the auto-reload value is null.
1396:Drivers/STM32F0xx_HAL_Driver/Inc/stm32f0xx_ll_tim.h ****   * @note Macro IS_TIM_32B_COUNTER_INSTANCE(TIMx) can be used to check
1397:Drivers/STM32F0xx_HAL_Driver/Inc/stm32f0xx_ll_tim.h ****   *       whether or not a timer instance supports a 32 bits counter.
1398:Drivers/STM32F0xx_HAL_Driver/Inc/stm32f0xx_ll_tim.h ****   * @note Helper macro @ref __LL_TIM_CALC_ARR can be used to calculate the AutoReload parameter
1399:Drivers/STM32F0xx_HAL_Driver/Inc/stm32f0xx_ll_tim.h ****   * @rmtoll ARR          ARR           LL_TIM_SetAutoReload
1400:Drivers/STM32F0xx_HAL_Driver/Inc/stm32f0xx_ll_tim.h ****   * @param  TIMx Timer instance
1401:Drivers/STM32F0xx_HAL_Driver/Inc/stm32f0xx_ll_tim.h ****   * @param  AutoReload between Min_Data=0 and Max_Data=65535
1402:Drivers/STM32F0xx_HAL_Driver/Inc/stm32f0xx_ll_tim.h ****   * @retval None
1403:Drivers/STM32F0xx_HAL_Driver/Inc/stm32f0xx_ll_tim.h ****   */
1404:Drivers/STM32F0xx_HAL_Driver/Inc/stm32f0xx_ll_tim.h **** __STATIC_INLINE void LL_TIM_SetAutoReload(TIM_TypeDef *TIMx, uint32_t AutoReload)
1405:Drivers/STM32F0xx_HAL_Driver/Inc/stm32f0xx_ll_tim.h **** {
1406:Drivers/STM32F0xx_HAL_Driver/Inc/stm32f0xx_ll_tim.h ****   WRITE_REG(TIMx->ARR, AutoReload);
1407:Drivers/STM32F0xx_HAL_Driver/Inc/stm32f0xx_ll_tim.h **** }
1408:Drivers/STM32F0xx_HAL_Driver/Inc/stm32f0xx_ll_tim.h **** 
1409:Drivers/STM32F0xx_HAL_Driver/Inc/stm32f0xx_ll_tim.h **** /**
1410:Drivers/STM32F0xx_HAL_Driver/Inc/stm32f0xx_ll_tim.h ****   * @brief  Get the auto-reload value.
1411:Drivers/STM32F0xx_HAL_Driver/Inc/stm32f0xx_ll_tim.h ****   * @rmtoll ARR          ARR           LL_TIM_GetAutoReload
1412:Drivers/STM32F0xx_HAL_Driver/Inc/stm32f0xx_ll_tim.h ****   * @note Macro IS_TIM_32B_COUNTER_INSTANCE(TIMx) can be used to check
1413:Drivers/STM32F0xx_HAL_Driver/Inc/stm32f0xx_ll_tim.h ****   *       whether or not a timer instance supports a 32 bits counter.
1414:Drivers/STM32F0xx_HAL_Driver/Inc/stm32f0xx_ll_tim.h ****   * @param  TIMx Timer instance
1415:Drivers/STM32F0xx_HAL_Driver/Inc/stm32f0xx_ll_tim.h ****   * @retval Auto-reload value
1416:Drivers/STM32F0xx_HAL_Driver/Inc/stm32f0xx_ll_tim.h ****   */
1417:Drivers/STM32F0xx_HAL_Driver/Inc/stm32f0xx_ll_tim.h **** __STATIC_INLINE uint32_t LL_TIM_GetAutoReload(TIM_TypeDef *TIMx)
1418:Drivers/STM32F0xx_HAL_Driver/Inc/stm32f0xx_ll_tim.h **** {
ARM GAS  C:\Users\ADMINI~1\AppData\Local\Temp\ccNQkssi.s 			page 32


1419:Drivers/STM32F0xx_HAL_Driver/Inc/stm32f0xx_ll_tim.h ****   return (uint32_t)(READ_REG(TIMx->ARR));
1420:Drivers/STM32F0xx_HAL_Driver/Inc/stm32f0xx_ll_tim.h **** }
1421:Drivers/STM32F0xx_HAL_Driver/Inc/stm32f0xx_ll_tim.h **** 
1422:Drivers/STM32F0xx_HAL_Driver/Inc/stm32f0xx_ll_tim.h **** /**
1423:Drivers/STM32F0xx_HAL_Driver/Inc/stm32f0xx_ll_tim.h ****   * @brief  Set the repetition counter value.
1424:Drivers/STM32F0xx_HAL_Driver/Inc/stm32f0xx_ll_tim.h ****   * @note Macro IS_TIM_REPETITION_COUNTER_INSTANCE(TIMx) can be used to check
1425:Drivers/STM32F0xx_HAL_Driver/Inc/stm32f0xx_ll_tim.h ****   *       whether or not a timer instance supports a repetition counter.
1426:Drivers/STM32F0xx_HAL_Driver/Inc/stm32f0xx_ll_tim.h ****   * @rmtoll RCR          REP           LL_TIM_SetRepetitionCounter
1427:Drivers/STM32F0xx_HAL_Driver/Inc/stm32f0xx_ll_tim.h ****   * @param  TIMx Timer instance
1428:Drivers/STM32F0xx_HAL_Driver/Inc/stm32f0xx_ll_tim.h ****   * @param  RepetitionCounter between Min_Data=0 and Max_Data=255 or 65535 for advanced timer.
1429:Drivers/STM32F0xx_HAL_Driver/Inc/stm32f0xx_ll_tim.h ****   * @retval None
1430:Drivers/STM32F0xx_HAL_Driver/Inc/stm32f0xx_ll_tim.h ****   */
1431:Drivers/STM32F0xx_HAL_Driver/Inc/stm32f0xx_ll_tim.h **** __STATIC_INLINE void LL_TIM_SetRepetitionCounter(TIM_TypeDef *TIMx, uint32_t RepetitionCounter)
1432:Drivers/STM32F0xx_HAL_Driver/Inc/stm32f0xx_ll_tim.h **** {
1433:Drivers/STM32F0xx_HAL_Driver/Inc/stm32f0xx_ll_tim.h ****   WRITE_REG(TIMx->RCR, RepetitionCounter);
1434:Drivers/STM32F0xx_HAL_Driver/Inc/stm32f0xx_ll_tim.h **** }
1435:Drivers/STM32F0xx_HAL_Driver/Inc/stm32f0xx_ll_tim.h **** 
1436:Drivers/STM32F0xx_HAL_Driver/Inc/stm32f0xx_ll_tim.h **** /**
1437:Drivers/STM32F0xx_HAL_Driver/Inc/stm32f0xx_ll_tim.h ****   * @brief  Get the repetition counter value.
1438:Drivers/STM32F0xx_HAL_Driver/Inc/stm32f0xx_ll_tim.h ****   * @note Macro IS_TIM_REPETITION_COUNTER_INSTANCE(TIMx) can be used to check
1439:Drivers/STM32F0xx_HAL_Driver/Inc/stm32f0xx_ll_tim.h ****   *       whether or not a timer instance supports a repetition counter.
1440:Drivers/STM32F0xx_HAL_Driver/Inc/stm32f0xx_ll_tim.h ****   * @rmtoll RCR          REP           LL_TIM_GetRepetitionCounter
1441:Drivers/STM32F0xx_HAL_Driver/Inc/stm32f0xx_ll_tim.h ****   * @param  TIMx Timer instance
1442:Drivers/STM32F0xx_HAL_Driver/Inc/stm32f0xx_ll_tim.h ****   * @retval Repetition counter value
1443:Drivers/STM32F0xx_HAL_Driver/Inc/stm32f0xx_ll_tim.h ****   */
1444:Drivers/STM32F0xx_HAL_Driver/Inc/stm32f0xx_ll_tim.h **** __STATIC_INLINE uint32_t LL_TIM_GetRepetitionCounter(TIM_TypeDef *TIMx)
1445:Drivers/STM32F0xx_HAL_Driver/Inc/stm32f0xx_ll_tim.h **** {
1446:Drivers/STM32F0xx_HAL_Driver/Inc/stm32f0xx_ll_tim.h ****   return (uint32_t)(READ_REG(TIMx->RCR));
1447:Drivers/STM32F0xx_HAL_Driver/Inc/stm32f0xx_ll_tim.h **** }
1448:Drivers/STM32F0xx_HAL_Driver/Inc/stm32f0xx_ll_tim.h **** 
1449:Drivers/STM32F0xx_HAL_Driver/Inc/stm32f0xx_ll_tim.h **** /**
1450:Drivers/STM32F0xx_HAL_Driver/Inc/stm32f0xx_ll_tim.h ****   * @}
1451:Drivers/STM32F0xx_HAL_Driver/Inc/stm32f0xx_ll_tim.h ****   */
1452:Drivers/STM32F0xx_HAL_Driver/Inc/stm32f0xx_ll_tim.h **** 
1453:Drivers/STM32F0xx_HAL_Driver/Inc/stm32f0xx_ll_tim.h **** /** @defgroup TIM_LL_EF_Capture_Compare Capture Compare configuration
1454:Drivers/STM32F0xx_HAL_Driver/Inc/stm32f0xx_ll_tim.h ****   * @{
1455:Drivers/STM32F0xx_HAL_Driver/Inc/stm32f0xx_ll_tim.h ****   */
1456:Drivers/STM32F0xx_HAL_Driver/Inc/stm32f0xx_ll_tim.h **** /**
1457:Drivers/STM32F0xx_HAL_Driver/Inc/stm32f0xx_ll_tim.h ****   * @brief  Enable  the capture/compare control bits (CCxE, CCxNE and OCxM) preload.
1458:Drivers/STM32F0xx_HAL_Driver/Inc/stm32f0xx_ll_tim.h ****   * @note CCxE, CCxNE and OCxM bits are preloaded, after having been written,
1459:Drivers/STM32F0xx_HAL_Driver/Inc/stm32f0xx_ll_tim.h ****   *       they are updated only when a commutation event (COM) occurs.
1460:Drivers/STM32F0xx_HAL_Driver/Inc/stm32f0xx_ll_tim.h ****   * @note Only on channels that have a complementary output.
1461:Drivers/STM32F0xx_HAL_Driver/Inc/stm32f0xx_ll_tim.h ****   * @note Macro IS_TIM_COMMUTATION_EVENT_INSTANCE(TIMx) can be used to check
1462:Drivers/STM32F0xx_HAL_Driver/Inc/stm32f0xx_ll_tim.h ****   *       whether or not a timer instance is able to generate a commutation event.
1463:Drivers/STM32F0xx_HAL_Driver/Inc/stm32f0xx_ll_tim.h ****   * @rmtoll CR2          CCPC          LL_TIM_CC_EnablePreload
1464:Drivers/STM32F0xx_HAL_Driver/Inc/stm32f0xx_ll_tim.h ****   * @param  TIMx Timer instance
1465:Drivers/STM32F0xx_HAL_Driver/Inc/stm32f0xx_ll_tim.h ****   * @retval None
1466:Drivers/STM32F0xx_HAL_Driver/Inc/stm32f0xx_ll_tim.h ****   */
1467:Drivers/STM32F0xx_HAL_Driver/Inc/stm32f0xx_ll_tim.h **** __STATIC_INLINE void LL_TIM_CC_EnablePreload(TIM_TypeDef *TIMx)
1468:Drivers/STM32F0xx_HAL_Driver/Inc/stm32f0xx_ll_tim.h **** {
1469:Drivers/STM32F0xx_HAL_Driver/Inc/stm32f0xx_ll_tim.h ****   SET_BIT(TIMx->CR2, TIM_CR2_CCPC);
1470:Drivers/STM32F0xx_HAL_Driver/Inc/stm32f0xx_ll_tim.h **** }
1471:Drivers/STM32F0xx_HAL_Driver/Inc/stm32f0xx_ll_tim.h **** 
1472:Drivers/STM32F0xx_HAL_Driver/Inc/stm32f0xx_ll_tim.h **** /**
1473:Drivers/STM32F0xx_HAL_Driver/Inc/stm32f0xx_ll_tim.h ****   * @brief  Disable  the capture/compare control bits (CCxE, CCxNE and OCxM) preload.
1474:Drivers/STM32F0xx_HAL_Driver/Inc/stm32f0xx_ll_tim.h ****   * @note Macro IS_TIM_COMMUTATION_EVENT_INSTANCE(TIMx) can be used to check
1475:Drivers/STM32F0xx_HAL_Driver/Inc/stm32f0xx_ll_tim.h ****   *       whether or not a timer instance is able to generate a commutation event.
ARM GAS  C:\Users\ADMINI~1\AppData\Local\Temp\ccNQkssi.s 			page 33


1476:Drivers/STM32F0xx_HAL_Driver/Inc/stm32f0xx_ll_tim.h ****   * @rmtoll CR2          CCPC          LL_TIM_CC_DisablePreload
1477:Drivers/STM32F0xx_HAL_Driver/Inc/stm32f0xx_ll_tim.h ****   * @param  TIMx Timer instance
1478:Drivers/STM32F0xx_HAL_Driver/Inc/stm32f0xx_ll_tim.h ****   * @retval None
1479:Drivers/STM32F0xx_HAL_Driver/Inc/stm32f0xx_ll_tim.h ****   */
1480:Drivers/STM32F0xx_HAL_Driver/Inc/stm32f0xx_ll_tim.h **** __STATIC_INLINE void LL_TIM_CC_DisablePreload(TIM_TypeDef *TIMx)
1481:Drivers/STM32F0xx_HAL_Driver/Inc/stm32f0xx_ll_tim.h **** {
1482:Drivers/STM32F0xx_HAL_Driver/Inc/stm32f0xx_ll_tim.h ****   CLEAR_BIT(TIMx->CR2, TIM_CR2_CCPC);
1483:Drivers/STM32F0xx_HAL_Driver/Inc/stm32f0xx_ll_tim.h **** }
1484:Drivers/STM32F0xx_HAL_Driver/Inc/stm32f0xx_ll_tim.h **** 
1485:Drivers/STM32F0xx_HAL_Driver/Inc/stm32f0xx_ll_tim.h **** /**
1486:Drivers/STM32F0xx_HAL_Driver/Inc/stm32f0xx_ll_tim.h ****   * @brief  Set the updated source of the capture/compare control bits (CCxE, CCxNE and OCxM).
1487:Drivers/STM32F0xx_HAL_Driver/Inc/stm32f0xx_ll_tim.h ****   * @note Macro IS_TIM_COMMUTATION_EVENT_INSTANCE(TIMx) can be used to check
1488:Drivers/STM32F0xx_HAL_Driver/Inc/stm32f0xx_ll_tim.h ****   *       whether or not a timer instance is able to generate a commutation event.
1489:Drivers/STM32F0xx_HAL_Driver/Inc/stm32f0xx_ll_tim.h ****   * @rmtoll CR2          CCUS          LL_TIM_CC_SetUpdate
1490:Drivers/STM32F0xx_HAL_Driver/Inc/stm32f0xx_ll_tim.h ****   * @param  TIMx Timer instance
1491:Drivers/STM32F0xx_HAL_Driver/Inc/stm32f0xx_ll_tim.h ****   * @param  CCUpdateSource This parameter can be one of the following values:
1492:Drivers/STM32F0xx_HAL_Driver/Inc/stm32f0xx_ll_tim.h ****   *         @arg @ref LL_TIM_CCUPDATESOURCE_COMG_ONLY
1493:Drivers/STM32F0xx_HAL_Driver/Inc/stm32f0xx_ll_tim.h ****   *         @arg @ref LL_TIM_CCUPDATESOURCE_COMG_AND_TRGI
1494:Drivers/STM32F0xx_HAL_Driver/Inc/stm32f0xx_ll_tim.h ****   * @retval None
1495:Drivers/STM32F0xx_HAL_Driver/Inc/stm32f0xx_ll_tim.h ****   */
1496:Drivers/STM32F0xx_HAL_Driver/Inc/stm32f0xx_ll_tim.h **** __STATIC_INLINE void LL_TIM_CC_SetUpdate(TIM_TypeDef *TIMx, uint32_t CCUpdateSource)
1497:Drivers/STM32F0xx_HAL_Driver/Inc/stm32f0xx_ll_tim.h **** {
1498:Drivers/STM32F0xx_HAL_Driver/Inc/stm32f0xx_ll_tim.h ****   MODIFY_REG(TIMx->CR2, TIM_CR2_CCUS, CCUpdateSource);
1499:Drivers/STM32F0xx_HAL_Driver/Inc/stm32f0xx_ll_tim.h **** }
1500:Drivers/STM32F0xx_HAL_Driver/Inc/stm32f0xx_ll_tim.h **** 
1501:Drivers/STM32F0xx_HAL_Driver/Inc/stm32f0xx_ll_tim.h **** /**
1502:Drivers/STM32F0xx_HAL_Driver/Inc/stm32f0xx_ll_tim.h ****   * @brief  Set the trigger of the capture/compare DMA request.
1503:Drivers/STM32F0xx_HAL_Driver/Inc/stm32f0xx_ll_tim.h ****   * @rmtoll CR2          CCDS          LL_TIM_CC_SetDMAReqTrigger
1504:Drivers/STM32F0xx_HAL_Driver/Inc/stm32f0xx_ll_tim.h ****   * @param  TIMx Timer instance
1505:Drivers/STM32F0xx_HAL_Driver/Inc/stm32f0xx_ll_tim.h ****   * @param  DMAReqTrigger This parameter can be one of the following values:
1506:Drivers/STM32F0xx_HAL_Driver/Inc/stm32f0xx_ll_tim.h ****   *         @arg @ref LL_TIM_CCDMAREQUEST_CC
1507:Drivers/STM32F0xx_HAL_Driver/Inc/stm32f0xx_ll_tim.h ****   *         @arg @ref LL_TIM_CCDMAREQUEST_UPDATE
1508:Drivers/STM32F0xx_HAL_Driver/Inc/stm32f0xx_ll_tim.h ****   * @retval None
1509:Drivers/STM32F0xx_HAL_Driver/Inc/stm32f0xx_ll_tim.h ****   */
1510:Drivers/STM32F0xx_HAL_Driver/Inc/stm32f0xx_ll_tim.h **** __STATIC_INLINE void LL_TIM_CC_SetDMAReqTrigger(TIM_TypeDef *TIMx, uint32_t DMAReqTrigger)
1511:Drivers/STM32F0xx_HAL_Driver/Inc/stm32f0xx_ll_tim.h **** {
1512:Drivers/STM32F0xx_HAL_Driver/Inc/stm32f0xx_ll_tim.h ****   MODIFY_REG(TIMx->CR2, TIM_CR2_CCDS, DMAReqTrigger);
1513:Drivers/STM32F0xx_HAL_Driver/Inc/stm32f0xx_ll_tim.h **** }
1514:Drivers/STM32F0xx_HAL_Driver/Inc/stm32f0xx_ll_tim.h **** 
1515:Drivers/STM32F0xx_HAL_Driver/Inc/stm32f0xx_ll_tim.h **** /**
1516:Drivers/STM32F0xx_HAL_Driver/Inc/stm32f0xx_ll_tim.h ****   * @brief  Get actual trigger of the capture/compare DMA request.
1517:Drivers/STM32F0xx_HAL_Driver/Inc/stm32f0xx_ll_tim.h ****   * @rmtoll CR2          CCDS          LL_TIM_CC_GetDMAReqTrigger
1518:Drivers/STM32F0xx_HAL_Driver/Inc/stm32f0xx_ll_tim.h ****   * @param  TIMx Timer instance
1519:Drivers/STM32F0xx_HAL_Driver/Inc/stm32f0xx_ll_tim.h ****   * @retval Returned value can be one of the following values:
1520:Drivers/STM32F0xx_HAL_Driver/Inc/stm32f0xx_ll_tim.h ****   *         @arg @ref LL_TIM_CCDMAREQUEST_CC
1521:Drivers/STM32F0xx_HAL_Driver/Inc/stm32f0xx_ll_tim.h ****   *         @arg @ref LL_TIM_CCDMAREQUEST_UPDATE
1522:Drivers/STM32F0xx_HAL_Driver/Inc/stm32f0xx_ll_tim.h ****   */
1523:Drivers/STM32F0xx_HAL_Driver/Inc/stm32f0xx_ll_tim.h **** __STATIC_INLINE uint32_t LL_TIM_CC_GetDMAReqTrigger(TIM_TypeDef *TIMx)
1524:Drivers/STM32F0xx_HAL_Driver/Inc/stm32f0xx_ll_tim.h **** {
1525:Drivers/STM32F0xx_HAL_Driver/Inc/stm32f0xx_ll_tim.h ****   return (uint32_t)(READ_BIT(TIMx->CR2, TIM_CR2_CCDS));
1526:Drivers/STM32F0xx_HAL_Driver/Inc/stm32f0xx_ll_tim.h **** }
1527:Drivers/STM32F0xx_HAL_Driver/Inc/stm32f0xx_ll_tim.h **** 
1528:Drivers/STM32F0xx_HAL_Driver/Inc/stm32f0xx_ll_tim.h **** /**
1529:Drivers/STM32F0xx_HAL_Driver/Inc/stm32f0xx_ll_tim.h ****   * @brief  Set the lock level to freeze the
1530:Drivers/STM32F0xx_HAL_Driver/Inc/stm32f0xx_ll_tim.h ****   *         configuration of several capture/compare parameters.
1531:Drivers/STM32F0xx_HAL_Driver/Inc/stm32f0xx_ll_tim.h ****   * @note Macro IS_TIM_BREAK_INSTANCE(TIMx) can be used to check whether or not
1532:Drivers/STM32F0xx_HAL_Driver/Inc/stm32f0xx_ll_tim.h ****   *       the lock mechanism is supported by a timer instance.
ARM GAS  C:\Users\ADMINI~1\AppData\Local\Temp\ccNQkssi.s 			page 34


1533:Drivers/STM32F0xx_HAL_Driver/Inc/stm32f0xx_ll_tim.h ****   * @rmtoll BDTR         LOCK          LL_TIM_CC_SetLockLevel
1534:Drivers/STM32F0xx_HAL_Driver/Inc/stm32f0xx_ll_tim.h ****   * @param  TIMx Timer instance
1535:Drivers/STM32F0xx_HAL_Driver/Inc/stm32f0xx_ll_tim.h ****   * @param  LockLevel This parameter can be one of the following values:
1536:Drivers/STM32F0xx_HAL_Driver/Inc/stm32f0xx_ll_tim.h ****   *         @arg @ref LL_TIM_LOCKLEVEL_OFF
1537:Drivers/STM32F0xx_HAL_Driver/Inc/stm32f0xx_ll_tim.h ****   *         @arg @ref LL_TIM_LOCKLEVEL_1
1538:Drivers/STM32F0xx_HAL_Driver/Inc/stm32f0xx_ll_tim.h ****   *         @arg @ref LL_TIM_LOCKLEVEL_2
1539:Drivers/STM32F0xx_HAL_Driver/Inc/stm32f0xx_ll_tim.h ****   *         @arg @ref LL_TIM_LOCKLEVEL_3
1540:Drivers/STM32F0xx_HAL_Driver/Inc/stm32f0xx_ll_tim.h ****   * @retval None
1541:Drivers/STM32F0xx_HAL_Driver/Inc/stm32f0xx_ll_tim.h ****   */
1542:Drivers/STM32F0xx_HAL_Driver/Inc/stm32f0xx_ll_tim.h **** __STATIC_INLINE void LL_TIM_CC_SetLockLevel(TIM_TypeDef *TIMx, uint32_t LockLevel)
1543:Drivers/STM32F0xx_HAL_Driver/Inc/stm32f0xx_ll_tim.h **** {
1544:Drivers/STM32F0xx_HAL_Driver/Inc/stm32f0xx_ll_tim.h ****   MODIFY_REG(TIMx->BDTR, TIM_BDTR_LOCK, LockLevel);
1545:Drivers/STM32F0xx_HAL_Driver/Inc/stm32f0xx_ll_tim.h **** }
1546:Drivers/STM32F0xx_HAL_Driver/Inc/stm32f0xx_ll_tim.h **** 
1547:Drivers/STM32F0xx_HAL_Driver/Inc/stm32f0xx_ll_tim.h **** /**
1548:Drivers/STM32F0xx_HAL_Driver/Inc/stm32f0xx_ll_tim.h ****   * @brief  Enable capture/compare channels.
1549:Drivers/STM32F0xx_HAL_Driver/Inc/stm32f0xx_ll_tim.h ****   * @rmtoll CCER         CC1E          LL_TIM_CC_EnableChannel\n
1550:Drivers/STM32F0xx_HAL_Driver/Inc/stm32f0xx_ll_tim.h ****   *         CCER         CC1NE         LL_TIM_CC_EnableChannel\n
1551:Drivers/STM32F0xx_HAL_Driver/Inc/stm32f0xx_ll_tim.h ****   *         CCER         CC2E          LL_TIM_CC_EnableChannel\n
1552:Drivers/STM32F0xx_HAL_Driver/Inc/stm32f0xx_ll_tim.h ****   *         CCER         CC2NE         LL_TIM_CC_EnableChannel\n
1553:Drivers/STM32F0xx_HAL_Driver/Inc/stm32f0xx_ll_tim.h ****   *         CCER         CC3E          LL_TIM_CC_EnableChannel\n
1554:Drivers/STM32F0xx_HAL_Driver/Inc/stm32f0xx_ll_tim.h ****   *         CCER         CC3NE         LL_TIM_CC_EnableChannel\n
1555:Drivers/STM32F0xx_HAL_Driver/Inc/stm32f0xx_ll_tim.h ****   *         CCER         CC4E          LL_TIM_CC_EnableChannel
1556:Drivers/STM32F0xx_HAL_Driver/Inc/stm32f0xx_ll_tim.h ****   * @param  TIMx Timer instance
1557:Drivers/STM32F0xx_HAL_Driver/Inc/stm32f0xx_ll_tim.h ****   * @param  Channels This parameter can be a combination of the following values:
1558:Drivers/STM32F0xx_HAL_Driver/Inc/stm32f0xx_ll_tim.h ****   *         @arg @ref LL_TIM_CHANNEL_CH1
1559:Drivers/STM32F0xx_HAL_Driver/Inc/stm32f0xx_ll_tim.h ****   *         @arg @ref LL_TIM_CHANNEL_CH1N
1560:Drivers/STM32F0xx_HAL_Driver/Inc/stm32f0xx_ll_tim.h ****   *         @arg @ref LL_TIM_CHANNEL_CH2
1561:Drivers/STM32F0xx_HAL_Driver/Inc/stm32f0xx_ll_tim.h ****   *         @arg @ref LL_TIM_CHANNEL_CH2N
1562:Drivers/STM32F0xx_HAL_Driver/Inc/stm32f0xx_ll_tim.h ****   *         @arg @ref LL_TIM_CHANNEL_CH3
1563:Drivers/STM32F0xx_HAL_Driver/Inc/stm32f0xx_ll_tim.h ****   *         @arg @ref LL_TIM_CHANNEL_CH3N
1564:Drivers/STM32F0xx_HAL_Driver/Inc/stm32f0xx_ll_tim.h ****   *         @arg @ref LL_TIM_CHANNEL_CH4
1565:Drivers/STM32F0xx_HAL_Driver/Inc/stm32f0xx_ll_tim.h ****   * @retval None
1566:Drivers/STM32F0xx_HAL_Driver/Inc/stm32f0xx_ll_tim.h ****   */
1567:Drivers/STM32F0xx_HAL_Driver/Inc/stm32f0xx_ll_tim.h **** __STATIC_INLINE void LL_TIM_CC_EnableChannel(TIM_TypeDef *TIMx, uint32_t Channels)
1568:Drivers/STM32F0xx_HAL_Driver/Inc/stm32f0xx_ll_tim.h **** {
1569:Drivers/STM32F0xx_HAL_Driver/Inc/stm32f0xx_ll_tim.h ****   SET_BIT(TIMx->CCER, Channels);
1570:Drivers/STM32F0xx_HAL_Driver/Inc/stm32f0xx_ll_tim.h **** }
1571:Drivers/STM32F0xx_HAL_Driver/Inc/stm32f0xx_ll_tim.h **** 
1572:Drivers/STM32F0xx_HAL_Driver/Inc/stm32f0xx_ll_tim.h **** /**
1573:Drivers/STM32F0xx_HAL_Driver/Inc/stm32f0xx_ll_tim.h ****   * @brief  Disable capture/compare channels.
1574:Drivers/STM32F0xx_HAL_Driver/Inc/stm32f0xx_ll_tim.h ****   * @rmtoll CCER         CC1E          LL_TIM_CC_DisableChannel\n
1575:Drivers/STM32F0xx_HAL_Driver/Inc/stm32f0xx_ll_tim.h ****   *         CCER         CC1NE         LL_TIM_CC_DisableChannel\n
1576:Drivers/STM32F0xx_HAL_Driver/Inc/stm32f0xx_ll_tim.h ****   *         CCER         CC2E          LL_TIM_CC_DisableChannel\n
1577:Drivers/STM32F0xx_HAL_Driver/Inc/stm32f0xx_ll_tim.h ****   *         CCER         CC2NE         LL_TIM_CC_DisableChannel\n
1578:Drivers/STM32F0xx_HAL_Driver/Inc/stm32f0xx_ll_tim.h ****   *         CCER         CC3E          LL_TIM_CC_DisableChannel\n
1579:Drivers/STM32F0xx_HAL_Driver/Inc/stm32f0xx_ll_tim.h ****   *         CCER         CC3NE         LL_TIM_CC_DisableChannel\n
1580:Drivers/STM32F0xx_HAL_Driver/Inc/stm32f0xx_ll_tim.h ****   *         CCER         CC4E          LL_TIM_CC_DisableChannel
1581:Drivers/STM32F0xx_HAL_Driver/Inc/stm32f0xx_ll_tim.h ****   * @param  TIMx Timer instance
1582:Drivers/STM32F0xx_HAL_Driver/Inc/stm32f0xx_ll_tim.h ****   * @param  Channels This parameter can be a combination of the following values:
1583:Drivers/STM32F0xx_HAL_Driver/Inc/stm32f0xx_ll_tim.h ****   *         @arg @ref LL_TIM_CHANNEL_CH1
1584:Drivers/STM32F0xx_HAL_Driver/Inc/stm32f0xx_ll_tim.h ****   *         @arg @ref LL_TIM_CHANNEL_CH1N
1585:Drivers/STM32F0xx_HAL_Driver/Inc/stm32f0xx_ll_tim.h ****   *         @arg @ref LL_TIM_CHANNEL_CH2
1586:Drivers/STM32F0xx_HAL_Driver/Inc/stm32f0xx_ll_tim.h ****   *         @arg @ref LL_TIM_CHANNEL_CH2N
1587:Drivers/STM32F0xx_HAL_Driver/Inc/stm32f0xx_ll_tim.h ****   *         @arg @ref LL_TIM_CHANNEL_CH3
1588:Drivers/STM32F0xx_HAL_Driver/Inc/stm32f0xx_ll_tim.h ****   *         @arg @ref LL_TIM_CHANNEL_CH3N
1589:Drivers/STM32F0xx_HAL_Driver/Inc/stm32f0xx_ll_tim.h ****   *         @arg @ref LL_TIM_CHANNEL_CH4
ARM GAS  C:\Users\ADMINI~1\AppData\Local\Temp\ccNQkssi.s 			page 35


1590:Drivers/STM32F0xx_HAL_Driver/Inc/stm32f0xx_ll_tim.h ****   * @retval None
1591:Drivers/STM32F0xx_HAL_Driver/Inc/stm32f0xx_ll_tim.h ****   */
1592:Drivers/STM32F0xx_HAL_Driver/Inc/stm32f0xx_ll_tim.h **** __STATIC_INLINE void LL_TIM_CC_DisableChannel(TIM_TypeDef *TIMx, uint32_t Channels)
1593:Drivers/STM32F0xx_HAL_Driver/Inc/stm32f0xx_ll_tim.h **** {
1594:Drivers/STM32F0xx_HAL_Driver/Inc/stm32f0xx_ll_tim.h ****   CLEAR_BIT(TIMx->CCER, Channels);
1595:Drivers/STM32F0xx_HAL_Driver/Inc/stm32f0xx_ll_tim.h **** }
1596:Drivers/STM32F0xx_HAL_Driver/Inc/stm32f0xx_ll_tim.h **** 
1597:Drivers/STM32F0xx_HAL_Driver/Inc/stm32f0xx_ll_tim.h **** /**
1598:Drivers/STM32F0xx_HAL_Driver/Inc/stm32f0xx_ll_tim.h ****   * @brief  Indicate whether channel(s) is(are) enabled.
1599:Drivers/STM32F0xx_HAL_Driver/Inc/stm32f0xx_ll_tim.h ****   * @rmtoll CCER         CC1E          LL_TIM_CC_IsEnabledChannel\n
1600:Drivers/STM32F0xx_HAL_Driver/Inc/stm32f0xx_ll_tim.h ****   *         CCER         CC1NE         LL_TIM_CC_IsEnabledChannel\n
1601:Drivers/STM32F0xx_HAL_Driver/Inc/stm32f0xx_ll_tim.h ****   *         CCER         CC2E          LL_TIM_CC_IsEnabledChannel\n
1602:Drivers/STM32F0xx_HAL_Driver/Inc/stm32f0xx_ll_tim.h ****   *         CCER         CC2NE         LL_TIM_CC_IsEnabledChannel\n
1603:Drivers/STM32F0xx_HAL_Driver/Inc/stm32f0xx_ll_tim.h ****   *         CCER         CC3E          LL_TIM_CC_IsEnabledChannel\n
1604:Drivers/STM32F0xx_HAL_Driver/Inc/stm32f0xx_ll_tim.h ****   *         CCER         CC3NE         LL_TIM_CC_IsEnabledChannel\n
1605:Drivers/STM32F0xx_HAL_Driver/Inc/stm32f0xx_ll_tim.h ****   *         CCER         CC4E          LL_TIM_CC_IsEnabledChannel
1606:Drivers/STM32F0xx_HAL_Driver/Inc/stm32f0xx_ll_tim.h ****   * @param  TIMx Timer instance
1607:Drivers/STM32F0xx_HAL_Driver/Inc/stm32f0xx_ll_tim.h ****   * @param  Channels This parameter can be a combination of the following values:
1608:Drivers/STM32F0xx_HAL_Driver/Inc/stm32f0xx_ll_tim.h ****   *         @arg @ref LL_TIM_CHANNEL_CH1
1609:Drivers/STM32F0xx_HAL_Driver/Inc/stm32f0xx_ll_tim.h ****   *         @arg @ref LL_TIM_CHANNEL_CH1N
1610:Drivers/STM32F0xx_HAL_Driver/Inc/stm32f0xx_ll_tim.h ****   *         @arg @ref LL_TIM_CHANNEL_CH2
1611:Drivers/STM32F0xx_HAL_Driver/Inc/stm32f0xx_ll_tim.h ****   *         @arg @ref LL_TIM_CHANNEL_CH2N
1612:Drivers/STM32F0xx_HAL_Driver/Inc/stm32f0xx_ll_tim.h ****   *         @arg @ref LL_TIM_CHANNEL_CH3
1613:Drivers/STM32F0xx_HAL_Driver/Inc/stm32f0xx_ll_tim.h ****   *         @arg @ref LL_TIM_CHANNEL_CH3N
1614:Drivers/STM32F0xx_HAL_Driver/Inc/stm32f0xx_ll_tim.h ****   *         @arg @ref LL_TIM_CHANNEL_CH4
1615:Drivers/STM32F0xx_HAL_Driver/Inc/stm32f0xx_ll_tim.h ****   * @retval State of bit (1 or 0).
1616:Drivers/STM32F0xx_HAL_Driver/Inc/stm32f0xx_ll_tim.h ****   */
1617:Drivers/STM32F0xx_HAL_Driver/Inc/stm32f0xx_ll_tim.h **** __STATIC_INLINE uint32_t LL_TIM_CC_IsEnabledChannel(TIM_TypeDef *TIMx, uint32_t Channels)
1618:Drivers/STM32F0xx_HAL_Driver/Inc/stm32f0xx_ll_tim.h **** {
1619:Drivers/STM32F0xx_HAL_Driver/Inc/stm32f0xx_ll_tim.h ****   return ((READ_BIT(TIMx->CCER, Channels) == (Channels)) ? 1UL : 0UL);
1620:Drivers/STM32F0xx_HAL_Driver/Inc/stm32f0xx_ll_tim.h **** }
1621:Drivers/STM32F0xx_HAL_Driver/Inc/stm32f0xx_ll_tim.h **** 
1622:Drivers/STM32F0xx_HAL_Driver/Inc/stm32f0xx_ll_tim.h **** /**
1623:Drivers/STM32F0xx_HAL_Driver/Inc/stm32f0xx_ll_tim.h ****   * @}
1624:Drivers/STM32F0xx_HAL_Driver/Inc/stm32f0xx_ll_tim.h ****   */
1625:Drivers/STM32F0xx_HAL_Driver/Inc/stm32f0xx_ll_tim.h **** 
1626:Drivers/STM32F0xx_HAL_Driver/Inc/stm32f0xx_ll_tim.h **** /** @defgroup TIM_LL_EF_Output_Channel Output channel configuration
1627:Drivers/STM32F0xx_HAL_Driver/Inc/stm32f0xx_ll_tim.h ****   * @{
1628:Drivers/STM32F0xx_HAL_Driver/Inc/stm32f0xx_ll_tim.h ****   */
1629:Drivers/STM32F0xx_HAL_Driver/Inc/stm32f0xx_ll_tim.h **** /**
1630:Drivers/STM32F0xx_HAL_Driver/Inc/stm32f0xx_ll_tim.h ****   * @brief  Configure an output channel.
1631:Drivers/STM32F0xx_HAL_Driver/Inc/stm32f0xx_ll_tim.h ****   * @rmtoll CCMR1        CC1S          LL_TIM_OC_ConfigOutput\n
1632:Drivers/STM32F0xx_HAL_Driver/Inc/stm32f0xx_ll_tim.h ****   *         CCMR1        CC2S          LL_TIM_OC_ConfigOutput\n
1633:Drivers/STM32F0xx_HAL_Driver/Inc/stm32f0xx_ll_tim.h ****   *         CCMR2        CC3S          LL_TIM_OC_ConfigOutput\n
1634:Drivers/STM32F0xx_HAL_Driver/Inc/stm32f0xx_ll_tim.h ****   *         CCMR2        CC4S          LL_TIM_OC_ConfigOutput\n
1635:Drivers/STM32F0xx_HAL_Driver/Inc/stm32f0xx_ll_tim.h ****   *         CCER         CC1P          LL_TIM_OC_ConfigOutput\n
1636:Drivers/STM32F0xx_HAL_Driver/Inc/stm32f0xx_ll_tim.h ****   *         CCER         CC2P          LL_TIM_OC_ConfigOutput\n
1637:Drivers/STM32F0xx_HAL_Driver/Inc/stm32f0xx_ll_tim.h ****   *         CCER         CC3P          LL_TIM_OC_ConfigOutput\n
1638:Drivers/STM32F0xx_HAL_Driver/Inc/stm32f0xx_ll_tim.h ****   *         CCER         CC4P          LL_TIM_OC_ConfigOutput\n
1639:Drivers/STM32F0xx_HAL_Driver/Inc/stm32f0xx_ll_tim.h ****   *         CR2          OIS1          LL_TIM_OC_ConfigOutput\n
1640:Drivers/STM32F0xx_HAL_Driver/Inc/stm32f0xx_ll_tim.h ****   *         CR2          OIS2          LL_TIM_OC_ConfigOutput\n
1641:Drivers/STM32F0xx_HAL_Driver/Inc/stm32f0xx_ll_tim.h ****   *         CR2          OIS3          LL_TIM_OC_ConfigOutput\n
1642:Drivers/STM32F0xx_HAL_Driver/Inc/stm32f0xx_ll_tim.h ****   *         CR2          OIS4          LL_TIM_OC_ConfigOutput
1643:Drivers/STM32F0xx_HAL_Driver/Inc/stm32f0xx_ll_tim.h ****   * @param  TIMx Timer instance
1644:Drivers/STM32F0xx_HAL_Driver/Inc/stm32f0xx_ll_tim.h ****   * @param  Channel This parameter can be one of the following values:
1645:Drivers/STM32F0xx_HAL_Driver/Inc/stm32f0xx_ll_tim.h ****   *         @arg @ref LL_TIM_CHANNEL_CH1
1646:Drivers/STM32F0xx_HAL_Driver/Inc/stm32f0xx_ll_tim.h ****   *         @arg @ref LL_TIM_CHANNEL_CH2
ARM GAS  C:\Users\ADMINI~1\AppData\Local\Temp\ccNQkssi.s 			page 36


1647:Drivers/STM32F0xx_HAL_Driver/Inc/stm32f0xx_ll_tim.h ****   *         @arg @ref LL_TIM_CHANNEL_CH3
1648:Drivers/STM32F0xx_HAL_Driver/Inc/stm32f0xx_ll_tim.h ****   *         @arg @ref LL_TIM_CHANNEL_CH4
1649:Drivers/STM32F0xx_HAL_Driver/Inc/stm32f0xx_ll_tim.h ****   * @param  Configuration This parameter must be a combination of all the following values:
1650:Drivers/STM32F0xx_HAL_Driver/Inc/stm32f0xx_ll_tim.h ****   *         @arg @ref LL_TIM_OCPOLARITY_HIGH or @ref LL_TIM_OCPOLARITY_LOW
1651:Drivers/STM32F0xx_HAL_Driver/Inc/stm32f0xx_ll_tim.h ****   *         @arg @ref LL_TIM_OCIDLESTATE_LOW or @ref LL_TIM_OCIDLESTATE_HIGH
1652:Drivers/STM32F0xx_HAL_Driver/Inc/stm32f0xx_ll_tim.h ****   * @retval None
1653:Drivers/STM32F0xx_HAL_Driver/Inc/stm32f0xx_ll_tim.h ****   */
1654:Drivers/STM32F0xx_HAL_Driver/Inc/stm32f0xx_ll_tim.h **** __STATIC_INLINE void LL_TIM_OC_ConfigOutput(TIM_TypeDef *TIMx, uint32_t Channel, uint32_t Configura
1655:Drivers/STM32F0xx_HAL_Driver/Inc/stm32f0xx_ll_tim.h **** {
1656:Drivers/STM32F0xx_HAL_Driver/Inc/stm32f0xx_ll_tim.h ****   uint8_t iChannel = TIM_GET_CHANNEL_INDEX(Channel);
1657:Drivers/STM32F0xx_HAL_Driver/Inc/stm32f0xx_ll_tim.h ****   __IO uint32_t *pReg = (__IO uint32_t *)((uint32_t)((uint32_t)(&TIMx->CCMR1) + OFFSET_TAB_CCMRx[iC
1658:Drivers/STM32F0xx_HAL_Driver/Inc/stm32f0xx_ll_tim.h ****   CLEAR_BIT(*pReg, (TIM_CCMR1_CC1S << SHIFT_TAB_OCxx[iChannel]));
1659:Drivers/STM32F0xx_HAL_Driver/Inc/stm32f0xx_ll_tim.h ****   MODIFY_REG(TIMx->CCER, (TIM_CCER_CC1P << SHIFT_TAB_CCxP[iChannel]),
1660:Drivers/STM32F0xx_HAL_Driver/Inc/stm32f0xx_ll_tim.h ****              (Configuration & TIM_CCER_CC1P) << SHIFT_TAB_CCxP[iChannel]);
1661:Drivers/STM32F0xx_HAL_Driver/Inc/stm32f0xx_ll_tim.h ****   MODIFY_REG(TIMx->CR2, (TIM_CR2_OIS1 << SHIFT_TAB_OISx[iChannel]),
1662:Drivers/STM32F0xx_HAL_Driver/Inc/stm32f0xx_ll_tim.h ****              (Configuration & TIM_CR2_OIS1) << SHIFT_TAB_OISx[iChannel]);
1663:Drivers/STM32F0xx_HAL_Driver/Inc/stm32f0xx_ll_tim.h **** }
1664:Drivers/STM32F0xx_HAL_Driver/Inc/stm32f0xx_ll_tim.h **** 
1665:Drivers/STM32F0xx_HAL_Driver/Inc/stm32f0xx_ll_tim.h **** /**
1666:Drivers/STM32F0xx_HAL_Driver/Inc/stm32f0xx_ll_tim.h ****   * @brief  Define the behavior of the output reference signal OCxREF from which
1667:Drivers/STM32F0xx_HAL_Driver/Inc/stm32f0xx_ll_tim.h ****   *         OCx and OCxN (when relevant) are derived.
1668:Drivers/STM32F0xx_HAL_Driver/Inc/stm32f0xx_ll_tim.h ****   * @rmtoll CCMR1        OC1M          LL_TIM_OC_SetMode\n
1669:Drivers/STM32F0xx_HAL_Driver/Inc/stm32f0xx_ll_tim.h ****   *         CCMR1        OC2M          LL_TIM_OC_SetMode\n
1670:Drivers/STM32F0xx_HAL_Driver/Inc/stm32f0xx_ll_tim.h ****   *         CCMR2        OC3M          LL_TIM_OC_SetMode\n
1671:Drivers/STM32F0xx_HAL_Driver/Inc/stm32f0xx_ll_tim.h ****   *         CCMR2        OC4M          LL_TIM_OC_SetMode
1672:Drivers/STM32F0xx_HAL_Driver/Inc/stm32f0xx_ll_tim.h ****   * @param  TIMx Timer instance
1673:Drivers/STM32F0xx_HAL_Driver/Inc/stm32f0xx_ll_tim.h ****   * @param  Channel This parameter can be one of the following values:
1674:Drivers/STM32F0xx_HAL_Driver/Inc/stm32f0xx_ll_tim.h ****   *         @arg @ref LL_TIM_CHANNEL_CH1
1675:Drivers/STM32F0xx_HAL_Driver/Inc/stm32f0xx_ll_tim.h ****   *         @arg @ref LL_TIM_CHANNEL_CH2
1676:Drivers/STM32F0xx_HAL_Driver/Inc/stm32f0xx_ll_tim.h ****   *         @arg @ref LL_TIM_CHANNEL_CH3
1677:Drivers/STM32F0xx_HAL_Driver/Inc/stm32f0xx_ll_tim.h ****   *         @arg @ref LL_TIM_CHANNEL_CH4
1678:Drivers/STM32F0xx_HAL_Driver/Inc/stm32f0xx_ll_tim.h ****   * @param  Mode This parameter can be one of the following values:
1679:Drivers/STM32F0xx_HAL_Driver/Inc/stm32f0xx_ll_tim.h ****   *         @arg @ref LL_TIM_OCMODE_FROZEN
1680:Drivers/STM32F0xx_HAL_Driver/Inc/stm32f0xx_ll_tim.h ****   *         @arg @ref LL_TIM_OCMODE_ACTIVE
1681:Drivers/STM32F0xx_HAL_Driver/Inc/stm32f0xx_ll_tim.h ****   *         @arg @ref LL_TIM_OCMODE_INACTIVE
1682:Drivers/STM32F0xx_HAL_Driver/Inc/stm32f0xx_ll_tim.h ****   *         @arg @ref LL_TIM_OCMODE_TOGGLE
1683:Drivers/STM32F0xx_HAL_Driver/Inc/stm32f0xx_ll_tim.h ****   *         @arg @ref LL_TIM_OCMODE_FORCED_INACTIVE
1684:Drivers/STM32F0xx_HAL_Driver/Inc/stm32f0xx_ll_tim.h ****   *         @arg @ref LL_TIM_OCMODE_FORCED_ACTIVE
1685:Drivers/STM32F0xx_HAL_Driver/Inc/stm32f0xx_ll_tim.h ****   *         @arg @ref LL_TIM_OCMODE_PWM1
1686:Drivers/STM32F0xx_HAL_Driver/Inc/stm32f0xx_ll_tim.h ****   *         @arg @ref LL_TIM_OCMODE_PWM2
1687:Drivers/STM32F0xx_HAL_Driver/Inc/stm32f0xx_ll_tim.h ****   * @retval None
1688:Drivers/STM32F0xx_HAL_Driver/Inc/stm32f0xx_ll_tim.h ****   */
1689:Drivers/STM32F0xx_HAL_Driver/Inc/stm32f0xx_ll_tim.h **** __STATIC_INLINE void LL_TIM_OC_SetMode(TIM_TypeDef *TIMx, uint32_t Channel, uint32_t Mode)
1690:Drivers/STM32F0xx_HAL_Driver/Inc/stm32f0xx_ll_tim.h **** {
1691:Drivers/STM32F0xx_HAL_Driver/Inc/stm32f0xx_ll_tim.h ****   uint8_t iChannel = TIM_GET_CHANNEL_INDEX(Channel);
1692:Drivers/STM32F0xx_HAL_Driver/Inc/stm32f0xx_ll_tim.h ****   __IO uint32_t *pReg = (__IO uint32_t *)((uint32_t)((uint32_t)(&TIMx->CCMR1) + OFFSET_TAB_CCMRx[iC
1693:Drivers/STM32F0xx_HAL_Driver/Inc/stm32f0xx_ll_tim.h ****   MODIFY_REG(*pReg, ((TIM_CCMR1_OC1M  | TIM_CCMR1_CC1S) << SHIFT_TAB_OCxx[iChannel]), Mode << SHIFT
1694:Drivers/STM32F0xx_HAL_Driver/Inc/stm32f0xx_ll_tim.h **** }
1695:Drivers/STM32F0xx_HAL_Driver/Inc/stm32f0xx_ll_tim.h **** 
1696:Drivers/STM32F0xx_HAL_Driver/Inc/stm32f0xx_ll_tim.h **** /**
1697:Drivers/STM32F0xx_HAL_Driver/Inc/stm32f0xx_ll_tim.h ****   * @brief  Get the output compare mode of an output channel.
1698:Drivers/STM32F0xx_HAL_Driver/Inc/stm32f0xx_ll_tim.h ****   * @rmtoll CCMR1        OC1M          LL_TIM_OC_GetMode\n
1699:Drivers/STM32F0xx_HAL_Driver/Inc/stm32f0xx_ll_tim.h ****   *         CCMR1        OC2M          LL_TIM_OC_GetMode\n
1700:Drivers/STM32F0xx_HAL_Driver/Inc/stm32f0xx_ll_tim.h ****   *         CCMR2        OC3M          LL_TIM_OC_GetMode\n
1701:Drivers/STM32F0xx_HAL_Driver/Inc/stm32f0xx_ll_tim.h ****   *         CCMR2        OC4M          LL_TIM_OC_GetMode
1702:Drivers/STM32F0xx_HAL_Driver/Inc/stm32f0xx_ll_tim.h ****   * @param  TIMx Timer instance
1703:Drivers/STM32F0xx_HAL_Driver/Inc/stm32f0xx_ll_tim.h ****   * @param  Channel This parameter can be one of the following values:
ARM GAS  C:\Users\ADMINI~1\AppData\Local\Temp\ccNQkssi.s 			page 37


1704:Drivers/STM32F0xx_HAL_Driver/Inc/stm32f0xx_ll_tim.h ****   *         @arg @ref LL_TIM_CHANNEL_CH1
1705:Drivers/STM32F0xx_HAL_Driver/Inc/stm32f0xx_ll_tim.h ****   *         @arg @ref LL_TIM_CHANNEL_CH2
1706:Drivers/STM32F0xx_HAL_Driver/Inc/stm32f0xx_ll_tim.h ****   *         @arg @ref LL_TIM_CHANNEL_CH3
1707:Drivers/STM32F0xx_HAL_Driver/Inc/stm32f0xx_ll_tim.h ****   *         @arg @ref LL_TIM_CHANNEL_CH4
1708:Drivers/STM32F0xx_HAL_Driver/Inc/stm32f0xx_ll_tim.h ****   * @retval Returned value can be one of the following values:
1709:Drivers/STM32F0xx_HAL_Driver/Inc/stm32f0xx_ll_tim.h ****   *         @arg @ref LL_TIM_OCMODE_FROZEN
1710:Drivers/STM32F0xx_HAL_Driver/Inc/stm32f0xx_ll_tim.h ****   *         @arg @ref LL_TIM_OCMODE_ACTIVE
1711:Drivers/STM32F0xx_HAL_Driver/Inc/stm32f0xx_ll_tim.h ****   *         @arg @ref LL_TIM_OCMODE_INACTIVE
1712:Drivers/STM32F0xx_HAL_Driver/Inc/stm32f0xx_ll_tim.h ****   *         @arg @ref LL_TIM_OCMODE_TOGGLE
1713:Drivers/STM32F0xx_HAL_Driver/Inc/stm32f0xx_ll_tim.h ****   *         @arg @ref LL_TIM_OCMODE_FORCED_INACTIVE
1714:Drivers/STM32F0xx_HAL_Driver/Inc/stm32f0xx_ll_tim.h ****   *         @arg @ref LL_TIM_OCMODE_FORCED_ACTIVE
1715:Drivers/STM32F0xx_HAL_Driver/Inc/stm32f0xx_ll_tim.h ****   *         @arg @ref LL_TIM_OCMODE_PWM1
1716:Drivers/STM32F0xx_HAL_Driver/Inc/stm32f0xx_ll_tim.h ****   *         @arg @ref LL_TIM_OCMODE_PWM2
1717:Drivers/STM32F0xx_HAL_Driver/Inc/stm32f0xx_ll_tim.h ****   */
1718:Drivers/STM32F0xx_HAL_Driver/Inc/stm32f0xx_ll_tim.h **** __STATIC_INLINE uint32_t LL_TIM_OC_GetMode(TIM_TypeDef *TIMx, uint32_t Channel)
1719:Drivers/STM32F0xx_HAL_Driver/Inc/stm32f0xx_ll_tim.h **** {
1720:Drivers/STM32F0xx_HAL_Driver/Inc/stm32f0xx_ll_tim.h ****   uint8_t iChannel = TIM_GET_CHANNEL_INDEX(Channel);
1721:Drivers/STM32F0xx_HAL_Driver/Inc/stm32f0xx_ll_tim.h ****   const __IO uint32_t *pReg = (__IO uint32_t *)((uint32_t)((uint32_t)(&TIMx->CCMR1) + OFFSET_TAB_CC
1722:Drivers/STM32F0xx_HAL_Driver/Inc/stm32f0xx_ll_tim.h ****   return (READ_BIT(*pReg, ((TIM_CCMR1_OC1M | TIM_CCMR1_CC1S) << SHIFT_TAB_OCxx[iChannel])) >> SHIFT
1723:Drivers/STM32F0xx_HAL_Driver/Inc/stm32f0xx_ll_tim.h **** }
1724:Drivers/STM32F0xx_HAL_Driver/Inc/stm32f0xx_ll_tim.h **** 
1725:Drivers/STM32F0xx_HAL_Driver/Inc/stm32f0xx_ll_tim.h **** /**
1726:Drivers/STM32F0xx_HAL_Driver/Inc/stm32f0xx_ll_tim.h ****   * @brief  Set the polarity of an output channel.
1727:Drivers/STM32F0xx_HAL_Driver/Inc/stm32f0xx_ll_tim.h ****   * @rmtoll CCER         CC1P          LL_TIM_OC_SetPolarity\n
1728:Drivers/STM32F0xx_HAL_Driver/Inc/stm32f0xx_ll_tim.h ****   *         CCER         CC1NP         LL_TIM_OC_SetPolarity\n
1729:Drivers/STM32F0xx_HAL_Driver/Inc/stm32f0xx_ll_tim.h ****   *         CCER         CC2P          LL_TIM_OC_SetPolarity\n
1730:Drivers/STM32F0xx_HAL_Driver/Inc/stm32f0xx_ll_tim.h ****   *         CCER         CC2NP         LL_TIM_OC_SetPolarity\n
1731:Drivers/STM32F0xx_HAL_Driver/Inc/stm32f0xx_ll_tim.h ****   *         CCER         CC3P          LL_TIM_OC_SetPolarity\n
1732:Drivers/STM32F0xx_HAL_Driver/Inc/stm32f0xx_ll_tim.h ****   *         CCER         CC3NP         LL_TIM_OC_SetPolarity\n
1733:Drivers/STM32F0xx_HAL_Driver/Inc/stm32f0xx_ll_tim.h ****   *         CCER         CC4P          LL_TIM_OC_SetPolarity
1734:Drivers/STM32F0xx_HAL_Driver/Inc/stm32f0xx_ll_tim.h ****   * @param  TIMx Timer instance
1735:Drivers/STM32F0xx_HAL_Driver/Inc/stm32f0xx_ll_tim.h ****   * @param  Channel This parameter can be one of the following values:
1736:Drivers/STM32F0xx_HAL_Driver/Inc/stm32f0xx_ll_tim.h ****   *         @arg @ref LL_TIM_CHANNEL_CH1
1737:Drivers/STM32F0xx_HAL_Driver/Inc/stm32f0xx_ll_tim.h ****   *         @arg @ref LL_TIM_CHANNEL_CH1N
1738:Drivers/STM32F0xx_HAL_Driver/Inc/stm32f0xx_ll_tim.h ****   *         @arg @ref LL_TIM_CHANNEL_CH2
1739:Drivers/STM32F0xx_HAL_Driver/Inc/stm32f0xx_ll_tim.h ****   *         @arg @ref LL_TIM_CHANNEL_CH2N
1740:Drivers/STM32F0xx_HAL_Driver/Inc/stm32f0xx_ll_tim.h ****   *         @arg @ref LL_TIM_CHANNEL_CH3
1741:Drivers/STM32F0xx_HAL_Driver/Inc/stm32f0xx_ll_tim.h ****   *         @arg @ref LL_TIM_CHANNEL_CH3N
1742:Drivers/STM32F0xx_HAL_Driver/Inc/stm32f0xx_ll_tim.h ****   *         @arg @ref LL_TIM_CHANNEL_CH4
1743:Drivers/STM32F0xx_HAL_Driver/Inc/stm32f0xx_ll_tim.h ****   * @param  Polarity This parameter can be one of the following values:
1744:Drivers/STM32F0xx_HAL_Driver/Inc/stm32f0xx_ll_tim.h ****   *         @arg @ref LL_TIM_OCPOLARITY_HIGH
1745:Drivers/STM32F0xx_HAL_Driver/Inc/stm32f0xx_ll_tim.h ****   *         @arg @ref LL_TIM_OCPOLARITY_LOW
1746:Drivers/STM32F0xx_HAL_Driver/Inc/stm32f0xx_ll_tim.h ****   * @retval None
1747:Drivers/STM32F0xx_HAL_Driver/Inc/stm32f0xx_ll_tim.h ****   */
1748:Drivers/STM32F0xx_HAL_Driver/Inc/stm32f0xx_ll_tim.h **** __STATIC_INLINE void LL_TIM_OC_SetPolarity(TIM_TypeDef *TIMx, uint32_t Channel, uint32_t Polarity)
1749:Drivers/STM32F0xx_HAL_Driver/Inc/stm32f0xx_ll_tim.h **** {
1750:Drivers/STM32F0xx_HAL_Driver/Inc/stm32f0xx_ll_tim.h ****   uint8_t iChannel = TIM_GET_CHANNEL_INDEX(Channel);
1751:Drivers/STM32F0xx_HAL_Driver/Inc/stm32f0xx_ll_tim.h ****   MODIFY_REG(TIMx->CCER, (TIM_CCER_CC1P << SHIFT_TAB_CCxP[iChannel]),  Polarity << SHIFT_TAB_CCxP[i
1752:Drivers/STM32F0xx_HAL_Driver/Inc/stm32f0xx_ll_tim.h **** }
1753:Drivers/STM32F0xx_HAL_Driver/Inc/stm32f0xx_ll_tim.h **** 
1754:Drivers/STM32F0xx_HAL_Driver/Inc/stm32f0xx_ll_tim.h **** /**
1755:Drivers/STM32F0xx_HAL_Driver/Inc/stm32f0xx_ll_tim.h ****   * @brief  Get the polarity of an output channel.
1756:Drivers/STM32F0xx_HAL_Driver/Inc/stm32f0xx_ll_tim.h ****   * @rmtoll CCER         CC1P          LL_TIM_OC_GetPolarity\n
1757:Drivers/STM32F0xx_HAL_Driver/Inc/stm32f0xx_ll_tim.h ****   *         CCER         CC1NP         LL_TIM_OC_GetPolarity\n
1758:Drivers/STM32F0xx_HAL_Driver/Inc/stm32f0xx_ll_tim.h ****   *         CCER         CC2P          LL_TIM_OC_GetPolarity\n
1759:Drivers/STM32F0xx_HAL_Driver/Inc/stm32f0xx_ll_tim.h ****   *         CCER         CC2NP         LL_TIM_OC_GetPolarity\n
1760:Drivers/STM32F0xx_HAL_Driver/Inc/stm32f0xx_ll_tim.h ****   *         CCER         CC3P          LL_TIM_OC_GetPolarity\n
ARM GAS  C:\Users\ADMINI~1\AppData\Local\Temp\ccNQkssi.s 			page 38


1761:Drivers/STM32F0xx_HAL_Driver/Inc/stm32f0xx_ll_tim.h ****   *         CCER         CC3NP         LL_TIM_OC_GetPolarity\n
1762:Drivers/STM32F0xx_HAL_Driver/Inc/stm32f0xx_ll_tim.h ****   *         CCER         CC4P          LL_TIM_OC_GetPolarity
1763:Drivers/STM32F0xx_HAL_Driver/Inc/stm32f0xx_ll_tim.h ****   * @param  TIMx Timer instance
1764:Drivers/STM32F0xx_HAL_Driver/Inc/stm32f0xx_ll_tim.h ****   * @param  Channel This parameter can be one of the following values:
1765:Drivers/STM32F0xx_HAL_Driver/Inc/stm32f0xx_ll_tim.h ****   *         @arg @ref LL_TIM_CHANNEL_CH1
1766:Drivers/STM32F0xx_HAL_Driver/Inc/stm32f0xx_ll_tim.h ****   *         @arg @ref LL_TIM_CHANNEL_CH1N
1767:Drivers/STM32F0xx_HAL_Driver/Inc/stm32f0xx_ll_tim.h ****   *         @arg @ref LL_TIM_CHANNEL_CH2
1768:Drivers/STM32F0xx_HAL_Driver/Inc/stm32f0xx_ll_tim.h ****   *         @arg @ref LL_TIM_CHANNEL_CH2N
1769:Drivers/STM32F0xx_HAL_Driver/Inc/stm32f0xx_ll_tim.h ****   *         @arg @ref LL_TIM_CHANNEL_CH3
1770:Drivers/STM32F0xx_HAL_Driver/Inc/stm32f0xx_ll_tim.h ****   *         @arg @ref LL_TIM_CHANNEL_CH3N
1771:Drivers/STM32F0xx_HAL_Driver/Inc/stm32f0xx_ll_tim.h ****   *         @arg @ref LL_TIM_CHANNEL_CH4
1772:Drivers/STM32F0xx_HAL_Driver/Inc/stm32f0xx_ll_tim.h ****   * @retval Returned value can be one of the following values:
1773:Drivers/STM32F0xx_HAL_Driver/Inc/stm32f0xx_ll_tim.h ****   *         @arg @ref LL_TIM_OCPOLARITY_HIGH
1774:Drivers/STM32F0xx_HAL_Driver/Inc/stm32f0xx_ll_tim.h ****   *         @arg @ref LL_TIM_OCPOLARITY_LOW
1775:Drivers/STM32F0xx_HAL_Driver/Inc/stm32f0xx_ll_tim.h ****   */
1776:Drivers/STM32F0xx_HAL_Driver/Inc/stm32f0xx_ll_tim.h **** __STATIC_INLINE uint32_t LL_TIM_OC_GetPolarity(TIM_TypeDef *TIMx, uint32_t Channel)
1777:Drivers/STM32F0xx_HAL_Driver/Inc/stm32f0xx_ll_tim.h **** {
1778:Drivers/STM32F0xx_HAL_Driver/Inc/stm32f0xx_ll_tim.h ****   uint8_t iChannel = TIM_GET_CHANNEL_INDEX(Channel);
1779:Drivers/STM32F0xx_HAL_Driver/Inc/stm32f0xx_ll_tim.h ****   return (READ_BIT(TIMx->CCER, (TIM_CCER_CC1P << SHIFT_TAB_CCxP[iChannel])) >> SHIFT_TAB_CCxP[iChan
1780:Drivers/STM32F0xx_HAL_Driver/Inc/stm32f0xx_ll_tim.h **** }
1781:Drivers/STM32F0xx_HAL_Driver/Inc/stm32f0xx_ll_tim.h **** 
1782:Drivers/STM32F0xx_HAL_Driver/Inc/stm32f0xx_ll_tim.h **** /**
1783:Drivers/STM32F0xx_HAL_Driver/Inc/stm32f0xx_ll_tim.h ****   * @brief  Set the IDLE state of an output channel
1784:Drivers/STM32F0xx_HAL_Driver/Inc/stm32f0xx_ll_tim.h ****   * @note This function is significant only for the timer instances
1785:Drivers/STM32F0xx_HAL_Driver/Inc/stm32f0xx_ll_tim.h ****   *       supporting the break feature. Macro IS_TIM_BREAK_INSTANCE(TIMx)
1786:Drivers/STM32F0xx_HAL_Driver/Inc/stm32f0xx_ll_tim.h ****   *       can be used to check whether or not a timer instance provides
1787:Drivers/STM32F0xx_HAL_Driver/Inc/stm32f0xx_ll_tim.h ****   *       a break input.
1788:Drivers/STM32F0xx_HAL_Driver/Inc/stm32f0xx_ll_tim.h ****   * @rmtoll CR2         OIS1          LL_TIM_OC_SetIdleState\n
1789:Drivers/STM32F0xx_HAL_Driver/Inc/stm32f0xx_ll_tim.h ****   *         CR2         OIS1N         LL_TIM_OC_SetIdleState\n
1790:Drivers/STM32F0xx_HAL_Driver/Inc/stm32f0xx_ll_tim.h ****   *         CR2         OIS2          LL_TIM_OC_SetIdleState\n
1791:Drivers/STM32F0xx_HAL_Driver/Inc/stm32f0xx_ll_tim.h ****   *         CR2         OIS2N         LL_TIM_OC_SetIdleState\n
1792:Drivers/STM32F0xx_HAL_Driver/Inc/stm32f0xx_ll_tim.h ****   *         CR2         OIS3          LL_TIM_OC_SetIdleState\n
1793:Drivers/STM32F0xx_HAL_Driver/Inc/stm32f0xx_ll_tim.h ****   *         CR2         OIS3N         LL_TIM_OC_SetIdleState\n
1794:Drivers/STM32F0xx_HAL_Driver/Inc/stm32f0xx_ll_tim.h ****   *         CR2         OIS4          LL_TIM_OC_SetIdleState
1795:Drivers/STM32F0xx_HAL_Driver/Inc/stm32f0xx_ll_tim.h ****   * @param  TIMx Timer instance
1796:Drivers/STM32F0xx_HAL_Driver/Inc/stm32f0xx_ll_tim.h ****   * @param  Channel This parameter can be one of the following values:
1797:Drivers/STM32F0xx_HAL_Driver/Inc/stm32f0xx_ll_tim.h ****   *         @arg @ref LL_TIM_CHANNEL_CH1
1798:Drivers/STM32F0xx_HAL_Driver/Inc/stm32f0xx_ll_tim.h ****   *         @arg @ref LL_TIM_CHANNEL_CH1N
1799:Drivers/STM32F0xx_HAL_Driver/Inc/stm32f0xx_ll_tim.h ****   *         @arg @ref LL_TIM_CHANNEL_CH2
1800:Drivers/STM32F0xx_HAL_Driver/Inc/stm32f0xx_ll_tim.h ****   *         @arg @ref LL_TIM_CHANNEL_CH2N
1801:Drivers/STM32F0xx_HAL_Driver/Inc/stm32f0xx_ll_tim.h ****   *         @arg @ref LL_TIM_CHANNEL_CH3
1802:Drivers/STM32F0xx_HAL_Driver/Inc/stm32f0xx_ll_tim.h ****   *         @arg @ref LL_TIM_CHANNEL_CH3N
1803:Drivers/STM32F0xx_HAL_Driver/Inc/stm32f0xx_ll_tim.h ****   *         @arg @ref LL_TIM_CHANNEL_CH4
1804:Drivers/STM32F0xx_HAL_Driver/Inc/stm32f0xx_ll_tim.h ****   * @param  IdleState This parameter can be one of the following values:
1805:Drivers/STM32F0xx_HAL_Driver/Inc/stm32f0xx_ll_tim.h ****   *         @arg @ref LL_TIM_OCIDLESTATE_LOW
1806:Drivers/STM32F0xx_HAL_Driver/Inc/stm32f0xx_ll_tim.h ****   *         @arg @ref LL_TIM_OCIDLESTATE_HIGH
1807:Drivers/STM32F0xx_HAL_Driver/Inc/stm32f0xx_ll_tim.h ****   * @retval None
1808:Drivers/STM32F0xx_HAL_Driver/Inc/stm32f0xx_ll_tim.h ****   */
1809:Drivers/STM32F0xx_HAL_Driver/Inc/stm32f0xx_ll_tim.h **** __STATIC_INLINE void LL_TIM_OC_SetIdleState(TIM_TypeDef *TIMx, uint32_t Channel, uint32_t IdleState
1810:Drivers/STM32F0xx_HAL_Driver/Inc/stm32f0xx_ll_tim.h **** {
1811:Drivers/STM32F0xx_HAL_Driver/Inc/stm32f0xx_ll_tim.h ****   uint8_t iChannel = TIM_GET_CHANNEL_INDEX(Channel);
1812:Drivers/STM32F0xx_HAL_Driver/Inc/stm32f0xx_ll_tim.h ****   MODIFY_REG(TIMx->CR2, (TIM_CR2_OIS1 << SHIFT_TAB_OISx[iChannel]),  IdleState << SHIFT_TAB_OISx[iC
1813:Drivers/STM32F0xx_HAL_Driver/Inc/stm32f0xx_ll_tim.h **** }
1814:Drivers/STM32F0xx_HAL_Driver/Inc/stm32f0xx_ll_tim.h **** 
1815:Drivers/STM32F0xx_HAL_Driver/Inc/stm32f0xx_ll_tim.h **** /**
1816:Drivers/STM32F0xx_HAL_Driver/Inc/stm32f0xx_ll_tim.h ****   * @brief  Get the IDLE state of an output channel
1817:Drivers/STM32F0xx_HAL_Driver/Inc/stm32f0xx_ll_tim.h ****   * @rmtoll CR2         OIS1          LL_TIM_OC_GetIdleState\n
ARM GAS  C:\Users\ADMINI~1\AppData\Local\Temp\ccNQkssi.s 			page 39


1818:Drivers/STM32F0xx_HAL_Driver/Inc/stm32f0xx_ll_tim.h ****   *         CR2         OIS1N         LL_TIM_OC_GetIdleState\n
1819:Drivers/STM32F0xx_HAL_Driver/Inc/stm32f0xx_ll_tim.h ****   *         CR2         OIS2          LL_TIM_OC_GetIdleState\n
1820:Drivers/STM32F0xx_HAL_Driver/Inc/stm32f0xx_ll_tim.h ****   *         CR2         OIS2N         LL_TIM_OC_GetIdleState\n
1821:Drivers/STM32F0xx_HAL_Driver/Inc/stm32f0xx_ll_tim.h ****   *         CR2         OIS3          LL_TIM_OC_GetIdleState\n
1822:Drivers/STM32F0xx_HAL_Driver/Inc/stm32f0xx_ll_tim.h ****   *         CR2         OIS3N         LL_TIM_OC_GetIdleState\n
1823:Drivers/STM32F0xx_HAL_Driver/Inc/stm32f0xx_ll_tim.h ****   *         CR2         OIS4          LL_TIM_OC_GetIdleState
1824:Drivers/STM32F0xx_HAL_Driver/Inc/stm32f0xx_ll_tim.h ****   * @param  TIMx Timer instance
1825:Drivers/STM32F0xx_HAL_Driver/Inc/stm32f0xx_ll_tim.h ****   * @param  Channel This parameter can be one of the following values:
1826:Drivers/STM32F0xx_HAL_Driver/Inc/stm32f0xx_ll_tim.h ****   *         @arg @ref LL_TIM_CHANNEL_CH1
1827:Drivers/STM32F0xx_HAL_Driver/Inc/stm32f0xx_ll_tim.h ****   *         @arg @ref LL_TIM_CHANNEL_CH1N
1828:Drivers/STM32F0xx_HAL_Driver/Inc/stm32f0xx_ll_tim.h ****   *         @arg @ref LL_TIM_CHANNEL_CH2
1829:Drivers/STM32F0xx_HAL_Driver/Inc/stm32f0xx_ll_tim.h ****   *         @arg @ref LL_TIM_CHANNEL_CH2N
1830:Drivers/STM32F0xx_HAL_Driver/Inc/stm32f0xx_ll_tim.h ****   *         @arg @ref LL_TIM_CHANNEL_CH3
1831:Drivers/STM32F0xx_HAL_Driver/Inc/stm32f0xx_ll_tim.h ****   *         @arg @ref LL_TIM_CHANNEL_CH3N
1832:Drivers/STM32F0xx_HAL_Driver/Inc/stm32f0xx_ll_tim.h ****   *         @arg @ref LL_TIM_CHANNEL_CH4
1833:Drivers/STM32F0xx_HAL_Driver/Inc/stm32f0xx_ll_tim.h ****   * @retval Returned value can be one of the following values:
1834:Drivers/STM32F0xx_HAL_Driver/Inc/stm32f0xx_ll_tim.h ****   *         @arg @ref LL_TIM_OCIDLESTATE_LOW
1835:Drivers/STM32F0xx_HAL_Driver/Inc/stm32f0xx_ll_tim.h ****   *         @arg @ref LL_TIM_OCIDLESTATE_HIGH
1836:Drivers/STM32F0xx_HAL_Driver/Inc/stm32f0xx_ll_tim.h ****   */
1837:Drivers/STM32F0xx_HAL_Driver/Inc/stm32f0xx_ll_tim.h **** __STATIC_INLINE uint32_t LL_TIM_OC_GetIdleState(TIM_TypeDef *TIMx, uint32_t Channel)
1838:Drivers/STM32F0xx_HAL_Driver/Inc/stm32f0xx_ll_tim.h **** {
1839:Drivers/STM32F0xx_HAL_Driver/Inc/stm32f0xx_ll_tim.h ****   uint8_t iChannel = TIM_GET_CHANNEL_INDEX(Channel);
1840:Drivers/STM32F0xx_HAL_Driver/Inc/stm32f0xx_ll_tim.h ****   return (READ_BIT(TIMx->CR2, (TIM_CR2_OIS1 << SHIFT_TAB_OISx[iChannel])) >> SHIFT_TAB_OISx[iChanne
1841:Drivers/STM32F0xx_HAL_Driver/Inc/stm32f0xx_ll_tim.h **** }
1842:Drivers/STM32F0xx_HAL_Driver/Inc/stm32f0xx_ll_tim.h **** 
1843:Drivers/STM32F0xx_HAL_Driver/Inc/stm32f0xx_ll_tim.h **** /**
1844:Drivers/STM32F0xx_HAL_Driver/Inc/stm32f0xx_ll_tim.h ****   * @brief  Enable fast mode for the output channel.
1845:Drivers/STM32F0xx_HAL_Driver/Inc/stm32f0xx_ll_tim.h ****   * @note Acts only if the channel is configured in PWM1 or PWM2 mode.
1846:Drivers/STM32F0xx_HAL_Driver/Inc/stm32f0xx_ll_tim.h ****   * @rmtoll CCMR1        OC1FE          LL_TIM_OC_EnableFast\n
1847:Drivers/STM32F0xx_HAL_Driver/Inc/stm32f0xx_ll_tim.h ****   *         CCMR1        OC2FE          LL_TIM_OC_EnableFast\n
1848:Drivers/STM32F0xx_HAL_Driver/Inc/stm32f0xx_ll_tim.h ****   *         CCMR2        OC3FE          LL_TIM_OC_EnableFast\n
1849:Drivers/STM32F0xx_HAL_Driver/Inc/stm32f0xx_ll_tim.h ****   *         CCMR2        OC4FE          LL_TIM_OC_EnableFast
1850:Drivers/STM32F0xx_HAL_Driver/Inc/stm32f0xx_ll_tim.h ****   * @param  TIMx Timer instance
1851:Drivers/STM32F0xx_HAL_Driver/Inc/stm32f0xx_ll_tim.h ****   * @param  Channel This parameter can be one of the following values:
1852:Drivers/STM32F0xx_HAL_Driver/Inc/stm32f0xx_ll_tim.h ****   *         @arg @ref LL_TIM_CHANNEL_CH1
1853:Drivers/STM32F0xx_HAL_Driver/Inc/stm32f0xx_ll_tim.h ****   *         @arg @ref LL_TIM_CHANNEL_CH2
1854:Drivers/STM32F0xx_HAL_Driver/Inc/stm32f0xx_ll_tim.h ****   *         @arg @ref LL_TIM_CHANNEL_CH3
1855:Drivers/STM32F0xx_HAL_Driver/Inc/stm32f0xx_ll_tim.h ****   *         @arg @ref LL_TIM_CHANNEL_CH4
1856:Drivers/STM32F0xx_HAL_Driver/Inc/stm32f0xx_ll_tim.h ****   * @retval None
1857:Drivers/STM32F0xx_HAL_Driver/Inc/stm32f0xx_ll_tim.h ****   */
1858:Drivers/STM32F0xx_HAL_Driver/Inc/stm32f0xx_ll_tim.h **** __STATIC_INLINE void LL_TIM_OC_EnableFast(TIM_TypeDef *TIMx, uint32_t Channel)
1859:Drivers/STM32F0xx_HAL_Driver/Inc/stm32f0xx_ll_tim.h **** {
1860:Drivers/STM32F0xx_HAL_Driver/Inc/stm32f0xx_ll_tim.h ****   uint8_t iChannel = TIM_GET_CHANNEL_INDEX(Channel);
1861:Drivers/STM32F0xx_HAL_Driver/Inc/stm32f0xx_ll_tim.h ****   __IO uint32_t *pReg = (__IO uint32_t *)((uint32_t)((uint32_t)(&TIMx->CCMR1) + OFFSET_TAB_CCMRx[iC
1862:Drivers/STM32F0xx_HAL_Driver/Inc/stm32f0xx_ll_tim.h ****   SET_BIT(*pReg, (TIM_CCMR1_OC1FE << SHIFT_TAB_OCxx[iChannel]));
1863:Drivers/STM32F0xx_HAL_Driver/Inc/stm32f0xx_ll_tim.h **** 
1864:Drivers/STM32F0xx_HAL_Driver/Inc/stm32f0xx_ll_tim.h **** }
1865:Drivers/STM32F0xx_HAL_Driver/Inc/stm32f0xx_ll_tim.h **** 
1866:Drivers/STM32F0xx_HAL_Driver/Inc/stm32f0xx_ll_tim.h **** /**
1867:Drivers/STM32F0xx_HAL_Driver/Inc/stm32f0xx_ll_tim.h ****   * @brief  Disable fast mode for the output channel.
1868:Drivers/STM32F0xx_HAL_Driver/Inc/stm32f0xx_ll_tim.h ****   * @rmtoll CCMR1        OC1FE          LL_TIM_OC_DisableFast\n
1869:Drivers/STM32F0xx_HAL_Driver/Inc/stm32f0xx_ll_tim.h ****   *         CCMR1        OC2FE          LL_TIM_OC_DisableFast\n
1870:Drivers/STM32F0xx_HAL_Driver/Inc/stm32f0xx_ll_tim.h ****   *         CCMR2        OC3FE          LL_TIM_OC_DisableFast\n
1871:Drivers/STM32F0xx_HAL_Driver/Inc/stm32f0xx_ll_tim.h ****   *         CCMR2        OC4FE          LL_TIM_OC_DisableFast
1872:Drivers/STM32F0xx_HAL_Driver/Inc/stm32f0xx_ll_tim.h ****   * @param  TIMx Timer instance
1873:Drivers/STM32F0xx_HAL_Driver/Inc/stm32f0xx_ll_tim.h ****   * @param  Channel This parameter can be one of the following values:
1874:Drivers/STM32F0xx_HAL_Driver/Inc/stm32f0xx_ll_tim.h ****   *         @arg @ref LL_TIM_CHANNEL_CH1
ARM GAS  C:\Users\ADMINI~1\AppData\Local\Temp\ccNQkssi.s 			page 40


1875:Drivers/STM32F0xx_HAL_Driver/Inc/stm32f0xx_ll_tim.h ****   *         @arg @ref LL_TIM_CHANNEL_CH2
1876:Drivers/STM32F0xx_HAL_Driver/Inc/stm32f0xx_ll_tim.h ****   *         @arg @ref LL_TIM_CHANNEL_CH3
1877:Drivers/STM32F0xx_HAL_Driver/Inc/stm32f0xx_ll_tim.h ****   *         @arg @ref LL_TIM_CHANNEL_CH4
1878:Drivers/STM32F0xx_HAL_Driver/Inc/stm32f0xx_ll_tim.h ****   * @retval None
1879:Drivers/STM32F0xx_HAL_Driver/Inc/stm32f0xx_ll_tim.h ****   */
1880:Drivers/STM32F0xx_HAL_Driver/Inc/stm32f0xx_ll_tim.h **** __STATIC_INLINE void LL_TIM_OC_DisableFast(TIM_TypeDef *TIMx, uint32_t Channel)
1881:Drivers/STM32F0xx_HAL_Driver/Inc/stm32f0xx_ll_tim.h **** {
1882:Drivers/STM32F0xx_HAL_Driver/Inc/stm32f0xx_ll_tim.h ****   uint8_t iChannel = TIM_GET_CHANNEL_INDEX(Channel);
1883:Drivers/STM32F0xx_HAL_Driver/Inc/stm32f0xx_ll_tim.h ****   __IO uint32_t *pReg = (__IO uint32_t *)((uint32_t)((uint32_t)(&TIMx->CCMR1) + OFFSET_TAB_CCMRx[iC
1884:Drivers/STM32F0xx_HAL_Driver/Inc/stm32f0xx_ll_tim.h ****   CLEAR_BIT(*pReg, (TIM_CCMR1_OC1FE << SHIFT_TAB_OCxx[iChannel]));
1885:Drivers/STM32F0xx_HAL_Driver/Inc/stm32f0xx_ll_tim.h **** 
1886:Drivers/STM32F0xx_HAL_Driver/Inc/stm32f0xx_ll_tim.h **** }
1887:Drivers/STM32F0xx_HAL_Driver/Inc/stm32f0xx_ll_tim.h **** 
1888:Drivers/STM32F0xx_HAL_Driver/Inc/stm32f0xx_ll_tim.h **** /**
1889:Drivers/STM32F0xx_HAL_Driver/Inc/stm32f0xx_ll_tim.h ****   * @brief  Indicates whether fast mode is enabled for the output channel.
1890:Drivers/STM32F0xx_HAL_Driver/Inc/stm32f0xx_ll_tim.h ****   * @rmtoll CCMR1        OC1FE          LL_TIM_OC_IsEnabledFast\n
1891:Drivers/STM32F0xx_HAL_Driver/Inc/stm32f0xx_ll_tim.h ****   *         CCMR1        OC2FE          LL_TIM_OC_IsEnabledFast\n
1892:Drivers/STM32F0xx_HAL_Driver/Inc/stm32f0xx_ll_tim.h ****   *         CCMR2        OC3FE          LL_TIM_OC_IsEnabledFast\n
1893:Drivers/STM32F0xx_HAL_Driver/Inc/stm32f0xx_ll_tim.h ****   *         CCMR2        OC4FE          LL_TIM_OC_IsEnabledFast\n
1894:Drivers/STM32F0xx_HAL_Driver/Inc/stm32f0xx_ll_tim.h ****   * @param  TIMx Timer instance
1895:Drivers/STM32F0xx_HAL_Driver/Inc/stm32f0xx_ll_tim.h ****   * @param  Channel This parameter can be one of the following values:
1896:Drivers/STM32F0xx_HAL_Driver/Inc/stm32f0xx_ll_tim.h ****   *         @arg @ref LL_TIM_CHANNEL_CH1
1897:Drivers/STM32F0xx_HAL_Driver/Inc/stm32f0xx_ll_tim.h ****   *         @arg @ref LL_TIM_CHANNEL_CH2
1898:Drivers/STM32F0xx_HAL_Driver/Inc/stm32f0xx_ll_tim.h ****   *         @arg @ref LL_TIM_CHANNEL_CH3
1899:Drivers/STM32F0xx_HAL_Driver/Inc/stm32f0xx_ll_tim.h ****   *         @arg @ref LL_TIM_CHANNEL_CH4
1900:Drivers/STM32F0xx_HAL_Driver/Inc/stm32f0xx_ll_tim.h ****   * @retval State of bit (1 or 0).
1901:Drivers/STM32F0xx_HAL_Driver/Inc/stm32f0xx_ll_tim.h ****   */
1902:Drivers/STM32F0xx_HAL_Driver/Inc/stm32f0xx_ll_tim.h **** __STATIC_INLINE uint32_t LL_TIM_OC_IsEnabledFast(TIM_TypeDef *TIMx, uint32_t Channel)
1903:Drivers/STM32F0xx_HAL_Driver/Inc/stm32f0xx_ll_tim.h **** {
1904:Drivers/STM32F0xx_HAL_Driver/Inc/stm32f0xx_ll_tim.h ****   uint8_t iChannel = TIM_GET_CHANNEL_INDEX(Channel);
1905:Drivers/STM32F0xx_HAL_Driver/Inc/stm32f0xx_ll_tim.h ****   const __IO uint32_t *pReg = (__IO uint32_t *)((uint32_t)((uint32_t)(&TIMx->CCMR1) + OFFSET_TAB_CC
1906:Drivers/STM32F0xx_HAL_Driver/Inc/stm32f0xx_ll_tim.h ****   uint32_t bitfield = TIM_CCMR1_OC1FE << SHIFT_TAB_OCxx[iChannel];
1907:Drivers/STM32F0xx_HAL_Driver/Inc/stm32f0xx_ll_tim.h ****   return ((READ_BIT(*pReg, bitfield) == bitfield) ? 1UL : 0UL);
1908:Drivers/STM32F0xx_HAL_Driver/Inc/stm32f0xx_ll_tim.h **** }
1909:Drivers/STM32F0xx_HAL_Driver/Inc/stm32f0xx_ll_tim.h **** 
1910:Drivers/STM32F0xx_HAL_Driver/Inc/stm32f0xx_ll_tim.h **** /**
1911:Drivers/STM32F0xx_HAL_Driver/Inc/stm32f0xx_ll_tim.h ****   * @brief  Enable compare register (TIMx_CCRx) preload for the output channel.
1912:Drivers/STM32F0xx_HAL_Driver/Inc/stm32f0xx_ll_tim.h ****   * @rmtoll CCMR1        OC1PE          LL_TIM_OC_EnablePreload\n
1913:Drivers/STM32F0xx_HAL_Driver/Inc/stm32f0xx_ll_tim.h ****   *         CCMR1        OC2PE          LL_TIM_OC_EnablePreload\n
1914:Drivers/STM32F0xx_HAL_Driver/Inc/stm32f0xx_ll_tim.h ****   *         CCMR2        OC3PE          LL_TIM_OC_EnablePreload\n
1915:Drivers/STM32F0xx_HAL_Driver/Inc/stm32f0xx_ll_tim.h ****   *         CCMR2        OC4PE          LL_TIM_OC_EnablePreload
1916:Drivers/STM32F0xx_HAL_Driver/Inc/stm32f0xx_ll_tim.h ****   * @param  TIMx Timer instance
1917:Drivers/STM32F0xx_HAL_Driver/Inc/stm32f0xx_ll_tim.h ****   * @param  Channel This parameter can be one of the following values:
1918:Drivers/STM32F0xx_HAL_Driver/Inc/stm32f0xx_ll_tim.h ****   *         @arg @ref LL_TIM_CHANNEL_CH1
1919:Drivers/STM32F0xx_HAL_Driver/Inc/stm32f0xx_ll_tim.h ****   *         @arg @ref LL_TIM_CHANNEL_CH2
1920:Drivers/STM32F0xx_HAL_Driver/Inc/stm32f0xx_ll_tim.h ****   *         @arg @ref LL_TIM_CHANNEL_CH3
1921:Drivers/STM32F0xx_HAL_Driver/Inc/stm32f0xx_ll_tim.h ****   *         @arg @ref LL_TIM_CHANNEL_CH4
1922:Drivers/STM32F0xx_HAL_Driver/Inc/stm32f0xx_ll_tim.h ****   * @retval None
1923:Drivers/STM32F0xx_HAL_Driver/Inc/stm32f0xx_ll_tim.h ****   */
1924:Drivers/STM32F0xx_HAL_Driver/Inc/stm32f0xx_ll_tim.h **** __STATIC_INLINE void LL_TIM_OC_EnablePreload(TIM_TypeDef *TIMx, uint32_t Channel)
1925:Drivers/STM32F0xx_HAL_Driver/Inc/stm32f0xx_ll_tim.h **** {
1926:Drivers/STM32F0xx_HAL_Driver/Inc/stm32f0xx_ll_tim.h ****   uint8_t iChannel = TIM_GET_CHANNEL_INDEX(Channel);
1927:Drivers/STM32F0xx_HAL_Driver/Inc/stm32f0xx_ll_tim.h ****   __IO uint32_t *pReg = (__IO uint32_t *)((uint32_t)((uint32_t)(&TIMx->CCMR1) + OFFSET_TAB_CCMRx[iC
1928:Drivers/STM32F0xx_HAL_Driver/Inc/stm32f0xx_ll_tim.h ****   SET_BIT(*pReg, (TIM_CCMR1_OC1PE << SHIFT_TAB_OCxx[iChannel]));
1929:Drivers/STM32F0xx_HAL_Driver/Inc/stm32f0xx_ll_tim.h **** }
1930:Drivers/STM32F0xx_HAL_Driver/Inc/stm32f0xx_ll_tim.h **** 
1931:Drivers/STM32F0xx_HAL_Driver/Inc/stm32f0xx_ll_tim.h **** /**
ARM GAS  C:\Users\ADMINI~1\AppData\Local\Temp\ccNQkssi.s 			page 41


1932:Drivers/STM32F0xx_HAL_Driver/Inc/stm32f0xx_ll_tim.h ****   * @brief  Disable compare register (TIMx_CCRx) preload for the output channel.
1933:Drivers/STM32F0xx_HAL_Driver/Inc/stm32f0xx_ll_tim.h ****   * @rmtoll CCMR1        OC1PE          LL_TIM_OC_DisablePreload\n
1934:Drivers/STM32F0xx_HAL_Driver/Inc/stm32f0xx_ll_tim.h ****   *         CCMR1        OC2PE          LL_TIM_OC_DisablePreload\n
1935:Drivers/STM32F0xx_HAL_Driver/Inc/stm32f0xx_ll_tim.h ****   *         CCMR2        OC3PE          LL_TIM_OC_DisablePreload\n
1936:Drivers/STM32F0xx_HAL_Driver/Inc/stm32f0xx_ll_tim.h ****   *         CCMR2        OC4PE          LL_TIM_OC_DisablePreload
1937:Drivers/STM32F0xx_HAL_Driver/Inc/stm32f0xx_ll_tim.h ****   * @param  TIMx Timer instance
1938:Drivers/STM32F0xx_HAL_Driver/Inc/stm32f0xx_ll_tim.h ****   * @param  Channel This parameter can be one of the following values:
1939:Drivers/STM32F0xx_HAL_Driver/Inc/stm32f0xx_ll_tim.h ****   *         @arg @ref LL_TIM_CHANNEL_CH1
1940:Drivers/STM32F0xx_HAL_Driver/Inc/stm32f0xx_ll_tim.h ****   *         @arg @ref LL_TIM_CHANNEL_CH2
1941:Drivers/STM32F0xx_HAL_Driver/Inc/stm32f0xx_ll_tim.h ****   *         @arg @ref LL_TIM_CHANNEL_CH3
1942:Drivers/STM32F0xx_HAL_Driver/Inc/stm32f0xx_ll_tim.h ****   *         @arg @ref LL_TIM_CHANNEL_CH4
1943:Drivers/STM32F0xx_HAL_Driver/Inc/stm32f0xx_ll_tim.h ****   * @retval None
1944:Drivers/STM32F0xx_HAL_Driver/Inc/stm32f0xx_ll_tim.h ****   */
1945:Drivers/STM32F0xx_HAL_Driver/Inc/stm32f0xx_ll_tim.h **** __STATIC_INLINE void LL_TIM_OC_DisablePreload(TIM_TypeDef *TIMx, uint32_t Channel)
1946:Drivers/STM32F0xx_HAL_Driver/Inc/stm32f0xx_ll_tim.h **** {
1947:Drivers/STM32F0xx_HAL_Driver/Inc/stm32f0xx_ll_tim.h ****   uint8_t iChannel = TIM_GET_CHANNEL_INDEX(Channel);
1948:Drivers/STM32F0xx_HAL_Driver/Inc/stm32f0xx_ll_tim.h ****   __IO uint32_t *pReg = (__IO uint32_t *)((uint32_t)((uint32_t)(&TIMx->CCMR1) + OFFSET_TAB_CCMRx[iC
1949:Drivers/STM32F0xx_HAL_Driver/Inc/stm32f0xx_ll_tim.h ****   CLEAR_BIT(*pReg, (TIM_CCMR1_OC1PE << SHIFT_TAB_OCxx[iChannel]));
1950:Drivers/STM32F0xx_HAL_Driver/Inc/stm32f0xx_ll_tim.h **** }
1951:Drivers/STM32F0xx_HAL_Driver/Inc/stm32f0xx_ll_tim.h **** 
1952:Drivers/STM32F0xx_HAL_Driver/Inc/stm32f0xx_ll_tim.h **** /**
1953:Drivers/STM32F0xx_HAL_Driver/Inc/stm32f0xx_ll_tim.h ****   * @brief  Indicates whether compare register (TIMx_CCRx) preload is enabled for the output channe
1954:Drivers/STM32F0xx_HAL_Driver/Inc/stm32f0xx_ll_tim.h ****   * @rmtoll CCMR1        OC1PE          LL_TIM_OC_IsEnabledPreload\n
1955:Drivers/STM32F0xx_HAL_Driver/Inc/stm32f0xx_ll_tim.h ****   *         CCMR1        OC2PE          LL_TIM_OC_IsEnabledPreload\n
1956:Drivers/STM32F0xx_HAL_Driver/Inc/stm32f0xx_ll_tim.h ****   *         CCMR2        OC3PE          LL_TIM_OC_IsEnabledPreload\n
1957:Drivers/STM32F0xx_HAL_Driver/Inc/stm32f0xx_ll_tim.h ****   *         CCMR2        OC4PE          LL_TIM_OC_IsEnabledPreload\n
1958:Drivers/STM32F0xx_HAL_Driver/Inc/stm32f0xx_ll_tim.h ****   * @param  TIMx Timer instance
1959:Drivers/STM32F0xx_HAL_Driver/Inc/stm32f0xx_ll_tim.h ****   * @param  Channel This parameter can be one of the following values:
1960:Drivers/STM32F0xx_HAL_Driver/Inc/stm32f0xx_ll_tim.h ****   *         @arg @ref LL_TIM_CHANNEL_CH1
1961:Drivers/STM32F0xx_HAL_Driver/Inc/stm32f0xx_ll_tim.h ****   *         @arg @ref LL_TIM_CHANNEL_CH2
1962:Drivers/STM32F0xx_HAL_Driver/Inc/stm32f0xx_ll_tim.h ****   *         @arg @ref LL_TIM_CHANNEL_CH3
1963:Drivers/STM32F0xx_HAL_Driver/Inc/stm32f0xx_ll_tim.h ****   *         @arg @ref LL_TIM_CHANNEL_CH4
1964:Drivers/STM32F0xx_HAL_Driver/Inc/stm32f0xx_ll_tim.h ****   * @retval State of bit (1 or 0).
1965:Drivers/STM32F0xx_HAL_Driver/Inc/stm32f0xx_ll_tim.h ****   */
1966:Drivers/STM32F0xx_HAL_Driver/Inc/stm32f0xx_ll_tim.h **** __STATIC_INLINE uint32_t LL_TIM_OC_IsEnabledPreload(TIM_TypeDef *TIMx, uint32_t Channel)
1967:Drivers/STM32F0xx_HAL_Driver/Inc/stm32f0xx_ll_tim.h **** {
1968:Drivers/STM32F0xx_HAL_Driver/Inc/stm32f0xx_ll_tim.h ****   uint8_t iChannel = TIM_GET_CHANNEL_INDEX(Channel);
1969:Drivers/STM32F0xx_HAL_Driver/Inc/stm32f0xx_ll_tim.h ****   const __IO uint32_t *pReg = (__IO uint32_t *)((uint32_t)((uint32_t)(&TIMx->CCMR1) + OFFSET_TAB_CC
1970:Drivers/STM32F0xx_HAL_Driver/Inc/stm32f0xx_ll_tim.h ****   uint32_t bitfield = TIM_CCMR1_OC1PE << SHIFT_TAB_OCxx[iChannel];
1971:Drivers/STM32F0xx_HAL_Driver/Inc/stm32f0xx_ll_tim.h ****   return ((READ_BIT(*pReg, bitfield) == bitfield) ? 1UL : 0UL);
1972:Drivers/STM32F0xx_HAL_Driver/Inc/stm32f0xx_ll_tim.h **** }
1973:Drivers/STM32F0xx_HAL_Driver/Inc/stm32f0xx_ll_tim.h **** 
1974:Drivers/STM32F0xx_HAL_Driver/Inc/stm32f0xx_ll_tim.h **** /**
1975:Drivers/STM32F0xx_HAL_Driver/Inc/stm32f0xx_ll_tim.h ****   * @brief  Enable clearing the output channel on an external event.
1976:Drivers/STM32F0xx_HAL_Driver/Inc/stm32f0xx_ll_tim.h ****   * @note This function can only be used in Output compare and PWM modes. It does not work in Force
1977:Drivers/STM32F0xx_HAL_Driver/Inc/stm32f0xx_ll_tim.h ****   * @note Macro IS_TIM_OCXREF_CLEAR_INSTANCE(TIMx) can be used to check whether
1978:Drivers/STM32F0xx_HAL_Driver/Inc/stm32f0xx_ll_tim.h ****   *       or not a timer instance can clear the OCxREF signal on an external event.
1979:Drivers/STM32F0xx_HAL_Driver/Inc/stm32f0xx_ll_tim.h ****   * @rmtoll CCMR1        OC1CE          LL_TIM_OC_EnableClear\n
1980:Drivers/STM32F0xx_HAL_Driver/Inc/stm32f0xx_ll_tim.h ****   *         CCMR1        OC2CE          LL_TIM_OC_EnableClear\n
1981:Drivers/STM32F0xx_HAL_Driver/Inc/stm32f0xx_ll_tim.h ****   *         CCMR2        OC3CE          LL_TIM_OC_EnableClear\n
1982:Drivers/STM32F0xx_HAL_Driver/Inc/stm32f0xx_ll_tim.h ****   *         CCMR2        OC4CE          LL_TIM_OC_EnableClear
1983:Drivers/STM32F0xx_HAL_Driver/Inc/stm32f0xx_ll_tim.h ****   * @param  TIMx Timer instance
1984:Drivers/STM32F0xx_HAL_Driver/Inc/stm32f0xx_ll_tim.h ****   * @param  Channel This parameter can be one of the following values:
1985:Drivers/STM32F0xx_HAL_Driver/Inc/stm32f0xx_ll_tim.h ****   *         @arg @ref LL_TIM_CHANNEL_CH1
1986:Drivers/STM32F0xx_HAL_Driver/Inc/stm32f0xx_ll_tim.h ****   *         @arg @ref LL_TIM_CHANNEL_CH2
1987:Drivers/STM32F0xx_HAL_Driver/Inc/stm32f0xx_ll_tim.h ****   *         @arg @ref LL_TIM_CHANNEL_CH3
1988:Drivers/STM32F0xx_HAL_Driver/Inc/stm32f0xx_ll_tim.h ****   *         @arg @ref LL_TIM_CHANNEL_CH4
ARM GAS  C:\Users\ADMINI~1\AppData\Local\Temp\ccNQkssi.s 			page 42


1989:Drivers/STM32F0xx_HAL_Driver/Inc/stm32f0xx_ll_tim.h ****   * @retval None
1990:Drivers/STM32F0xx_HAL_Driver/Inc/stm32f0xx_ll_tim.h ****   */
1991:Drivers/STM32F0xx_HAL_Driver/Inc/stm32f0xx_ll_tim.h **** __STATIC_INLINE void LL_TIM_OC_EnableClear(TIM_TypeDef *TIMx, uint32_t Channel)
1992:Drivers/STM32F0xx_HAL_Driver/Inc/stm32f0xx_ll_tim.h **** {
1993:Drivers/STM32F0xx_HAL_Driver/Inc/stm32f0xx_ll_tim.h ****   uint8_t iChannel = TIM_GET_CHANNEL_INDEX(Channel);
1994:Drivers/STM32F0xx_HAL_Driver/Inc/stm32f0xx_ll_tim.h ****   __IO uint32_t *pReg = (__IO uint32_t *)((uint32_t)((uint32_t)(&TIMx->CCMR1) + OFFSET_TAB_CCMRx[iC
1995:Drivers/STM32F0xx_HAL_Driver/Inc/stm32f0xx_ll_tim.h ****   SET_BIT(*pReg, (TIM_CCMR1_OC1CE << SHIFT_TAB_OCxx[iChannel]));
1996:Drivers/STM32F0xx_HAL_Driver/Inc/stm32f0xx_ll_tim.h **** }
1997:Drivers/STM32F0xx_HAL_Driver/Inc/stm32f0xx_ll_tim.h **** 
1998:Drivers/STM32F0xx_HAL_Driver/Inc/stm32f0xx_ll_tim.h **** /**
1999:Drivers/STM32F0xx_HAL_Driver/Inc/stm32f0xx_ll_tim.h ****   * @brief  Disable clearing the output channel on an external event.
2000:Drivers/STM32F0xx_HAL_Driver/Inc/stm32f0xx_ll_tim.h ****   * @note Macro IS_TIM_OCXREF_CLEAR_INSTANCE(TIMx) can be used to check whether
2001:Drivers/STM32F0xx_HAL_Driver/Inc/stm32f0xx_ll_tim.h ****   *       or not a timer instance can clear the OCxREF signal on an external event.
2002:Drivers/STM32F0xx_HAL_Driver/Inc/stm32f0xx_ll_tim.h ****   * @rmtoll CCMR1        OC1CE          LL_TIM_OC_DisableClear\n
2003:Drivers/STM32F0xx_HAL_Driver/Inc/stm32f0xx_ll_tim.h ****   *         CCMR1        OC2CE          LL_TIM_OC_DisableClear\n
2004:Drivers/STM32F0xx_HAL_Driver/Inc/stm32f0xx_ll_tim.h ****   *         CCMR2        OC3CE          LL_TIM_OC_DisableClear\n
2005:Drivers/STM32F0xx_HAL_Driver/Inc/stm32f0xx_ll_tim.h ****   *         CCMR2        OC4CE          LL_TIM_OC_DisableClear
2006:Drivers/STM32F0xx_HAL_Driver/Inc/stm32f0xx_ll_tim.h ****   * @param  TIMx Timer instance
2007:Drivers/STM32F0xx_HAL_Driver/Inc/stm32f0xx_ll_tim.h ****   * @param  Channel This parameter can be one of the following values:
2008:Drivers/STM32F0xx_HAL_Driver/Inc/stm32f0xx_ll_tim.h ****   *         @arg @ref LL_TIM_CHANNEL_CH1
2009:Drivers/STM32F0xx_HAL_Driver/Inc/stm32f0xx_ll_tim.h ****   *         @arg @ref LL_TIM_CHANNEL_CH2
2010:Drivers/STM32F0xx_HAL_Driver/Inc/stm32f0xx_ll_tim.h ****   *         @arg @ref LL_TIM_CHANNEL_CH3
2011:Drivers/STM32F0xx_HAL_Driver/Inc/stm32f0xx_ll_tim.h ****   *         @arg @ref LL_TIM_CHANNEL_CH4
2012:Drivers/STM32F0xx_HAL_Driver/Inc/stm32f0xx_ll_tim.h ****   * @retval None
2013:Drivers/STM32F0xx_HAL_Driver/Inc/stm32f0xx_ll_tim.h ****   */
2014:Drivers/STM32F0xx_HAL_Driver/Inc/stm32f0xx_ll_tim.h **** __STATIC_INLINE void LL_TIM_OC_DisableClear(TIM_TypeDef *TIMx, uint32_t Channel)
2015:Drivers/STM32F0xx_HAL_Driver/Inc/stm32f0xx_ll_tim.h **** {
2016:Drivers/STM32F0xx_HAL_Driver/Inc/stm32f0xx_ll_tim.h ****   uint8_t iChannel = TIM_GET_CHANNEL_INDEX(Channel);
2017:Drivers/STM32F0xx_HAL_Driver/Inc/stm32f0xx_ll_tim.h ****   __IO uint32_t *pReg = (__IO uint32_t *)((uint32_t)((uint32_t)(&TIMx->CCMR1) + OFFSET_TAB_CCMRx[iC
2018:Drivers/STM32F0xx_HAL_Driver/Inc/stm32f0xx_ll_tim.h ****   CLEAR_BIT(*pReg, (TIM_CCMR1_OC1CE << SHIFT_TAB_OCxx[iChannel]));
2019:Drivers/STM32F0xx_HAL_Driver/Inc/stm32f0xx_ll_tim.h **** }
2020:Drivers/STM32F0xx_HAL_Driver/Inc/stm32f0xx_ll_tim.h **** 
2021:Drivers/STM32F0xx_HAL_Driver/Inc/stm32f0xx_ll_tim.h **** /**
2022:Drivers/STM32F0xx_HAL_Driver/Inc/stm32f0xx_ll_tim.h ****   * @brief  Indicates clearing the output channel on an external event is enabled for the output ch
2023:Drivers/STM32F0xx_HAL_Driver/Inc/stm32f0xx_ll_tim.h ****   * @note This function enables clearing the output channel on an external event.
2024:Drivers/STM32F0xx_HAL_Driver/Inc/stm32f0xx_ll_tim.h ****   * @note This function can only be used in Output compare and PWM modes. It does not work in Force
2025:Drivers/STM32F0xx_HAL_Driver/Inc/stm32f0xx_ll_tim.h ****   * @note Macro IS_TIM_OCXREF_CLEAR_INSTANCE(TIMx) can be used to check whether
2026:Drivers/STM32F0xx_HAL_Driver/Inc/stm32f0xx_ll_tim.h ****   *       or not a timer instance can clear the OCxREF signal on an external event.
2027:Drivers/STM32F0xx_HAL_Driver/Inc/stm32f0xx_ll_tim.h ****   * @rmtoll CCMR1        OC1CE          LL_TIM_OC_IsEnabledClear\n
2028:Drivers/STM32F0xx_HAL_Driver/Inc/stm32f0xx_ll_tim.h ****   *         CCMR1        OC2CE          LL_TIM_OC_IsEnabledClear\n
2029:Drivers/STM32F0xx_HAL_Driver/Inc/stm32f0xx_ll_tim.h ****   *         CCMR2        OC3CE          LL_TIM_OC_IsEnabledClear\n
2030:Drivers/STM32F0xx_HAL_Driver/Inc/stm32f0xx_ll_tim.h ****   *         CCMR2        OC4CE          LL_TIM_OC_IsEnabledClear\n
2031:Drivers/STM32F0xx_HAL_Driver/Inc/stm32f0xx_ll_tim.h ****   * @param  TIMx Timer instance
2032:Drivers/STM32F0xx_HAL_Driver/Inc/stm32f0xx_ll_tim.h ****   * @param  Channel This parameter can be one of the following values:
2033:Drivers/STM32F0xx_HAL_Driver/Inc/stm32f0xx_ll_tim.h ****   *         @arg @ref LL_TIM_CHANNEL_CH1
2034:Drivers/STM32F0xx_HAL_Driver/Inc/stm32f0xx_ll_tim.h ****   *         @arg @ref LL_TIM_CHANNEL_CH2
2035:Drivers/STM32F0xx_HAL_Driver/Inc/stm32f0xx_ll_tim.h ****   *         @arg @ref LL_TIM_CHANNEL_CH3
2036:Drivers/STM32F0xx_HAL_Driver/Inc/stm32f0xx_ll_tim.h ****   *         @arg @ref LL_TIM_CHANNEL_CH4
2037:Drivers/STM32F0xx_HAL_Driver/Inc/stm32f0xx_ll_tim.h ****   * @retval State of bit (1 or 0).
2038:Drivers/STM32F0xx_HAL_Driver/Inc/stm32f0xx_ll_tim.h ****   */
2039:Drivers/STM32F0xx_HAL_Driver/Inc/stm32f0xx_ll_tim.h **** __STATIC_INLINE uint32_t LL_TIM_OC_IsEnabledClear(TIM_TypeDef *TIMx, uint32_t Channel)
2040:Drivers/STM32F0xx_HAL_Driver/Inc/stm32f0xx_ll_tim.h **** {
2041:Drivers/STM32F0xx_HAL_Driver/Inc/stm32f0xx_ll_tim.h ****   uint8_t iChannel = TIM_GET_CHANNEL_INDEX(Channel);
2042:Drivers/STM32F0xx_HAL_Driver/Inc/stm32f0xx_ll_tim.h ****   const __IO uint32_t *pReg = (__IO uint32_t *)((uint32_t)((uint32_t)(&TIMx->CCMR1) + OFFSET_TAB_CC
2043:Drivers/STM32F0xx_HAL_Driver/Inc/stm32f0xx_ll_tim.h ****   uint32_t bitfield = TIM_CCMR1_OC1CE << SHIFT_TAB_OCxx[iChannel];
2044:Drivers/STM32F0xx_HAL_Driver/Inc/stm32f0xx_ll_tim.h ****   return ((READ_BIT(*pReg, bitfield) == bitfield) ? 1UL : 0UL);
2045:Drivers/STM32F0xx_HAL_Driver/Inc/stm32f0xx_ll_tim.h **** }
ARM GAS  C:\Users\ADMINI~1\AppData\Local\Temp\ccNQkssi.s 			page 43


2046:Drivers/STM32F0xx_HAL_Driver/Inc/stm32f0xx_ll_tim.h **** 
2047:Drivers/STM32F0xx_HAL_Driver/Inc/stm32f0xx_ll_tim.h **** /**
2048:Drivers/STM32F0xx_HAL_Driver/Inc/stm32f0xx_ll_tim.h ****   * @brief  Set the dead-time delay (delay inserted between the rising edge of the OCxREF signal an
2049:Drivers/STM32F0xx_HAL_Driver/Inc/stm32f0xx_ll_tim.h ****   *         the Ocx and OCxN signals).
2050:Drivers/STM32F0xx_HAL_Driver/Inc/stm32f0xx_ll_tim.h ****   * @note Macro IS_TIM_BREAK_INSTANCE(TIMx) can be used to check whether or not
2051:Drivers/STM32F0xx_HAL_Driver/Inc/stm32f0xx_ll_tim.h ****   *       dead-time insertion feature is supported by a timer instance.
2052:Drivers/STM32F0xx_HAL_Driver/Inc/stm32f0xx_ll_tim.h ****   * @note Helper macro @ref __LL_TIM_CALC_DEADTIME can be used to calculate the DeadTime parameter
2053:Drivers/STM32F0xx_HAL_Driver/Inc/stm32f0xx_ll_tim.h ****   * @rmtoll BDTR         DTG           LL_TIM_OC_SetDeadTime
2054:Drivers/STM32F0xx_HAL_Driver/Inc/stm32f0xx_ll_tim.h ****   * @param  TIMx Timer instance
2055:Drivers/STM32F0xx_HAL_Driver/Inc/stm32f0xx_ll_tim.h ****   * @param  DeadTime between Min_Data=0 and Max_Data=255
2056:Drivers/STM32F0xx_HAL_Driver/Inc/stm32f0xx_ll_tim.h ****   * @retval None
2057:Drivers/STM32F0xx_HAL_Driver/Inc/stm32f0xx_ll_tim.h ****   */
2058:Drivers/STM32F0xx_HAL_Driver/Inc/stm32f0xx_ll_tim.h **** __STATIC_INLINE void LL_TIM_OC_SetDeadTime(TIM_TypeDef *TIMx, uint32_t DeadTime)
2059:Drivers/STM32F0xx_HAL_Driver/Inc/stm32f0xx_ll_tim.h **** {
2060:Drivers/STM32F0xx_HAL_Driver/Inc/stm32f0xx_ll_tim.h ****   MODIFY_REG(TIMx->BDTR, TIM_BDTR_DTG, DeadTime);
2061:Drivers/STM32F0xx_HAL_Driver/Inc/stm32f0xx_ll_tim.h **** }
2062:Drivers/STM32F0xx_HAL_Driver/Inc/stm32f0xx_ll_tim.h **** 
2063:Drivers/STM32F0xx_HAL_Driver/Inc/stm32f0xx_ll_tim.h **** /**
2064:Drivers/STM32F0xx_HAL_Driver/Inc/stm32f0xx_ll_tim.h ****   * @brief  Set compare value for output channel 1 (TIMx_CCR1).
2065:Drivers/STM32F0xx_HAL_Driver/Inc/stm32f0xx_ll_tim.h ****   * @note In 32-bit timer implementations compare value can be between 0x00000000 and 0xFFFFFFFF.
2066:Drivers/STM32F0xx_HAL_Driver/Inc/stm32f0xx_ll_tim.h ****   * @note Macro IS_TIM_32B_COUNTER_INSTANCE(TIMx) can be used to check
2067:Drivers/STM32F0xx_HAL_Driver/Inc/stm32f0xx_ll_tim.h ****   *       whether or not a timer instance supports a 32 bits counter.
2068:Drivers/STM32F0xx_HAL_Driver/Inc/stm32f0xx_ll_tim.h ****   * @note Macro IS_TIM_CC1_INSTANCE(TIMx) can be used to check whether or not
2069:Drivers/STM32F0xx_HAL_Driver/Inc/stm32f0xx_ll_tim.h ****   *       output channel 1 is supported by a timer instance.
2070:Drivers/STM32F0xx_HAL_Driver/Inc/stm32f0xx_ll_tim.h ****   * @rmtoll CCR1         CCR1          LL_TIM_OC_SetCompareCH1
2071:Drivers/STM32F0xx_HAL_Driver/Inc/stm32f0xx_ll_tim.h ****   * @param  TIMx Timer instance
2072:Drivers/STM32F0xx_HAL_Driver/Inc/stm32f0xx_ll_tim.h ****   * @param  CompareValue between Min_Data=0 and Max_Data=65535
2073:Drivers/STM32F0xx_HAL_Driver/Inc/stm32f0xx_ll_tim.h ****   * @retval None
2074:Drivers/STM32F0xx_HAL_Driver/Inc/stm32f0xx_ll_tim.h ****   */
2075:Drivers/STM32F0xx_HAL_Driver/Inc/stm32f0xx_ll_tim.h **** __STATIC_INLINE void LL_TIM_OC_SetCompareCH1(TIM_TypeDef *TIMx, uint32_t CompareValue)
 301              		.loc 2 2075 22 view .LVU67
 302              	.LBB15:
2076:Drivers/STM32F0xx_HAL_Driver/Inc/stm32f0xx_ll_tim.h **** {
2077:Drivers/STM32F0xx_HAL_Driver/Inc/stm32f0xx_ll_tim.h ****   WRITE_REG(TIMx->CCR1, CompareValue);
 303              		.loc 2 2077 3 view .LVU68
 304 000c 0E4B     		ldr	r3, .L30
 305 000e 0022     		movs	r2, #0
 306 0010 5A63     		str	r2, [r3, #52]
 307              	.LVL36:
 308              		.loc 2 2077 3 is_stmt 0 view .LVU69
 309              	.LBE15:
 310              	.LBE14:
  35:Src/motor.cpp ****             LL_TIM_OC_SetCompareCH2(TIM3,_pwm > 1000 ? 1000 : _pwm);
 311              		.loc 1 35 13 is_stmt 1 view .LVU70
 312              		.loc 1 35 54 is_stmt 0 view .LVU71
 313 0012 0B1C     		adds	r3, r1, #0
 314 0014 FA22     		movs	r2, #250
 315 0016 9200     		lsls	r2, r2, #2
 316 0018 9142     		cmp	r1, r2
 317 001a 00DD     		ble	.L26
 318 001c 131C     		adds	r3, r2, #0
 319              	.L26:
 320 001e 1BB2     		sxth	r3, r3
 321              	.LVL37:
 322              	.LBB16:
 323              	.LBI16:
2078:Drivers/STM32F0xx_HAL_Driver/Inc/stm32f0xx_ll_tim.h **** }
ARM GAS  C:\Users\ADMINI~1\AppData\Local\Temp\ccNQkssi.s 			page 44


2079:Drivers/STM32F0xx_HAL_Driver/Inc/stm32f0xx_ll_tim.h **** 
2080:Drivers/STM32F0xx_HAL_Driver/Inc/stm32f0xx_ll_tim.h **** /**
2081:Drivers/STM32F0xx_HAL_Driver/Inc/stm32f0xx_ll_tim.h ****   * @brief  Set compare value for output channel 2 (TIMx_CCR2).
2082:Drivers/STM32F0xx_HAL_Driver/Inc/stm32f0xx_ll_tim.h ****   * @note In 32-bit timer implementations compare value can be between 0x00000000 and 0xFFFFFFFF.
2083:Drivers/STM32F0xx_HAL_Driver/Inc/stm32f0xx_ll_tim.h ****   * @note Macro IS_TIM_32B_COUNTER_INSTANCE(TIMx) can be used to check
2084:Drivers/STM32F0xx_HAL_Driver/Inc/stm32f0xx_ll_tim.h ****   *       whether or not a timer instance supports a 32 bits counter.
2085:Drivers/STM32F0xx_HAL_Driver/Inc/stm32f0xx_ll_tim.h ****   * @note Macro IS_TIM_CC2_INSTANCE(TIMx) can be used to check whether or not
2086:Drivers/STM32F0xx_HAL_Driver/Inc/stm32f0xx_ll_tim.h ****   *       output channel 2 is supported by a timer instance.
2087:Drivers/STM32F0xx_HAL_Driver/Inc/stm32f0xx_ll_tim.h ****   * @rmtoll CCR2         CCR2          LL_TIM_OC_SetCompareCH2
2088:Drivers/STM32F0xx_HAL_Driver/Inc/stm32f0xx_ll_tim.h ****   * @param  TIMx Timer instance
2089:Drivers/STM32F0xx_HAL_Driver/Inc/stm32f0xx_ll_tim.h ****   * @param  CompareValue between Min_Data=0 and Max_Data=65535
2090:Drivers/STM32F0xx_HAL_Driver/Inc/stm32f0xx_ll_tim.h ****   * @retval None
2091:Drivers/STM32F0xx_HAL_Driver/Inc/stm32f0xx_ll_tim.h ****   */
2092:Drivers/STM32F0xx_HAL_Driver/Inc/stm32f0xx_ll_tim.h **** __STATIC_INLINE void LL_TIM_OC_SetCompareCH2(TIM_TypeDef *TIMx, uint32_t CompareValue)
 324              		.loc 2 2092 22 is_stmt 1 view .LVU72
 325              	.LBB17:
2093:Drivers/STM32F0xx_HAL_Driver/Inc/stm32f0xx_ll_tim.h **** {
2094:Drivers/STM32F0xx_HAL_Driver/Inc/stm32f0xx_ll_tim.h ****   WRITE_REG(TIMx->CCR2, CompareValue);
 326              		.loc 2 2094 3 view .LVU73
 327 0020 094A     		ldr	r2, .L30
 328 0022 9363     		str	r3, [r2, #56]
2095:Drivers/STM32F0xx_HAL_Driver/Inc/stm32f0xx_ll_tim.h **** }
 329              		.loc 2 2095 1 is_stmt 0 view .LVU74
 330 0024 0FE0     		b	.L23
 331              	.LVL38:
 332              	.L25:
 333              		.loc 2 2095 1 view .LVU75
 334              	.LBE17:
 335              	.LBE16:
  36:Src/motor.cpp ****         } else
  37:Src/motor.cpp ****         {
  38:Src/motor.cpp ****             LL_TIM_OC_SetCompareCH1(TIM3,_pwm < -1000 ? 1000 : -_pwm);
 336              		.loc 1 38 13 is_stmt 1 view .LVU76
 337              		.loc 1 38 36 is_stmt 0 view .LVU77
 338 0026 094B     		ldr	r3, .L30+4
 339 0028 9942     		cmp	r1, r3
 340 002a 05DB     		blt	.L29
 341              		.loc 1 38 64 discriminator 1 view .LVU78
 342 002c 4942     		rsbs	r1, r1, #0
 343              	.LVL39:
 344              	.L28:
 345              	.LBB18:
 346              	.LBI18:
2075:Drivers/STM32F0xx_HAL_Driver/Inc/stm32f0xx_ll_tim.h **** {
 347              		.loc 2 2075 22 is_stmt 1 discriminator 4 view .LVU79
 348              	.LBB19:
2077:Drivers/STM32F0xx_HAL_Driver/Inc/stm32f0xx_ll_tim.h **** }
 349              		.loc 2 2077 3 discriminator 4 view .LVU80
 350 002e 064B     		ldr	r3, .L30
 351 0030 5963     		str	r1, [r3, #52]
 352              	.LVL40:
2077:Drivers/STM32F0xx_HAL_Driver/Inc/stm32f0xx_ll_tim.h **** }
 353              		.loc 2 2077 3 is_stmt 0 discriminator 4 view .LVU81
 354              	.LBE19:
 355              	.LBE18:
  39:Src/motor.cpp ****             LL_TIM_OC_SetCompareCH2(TIM3,0);
 356              		.loc 1 39 13 is_stmt 1 discriminator 4 view .LVU82
ARM GAS  C:\Users\ADMINI~1\AppData\Local\Temp\ccNQkssi.s 			page 45


 357              	.LBB20:
 358              	.LBI20:
2092:Drivers/STM32F0xx_HAL_Driver/Inc/stm32f0xx_ll_tim.h **** {
 359              		.loc 2 2092 22 discriminator 4 view .LVU83
 360              	.LBB21:
2094:Drivers/STM32F0xx_HAL_Driver/Inc/stm32f0xx_ll_tim.h **** }
 361              		.loc 2 2094 3 discriminator 4 view .LVU84
 362 0032 0022     		movs	r2, #0
 363 0034 9A63     		str	r2, [r3, #56]
 364              		.loc 2 2095 1 is_stmt 0 discriminator 4 view .LVU85
 365 0036 06E0     		b	.L23
 366              	.LVL41:
 367              	.L29:
 368              		.loc 2 2095 1 discriminator 4 view .LVU86
 369              	.LBE21:
 370              	.LBE20:
  38:Src/motor.cpp ****             LL_TIM_OC_SetCompareCH2(TIM3,0);
 371              		.loc 1 38 36 view .LVU87
 372 0038 FA21     		movs	r1, #250
 373              	.LVL42:
  38:Src/motor.cpp ****             LL_TIM_OC_SetCompareCH2(TIM3,0);
 374              		.loc 1 38 36 view .LVU88
 375 003a 8900     		lsls	r1, r1, #2
 376 003c F7E7     		b	.L28
 377              	.LVL43:
 378              	.L24:
  40:Src/motor.cpp ****         }
  41:Src/motor.cpp ****     } else
  42:Src/motor.cpp ****     {
  43:Src/motor.cpp ****         LL_TIM_OC_SetCompareCH1(TIM3,0);
 379              		.loc 1 43 9 is_stmt 1 view .LVU89
 380              	.LBB22:
 381              	.LBI22:
2075:Drivers/STM32F0xx_HAL_Driver/Inc/stm32f0xx_ll_tim.h **** {
 382              		.loc 2 2075 22 view .LVU90
 383              	.LBB23:
2077:Drivers/STM32F0xx_HAL_Driver/Inc/stm32f0xx_ll_tim.h **** }
 384              		.loc 2 2077 3 view .LVU91
 385 003e 024B     		ldr	r3, .L30
 386 0040 0022     		movs	r2, #0
 387 0042 5A63     		str	r2, [r3, #52]
 388              	.LVL44:
2077:Drivers/STM32F0xx_HAL_Driver/Inc/stm32f0xx_ll_tim.h **** }
 389              		.loc 2 2077 3 is_stmt 0 view .LVU92
 390              	.LBE23:
 391              	.LBE22:
  44:Src/motor.cpp ****         LL_TIM_OC_SetCompareCH2(TIM3,0);
 392              		.loc 1 44 9 is_stmt 1 view .LVU93
 393              	.LBB24:
 394              	.LBI24:
2092:Drivers/STM32F0xx_HAL_Driver/Inc/stm32f0xx_ll_tim.h **** {
 395              		.loc 2 2092 22 view .LVU94
 396              	.LBB25:
2094:Drivers/STM32F0xx_HAL_Driver/Inc/stm32f0xx_ll_tim.h **** }
 397              		.loc 2 2094 3 view .LVU95
 398 0044 9A63     		str	r2, [r3, #56]
 399              	.LVL45:
ARM GAS  C:\Users\ADMINI~1\AppData\Local\Temp\ccNQkssi.s 			page 46


 400              	.L23:
2094:Drivers/STM32F0xx_HAL_Driver/Inc/stm32f0xx_ll_tim.h **** }
 401              		.loc 2 2094 3 is_stmt 0 view .LVU96
 402              	.LBE25:
 403              	.LBE24:
  45:Src/motor.cpp ****     }
  46:Src/motor.cpp **** }
 404              		.loc 1 46 1 view .LVU97
 405              		@ sp needed
 406 0046 7047     		bx	lr
 407              	.L31:
 408              		.align	2
 409              	.L30:
 410 0048 00040040 		.word	1073742848
 411 004c 18FCFFFF 		.word	-1000
 412              		.cfi_endproc
 413              	.LFE1024:
 414              		.cantunwind
 415              		.fnend
 417              		.section	.text._ZN5Motor14SetTorqueLimitEf,"ax",%progbits
 418              		.align	1
 419              		.global	_ZN5Motor14SetTorqueLimitEf
 420              		.syntax unified
 421              		.code	16
 422              		.thumb_func
 424              	_ZN5Motor14SetTorqueLimitEf:
 425              		.fnstart
 426              	.LVL46:
 427              	.LFB1025:
  47:Src/motor.cpp **** 
  48:Src/motor.cpp **** 
  49:Src/motor.cpp **** void Motor::SetTorqueLimit(float _percent)
  50:Src/motor.cpp **** {
 428              		.loc 1 50 1 is_stmt 1 view -0
 429              		.cfi_startproc
 430              		@ args = 0, pretend = 0, frame = 0
 431              		@ frame_needed = 0, uses_anonymous_args = 0
 432              		.loc 1 50 1 is_stmt 0 view .LVU99
 433 0000 70B5     		push	{r4, r5, r6, lr}
 434              	.LCFI2:
 435              		.cfi_def_cfa_offset 16
 436              		.cfi_offset 4, -16
 437              		.cfi_offset 5, -12
 438              		.cfi_offset 6, -8
 439              		.cfi_offset 14, -4
 440 0002 0500     		movs	r5, r0
 441 0004 0C1C     		adds	r4, r1, #0
  51:Src/motor.cpp ****     if (_percent > 1)_percent = 1;
 442              		.loc 1 51 5 is_stmt 1 view .LVU100
 443 0006 FE21     		movs	r1, #254
 444              	.LVL47:
 445              		.loc 1 51 5 is_stmt 0 view .LVU101
 446 0008 8905     		lsls	r1, r1, #22
 447 000a 201C     		adds	r0, r4, #0
 448              	.LVL48:
 449              		.loc 1 51 5 view .LVU102
 450 000c FFF7FEFF 		bl	__aeabi_fcmpgt
ARM GAS  C:\Users\ADMINI~1\AppData\Local\Temp\ccNQkssi.s 			page 47


 451              	.LVL49:
 452 0010 0028     		cmp	r0, #0
 453 0012 07D0     		beq	.L36
 454              		.loc 1 51 31 view .LVU103
 455 0014 FE24     		movs	r4, #254
 456              	.LVL50:
 457              		.loc 1 51 31 view .LVU104
 458 0016 A405     		lsls	r4, r4, #22
 459              	.L33:
 460              	.LVL51:
  52:Src/motor.cpp ****     else if (_percent < 0)_percent = 0;
  53:Src/motor.cpp **** 
  54:Src/motor.cpp ****     limitTorque = _percent * 1000;
 461              		.loc 1 54 5 is_stmt 1 view .LVU105
 462              		.loc 1 54 28 is_stmt 0 view .LVU106
 463 0018 0649     		ldr	r1, .L37
 464 001a 201C     		adds	r0, r4, #0
 465 001c FFF7FEFF 		bl	__aeabi_fmul
 466              	.LVL52:
 467              		.loc 1 54 17 view .LVU107
 468 0020 6865     		str	r0, [r5, #84]
  55:Src/motor.cpp **** }
 469              		.loc 1 55 1 view .LVU108
