ARM GAS  C:\Users\ADMINI~1\AppData\Local\Temp\ccvDbVJl.s 			page 1


   1              		.cpu cortex-m0
   2              		.arch armv6s-m
   3              		.fpu softvfp
   4              		.eabi_attribute 20, 1
   5              		.eabi_attribute 21, 1
   6              		.eabi_attribute 23, 3
   7              		.eabi_attribute 24, 1
   8              		.eabi_attribute 25, 1
   9              		.eabi_attribute 26, 1
  10              		.eabi_attribute 30, 1
  11              		.eabi_attribute 34, 0
  12              		.eabi_attribute 18, 4
  13              		.file	"stm32f0xx_ll_flash.c"
  14              		.text
  15              	.Ltext0:
  16              		.cfi_sections	.debug_frame
  17              		.section	.text.LL_FLASH_Program_TwoBtye,"ax",%progbits
  18              		.align	1
  19              		.syntax unified
  20              		.code	16
  21              		.thumb_func
  23              	LL_FLASH_Program_TwoBtye:
  24              	.LVL0:
  25              	.LFB1034:
  26              		.file 1 "Src/stm32f0xx_ll_flash.c"
   1:Src/stm32f0xx_ll_flash.c **** #include "stm32f0xx_ll_flash.h"
   2:Src/stm32f0xx_ll_flash.c **** #include "main.h"
   3:Src/stm32f0xx_ll_flash.c **** 
   4:Src/stm32f0xx_ll_flash.c **** void static LL_FLASH_Program_TwoBtye(uint32_t flash_addr,uint16_t data)
   5:Src/stm32f0xx_ll_flash.c **** {
  27              		.loc 1 5 1 view -0
  28              		.cfi_startproc
  29              		@ args = 0, pretend = 0, frame = 0
  30              		@ frame_needed = 0, uses_anonymous_args = 0
  31              		.loc 1 5 1 is_stmt 0 view .LVU1
  32 0000 10B5     		push	{r4, lr}
  33              	.LCFI0:
  34              		.cfi_def_cfa_offset 8
  35              		.cfi_offset 4, -8
  36              		.cfi_offset 14, -4
   6:Src/stm32f0xx_ll_flash.c **** 	LL_FLASH_EnableProgram(FLASH);
  37              		.loc 1 6 2 is_stmt 1 view .LVU2
  38              	.LVL1:
  39              	.LBB34:
  40              	.LBI34:
  41              		.file 2 "Inc/stm32f0xx_ll_flash.h"
   1:Inc/stm32f0xx_ll_flash.h **** #ifndef __STM32F0xx_LL_FLASH_EX_H
   2:Inc/stm32f0xx_ll_flash.h **** #define __STM32F0xx_LL_FLASH_EX_H
   3:Inc/stm32f0xx_ll_flash.h **** 
   4:Inc/stm32f0xx_ll_flash.h **** #include "stm32f0xx.h"
   5:Inc/stm32f0xx_ll_flash.h **** #include "stm32f0xx_ll_flash.h"
   6:Inc/stm32f0xx_ll_flash.h **** typedef enum {
   7:Inc/stm32f0xx_ll_flash.h **** 	LL_OK=0U,
   8:Inc/stm32f0xx_ll_flash.h **** 	LL_ERROR=1U,
   9:Inc/stm32f0xx_ll_flash.h **** 	LL_BUSY = 2U,
  10:Inc/stm32f0xx_ll_flash.h **** 	LL_TIMEOUT=3U
  11:Inc/stm32f0xx_ll_flash.h **** }LL_StatusTypeDef;
ARM GAS  C:\Users\ADMINI~1\AppData\Local\Temp\ccvDbVJl.s 			page 2


  12:Inc/stm32f0xx_ll_flash.h **** 
  13:Inc/stm32f0xx_ll_flash.h **** 
  14:Inc/stm32f0xx_ll_flash.h **** typedef struct
  15:Inc/stm32f0xx_ll_flash.h **** {
  16:Inc/stm32f0xx_ll_flash.h ****   uint32_t TypeErase;   /*!< TypeErase: Mass erase or page erase.
  17:Inc/stm32f0xx_ll_flash.h ****                              This parameter can be a value of @ref FLASHEx_Type_Erase */
  18:Inc/stm32f0xx_ll_flash.h **** 
  19:Inc/stm32f0xx_ll_flash.h ****   uint32_t PageAddress; /*!< PageAdress: Initial FLASH page address to erase when mass erase is dis
  20:Inc/stm32f0xx_ll_flash.h ****                              This parameter must be a number between Min_Data = FLASH_BASE and Max_
  21:Inc/stm32f0xx_ll_flash.h ****   
  22:Inc/stm32f0xx_ll_flash.h ****   uint32_t NbPages;     /*!< NbPages: Number of pagess to be erased.
  23:Inc/stm32f0xx_ll_flash.h ****                              This parameter must be a value between Min_Data = 1 and Max_Data = (ma
  24:Inc/stm32f0xx_ll_flash.h ****                                                           
  25:Inc/stm32f0xx_ll_flash.h **** } FLASH_EraseInitTypeDef;
  26:Inc/stm32f0xx_ll_flash.h **** 
  27:Inc/stm32f0xx_ll_flash.h **** #define FLASH_FLAG_BSY             FLASH_SR_BSY            /*!< FLASH Busy flag                    
  28:Inc/stm32f0xx_ll_flash.h **** #define FLASH_FLAG_PGERR           FLASH_SR_PGERR          /*!< FLASH Programming error flag    */
  29:Inc/stm32f0xx_ll_flash.h **** #define FLASH_FLAG_WRPERR          FLASH_SR_WRPERR         /*!< FLASH Write protected error flag   
  30:Inc/stm32f0xx_ll_flash.h **** #define FLASH_FLAG_EOP             FLASH_SR_EOP            /*!< FLASH End of Operation flag        
  31:Inc/stm32f0xx_ll_flash.h **** 
  32:Inc/stm32f0xx_ll_flash.h **** #define FLASH_TYPEERASE_PAGES          FLASH_CR_PER         /*!< FLASH_CR_PER          */
  33:Inc/stm32f0xx_ll_flash.h **** #define FLASH_TYPEERASE_MASSERASE      FLASH_CR_MER            /*!< MASSERASE              */
  34:Inc/stm32f0xx_ll_flash.h **** 
  35:Inc/stm32f0xx_ll_flash.h **** 
  36:Inc/stm32f0xx_ll_flash.h **** #if defined(STM32F030x6) || defined(STM32F030x8) || defined(STM32F031x6) || defined(STM32F038xx) \
  37:Inc/stm32f0xx_ll_flash.h ****  || defined(STM32F051x8) || defined(STM32F042x6) || defined(STM32F048xx) || defined(STM32F058xx) ||
  38:Inc/stm32f0xx_ll_flash.h **** #define FLASH_PAGE_SIZE          0x400U
  39:Inc/stm32f0xx_ll_flash.h **** #endif /* STM32F030x6 || STM32F030x8 || STM32F031x6 || STM32F051x8 || STM32F042x6 || STM32F048xx ||
  40:Inc/stm32f0xx_ll_flash.h **** 
  41:Inc/stm32f0xx_ll_flash.h **** #if defined(STM32F071xB) || defined(STM32F072xB) || defined(STM32F078xx) || defined(STM32F070xB) \
  42:Inc/stm32f0xx_ll_flash.h ****  || defined(STM32F091xC) || defined(STM32F098xx) || defined(STM32F030xC)
  43:Inc/stm32f0xx_ll_flash.h **** #define FLASH_PAGE_SIZE          0x800U
  44:Inc/stm32f0xx_ll_flash.h **** #endif /* STM32F071xB || STM32F072xB || STM32F078xx || STM32F091xC || STM32F098xx || STM32F030xC */
  45:Inc/stm32f0xx_ll_flash.h **** 
  46:Inc/stm32f0xx_ll_flash.h **** typedef enum {
  47:Inc/stm32f0xx_ll_flash.h **** 	ProgaraType_DATA64,
  48:Inc/stm32f0xx_ll_flash.h **** 	ProgaraType_DATA32,
  49:Inc/stm32f0xx_ll_flash.h **** 	ProgaraType_DATA16
  50:Inc/stm32f0xx_ll_flash.h **** }ProgaramDataType;
  51:Inc/stm32f0xx_ll_flash.h **** 
  52:Inc/stm32f0xx_ll_flash.h **** typedef enum {\
  53:Inc/stm32f0xx_ll_flash.h **** 	FLASH_Lock=1U,Flash_Unlock=!FLASH_Lock\
  54:Inc/stm32f0xx_ll_flash.h **** }FlashStates;
  55:Inc/stm32f0xx_ll_flash.h **** 
  56:Inc/stm32f0xx_ll_flash.h ****   /* Set the OBL_Launch bit to launch the option byte loading */
  57:Inc/stm32f0xx_ll_flash.h **** __STATIC_INLINE void LL_FLASH_SET_OBL_Launch(FLASH_TypeDef *FLASHx)
  58:Inc/stm32f0xx_ll_flash.h **** {
  59:Inc/stm32f0xx_ll_flash.h ****   SET_BIT(FLASHx->CR, FLASH_CR_OBL_LAUNCH);
  60:Inc/stm32f0xx_ll_flash.h **** }
  61:Inc/stm32f0xx_ll_flash.h **** __STATIC_INLINE void LL_FLASH_Lock(void)
  62:Inc/stm32f0xx_ll_flash.h **** {
  63:Inc/stm32f0xx_ll_flash.h ****   SET_BIT(FLASH->CR, FLASH_CR_LOCK);
  64:Inc/stm32f0xx_ll_flash.h **** }
  65:Inc/stm32f0xx_ll_flash.h **** 
  66:Inc/stm32f0xx_ll_flash.h **** 
  67:Inc/stm32f0xx_ll_flash.h ****   /* @brief  Set flash erase type.
  68:Inc/stm32f0xx_ll_flash.h ****   * @param  FLASH_TYPEERASE specifies the FLASH flags to clear.
ARM GAS  C:\Users\ADMINI~1\AppData\Local\Temp\ccvDbVJl.s 			page 3


  69:Inc/stm32f0xx_ll_flash.h ****   *          This parameter can be any combination of the following values:
  70:Inc/stm32f0xx_ll_flash.h ****   *            @arg @ref FLASH_TYPEERASE_PAGES         PAGES Erase
  71:Inc/stm32f0xx_ll_flash.h ****   *            @arg @ref FLASH_TYPEERASE_MASSERASE      FLASH Write protected error flag 
  72:Inc/stm32f0xx_ll_flash.h ****   * @retval none*/
  73:Inc/stm32f0xx_ll_flash.h **** 
  74:Inc/stm32f0xx_ll_flash.h **** __STATIC_INLINE void LL_FLASH_SetTypeErase(FLASH_TypeDef *FLASHx,uint32_t FLASH_TYPEERASE)
  75:Inc/stm32f0xx_ll_flash.h **** {
  76:Inc/stm32f0xx_ll_flash.h ****   SET_BIT(FLASHx->CR, FLASH_TYPEERASE);
  77:Inc/stm32f0xx_ll_flash.h **** }
  78:Inc/stm32f0xx_ll_flash.h ****   /* @brief  Set flash erase ADDR.
  79:Inc/stm32f0xx_ll_flash.h ****   *          This parameter can be any combination of the following values:
  80:Inc/stm32f0xx_ll_flash.h ****   *            @arg @ref EraseADDR         uint32_t value
  81:Inc/stm32f0xx_ll_flash.h ****   * @retval none*/
  82:Inc/stm32f0xx_ll_flash.h **** 
  83:Inc/stm32f0xx_ll_flash.h **** __STATIC_INLINE void LL_FLASH_SetEraseADDR(FLASH_TypeDef *FLASHx,uint32_t EraseADDR)
  84:Inc/stm32f0xx_ll_flash.h **** {
  85:Inc/stm32f0xx_ll_flash.h ****   WRITE_REG(FLASHx->AR, EraseADDR);
  86:Inc/stm32f0xx_ll_flash.h **** }
  87:Inc/stm32f0xx_ll_flash.h ****   /* @brief  Set flash erase ADDR.
  88:Inc/stm32f0xx_ll_flash.h ****   *          This parameter can be any combination of the following values:
  89:Inc/stm32f0xx_ll_flash.h ****   *            @arg @ref EraseADDR         uint32_t value
  90:Inc/stm32f0xx_ll_flash.h ****   * @retval none*/
  91:Inc/stm32f0xx_ll_flash.h **** 
  92:Inc/stm32f0xx_ll_flash.h **** __STATIC_INLINE void LL_FLASH_StartErase(FLASH_TypeDef *FLASHx)
  93:Inc/stm32f0xx_ll_flash.h **** {
  94:Inc/stm32f0xx_ll_flash.h ****   SET_BIT(FLASHx->CR, FLASH_CR_STRT);
  95:Inc/stm32f0xx_ll_flash.h **** }
  96:Inc/stm32f0xx_ll_flash.h **** 
  97:Inc/stm32f0xx_ll_flash.h ****   /* @brief  Clear the specified FLASH flag.
  98:Inc/stm32f0xx_ll_flash.h ****   * @param  __FLAG__ specifies the FLASH flags to clear.
  99:Inc/stm32f0xx_ll_flash.h ****   *          This parameter can be any combination of the following values:
 100:Inc/stm32f0xx_ll_flash.h ****   *            @arg @ref FLASH_FLAG_EOP         FLASH End of Operation flag 
 101:Inc/stm32f0xx_ll_flash.h ****   *            @arg @ref FLASH_FLAG_WRPERR      FLASH Write protected error flag 
 102:Inc/stm32f0xx_ll_flash.h ****   *            @arg @ref FLASH_FLAG_PGERR       FLASH Programming error flag
 103:Inc/stm32f0xx_ll_flash.h ****   * @retval none*/
 104:Inc/stm32f0xx_ll_flash.h **** 
 105:Inc/stm32f0xx_ll_flash.h **** __STATIC_INLINE void LL_FLASH_ClearFlag(FLASH_TypeDef *FLASHx,uint32_t STATE_FLAG)
 106:Inc/stm32f0xx_ll_flash.h **** {
 107:Inc/stm32f0xx_ll_flash.h ****   WRITE_REG(FLASHx->SR, STATE_FLAG);
 108:Inc/stm32f0xx_ll_flash.h **** }
 109:Inc/stm32f0xx_ll_flash.h **** 
 110:Inc/stm32f0xx_ll_flash.h ****   /*get bit flash bsy*/
 111:Inc/stm32f0xx_ll_flash.h **** __STATIC_INLINE uint32_t LL_FLASH_IsActiveFlag_BSY(FLASH_TypeDef *FLASHx)
 112:Inc/stm32f0xx_ll_flash.h **** {
 113:Inc/stm32f0xx_ll_flash.h ****   return (READ_BIT(FLASHx->SR, FLASH_SR_BSY) == (FLASH_SR_BSY));
 114:Inc/stm32f0xx_ll_flash.h **** }
 115:Inc/stm32f0xx_ll_flash.h **** /*get end of operation bilt*/
 116:Inc/stm32f0xx_ll_flash.h **** __STATIC_INLINE uint32_t LL_FLASH_IsActiveFlag_EOP(FLASH_TypeDef *FLASHx)
 117:Inc/stm32f0xx_ll_flash.h **** {
 118:Inc/stm32f0xx_ll_flash.h ****   return (READ_BIT(FLASHx->SR, FLASH_SR_EOP) == (FLASH_SR_EOP));
 119:Inc/stm32f0xx_ll_flash.h **** }
 120:Inc/stm32f0xx_ll_flash.h **** /*clear end of operation bilt*/
 121:Inc/stm32f0xx_ll_flash.h **** __STATIC_INLINE void LL_FLASH_ClearFlag_EOP(FLASH_TypeDef *FLASHx)
 122:Inc/stm32f0xx_ll_flash.h **** {
 123:Inc/stm32f0xx_ll_flash.h ****   SET_BIT(FLASHx->SR, FLASH_SR_EOP);//EOP bit Set clear
 124:Inc/stm32f0xx_ll_flash.h **** }
 125:Inc/stm32f0xx_ll_flash.h ****   /* @brief  Set flash erase type.
ARM GAS  C:\Users\ADMINI~1\AppData\Local\Temp\ccvDbVJl.s 			page 4


 126:Inc/stm32f0xx_ll_flash.h ****   * @param  FLASH_TYPEERASE specifies the FLASH flags to clear.
 127:Inc/stm32f0xx_ll_flash.h ****   *          This parameter can be any combination of the following values:
 128:Inc/stm32f0xx_ll_flash.h ****   *            @arg @ref FLASH_TYPEERASE_PAGES         PAGES Erase
 129:Inc/stm32f0xx_ll_flash.h ****   *            @arg @ref FLASH_TYPEERASE_MASSERASE      FLASH Write protected error flag 
 130:Inc/stm32f0xx_ll_flash.h ****   * @retval none*/
 131:Inc/stm32f0xx_ll_flash.h **** __STATIC_INLINE void LL_FLASH_DisenableErase(FLASH_TypeDef *FLASHx,uint32_t FLASH_TYPEERASE)
 132:Inc/stm32f0xx_ll_flash.h **** {
 133:Inc/stm32f0xx_ll_flash.h ****   CLEAR_BIT(FLASHx->CR, FLASH_TYPEERASE);
 134:Inc/stm32f0xx_ll_flash.h **** }
 135:Inc/stm32f0xx_ll_flash.h **** 
 136:Inc/stm32f0xx_ll_flash.h **** /*EnableProgram*/
 137:Inc/stm32f0xx_ll_flash.h **** __STATIC_INLINE void LL_FLASH_EnableProgram(FLASH_TypeDef *FLASHx)
  42              		.loc 2 137 22 view .LVU3
  43              	.LBB35:
 138:Inc/stm32f0xx_ll_flash.h **** {
 139:Inc/stm32f0xx_ll_flash.h ****   SET_BIT(FLASHx->CR,FLASH_CR_PG);
  44              		.loc 2 139 3 view .LVU4
  45 0002 034A     		ldr	r2, .L2
  46 0004 1369     		ldr	r3, [r2, #16]
  47 0006 0124     		movs	r4, #1
  48 0008 2343     		orrs	r3, r4
  49 000a 1361     		str	r3, [r2, #16]
  50              	.LVL2:
  51              		.loc 2 139 3 is_stmt 0 view .LVU5
  52              	.LBE35:
  53              	.LBE34:
   7:Src/stm32f0xx_ll_flash.c **** 	*(__IO uint16_t*)(flash_addr) = data;
  54              		.loc 1 7 2 is_stmt 1 view .LVU6
  55              		.loc 1 7 32 is_stmt 0 view .LVU7
  56 000c 0180     		strh	r1, [r0]
   8:Src/stm32f0xx_ll_flash.c **** }
  57              		.loc 1 8 1 view .LVU8
  58              		@ sp needed
  59 000e 10BD     		pop	{r4, pc}
  60              	.L3:
  61              		.align	2
  62              	.L2:
  63 0010 00200240 		.word	1073881088
  64              		.cfi_endproc
  65              	.LFE1034:
  67              		.section	.text.LL_Flash_Unlock,"ax",%progbits
  68              		.align	1
  69              		.global	LL_Flash_Unlock
  70              		.syntax unified
  71              		.code	16
  72              		.thumb_func
  74              	LL_Flash_Unlock:
  75              	.LFB1035:
   9:Src/stm32f0xx_ll_flash.c **** 
  10:Src/stm32f0xx_ll_flash.c **** LL_StatusTypeDef LL_Flash_Unlock(void)
  11:Src/stm32f0xx_ll_flash.c **** {
  76              		.loc 1 11 1 is_stmt 1 view -0
  77              		.cfi_startproc
  78              		@ args = 0, pretend = 0, frame = 0
  79              		@ frame_needed = 0, uses_anonymous_args = 0
  80              		@ link register save eliminated.
  81              	.L5:
ARM GAS  C:\Users\ADMINI~1\AppData\Local\Temp\ccvDbVJl.s 			page 5


  12:Src/stm32f0xx_ll_flash.c **** 	while (LL_FLASH_IsActiveFlag_BSY(FLASH))  
  13:Src/stm32f0xx_ll_flash.c **** 	{
  14:Src/stm32f0xx_ll_flash.c **** 	} 
  82              		.loc 1 14 2 discriminator 1 view .LVU10
  12:Src/stm32f0xx_ll_flash.c **** 	while (LL_FLASH_IsActiveFlag_BSY(FLASH))  
  83              		.loc 1 12 8 discriminator 1 view .LVU11
  84              	.LVL3:
  85              	.LBB36:
  86              	.LBI36:
 111:Inc/stm32f0xx_ll_flash.h **** {
  87              		.loc 2 111 26 discriminator 1 view .LVU12
  88              	.LBB37:
 113:Inc/stm32f0xx_ll_flash.h **** }
  89              		.loc 2 113 3 discriminator 1 view .LVU13
 113:Inc/stm32f0xx_ll_flash.h **** }
  90              		.loc 2 113 11 is_stmt 0 discriminator 1 view .LVU14
  91 0000 074B     		ldr	r3, .L8
  92 0002 DB68     		ldr	r3, [r3, #12]
  93              	.LVL4:
 113:Inc/stm32f0xx_ll_flash.h **** }
  94              		.loc 2 113 11 discriminator 1 view .LVU15
  95              	.LBE37:
  96              	.LBE36:
  12:Src/stm32f0xx_ll_flash.c **** 	while (LL_FLASH_IsActiveFlag_BSY(FLASH))  
  97              		.loc 1 12 8 discriminator 1 view .LVU16
  98 0004 DB07     		lsls	r3, r3, #31
  99 0006 FBD4     		bmi	.L5
  15:Src/stm32f0xx_ll_flash.c **** 	if (LL_FLASH_LockState(FLASH)) 
 100              		.loc 1 15 2 is_stmt 1 view .LVU17
 101              	.LVL5:
 102              	.LBB38:
 103              	.LBI38:
 140:Inc/stm32f0xx_ll_flash.h **** }
 141:Inc/stm32f0xx_ll_flash.h **** /*DisenableProgram*/
 142:Inc/stm32f0xx_ll_flash.h **** __STATIC_INLINE void LL_FLASH_DisenableProgram(FLASH_TypeDef *FLASHx)
 143:Inc/stm32f0xx_ll_flash.h **** {
 144:Inc/stm32f0xx_ll_flash.h ****   CLEAR_BIT(FLASHx->CR,FLASH_CR_PG);
 145:Inc/stm32f0xx_ll_flash.h **** }
 146:Inc/stm32f0xx_ll_flash.h **** /*read flash's states of lock or unlock*/
 147:Inc/stm32f0xx_ll_flash.h **** __STATIC_INLINE FlashStates LL_FLASH_LockState(FLASH_TypeDef *FLASHx)
 104              		.loc 2 147 29 view .LVU18
 105              	.LBB39:
 148:Inc/stm32f0xx_ll_flash.h **** {
 149:Inc/stm32f0xx_ll_flash.h **** 	return (FlashStates)(READ_BIT(FLASHx->CR,FLASH_CR_LOCK));
 106              		.loc 2 149 2 view .LVU19
 107              		.loc 2 149 23 is_stmt 0 view .LVU20
 108 0008 054B     		ldr	r3, .L8
 109 000a 1B69     		ldr	r3, [r3, #16]
 110              	.LVL6:
 111              		.loc 2 149 23 view .LVU21
 112              	.LBE39:
 113              	.LBE38:
 114              		.loc 1 15 5 view .LVU22
 115 000c 1B06     		lsls	r3, r3, #24
 116 000e 01D4     		bmi	.L7
 117              	.L6:
  16:Src/stm32f0xx_ll_flash.c **** 	{ 
ARM GAS  C:\Users\ADMINI~1\AppData\Local\Temp\ccvDbVJl.s 			page 6


  17:Src/stm32f0xx_ll_flash.c **** 		LL_FLASh_SetKey(FLASH,FLASH_KEY1);
  18:Src/stm32f0xx_ll_flash.c **** 		LL_FLASh_SetKey(FLASH,FLASH_KEY2);
  19:Src/stm32f0xx_ll_flash.c **** 	}
  20:Src/stm32f0xx_ll_flash.c **** 	return LL_OK;
 118              		.loc 1 20 2 is_stmt 1 view .LVU23
  21:Src/stm32f0xx_ll_flash.c **** }
 119              		.loc 1 21 1 is_stmt 0 view .LVU24
 120 0010 0020     		movs	r0, #0
 121              		@ sp needed
 122 0012 7047     		bx	lr
 123              	.L7:
  17:Src/stm32f0xx_ll_flash.c **** 		LL_FLASh_SetKey(FLASH,FLASH_KEY2);
 124              		.loc 1 17 3 is_stmt 1 view .LVU25
 125              	.LVL7:
 126              	.LBB40:
 127              	.LBI40:
 150:Inc/stm32f0xx_ll_flash.h **** }
 151:Inc/stm32f0xx_ll_flash.h **** /*set key for flash*/
 152:Inc/stm32f0xx_ll_flash.h **** __STATIC_INLINE void LL_FLASh_SetKey(FLASH_TypeDef *FLASHx,uint32_t key)
 128              		.loc 2 152 22 view .LVU26
 129              	.LBB41:
 153:Inc/stm32f0xx_ll_flash.h **** {
 154:Inc/stm32f0xx_ll_flash.h **** 	WRITE_REG(FLASH->KEYR,key);
 130              		.loc 2 154 2 view .LVU27
 131 0014 024B     		ldr	r3, .L8
 132 0016 034A     		ldr	r2, .L8+4
 133 0018 5A60     		str	r2, [r3, #4]
 134              	.LVL8:
 135              		.loc 2 154 2 is_stmt 0 view .LVU28
 136              	.LBE41:
 137              	.LBE40:
  18:Src/stm32f0xx_ll_flash.c **** 	}
 138              		.loc 1 18 3 is_stmt 1 view .LVU29
 139              	.LBB42:
 140              	.LBI42:
 152:Inc/stm32f0xx_ll_flash.h **** {
 141              		.loc 2 152 22 view .LVU30
 142              	.LBB43:
 143              		.loc 2 154 2 view .LVU31
 144 001a 034A     		ldr	r2, .L8+8
 145 001c 5A60     		str	r2, [r3, #4]
 155:Inc/stm32f0xx_ll_flash.h **** }
 146              		.loc 2 155 1 is_stmt 0 view .LVU32
 147 001e F7E7     		b	.L6
 148              	.L9:
 149              		.align	2
 150              	.L8:
 151 0020 00200240 		.word	1073881088
 152 0024 23016745 		.word	1164378403
 153 0028 AB89EFCD 		.word	-839939669
 154              	.LBE43:
 155              	.LBE42:
 156              		.cfi_endproc
 157              	.LFE1035:
 159              		.section	.text.LL_Flash_PageErase,"ax",%progbits
 160              		.align	1
 161              		.global	LL_Flash_PageErase
ARM GAS  C:\Users\ADMINI~1\AppData\Local\Temp\ccvDbVJl.s 			page 7


 162              		.syntax unified
 163              		.code	16
 164              		.thumb_func
 166              	LL_Flash_PageErase:
 167              	.LVL9:
 168              	.LFB1036:
  22:Src/stm32f0xx_ll_flash.c **** 
  23:Src/stm32f0xx_ll_flash.c **** LL_StatusTypeDef LL_Flash_PageErase(FLASH_EraseInitTypeDef *pEraseInit, uint32_t *PageError)
  24:Src/stm32f0xx_ll_flash.c **** {
 169              		.loc 1 24 1 is_stmt 1 view -0
 170              		.cfi_startproc
 171              		@ args = 0, pretend = 0, frame = 0
 172              		@ frame_needed = 0, uses_anonymous_args = 0
 173              		.loc 1 24 1 is_stmt 0 view .LVU34
 174 0000 30B5     		push	{r4, r5, lr}
 175              	.LCFI1:
 176              		.cfi_def_cfa_offset 12
 177              		.cfi_offset 4, -12
 178              		.cfi_offset 5, -8
 179              		.cfi_offset 14, -4
 180 0002 0C00     		movs	r4, r1
  25:Src/stm32f0xx_ll_flash.c **** 	
  26:Src/stm32f0xx_ll_flash.c **** 	uint32_t address = 0U;
 181              		.loc 1 26 2 is_stmt 1 view .LVU35
 182              	.LVL10:
  27:Src/stm32f0xx_ll_flash.c **** 
  28:Src/stm32f0xx_ll_flash.c **** 	for(address = pEraseInit->PageAddress;
 183              		.loc 1 28 2 view .LVU36
 184              		.loc 1 28 14 is_stmt 0 view .LVU37
 185 0004 4268     		ldr	r2, [r0, #4]
 186              	.LVL11:
 187              	.L11:
  29:Src/stm32f0xx_ll_flash.c ****             address < ((pEraseInit->NbPages * FLASH_PAGE_SIZE) + pEraseInit->PageAddress);
 188              		.loc 1 29 13 is_stmt 1 discriminator 1 view .LVU38
 189              		.loc 1 29 45 is_stmt 0 discriminator 1 view .LVU39
 190 0006 8368     		ldr	r3, [r0, #8]
 191 0008 9B02     		lsls	r3, r3, #10
 192              		.loc 1 29 64 discriminator 1 view .LVU40
 193 000a 4168     		ldr	r1, [r0, #4]
 194 000c 8C46     		mov	ip, r1
 195 000e 6344     		add	r3, r3, ip
  28:Src/stm32f0xx_ll_flash.c ****             address < ((pEraseInit->NbPages * FLASH_PAGE_SIZE) + pEraseInit->PageAddress);
 196              		.loc 1 28 2 discriminator 1 view .LVU41
 197 0010 9342     		cmp	r3, r2
 198 0012 22D9     		bls	.L16
  30:Src/stm32f0xx_ll_flash.c ****             address += FLASH_PAGE_SIZE)
  31:Src/stm32f0xx_ll_flash.c ****     {
  32:Src/stm32f0xx_ll_flash.c ****         LL_FLASH_SetTypeErase(FLASH,FLASH_TYPEERASE_PAGES);
 199              		.loc 1 32 9 is_stmt 1 view .LVU42
 200              	.LVL12:
 201              	.LBB44:
 202              	.LBI44:
  74:Inc/stm32f0xx_ll_flash.h **** {
 203              		.loc 2 74 22 view .LVU43
 204              	.LBB45:
  76:Inc/stm32f0xx_ll_flash.h **** }
 205              		.loc 2 76 3 view .LVU44
ARM GAS  C:\Users\ADMINI~1\AppData\Local\Temp\ccvDbVJl.s 			page 8


 206 0014 124B     		ldr	r3, .L17
 207 0016 1969     		ldr	r1, [r3, #16]
 208 0018 0225     		movs	r5, #2
 209 001a 2943     		orrs	r1, r5
 210 001c 1961     		str	r1, [r3, #16]
 211              	.LVL13:
  76:Inc/stm32f0xx_ll_flash.h **** }
 212              		.loc 2 76 3 is_stmt 0 view .LVU45
 213              	.LBE45:
 214              	.LBE44:
  33:Src/stm32f0xx_ll_flash.c **** 		LL_FLASH_SetEraseADDR(FLASH,address);
 215              		.loc 1 33 3 is_stmt 1 view .LVU46
 216              	.LBB46:
 217              	.LBI46:
  83:Inc/stm32f0xx_ll_flash.h **** {
 218              		.loc 2 83 22 view .LVU47
 219              	.LBB47:
  85:Inc/stm32f0xx_ll_flash.h **** }
 220              		.loc 2 85 3 view .LVU48
 221 001e 5A61     		str	r2, [r3, #20]
 222              	.LVL14:
  85:Inc/stm32f0xx_ll_flash.h **** }
 223              		.loc 2 85 3 is_stmt 0 view .LVU49
 224              	.LBE47:
 225              	.LBE46:
  34:Src/stm32f0xx_ll_flash.c **** 		LL_FLASH_StartErase(FLASH); 
 226              		.loc 1 34 3 is_stmt 1 view .LVU50
 227              	.LBB48:
 228              	.LBI48:
  92:Inc/stm32f0xx_ll_flash.h **** {
 229              		.loc 2 92 22 view .LVU51
 230              	.LBB49:
  94:Inc/stm32f0xx_ll_flash.h **** }
 231              		.loc 2 94 3 view .LVU52
 232 0020 1969     		ldr	r1, [r3, #16]
 233 0022 3E35     		adds	r5, r5, #62
 234 0024 2943     		orrs	r1, r5
 235 0026 1961     		str	r1, [r3, #16]
 236              	.LVL15:
 237              	.L12:
  94:Inc/stm32f0xx_ll_flash.h **** }
 238              		.loc 2 94 3 is_stmt 0 view .LVU53
 239              	.LBE49:
 240              	.LBE48:
  35:Src/stm32f0xx_ll_flash.c **** 		while (LL_FLASH_IsActiveFlag_BSY(FLASH)) 
  36:Src/stm32f0xx_ll_flash.c **** 		{ 
  37:Src/stm32f0xx_ll_flash.c **** 		} 
 241              		.loc 1 37 3 is_stmt 1 discriminator 1 view .LVU54
  35:Src/stm32f0xx_ll_flash.c **** 		while (LL_FLASH_IsActiveFlag_BSY(FLASH)) 
 242              		.loc 1 35 9 discriminator 1 view .LVU55
 243              	.LBB50:
 244              	.LBI50:
 111:Inc/stm32f0xx_ll_flash.h **** {
 245              		.loc 2 111 26 discriminator 1 view .LVU56
 246              	.LBB51:
 113:Inc/stm32f0xx_ll_flash.h **** }
 247              		.loc 2 113 3 discriminator 1 view .LVU57
ARM GAS  C:\Users\ADMINI~1\AppData\Local\Temp\ccvDbVJl.s 			page 9


 113:Inc/stm32f0xx_ll_flash.h **** }
 248              		.loc 2 113 11 is_stmt 0 discriminator 1 view .LVU58
 249 0028 0D4B     		ldr	r3, .L17
 250 002a DB68     		ldr	r3, [r3, #12]
 251              	.LVL16:
 113:Inc/stm32f0xx_ll_flash.h **** }
 252              		.loc 2 113 11 discriminator 1 view .LVU59
 253              	.LBE51:
 254              	.LBE50:
  35:Src/stm32f0xx_ll_flash.c **** 		while (LL_FLASH_IsActiveFlag_BSY(FLASH)) 
 255              		.loc 1 35 9 discriminator 1 view .LVU60
 256 002c DB07     		lsls	r3, r3, #31
 257 002e FBD4     		bmi	.L12
  38:Src/stm32f0xx_ll_flash.c **** 		if (LL_FLASH_IsActiveFlag_EOP(FLASH)) 
 258              		.loc 1 38 3 is_stmt 1 view .LVU61
 259              	.LVL17:
 260              	.LBB52:
 261              	.LBI52:
 116:Inc/stm32f0xx_ll_flash.h **** {
 262              		.loc 2 116 26 view .LVU62
 263              	.LBB53:
 118:Inc/stm32f0xx_ll_flash.h **** }
 264              		.loc 2 118 3 view .LVU63
 118:Inc/stm32f0xx_ll_flash.h **** }
 265              		.loc 2 118 11 is_stmt 0 view .LVU64
 266 0030 0B4B     		ldr	r3, .L17
 267 0032 DB68     		ldr	r3, [r3, #12]
 268              	.LVL18:
 118:Inc/stm32f0xx_ll_flash.h **** }
 269              		.loc 2 118 11 view .LVU65
 270              	.LBE53:
 271              	.LBE52:
 272              		.loc 1 38 6 view .LVU66
 273 0034 9B06     		lsls	r3, r3, #26
 274 0036 0DD5     		bpl	.L13
  39:Src/stm32f0xx_ll_flash.c **** 		{ 
  40:Src/stm32f0xx_ll_flash.c **** 			LL_FLASH_ClearFlag_EOP(FLASH);; 
 275              		.loc 1 40 4 is_stmt 1 view .LVU67
 276              	.LVL19:
 277              	.LBB54:
 278              	.LBI54:
 121:Inc/stm32f0xx_ll_flash.h **** {
 279              		.loc 2 121 22 view .LVU68
 280              	.LBB55:
 123:Inc/stm32f0xx_ll_flash.h **** }
 281              		.loc 2 123 3 view .LVU69
 282 0038 094B     		ldr	r3, .L17
 283 003a D968     		ldr	r1, [r3, #12]
 284 003c 2025     		movs	r5, #32
 285 003e 2943     		orrs	r1, r5
 286 0040 D960     		str	r1, [r3, #12]
 287              	.LVL20:
 123:Inc/stm32f0xx_ll_flash.h **** }
 288              		.loc 2 123 3 is_stmt 0 view .LVU70
 289              	.LBE55:
 290              	.LBE54:
 291              		.loc 1 40 34 is_stmt 1 view .LVU71
ARM GAS  C:\Users\ADMINI~1\AppData\Local\Temp\ccvDbVJl.s 			page 10


  41:Src/stm32f0xx_ll_flash.c **** 		} 
  42:Src/stm32f0xx_ll_flash.c **** 		else
  43:Src/stm32f0xx_ll_flash.c **** 		{ 
  44:Src/stm32f0xx_ll_flash.c **** 			*PageError = address;
  45:Src/stm32f0xx_ll_flash.c **** 			return LL_ERROR;
  46:Src/stm32f0xx_ll_flash.c **** 		}
  47:Src/stm32f0xx_ll_flash.c **** 		LL_FLASH_DisenableErase(FLASH,FLASH_TYPEERASE_PAGES);
 292              		.loc 1 47 3 view .LVU72
 293              	.LBB56:
 294              	.LBI56:
 131:Inc/stm32f0xx_ll_flash.h **** {
 295              		.loc 2 131 22 view .LVU73
 296              	.LBB57:
 133:Inc/stm32f0xx_ll_flash.h **** }
 297              		.loc 2 133 3 view .LVU74
 298 0042 1969     		ldr	r1, [r3, #16]
 299 0044 1E3D     		subs	r5, r5, #30
 300 0046 A943     		bics	r1, r5
 301 0048 1961     		str	r1, [r3, #16]
 302              	.LVL21:
 133:Inc/stm32f0xx_ll_flash.h **** }
 303              		.loc 2 133 3 is_stmt 0 view .LVU75
 304              	.LBE57:
 305              	.LBE56:
  30:Src/stm32f0xx_ll_flash.c ****     {
 306              		.loc 1 30 13 is_stmt 1 view .LVU76
  30:Src/stm32f0xx_ll_flash.c ****     {
 307              		.loc 1 30 21 is_stmt 0 view .LVU77
 308 004a 8023     		movs	r3, #128
 309 004c DB00     		lsls	r3, r3, #3
 310 004e 9C46     		mov	ip, r3
 311 0050 6244     		add	r2, r2, ip
 312              	.LVL22:
  30:Src/stm32f0xx_ll_flash.c ****     {
 313              		.loc 1 30 21 view .LVU78
 314 0052 D8E7     		b	.L11
 315              	.L13:
  44:Src/stm32f0xx_ll_flash.c **** 			return LL_ERROR;
 316              		.loc 1 44 4 is_stmt 1 view .LVU79
  44:Src/stm32f0xx_ll_flash.c **** 			return LL_ERROR;
 317              		.loc 1 44 15 is_stmt 0 view .LVU80
 318 0054 2260     		str	r2, [r4]
  45:Src/stm32f0xx_ll_flash.c **** 		}
 319              		.loc 1 45 4 is_stmt 1 view .LVU81
  45:Src/stm32f0xx_ll_flash.c **** 		}
 320              		.loc 1 45 11 is_stmt 0 view .LVU82
 321 0056 0120     		movs	r0, #1
 322              	.LVL23:
  45:Src/stm32f0xx_ll_flash.c **** 		}
 323              		.loc 1 45 11 view .LVU83
 324 0058 00E0     		b	.L14
 325              	.LVL24:
 326              	.L16:
  48:Src/stm32f0xx_ll_flash.c ****     }
  49:Src/stm32f0xx_ll_flash.c **** 	return LL_OK;
 327              		.loc 1 49 9 view .LVU84
 328 005a 0020     		movs	r0, #0
ARM GAS  C:\Users\ADMINI~1\AppData\Local\Temp\ccvDbVJl.s 			page 11


 329              	.LVL25:
 330              	.L14:
  50:Src/stm32f0xx_ll_flash.c **** }
 331              		.loc 1 50 1 view .LVU85
 332              		@ sp needed
 333              	.LVL26:
 334              		.loc 1 50 1 view .LVU86
 335 005c 30BD     		pop	{r4, r5, pc}
 336              	.L18:
 337 005e C046     		.align	2
 338              	.L17:
 339 0060 00200240 		.word	1073881088
 340              		.cfi_endproc
 341              	.LFE1036:
 343              		.section	.text.LL_FLASH_Program,"ax",%progbits
 344              		.align	1
 345              		.global	LL_FLASH_Program
 346              		.syntax unified
 347              		.code	16
 348              		.thumb_func
 350              	LL_FLASH_Program:
 351              	.LVL27:
 352              	.LFB1037:
  51:Src/stm32f0xx_ll_flash.c **** 
  52:Src/stm32f0xx_ll_flash.c **** LL_StatusTypeDef LL_FLASH_Program(ProgaramDataType ProgramType,uint32_t flash_addr,uint64_t data)
  53:Src/stm32f0xx_ll_flash.c **** {
 353              		.loc 1 53 1 is_stmt 1 view -0
 354              		.cfi_startproc
 355              		@ args = 0, pretend = 0, frame = 0
 356              		@ frame_needed = 0, uses_anonymous_args = 0
 357              		.loc 1 53 1 is_stmt 0 view .LVU88
 358 0000 F0B5     		push	{r4, r5, r6, r7, lr}
 359              	.LCFI2:
 360              		.cfi_def_cfa_offset 20
 361              		.cfi_offset 4, -20
 362              		.cfi_offset 5, -16
 363              		.cfi_offset 6, -12
 364              		.cfi_offset 7, -8
 365              		.cfi_offset 14, -4
 366 0002 C646     		mov	lr, r8
 367 0004 00B5     		push	{lr}
 368              	.LCFI3:
 369              		.cfi_def_cfa_offset 24
 370              		.cfi_offset 8, -24
 371 0006 0D00     		movs	r5, r1
 372 0008 9046     		mov	r8, r2
 373 000a 1E00     		movs	r6, r3
  54:Src/stm32f0xx_ll_flash.c **** 	
  55:Src/stm32f0xx_ll_flash.c **** 	uint8_t index = 0U;
 374              		.loc 1 55 2 is_stmt 1 view .LVU89
 375              	.LVL28:
  56:Src/stm32f0xx_ll_flash.c **** 	uint8_t nbiterations = 0U;
 376              		.loc 1 56 2 view .LVU90
  57:Src/stm32f0xx_ll_flash.c **** 	
  58:Src/stm32f0xx_ll_flash.c **** 	if(ProgramType == ProgaraType_DATA16)
 377              		.loc 1 58 2 view .LVU91
 378              		.loc 1 58 4 is_stmt 0 view .LVU92
ARM GAS  C:\Users\ADMINI~1\AppData\Local\Temp\ccvDbVJl.s 			page 12


 379 000c 0228     		cmp	r0, #2
 380 000e 06D0     		beq	.L27
  59:Src/stm32f0xx_ll_flash.c **** 		nbiterations = 1U;
  60:Src/stm32f0xx_ll_flash.c **** 	else if(ProgramType == ProgaraType_DATA32)
 381              		.loc 1 60 7 is_stmt 1 view .LVU93
 382              		.loc 1 60 9 is_stmt 0 view .LVU94
 383 0010 0128     		cmp	r0, #1
 384 0012 02D0     		beq	.L30
  61:Src/stm32f0xx_ll_flash.c **** 		nbiterations = 2U;
  62:Src/stm32f0xx_ll_flash.c **** 	else
  63:Src/stm32f0xx_ll_flash.c **** 		nbiterations = 4U;
 385              		.loc 1 63 16 view .LVU95
 386 0014 0427     		movs	r7, #4
 387              	.L20:
 388              	.LVL29:
  64:Src/stm32f0xx_ll_flash.c **** 	for(index = 0U; index < nbiterations; index++)
 389              		.loc 1 64 2 is_stmt 1 view .LVU96
 390              		.loc 1 64 12 is_stmt 0 view .LVU97
 391 0016 0024     		movs	r4, #0
 392              		.loc 1 64 2 view .LVU98
 393 0018 11E0     		b	.L21
 394              	.LVL30:
 395              	.L30:
  61:Src/stm32f0xx_ll_flash.c **** 		nbiterations = 2U;
 396              		.loc 1 61 16 view .LVU99
 397 001a 0227     		movs	r7, #2
 398 001c FBE7     		b	.L20
 399              	.L27:
  59:Src/stm32f0xx_ll_flash.c **** 		nbiterations = 1U;
 400              		.loc 1 59 16 view .LVU100
 401 001e 0127     		movs	r7, #1
 402 0020 F9E7     		b	.L20
 403              	.LVL31:
 404              	.L22:
  65:Src/stm32f0xx_ll_flash.c **** 	{
  66:Src/stm32f0xx_ll_flash.c **** 		 LL_FLASH_Program_TwoBtye((flash_addr + (2U*index)), (uint16_t)(data >> (16U*index)));
 405              		.loc 1 66 72 discriminator 3 view .LVU101
 406 0022 2022     		movs	r2, #32
 407 0024 D21A     		subs	r2, r2, r3
 408 0026 3100     		movs	r1, r6
 409 0028 9140     		lsls	r1, r1, r2
 410 002a 0A00     		movs	r2, r1
 411 002c 4146     		mov	r1, r8
 412 002e D940     		lsrs	r1, r1, r3
 413 0030 1143     		orrs	r1, r2
 414              	.L23:
 415              		.loc 1 66 4 discriminator 3 view .LVU102
 416 0032 89B2     		uxth	r1, r1
 417 0034 4019     		adds	r0, r0, r5
 418 0036 FFF7FEFF 		bl	LL_FLASH_Program_TwoBtye
 419              	.LVL32:
  64:Src/stm32f0xx_ll_flash.c **** 	for(index = 0U; index < nbiterations; index++)
 420              		.loc 1 64 40 is_stmt 1 discriminator 3 view .LVU103
  64:Src/stm32f0xx_ll_flash.c **** 	for(index = 0U; index < nbiterations; index++)
 421              		.loc 1 64 45 is_stmt 0 discriminator 3 view .LVU104
 422 003a 0134     		adds	r4, r4, #1
 423              	.LVL33:
ARM GAS  C:\Users\ADMINI~1\AppData\Local\Temp\ccvDbVJl.s 			page 13


  64:Src/stm32f0xx_ll_flash.c **** 	for(index = 0U; index < nbiterations; index++)
 424              		.loc 1 64 45 discriminator 3 view .LVU105
 425 003c E4B2     		uxtb	r4, r4
 426              	.LVL34:
 427              	.L21:
  64:Src/stm32f0xx_ll_flash.c **** 	for(index = 0U; index < nbiterations; index++)
 428              		.loc 1 64 18 is_stmt 1 discriminator 1 view .LVU106
  64:Src/stm32f0xx_ll_flash.c **** 	for(index = 0U; index < nbiterations; index++)
 429              		.loc 1 64 2 is_stmt 0 discriminator 1 view .LVU107
 430 003e BC42     		cmp	r4, r7
 431 0040 08D2     		bcs	.L25
 432              		.loc 1 66 4 is_stmt 1 discriminator 3 view .LVU108
 433              		.loc 1 66 46 is_stmt 0 discriminator 3 view .LVU109
 434 0042 6000     		lsls	r0, r4, #1
 435              		.loc 1 66 79 discriminator 3 view .LVU110
 436 0044 2301     		lsls	r3, r4, #4
 437              		.loc 1 66 72 discriminator 3 view .LVU111
 438 0046 2022     		movs	r2, #32
 439 0048 5242     		rsbs	r2, r2, #0
 440 004a 9A18     		adds	r2, r3, r2
 441 004c E9D4     		bmi	.L22
 442 004e 3100     		movs	r1, r6
 443 0050 D140     		lsrs	r1, r1, r2
 444 0052 EEE7     		b	.L23
 445              	.L25:
  67:Src/stm32f0xx_ll_flash.c **** 	}
  68:Src/stm32f0xx_ll_flash.c **** 	
  69:Src/stm32f0xx_ll_flash.c **** 	while (LL_FLASH_IsActiveFlag_BSY(FLASH)) 
  70:Src/stm32f0xx_ll_flash.c **** 	{
  71:Src/stm32f0xx_ll_flash.c **** 	}
 446              		.loc 1 71 2 is_stmt 1 discriminator 1 view .LVU112
  69:Src/stm32f0xx_ll_flash.c **** 	{
 447              		.loc 1 69 8 discriminator 1 view .LVU113
 448              	.LVL35:
 449              	.LBB58:
 450              	.LBI58:
 111:Inc/stm32f0xx_ll_flash.h **** {
 451              		.loc 2 111 26 discriminator 1 view .LVU114
 452              	.LBB59:
 113:Inc/stm32f0xx_ll_flash.h **** }
 453              		.loc 2 113 3 discriminator 1 view .LVU115
 113:Inc/stm32f0xx_ll_flash.h **** }
 454              		.loc 2 113 11 is_stmt 0 discriminator 1 view .LVU116
 455 0054 0B4B     		ldr	r3, .L31
 456 0056 DB68     		ldr	r3, [r3, #12]
 457              	.LVL36:
 113:Inc/stm32f0xx_ll_flash.h **** }
 458              		.loc 2 113 11 discriminator 1 view .LVU117
 459              	.LBE59:
 460              	.LBE58:
  69:Src/stm32f0xx_ll_flash.c **** 	{
 461              		.loc 1 69 8 discriminator 1 view .LVU118
 462 0058 DB07     		lsls	r3, r3, #31
 463 005a FBD4     		bmi	.L25
  72:Src/stm32f0xx_ll_flash.c **** 	if (LL_FLASH_IsActiveFlag_EOP(FLASH))	
 464              		.loc 1 72 2 is_stmt 1 view .LVU119
 465              	.LVL37:
ARM GAS  C:\Users\ADMINI~1\AppData\Local\Temp\ccvDbVJl.s 			page 14


 466              	.LBB60:
 467              	.LBI60:
 116:Inc/stm32f0xx_ll_flash.h **** {
 468              		.loc 2 116 26 view .LVU120
 469              	.LBB61:
 118:Inc/stm32f0xx_ll_flash.h **** }
 470              		.loc 2 118 3 view .LVU121
 118:Inc/stm32f0xx_ll_flash.h **** }
 471              		.loc 2 118 11 is_stmt 0 view .LVU122
 472 005c 094B     		ldr	r3, .L31
 473 005e DB68     		ldr	r3, [r3, #12]
 474              	.LVL38:
 118:Inc/stm32f0xx_ll_flash.h **** }
 475              		.loc 2 118 11 view .LVU123
 476              	.LBE61:
 477              	.LBE60:
 478              		.loc 1 72 5 view .LVU124
 479 0060 9B06     		lsls	r3, r3, #26
 480 0062 0CD5     		bpl	.L29
  73:Src/stm32f0xx_ll_flash.c **** 	{
  74:Src/stm32f0xx_ll_flash.c **** 		LL_FLASH_ClearFlag_EOP(FLASH);
 481              		.loc 1 74 3 is_stmt 1 view .LVU125
 482              	.LVL39:
 483              	.LBB62:
 484              	.LBI62:
 121:Inc/stm32f0xx_ll_flash.h **** {
 485              		.loc 2 121 22 view .LVU126
 486              	.LBB63:
 123:Inc/stm32f0xx_ll_flash.h **** }
 487              		.loc 2 123 3 view .LVU127
 488 0064 074B     		ldr	r3, .L31
 489 0066 DA68     		ldr	r2, [r3, #12]
 490 0068 2021     		movs	r1, #32
 491 006a 0A43     		orrs	r2, r1
 492 006c DA60     		str	r2, [r3, #12]
 493              	.LVL40:
 123:Inc/stm32f0xx_ll_flash.h **** }
 494              		.loc 2 123 3 is_stmt 0 view .LVU128
 495              	.LBE63:
 496              	.LBE62:
  75:Src/stm32f0xx_ll_flash.c **** 	}
  76:Src/stm32f0xx_ll_flash.c **** 	else
  77:Src/stm32f0xx_ll_flash.c **** 	{
  78:Src/stm32f0xx_ll_flash.c **** 		return LL_ERROR;
  79:Src/stm32f0xx_ll_flash.c **** 	}
  80:Src/stm32f0xx_ll_flash.c **** 	LL_FLASH_DisenableProgram(FLASH);
 497              		.loc 1 80 2 is_stmt 1 view .LVU129
 498              	.LBB64:
 499              	.LBI64:
 142:Inc/stm32f0xx_ll_flash.h **** {
 500              		.loc 2 142 22 view .LVU130
 501              	.LBB65:
 144:Inc/stm32f0xx_ll_flash.h **** }
 502              		.loc 2 144 3 view .LVU131
 503 006e 1A69     		ldr	r2, [r3, #16]
 504 0070 1F39     		subs	r1, r1, #31
 505 0072 8A43     		bics	r2, r1
ARM GAS  C:\Users\ADMINI~1\AppData\Local\Temp\ccvDbVJl.s 			page 15


 506 0074 1A61     		str	r2, [r3, #16]
 507              	.LVL41:
 144:Inc/stm32f0xx_ll_flash.h **** }
 508              		.loc 2 144 3 is_stmt 0 view .LVU132
 509              	.LBE65:
 510              	.LBE64:
  81:Src/stm32f0xx_ll_flash.c **** 	return LL_OK;
 511              		.loc 1 81 2 is_stmt 1 view .LVU133
 512              		.loc 1 81 9 is_stmt 0 view .LVU134
 513 0076 0020     		movs	r0, #0
 514              	.L26:
  82:Src/stm32f0xx_ll_flash.c **** }
 515              		.loc 1 82 1 view .LVU135
 516              		@ sp needed
 517              	.LVL42:
 518              	.LVL43:
 519              	.LVL44:
 520              		.loc 1 82 1 view .LVU136
 521 0078 80BC     		pop	{r7}
 522 007a B846     		mov	r8, r7
 523 007c F0BD     		pop	{r4, r5, r6, r7, pc}
 524              	.LVL45:
 525              	.L29:
  78:Src/stm32f0xx_ll_flash.c **** 	}
 526              		.loc 1 78 10 view .LVU137
 527 007e 0120     		movs	r0, #1
 528 0080 FAE7     		b	.L26
 529              	.L32:
 530 0082 C046     		.align	2
 531              	.L31:
 532 0084 00200240 		.word	1073881088
 533              		.cfi_endproc
 534              	.LFE1037:
 536              		.text
 537              	.Letext0:
 538              		.file 3 "c:\\program files (x86)\\gnu arm embedded toolchain\\10 2021.10\\arm-none-eabi\\include\\
 539              		.file 4 "c:\\program files (x86)\\gnu arm embedded toolchain\\10 2021.10\\arm-none-eabi\\include\\
 540              		.file 5 "Drivers/CMSIS/Device/ST/STM32F0xx/Include/stm32f042x6.h"
 541              		.file 6 "Drivers/STM32F0xx_HAL_Driver/Inc/stm32f0xx_ll_dma.h"
 542              		.file 7 "Drivers/STM32F0xx_HAL_Driver/Inc/stm32f0xx_ll_tim.h"
ARM GAS  C:\Users\ADMINI~1\AppData\Local\Temp\ccvDbVJl.s 			page 16

