ARM GAS  C:\Users\ADMINI~1\AppData\Local\Temp\ccPht4JW.s 			page 1


   1              		.cpu cortex-m4
   2              		.arch armv7e-m
   3              		.fpu fpv4-sp-d16
   4              		.eabi_attribute 27, 1
   5              		.eabi_attribute 28, 1
   6              		.eabi_attribute 20, 1
   7              		.eabi_attribute 21, 1
   8              		.eabi_attribute 23, 3
   9              		.eabi_attribute 24, 1
  10              		.eabi_attribute 25, 1
  11              		.eabi_attribute 26, 1
  12              		.eabi_attribute 30, 1
  13              		.eabi_attribute 34, 1
  14              		.eabi_attribute 18, 4
  15              		.file	"usbd_composite.c"
  16              		.text
  17              	.Ltext0:
  18              		.cfi_sections	.debug_frame
  19              		.section	.text.USBD_CMPSIT_FS_DeviceDescriptor,"ax",%progbits
  20              		.align	1
  21              		.global	USBD_CMPSIT_FS_DeviceDescriptor
  22              		.syntax unified
  23              		.thumb
  24              		.thumb_func
  26              	USBD_CMPSIT_FS_DeviceDescriptor:
  27              	.LVL0:
  28              	.LFB134:
  29              		.file 1 "Src/usbd_composite.c"
   1:Src/usbd_composite.c **** #include "usbd_composite.h"
   2:Src/usbd_composite.c **** #include "usbd_conf.h"
   3:Src/usbd_composite.c **** #include "usbd_def.h"
   4:Src/usbd_composite.c **** #include "usbd_cdc.h"
   5:Src/usbd_composite.c **** #include "usbd_winUsb.h"
   6:Src/usbd_composite.c **** 
   7:Src/usbd_composite.c **** #include "usbd_core.h"
   8:Src/usbd_composite.c **** #include "usbd_desc.h"
   9:Src/usbd_composite.c **** 
  10:Src/usbd_composite.c **** 
  11:Src/usbd_composite.c **** 
  12:Src/usbd_composite.c **** #include <stdio.h>
  13:Src/usbd_composite.c **** 
  14:Src/usbd_composite.c **** #define USBD_PRODUCT_XSTR(s) USBD_PRODUCT_STR(s)
  15:Src/usbd_composite.c **** #define USBD_PRODUCT_STR(s) #s
  16:Src/usbd_composite.c **** 
  17:Src/usbd_composite.c **** 
  18:Src/usbd_composite.c **** #if 1
  19:Src/usbd_composite.c **** #define USBD_CMPSIT_VID     0x1217
  20:Src/usbd_composite.c **** #define USBD_CMPSIT_LANGID_STRING     1033
  21:Src/usbd_composite.c **** #define USBD_CMPSIT_MANUFACTURER_STRING     "wenyz@wolfGroup"
  22:Src/usbd_composite.c **** #define USBD_CMPSIT_PID_FS     0x0D39
  23:Src/usbd_composite.c **** #define USBD_CMPSIT_PRODUCT_STRING_FS     "STM32 composite product"
  24:Src/usbd_composite.c **** #define USBD_CMPSIT_CONFIGURATION_STRING_FS     "Composite Config"
  25:Src/usbd_composite.c **** #define USBD_CMPSIT_INTERFACE_STRING_FS     "Composite Interface"
  26:Src/usbd_composite.c **** #else
  27:Src/usbd_composite.c **** #define USBD_CMPSIT_VID     1155
  28:Src/usbd_composite.c **** #define USBD_CMPSIT_LANGID_STRING     1033
  29:Src/usbd_composite.c **** #define USBD_CMPSIT_MANUFACTURER_STRING     "STMicroelectronics"
ARM GAS  C:\Users\ADMINI~1\AppData\Local\Temp\ccPht4JW.s 			page 2


  30:Src/usbd_composite.c **** #define USBD_CMPSIT_PID_FS     22336
  31:Src/usbd_composite.c **** #define USBD_CMPSIT_PRODUCT_STRING_FS     "STM32 Virtual ComPort"
  32:Src/usbd_composite.c **** #define USBD_CMPSIT_CONFIGURATION_STRING_FS     "CDC Config"
  33:Src/usbd_composite.c **** #define USBD_CMPSIT_INTERFACE_STRING_FS     "CDC Interface"
  34:Src/usbd_composite.c **** #endif
  35:Src/usbd_composite.c **** 
  36:Src/usbd_composite.c **** #define USBD_CDC_INTERFACE_STRING_FS     "CDC Interface"
  37:Src/usbd_composite.c **** #define USBD_WIN_USB_INTERFACE_STRING_FS  Electronbot Native Interface
  38:Src/usbd_composite.c **** 
  39:Src/usbd_composite.c **** 
  40:Src/usbd_composite.c **** uint8_t * USBD_CMPSIT_FS_DeviceDescriptor(USBD_SpeedTypeDef speed, uint16_t *length);
  41:Src/usbd_composite.c **** uint8_t * USBD_CMPSIT_FS_LangIDStrDescriptor(USBD_SpeedTypeDef speed, uint16_t *length);
  42:Src/usbd_composite.c **** uint8_t * USBD_CMPSIT_FS_ManufacturerStrDescriptor(USBD_SpeedTypeDef speed, uint16_t *length);
  43:Src/usbd_composite.c **** uint8_t * USBD_CMPSIT_FS_ProductStrDescriptor(USBD_SpeedTypeDef speed, uint16_t *length);
  44:Src/usbd_composite.c **** uint8_t * USBD_CMPSIT_FS_SerialStrDescriptor(USBD_SpeedTypeDef speed, uint16_t *length);
  45:Src/usbd_composite.c **** uint8_t * USBD_CMPSIT_FS_ConfigStrDescriptor(USBD_SpeedTypeDef speed, uint16_t *length);
  46:Src/usbd_composite.c **** uint8_t * USBD_CMPSIT_FS_InterfaceStrDescriptor(USBD_SpeedTypeDef speed, uint16_t *length);
  47:Src/usbd_composite.c **** #if (USBD_LPM_ENABLED == 1)
  48:Src/usbd_composite.c **** uint8_t * USBD_CMPSIT_FS_USR_BOSDescriptor(USBD_SpeedTypeDef speed, uint16_t *length);
  49:Src/usbd_composite.c **** #endif /* (USBD_LPM_ENABLED == 1) */
  50:Src/usbd_composite.c **** 
  51:Src/usbd_composite.c **** 
  52:Src/usbd_composite.c **** USBD_DescriptorsTypeDef usbCmpsitFS_Desc =
  53:Src/usbd_composite.c **** {
  54:Src/usbd_composite.c ****   USBD_CMPSIT_FS_DeviceDescriptor
  55:Src/usbd_composite.c **** , USBD_CMPSIT_FS_LangIDStrDescriptor
  56:Src/usbd_composite.c **** , USBD_CMPSIT_FS_ManufacturerStrDescriptor
  57:Src/usbd_composite.c **** , USBD_CMPSIT_FS_ProductStrDescriptor
  58:Src/usbd_composite.c **** , USBD_CMPSIT_FS_SerialStrDescriptor
  59:Src/usbd_composite.c **** , USBD_CMPSIT_FS_ConfigStrDescriptor
  60:Src/usbd_composite.c **** , USBD_CMPSIT_FS_InterfaceStrDescriptor
  61:Src/usbd_composite.c **** #if (USBD_LPM_ENABLED == 1)
  62:Src/usbd_composite.c **** , USBD_CMPSIT_FS_USR_BOSDescriptor
  63:Src/usbd_composite.c **** #endif /* (USBD_LPM_ENABLED == 1) */
  64:Src/usbd_composite.c **** };
  65:Src/usbd_composite.c **** 
  66:Src/usbd_composite.c **** __ALIGN_BEGIN uint8_t USBD_CMPSIT_FS_DeviceDesc[USB_LEN_DEV_DESC] __ALIGN_END =
  67:Src/usbd_composite.c **** {
  68:Src/usbd_composite.c **** 	0x12,						/*bLength */
  69:Src/usbd_composite.c **** 	USB_DESC_TYPE_DEVICE, 	  /*bDescriptorType*/
  70:Src/usbd_composite.c **** #if (USBD_LPM_ENABLED == 1)
  71:Src/usbd_composite.c **** 	0x01, 					  /*bcdUSB */ /* changed to USB version 2.01
  72:Src/usbd_composite.c **** 											 in order to support LPM L1 suspend
  73:Src/usbd_composite.c **** 											 resume test of USBCV3.0*/
  74:Src/usbd_composite.c **** #else
  75:Src/usbd_composite.c **** 	0x00, 					  /*bcdUSB */
  76:Src/usbd_composite.c **** #endif /* (USBD_LPM_ENABLED == 1) */
  77:Src/usbd_composite.c **** 	0x02,
  78:Src/usbd_composite.c **** 	// Notify OS that this is a composite device
  79:Src/usbd_composite.c **** 	0xEF, 					  /*bDeviceClass*/
  80:Src/usbd_composite.c **** 	0x02, 					  /*bDeviceSubClass*/
  81:Src/usbd_composite.c **** 	0x01, 					  /*bDeviceProtocol*/
  82:Src/usbd_composite.c **** 	USB_MAX_EP0_SIZE, 		  /*bMaxPacketSize*/
  83:Src/usbd_composite.c **** 	LOBYTE(USBD_CMPSIT_VID), 		  /*idVendor*/
  84:Src/usbd_composite.c **** 	HIBYTE(USBD_CMPSIT_VID), 		  /*idVendor*/
  85:Src/usbd_composite.c **** 	LOBYTE(USBD_CMPSIT_PID_FS),		  /*idProduct*/
  86:Src/usbd_composite.c **** 	HIBYTE(USBD_CMPSIT_PID_FS),		  /*idProduct*/
ARM GAS  C:\Users\ADMINI~1\AppData\Local\Temp\ccPht4JW.s 			page 3


  87:Src/usbd_composite.c **** 	0x00, 					  /*bcdDevice rel. 2.00*/
  88:Src/usbd_composite.c **** 	0x02, 					  
  89:Src/usbd_composite.c **** 	USBD_IDX_MFC_STR, 		  /*Index of manufacturer  string*/
  90:Src/usbd_composite.c **** 	USBD_IDX_PRODUCT_STR, 	  /*Index of product string*/
  91:Src/usbd_composite.c **** 	USBD_IDX_SERIAL_STR,		  /*Index of serial number string*/
  92:Src/usbd_composite.c **** 	USBD_MAX_NUM_CONFIGURATION  /*bNumConfigurations*/
  93:Src/usbd_composite.c **** 
  94:Src/usbd_composite.c **** };
  95:Src/usbd_composite.c **** 
  96:Src/usbd_composite.c **** #if (USBD_LPM_ENABLED == 1)
  97:Src/usbd_composite.c **** __ALIGN_BEGIN uint8_t USBD_CMPSIT_FS_BOSDesc[USB_SIZ_BOS_DESC] __ALIGN_END =
  98:Src/usbd_composite.c **** {
  99:Src/usbd_composite.c ****   0x5,
 100:Src/usbd_composite.c ****   USB_DESC_TYPE_BOS,
 101:Src/usbd_composite.c ****   0xC,
 102:Src/usbd_composite.c ****   0x0,
 103:Src/usbd_composite.c ****   0x1,  /* 1 device capability*/
 104:Src/usbd_composite.c ****         /* device capability*/
 105:Src/usbd_composite.c ****   0x7,
 106:Src/usbd_composite.c ****   USB_DEVICE_CAPABITY_TYPE,
 107:Src/usbd_composite.c ****   0x2,
 108:Src/usbd_composite.c ****   0x2,  /* LPM capability bit set*/
 109:Src/usbd_composite.c ****   0x0,
 110:Src/usbd_composite.c ****   0x0,
 111:Src/usbd_composite.c ****   0x0
 112:Src/usbd_composite.c **** };
 113:Src/usbd_composite.c **** #endif /* (USBD_LPM_ENABLED == 1) */
 114:Src/usbd_composite.c **** 
 115:Src/usbd_composite.c **** /** USB lang identifier descriptor. */
 116:Src/usbd_composite.c **** __ALIGN_BEGIN uint8_t USBD_CMPSIT_LangIDDesc[USB_LEN_LANGID_STR_DESC] __ALIGN_END =
 117:Src/usbd_composite.c **** {
 118:Src/usbd_composite.c ****      USB_LEN_LANGID_STR_DESC,
 119:Src/usbd_composite.c ****      USB_DESC_TYPE_STRING,
 120:Src/usbd_composite.c ****      LOBYTE(USBD_CMPSIT_LANGID_STRING),
 121:Src/usbd_composite.c ****      HIBYTE(USBD_CMPSIT_LANGID_STRING)
 122:Src/usbd_composite.c **** };
 123:Src/usbd_composite.c **** 
 124:Src/usbd_composite.c **** 
 125:Src/usbd_composite.c **** /* Internal string descriptor. */
 126:Src/usbd_composite.c **** __ALIGN_BEGIN uint8_t USBD_CMPSIT_StrDesc[USBD_MAX_STR_DESC_SIZ] __ALIGN_END;
 127:Src/usbd_composite.c **** 
 128:Src/usbd_composite.c **** 
 129:Src/usbd_composite.c **** __ALIGN_BEGIN uint8_t USBD_CMPSIT_StringSerial[USB_SIZ_STRING_SERIAL] __ALIGN_END = {
 130:Src/usbd_composite.c ****   USB_SIZ_STRING_SERIAL,
 131:Src/usbd_composite.c ****   USB_DESC_TYPE_STRING,
 132:Src/usbd_composite.c **** };
 133:Src/usbd_composite.c ****  
 134:Src/usbd_composite.c **** 
 135:Src/usbd_composite.c **** uint8_t * USBD_CMPSIT_FS_DeviceDescriptor(USBD_SpeedTypeDef speed, uint16_t *length)
 136:Src/usbd_composite.c **** {
  30              		.loc 1 136 1 view -0
  31              		.cfi_startproc
  32              		@ args = 0, pretend = 0, frame = 0
  33              		@ frame_needed = 0, uses_anonymous_args = 0
  34              		@ link register save eliminated.
 137:Src/usbd_composite.c ****   UNUSED(speed);
  35              		.loc 1 137 3 view .LVU1
ARM GAS  C:\Users\ADMINI~1\AppData\Local\Temp\ccPht4JW.s 			page 4


 138:Src/usbd_composite.c ****   *length = sizeof(USBD_CMPSIT_FS_DeviceDesc);
  36              		.loc 1 138 3 view .LVU2
  37              		.loc 1 138 11 is_stmt 0 view .LVU3
  38 0000 1223     		movs	r3, #18
  39 0002 0B80     		strh	r3, [r1]	@ movhi
 139:Src/usbd_composite.c ****   return USBD_CMPSIT_FS_DeviceDesc;
  40              		.loc 1 139 3 is_stmt 1 view .LVU4
 140:Src/usbd_composite.c **** }
  41              		.loc 1 140 1 is_stmt 0 view .LVU5
  42 0004 0048     		ldr	r0, .L2
  43              	.LVL1:
  44              		.loc 1 140 1 view .LVU6
  45 0006 7047     		bx	lr
  46              	.L3:
  47              		.align	2
  48              	.L2:
  49 0008 00000000 		.word	.LANCHOR0
  50              		.cfi_endproc
  51              	.LFE134:
  53              		.section	.text.USBD_CMPSIT_FS_LangIDStrDescriptor,"ax",%progbits
  54              		.align	1
  55              		.global	USBD_CMPSIT_FS_LangIDStrDescriptor
  56              		.syntax unified
  57              		.thumb
  58              		.thumb_func
  60              	USBD_CMPSIT_FS_LangIDStrDescriptor:
  61              	.LVL2:
  62              	.LFB135:
 141:Src/usbd_composite.c **** 
 142:Src/usbd_composite.c **** uint8_t * USBD_CMPSIT_FS_LangIDStrDescriptor(USBD_SpeedTypeDef speed, uint16_t *length)
 143:Src/usbd_composite.c **** {
  63              		.loc 1 143 1 is_stmt 1 view -0
  64              		.cfi_startproc
  65              		@ args = 0, pretend = 0, frame = 0
  66              		@ frame_needed = 0, uses_anonymous_args = 0
  67              		@ link register save eliminated.
 144:Src/usbd_composite.c ****   UNUSED(speed);
  68              		.loc 1 144 3 view .LVU8
 145:Src/usbd_composite.c ****   *length = sizeof(USBD_CMPSIT_LangIDDesc);
  69              		.loc 1 145 3 view .LVU9
  70              		.loc 1 145 11 is_stmt 0 view .LVU10
  71 0000 0423     		movs	r3, #4
  72 0002 0B80     		strh	r3, [r1]	@ movhi
 146:Src/usbd_composite.c ****   return USBD_CMPSIT_LangIDDesc;
  73              		.loc 1 146 3 is_stmt 1 view .LVU11
 147:Src/usbd_composite.c **** }
  74              		.loc 1 147 1 is_stmt 0 view .LVU12
  75 0004 0048     		ldr	r0, .L5
  76              	.LVL3:
  77              		.loc 1 147 1 view .LVU13
  78 0006 7047     		bx	lr
  79              	.L6:
  80              		.align	2
  81              	.L5:
  82 0008 00000000 		.word	.LANCHOR1
  83              		.cfi_endproc
  84              	.LFE135:
ARM GAS  C:\Users\ADMINI~1\AppData\Local\Temp\ccPht4JW.s 			page 5


  86              		.section	.text.IntToUnicode,"ax",%progbits
  87              		.align	1
  88              		.syntax unified
  89              		.thumb
  90              		.thumb_func
  92              	IntToUnicode:
  93              	.LVL4:
  94              	.LFB138:
 148:Src/usbd_composite.c **** uint8_t * USBD_CMPSIT_FS_ManufacturerStrDescriptor(USBD_SpeedTypeDef speed, uint16_t *length)
 149:Src/usbd_composite.c **** {
 150:Src/usbd_composite.c ****   UNUSED(speed);
 151:Src/usbd_composite.c ****   USBD_GetString((uint8_t *)USBD_CMPSIT_MANUFACTURER_STRING, USBD_CMPSIT_StrDesc, length);
 152:Src/usbd_composite.c ****   return USBD_CMPSIT_StrDesc;
 153:Src/usbd_composite.c **** }
 154:Src/usbd_composite.c **** 
 155:Src/usbd_composite.c **** uint8_t * USBD_CMPSIT_FS_ProductStrDescriptor(USBD_SpeedTypeDef speed, uint16_t *length)
 156:Src/usbd_composite.c **** {
 157:Src/usbd_composite.c ****   if(speed == 0)
 158:Src/usbd_composite.c ****   {
 159:Src/usbd_composite.c ****     USBD_GetString((uint8_t *)USBD_CMPSIT_PRODUCT_STRING_FS, USBD_CMPSIT_StrDesc, length);
 160:Src/usbd_composite.c ****   }
 161:Src/usbd_composite.c ****   else
 162:Src/usbd_composite.c ****   {
 163:Src/usbd_composite.c ****     USBD_GetString((uint8_t *)USBD_CMPSIT_PRODUCT_STRING_FS, USBD_CMPSIT_StrDesc, length);
 164:Src/usbd_composite.c ****   }
 165:Src/usbd_composite.c ****   return USBD_CMPSIT_StrDesc;
 166:Src/usbd_composite.c **** }
 167:Src/usbd_composite.c **** 
 168:Src/usbd_composite.c **** static void IntToUnicode(uint32_t value, uint8_t * pbuf, uint8_t len)
 169:Src/usbd_composite.c **** {
  95              		.loc 1 169 1 is_stmt 1 view -0
  96              		.cfi_startproc
  97              		@ args = 0, pretend = 0, frame = 0
  98              		@ frame_needed = 0, uses_anonymous_args = 0
 170:Src/usbd_composite.c ****   uint8_t idx = 0;
  99              		.loc 1 170 3 view .LVU15
 171:Src/usbd_composite.c **** 
 172:Src/usbd_composite.c ****   for (idx = 0; idx < len; idx++)
 100              		.loc 1 172 3 view .LVU16
 101              		.loc 1 172 12 is_stmt 0 view .LVU17
 102 0000 0023     		movs	r3, #0
 103              	.LVL5:
 104              		.loc 1 172 17 is_stmt 1 view .LVU18
 105              		.loc 1 172 3 is_stmt 0 view .LVU19
 106 0002 9342     		cmp	r3, r2
 107 0004 1ED2     		bcs	.L15
 169:Src/usbd_composite.c ****   uint8_t idx = 0;
 108              		.loc 1 169 1 view .LVU20
 109 0006 00B5     		push	{lr}
 110              	.LCFI0:
 111              		.cfi_def_cfa_offset 4
 112              		.cfi_offset 14, -4
 113 0008 10E0     		b	.L11
 114              	.L9:
 173:Src/usbd_composite.c ****   {
 174:Src/usbd_composite.c ****     if (((value >> 28)) < 0xA)
 175:Src/usbd_composite.c ****     {
ARM GAS  C:\Users\ADMINI~1\AppData\Local\Temp\ccPht4JW.s 			page 6


 176:Src/usbd_composite.c ****       pbuf[2 * idx] = (value >> 28) + '0';
 177:Src/usbd_composite.c ****     }
 178:Src/usbd_composite.c ****     else
 179:Src/usbd_composite.c ****     {
 180:Src/usbd_composite.c ****       pbuf[2 * idx] = (value >> 28) + 'A' - 10;
 115              		.loc 1 180 7 is_stmt 1 view .LVU21
 116              		.loc 1 180 43 is_stmt 0 view .LVU22
 117 000a 0CF1370C 		add	ip, ip, #55
 118              		.loc 1 180 21 view .LVU23
 119 000e 01F813C0 		strb	ip, [r1, r3, lsl #1]
 120              	.L10:
 181:Src/usbd_composite.c ****     }
 182:Src/usbd_composite.c **** 
 183:Src/usbd_composite.c ****     value = value << 4;
 121              		.loc 1 183 5 is_stmt 1 discriminator 2 view .LVU24
 122              		.loc 1 183 11 is_stmt 0 discriminator 2 view .LVU25
 123 0012 0001     		lsls	r0, r0, #4
 124              	.LVL6:
 184:Src/usbd_composite.c **** 
 185:Src/usbd_composite.c ****     pbuf[2 * idx + 1] = 0;
 125              		.loc 1 185 5 is_stmt 1 discriminator 2 view .LVU26
 126              		.loc 1 185 12 is_stmt 0 discriminator 2 view .LVU27
 127 0014 4FEA430C 		lsl	ip, r3, #1
 128              		.loc 1 185 9 discriminator 2 view .LVU28
 129 0018 0CF1010C 		add	ip, ip, #1
 130              		.loc 1 185 23 discriminator 2 view .LVU29
 131 001c 4FF0000E 		mov	lr, #0
 132 0020 01F80CE0 		strb	lr, [r1, ip]
 172:Src/usbd_composite.c ****   {
 133              		.loc 1 172 28 is_stmt 1 discriminator 2 view .LVU30
 172:Src/usbd_composite.c ****   {
 134              		.loc 1 172 31 is_stmt 0 discriminator 2 view .LVU31
 135 0024 0133     		adds	r3, r3, #1
 136              	.LVL7:
 172:Src/usbd_composite.c ****   {
 137              		.loc 1 172 31 discriminator 2 view .LVU32
 138 0026 DBB2     		uxtb	r3, r3
 139              	.LVL8:
 172:Src/usbd_composite.c ****   {
 140              		.loc 1 172 17 is_stmt 1 discriminator 2 view .LVU33
 172:Src/usbd_composite.c ****   {
 141              		.loc 1 172 3 is_stmt 0 discriminator 2 view .LVU34
 142 0028 9342     		cmp	r3, r2
 143 002a 09D2     		bcs	.L16
 144              	.L11:
 174:Src/usbd_composite.c ****     {
 145              		.loc 1 174 5 is_stmt 1 view .LVU35
 174:Src/usbd_composite.c ****     {
 146              		.loc 1 174 17 is_stmt 0 view .LVU36
 147 002c 4FEA107C 		lsr	ip, r0, #28
 174:Src/usbd_composite.c ****     {
 148              		.loc 1 174 8 view .LVU37
 149 0030 B0F1204F 		cmp	r0, #-1610612736
 150 0034 E9D2     		bcs	.L9
 176:Src/usbd_composite.c ****     }
 151              		.loc 1 176 7 is_stmt 1 view .LVU38
 176:Src/usbd_composite.c ****     }
ARM GAS  C:\Users\ADMINI~1\AppData\Local\Temp\ccPht4JW.s 			page 7


 152              		.loc 1 176 37 is_stmt 0 view .LVU39
 153 0036 0CF1300C 		add	ip, ip, #48
 176:Src/usbd_composite.c ****     }
 154              		.loc 1 176 21 view .LVU40
 155 003a 01F813C0 		strb	ip, [r1, r3, lsl #1]
 156 003e E8E7     		b	.L10
 157              	.L16:
 186:Src/usbd_composite.c ****   }
 187:Src/usbd_composite.c **** }
 158              		.loc 1 187 1 view .LVU41
 159 0040 5DF804FB 		ldr	pc, [sp], #4
 160              	.L15:
 161              	.LCFI1:
 162              		.cfi_def_cfa_offset 0
 163              		.cfi_restore 14
 164              		.loc 1 187 1 view .LVU42
 165 0044 7047     		bx	lr
 166              		.cfi_endproc
 167              	.LFE138:
 169              		.section	.text.Get_CMPSIT_SerialNum,"ax",%progbits
 170              		.align	1
 171              		.syntax unified
 172              		.thumb
 173              		.thumb_func
 175              	Get_CMPSIT_SerialNum:
 176              	.LFB139:
 188:Src/usbd_composite.c **** static void Get_CMPSIT_SerialNum(void)
 189:Src/usbd_composite.c **** {
 177              		.loc 1 189 1 is_stmt 1 view -0
 178              		.cfi_startproc
 179              		@ args = 0, pretend = 0, frame = 0
 180              		@ frame_needed = 0, uses_anonymous_args = 0
 181 0000 38B5     		push	{r3, r4, r5, lr}
 182              	.LCFI2:
 183              		.cfi_def_cfa_offset 16
 184              		.cfi_offset 3, -16
 185              		.cfi_offset 4, -12
 186              		.cfi_offset 5, -8
 187              		.cfi_offset 14, -4
 190:Src/usbd_composite.c ****   uint32_t deviceserial0, deviceserial1, deviceserial2;
 188              		.loc 1 190 3 view .LVU44
 191:Src/usbd_composite.c **** 
 192:Src/usbd_composite.c ****   deviceserial0 = *(uint32_t *) DEVICE_ID1;
 189              		.loc 1 192 3 view .LVU45
 190              		.loc 1 192 17 is_stmt 0 view .LVU46
 191 0002 0B4B     		ldr	r3, .L21
 192 0004 D3F8100A 		ldr	r0, [r3, #2576]
 193              	.LVL9:
 193:Src/usbd_composite.c ****   deviceserial1 = *(uint32_t *) DEVICE_ID2;
 194              		.loc 1 193 3 is_stmt 1 view .LVU47
 195              		.loc 1 193 17 is_stmt 0 view .LVU48
 196 0008 D3F8144A 		ldr	r4, [r3, #2580]
 197              	.LVL10:
 194:Src/usbd_composite.c ****   deviceserial2 = *(uint32_t *) DEVICE_ID3;
 198              		.loc 1 194 3 is_stmt 1 view .LVU49
 199              		.loc 1 194 17 is_stmt 0 view .LVU50
 200 000c D3F8183A 		ldr	r3, [r3, #2584]
ARM GAS  C:\Users\ADMINI~1\AppData\Local\Temp\ccPht4JW.s 			page 8


 201              	.LVL11:
 195:Src/usbd_composite.c **** 
 196:Src/usbd_composite.c ****   deviceserial0 += deviceserial2;
 202              		.loc 1 196 3 is_stmt 1 view .LVU51
 197:Src/usbd_composite.c **** 
 198:Src/usbd_composite.c ****   if (deviceserial0 != 0)
 203              		.loc 1 198 3 view .LVU52
 204              		.loc 1 198 6 is_stmt 0 view .LVU53
 205 0010 C018     		adds	r0, r0, r3
 206              	.LVL12:
 207              		.loc 1 198 6 view .LVU54
 208 0012 00D1     		bne	.L20
 209              	.LVL13:
 210              	.L17:
 199:Src/usbd_composite.c ****   {
 200:Src/usbd_composite.c ****     IntToUnicode(deviceserial0, &USBD_CMPSIT_StringSerial[2], 8);
 201:Src/usbd_composite.c ****     IntToUnicode(deviceserial1, &USBD_CMPSIT_StringSerial[18], 4);
 202:Src/usbd_composite.c ****   }
 203:Src/usbd_composite.c **** }
 211              		.loc 1 203 1 view .LVU55
 212 0014 38BD     		pop	{r3, r4, r5, pc}
 213              	.LVL14:
 214              	.L20:
 200:Src/usbd_composite.c ****     IntToUnicode(deviceserial1, &USBD_CMPSIT_StringSerial[18], 4);
 215              		.loc 1 200 5 is_stmt 1 view .LVU56
 216 0016 074D     		ldr	r5, .L21+4
 217 0018 0822     		movs	r2, #8
 218 001a A91C     		adds	r1, r5, #2
 219 001c FFF7FEFF 		bl	IntToUnicode
 220              	.LVL15:
 201:Src/usbd_composite.c ****   }
 221              		.loc 1 201 5 view .LVU57
 222 0020 0422     		movs	r2, #4
 223 0022 05F11201 		add	r1, r5, #18
 224 0026 2046     		mov	r0, r4
 225 0028 FFF7FEFF 		bl	IntToUnicode
 226              	.LVL16:
 227              		.loc 1 203 1 is_stmt 0 view .LVU58
 228 002c F2E7     		b	.L17
 229              	.L22:
 230 002e 00BF     		.align	2
 231              	.L21:
 232 0030 0070FF1F 		.word	536834048
 233 0034 00000000 		.word	.LANCHOR2
 234              		.cfi_endproc
 235              	.LFE139:
 237              		.section	.text.USBD_CMPSIT_FS_SerialStrDescriptor,"ax",%progbits
 238              		.align	1
 239              		.global	USBD_CMPSIT_FS_SerialStrDescriptor
 240              		.syntax unified
 241              		.thumb
 242              		.thumb_func
 244              	USBD_CMPSIT_FS_SerialStrDescriptor:
 245              	.LVL17:
 246              	.LFB140:
 204:Src/usbd_composite.c **** uint8_t * USBD_CMPSIT_FS_SerialStrDescriptor(USBD_SpeedTypeDef speed, uint16_t *length)
 205:Src/usbd_composite.c **** {
ARM GAS  C:\Users\ADMINI~1\AppData\Local\Temp\ccPht4JW.s 			page 9


 247              		.loc 1 205 1 is_stmt 1 view -0
 248              		.cfi_startproc
 249              		@ args = 0, pretend = 0, frame = 0
 250              		@ frame_needed = 0, uses_anonymous_args = 0
 251              		.loc 1 205 1 is_stmt 0 view .LVU60
 252 0000 08B5     		push	{r3, lr}
 253              	.LCFI3:
 254              		.cfi_def_cfa_offset 8
 255              		.cfi_offset 3, -8
 256              		.cfi_offset 14, -4
 206:Src/usbd_composite.c ****   UNUSED(speed);
 257              		.loc 1 206 3 is_stmt 1 view .LVU61
 207:Src/usbd_composite.c ****   *length = USB_SIZ_STRING_SERIAL;
 258              		.loc 1 207 3 view .LVU62
 259              		.loc 1 207 11 is_stmt 0 view .LVU63
 260 0002 1A23     		movs	r3, #26
 261 0004 0B80     		strh	r3, [r1]	@ movhi
 208:Src/usbd_composite.c **** 
 209:Src/usbd_composite.c ****   /* Update the serial number string descriptor with the data from the unique
 210:Src/usbd_composite.c ****    * ID */
 211:Src/usbd_composite.c ****   Get_CMPSIT_SerialNum();
 262              		.loc 1 211 3 is_stmt 1 view .LVU64
 263 0006 FFF7FEFF 		bl	Get_CMPSIT_SerialNum
 264              	.LVL18:
 212:Src/usbd_composite.c ****   /* USER CODE BEGIN USBD_FS_SerialStrDescriptor */
 213:Src/usbd_composite.c **** 
 214:Src/usbd_composite.c ****   /* USER CODE END USBD_FS_SerialStrDescriptor */
 215:Src/usbd_composite.c ****   return (uint8_t *) USBD_CMPSIT_StringSerial;
 265              		.loc 1 215 3 view .LVU65
 216:Src/usbd_composite.c **** }
 266              		.loc 1 216 1 is_stmt 0 view .LVU66
 267 000a 0148     		ldr	r0, .L25
 268 000c 08BD     		pop	{r3, pc}
 269              	.L26:
 270 000e 00BF     		.align	2
 271              	.L25:
 272 0010 00000000 		.word	.LANCHOR2
 273              		.cfi_endproc
 274              	.LFE140:
 276              		.section	.text.USBD_CMPSIT_GetDeviceQualifierDescriptor,"ax",%progbits
 277              		.align	1
 278              		.global	USBD_CMPSIT_GetDeviceQualifierDescriptor
 279              		.syntax unified
 280              		.thumb
 281              		.thumb_func
 283              	USBD_CMPSIT_GetDeviceQualifierDescriptor:
 284              	.LVL19:
 285              	.LFB149:
 217:Src/usbd_composite.c **** 
 218:Src/usbd_composite.c **** uint8_t * USBD_CMPSIT_FS_InterfaceStrDescriptor(USBD_SpeedTypeDef speed, uint16_t *length)
 219:Src/usbd_composite.c **** {
 220:Src/usbd_composite.c ****   if(speed == 0)
 221:Src/usbd_composite.c ****   {
 222:Src/usbd_composite.c ****     USBD_GetString((uint8_t *)USBD_CMPSIT_INTERFACE_STRING_FS, USBD_CMPSIT_StrDesc, length);
 223:Src/usbd_composite.c ****   }
 224:Src/usbd_composite.c ****   else
 225:Src/usbd_composite.c ****   {
ARM GAS  C:\Users\ADMINI~1\AppData\Local\Temp\ccPht4JW.s 			page 10


 226:Src/usbd_composite.c ****     USBD_GetString((uint8_t *)USBD_CMPSIT_INTERFACE_STRING_FS, USBD_CMPSIT_StrDesc, length);
 227:Src/usbd_composite.c ****   }
 228:Src/usbd_composite.c ****   return USBD_CMPSIT_StrDesc;
 229:Src/usbd_composite.c **** }
 230:Src/usbd_composite.c **** 
 231:Src/usbd_composite.c **** 
 232:Src/usbd_composite.c **** uint8_t * USBD_CMPSIT_FS_ConfigStrDescriptor(USBD_SpeedTypeDef speed, uint16_t *length)
 233:Src/usbd_composite.c **** {
 234:Src/usbd_composite.c ****   if(speed == USBD_SPEED_HIGH)
 235:Src/usbd_composite.c ****   {
 236:Src/usbd_composite.c ****     USBD_GetString((uint8_t *)USBD_CMPSIT_CONFIGURATION_STRING_FS, USBD_CMPSIT_StrDesc, length);
 237:Src/usbd_composite.c ****   }
 238:Src/usbd_composite.c ****   else
 239:Src/usbd_composite.c ****   {
 240:Src/usbd_composite.c ****     USBD_GetString((uint8_t *)USBD_CMPSIT_CONFIGURATION_STRING_FS, USBD_CMPSIT_StrDesc, length);
 241:Src/usbd_composite.c ****   }
 242:Src/usbd_composite.c ****   return USBD_CMPSIT_StrDesc;
 243:Src/usbd_composite.c **** }
 244:Src/usbd_composite.c **** 
 245:Src/usbd_composite.c **** 
 246:Src/usbd_composite.c **** #if (USBD_LPM_ENABLED == 1)
 247:Src/usbd_composite.c **** /**
 248:Src/usbd_composite.c ****   * @brief  Return the BOS descriptor
 249:Src/usbd_composite.c ****   * @param  speed : Current device speed
 250:Src/usbd_composite.c ****   * @param  length : Pointer to data length variable
 251:Src/usbd_composite.c ****   * @retval Pointer to descriptor buffer
 252:Src/usbd_composite.c ****   */
 253:Src/usbd_composite.c **** uint8_t * USBD_CMPSIT_FS_USR_BOSDescriptor(USBD_SpeedTypeDef speed, uint16_t *length)
 254:Src/usbd_composite.c **** {
 255:Src/usbd_composite.c ****   UNUSED(speed);
 256:Src/usbd_composite.c ****   *length = sizeof(USBD_CMPSIT_FS_BOSDesc);
 257:Src/usbd_composite.c ****   return (uint8_t*)USBD_CMPSIT_FS_BOSDesc;
 258:Src/usbd_composite.c **** }
 259:Src/usbd_composite.c **** #endif /* (USBD_LPM_ENABLED == 1) */
 260:Src/usbd_composite.c **** 
 261:Src/usbd_composite.c **** 
 262:Src/usbd_composite.c **** __ALIGN_BEGIN static uint8_t USBD_CMPSIT_CfgDesc[USB_CMPSIT_CONFIG_DESC_SIZ] __ALIGN_END =
 263:Src/usbd_composite.c **** {
 264:Src/usbd_composite.c ****   /* Configuration Descriptor */
 265:Src/usbd_composite.c ****   //0
 266:Src/usbd_composite.c ****   0x09,                                       /* bLength: Configuration Descriptor size */
 267:Src/usbd_composite.c ****   USB_DESC_TYPE_CONFIGURATION,                /* bDescriptorType: Configuration */
 268:Src/usbd_composite.c ****   USB_CMPSIT_CONFIG_DESC_SIZ,                    /* wTotalLength */
 269:Src/usbd_composite.c ****   0x00,
 270:Src/usbd_composite.c ****   0x03,                                       /* bNumInterfaces: 2 interfaces */
 271:Src/usbd_composite.c ****   0x01,                                       /* bConfigurationValue: Configuration value */
 272:Src/usbd_composite.c ****   0x00,                                       /* iConfiguration: Index of string descriptor
 273:Src/usbd_composite.c ****                                                  describing the configuration */
 274:Src/usbd_composite.c **** #if (USBD_SELF_POWERED == 1U)
 275:Src/usbd_composite.c ****   0xC0,                                       /* bmAttributes: Bus Powered according to user config
 276:Src/usbd_composite.c **** #else
 277:Src/usbd_composite.c ****   0x80,                                       /* bmAttributes: Bus Powered according to user config
 278:Src/usbd_composite.c **** #endif /* USBD_SELF_POWERED */
 279:Src/usbd_composite.c ****   USBD_MAX_POWER,                             /* MaxPower (mA) */
 280:Src/usbd_composite.c **** 
 281:Src/usbd_composite.c ****   /*---------------------------------------------------------------------------*/
 282:Src/usbd_composite.c ****   //9
ARM GAS  C:\Users\ADMINI~1\AppData\Local\Temp\ccPht4JW.s 			page 11


 283:Src/usbd_composite.c ****   /* Interface Association Descriptor: CDC device (virtual com port) */
 284:Src/usbd_composite.c ****   0x08,   /* bLength: IAD size */
 285:Src/usbd_composite.c ****   0x0B,   /* bDescriptorType: Interface Association Descriptor */
 286:Src/usbd_composite.c ****   0x00,   /* bFirstInterface */
 287:Src/usbd_composite.c ****   0x02,   /* bInterfaceCount */
 288:Src/usbd_composite.c ****   0x02,   /* bFunctionClass: Communication Interface Class */
 289:Src/usbd_composite.c ****   0x02,   /* bFunctionSubClass: Abstract Control Model */
 290:Src/usbd_composite.c ****   0x01,   /* bFunctionProtocol: Common AT commands */
 291:Src/usbd_composite.c ****   0x06,   /* iFunction */
 292:Src/usbd_composite.c ****   //17
 293:Src/usbd_composite.c ****   /* Interface Descriptor */
 294:Src/usbd_composite.c ****   0x09,                                       /* bLength: Interface Descriptor size */
 295:Src/usbd_composite.c ****   USB_DESC_TYPE_INTERFACE,                    /* bDescriptorType: Interface */
 296:Src/usbd_composite.c ****   /* Interface descriptor type */
 297:Src/usbd_composite.c ****   0x00,                                       /* bInterfaceNumber: Number of Interface */
 298:Src/usbd_composite.c ****   0x00,                                       /* bAlternateSetting: Alternate setting */
 299:Src/usbd_composite.c ****   0x01,                                       /* bNumEndpoints: One endpoint used */
 300:Src/usbd_composite.c ****   0x02,                                       /* bInterfaceClass: Communication Interface Class */
 301:Src/usbd_composite.c ****   0x02,                                       /* bInterfaceSubClass: Abstract Control Model */
 302:Src/usbd_composite.c ****   0x01,                                       /* bInterfaceProtocol: Common AT commands */
 303:Src/usbd_composite.c ****   0x00,                                       /* iInterface */
 304:Src/usbd_composite.c ****   //26
 305:Src/usbd_composite.c ****   /* Header Functional Descriptor */
 306:Src/usbd_composite.c ****   0x05,                                       /* bLength: Endpoint Descriptor size */
 307:Src/usbd_composite.c ****   0x24,                                       /* bDescriptorType: CS_INTERFACE */
 308:Src/usbd_composite.c ****   0x00,                                       /* bDescriptorSubtype: Header Func Desc */
 309:Src/usbd_composite.c ****   0x10,                                       /* bcdCDC: spec release number */
 310:Src/usbd_composite.c ****   0x01,
 311:Src/usbd_composite.c ****   //31
 312:Src/usbd_composite.c ****   /* Call Management Functional Descriptor */
 313:Src/usbd_composite.c ****   0x05,                                       /* bFunctionLength */
 314:Src/usbd_composite.c ****   0x24,                                       /* bDescriptorType: CS_INTERFACE */
 315:Src/usbd_composite.c ****   0x01,                                       /* bDescriptorSubtype: Call Management Func Desc */
 316:Src/usbd_composite.c ****   0x00,                                       /* bmCapabilities: D0+D1 */
 317:Src/usbd_composite.c ****   0x01,                                       /* bDataInterface */
 318:Src/usbd_composite.c ****   //36
 319:Src/usbd_composite.c ****   /* ACM Functional Descriptor */
 320:Src/usbd_composite.c ****   0x04,                                       /* bFunctionLength */
 321:Src/usbd_composite.c ****   0x24,                                       /* bDescriptorType: CS_INTERFACE */
 322:Src/usbd_composite.c ****   0x02,                                       /* bDescriptorSubtype: Abstract Control Management de
 323:Src/usbd_composite.c ****   0x02,                                       /* bmCapabilities */
 324:Src/usbd_composite.c ****   //40
 325:Src/usbd_composite.c ****   /* Union Functional Descriptor */
 326:Src/usbd_composite.c ****   0x05,                                       /* bFunctionLength */
 327:Src/usbd_composite.c ****   0x24,                                       /* bDescriptorType: CS_INTERFACE */
 328:Src/usbd_composite.c ****   0x06,                                       /* bDescriptorSubtype: Union func desc */
 329:Src/usbd_composite.c ****   0x00,                                       /* bMasterInterface: Communication class interface */
 330:Src/usbd_composite.c ****   0x01,                                       /* bSlaveInterface0: Data Class Interface */
 331:Src/usbd_composite.c ****   //45
 332:Src/usbd_composite.c ****   /* Endpoint 2 Descriptor */
 333:Src/usbd_composite.c ****   0x07,                                       /* bLength: Endpoint Descriptor size */
 334:Src/usbd_composite.c ****   USB_DESC_TYPE_ENDPOINT,                     /* bDescriptorType: Endpoint */
 335:Src/usbd_composite.c ****   CDC_CMD_EP,                                 /* bEndpointAddress */
 336:Src/usbd_composite.c ****   0x03,                                       /* bmAttributes: Interrupt */
 337:Src/usbd_composite.c ****   LOBYTE(CDC_CMD_PACKET_SIZE),                /* wMaxPacketSize */
 338:Src/usbd_composite.c ****   HIBYTE(CDC_CMD_PACKET_SIZE),
 339:Src/usbd_composite.c ****   CDC_FS_BINTERVAL,                           /* bInterval */
ARM GAS  C:\Users\ADMINI~1\AppData\Local\Temp\ccPht4JW.s 			page 12


 340:Src/usbd_composite.c ****   /*---------------------------------------------------------------------------*/
 341:Src/usbd_composite.c ****   //52
 342:Src/usbd_composite.c ****   /* Data class interface descriptor */
 343:Src/usbd_composite.c ****   0x09,                                       /* bLength: Endpoint Descriptor size */
 344:Src/usbd_composite.c ****   USB_DESC_TYPE_INTERFACE,                    /* bDescriptorType: */
 345:Src/usbd_composite.c ****   0x01,                                       /* bInterfaceNumber: Number of Interface */
 346:Src/usbd_composite.c ****   0x00,                                       /* bAlternateSetting: Alternate setting */
 347:Src/usbd_composite.c ****   0x02,                                       /* bNumEndpoints: Two endpoints used */
 348:Src/usbd_composite.c ****   0x0A,                                       /* bInterfaceClass: CDC */
 349:Src/usbd_composite.c ****   0x00,                                       /* bInterfaceSubClass */
 350:Src/usbd_composite.c ****   0x00,                                       /* bInterfaceProtocol */
 351:Src/usbd_composite.c ****   0x00,                                       /* iInterface */
 352:Src/usbd_composite.c ****   //61
 353:Src/usbd_composite.c ****   /* Endpoint OUT Descriptor */
 354:Src/usbd_composite.c ****   0x07,                                       /* bLength: Endpoint Descriptor size */
 355:Src/usbd_composite.c ****   USB_DESC_TYPE_ENDPOINT,                     /* bDescriptorType: Endpoint */
 356:Src/usbd_composite.c ****   CDC_OUT_EP,                                 /* bEndpointAddress */
 357:Src/usbd_composite.c ****   0x02,                                       /* bmAttributes: Bulk */
 358:Src/usbd_composite.c ****   LOBYTE(CDC_DATA_FS_MAX_PACKET_SIZE),        /* wMaxPacketSize */
 359:Src/usbd_composite.c ****   HIBYTE(CDC_DATA_FS_MAX_PACKET_SIZE),
 360:Src/usbd_composite.c ****   0x00,                                       /* bInterval */
 361:Src/usbd_composite.c ****   //68
 362:Src/usbd_composite.c ****   /* Endpoint IN Descriptor */
 363:Src/usbd_composite.c ****   0x07,                                       /* bLength: Endpoint Descriptor size */
 364:Src/usbd_composite.c ****   USB_DESC_TYPE_ENDPOINT,                     /* bDescriptorType: Endpoint */
 365:Src/usbd_composite.c ****   CDC_IN_EP,                                  /* bEndpointAddress */
 366:Src/usbd_composite.c ****   0x02,                                       /* bmAttributes: Bulk */
 367:Src/usbd_composite.c ****   LOBYTE(CDC_DATA_FS_MAX_PACKET_SIZE),        /* wMaxPacketSize */
 368:Src/usbd_composite.c ****   HIBYTE(CDC_DATA_FS_MAX_PACKET_SIZE),
 369:Src/usbd_composite.c ****   0x00,                                        /* bInterval */
 370:Src/usbd_composite.c ****   //75
 371:Src/usbd_composite.c ****   /* Interface Association Descriptor: winUsb device */
 372:Src/usbd_composite.c ****   0x08,   /* bLength: IAD size */
 373:Src/usbd_composite.c ****   0x0B,   /* bDescriptorType: Interface Association Descriptor */
 374:Src/usbd_composite.c ****   0x02,   /* bFirstInterface */
 375:Src/usbd_composite.c ****   0x01,   /* bInterfaceCount */
 376:Src/usbd_composite.c ****   0x00,   /* bFunctionClass: */
 377:Src/usbd_composite.c ****   0x00,   /* bFunctionSubClass: */
 378:Src/usbd_composite.c ****   0x00,   /* bFunctionProtocol: */
 379:Src/usbd_composite.c ****   0x07,   /* iFunction */
 380:Src/usbd_composite.c ****   //83
 381:Src/usbd_composite.c ****   /********************  winUsb interface ********************/
 382:Src/usbd_composite.c ****   0x09,                                            /* bLength: Interface Descriptor size */
 383:Src/usbd_composite.c ****   USB_DESC_TYPE_INTERFACE,                                            /* bDescriptorType: */
 384:Src/usbd_composite.c ****   0x02,                                            /* bInterfaceNumber: Number of Interface */
 385:Src/usbd_composite.c ****   0x00,                                            /* bAlternateSetting: Alternate setting */
 386:Src/usbd_composite.c ****   0x02,                                            /* bNumEndpoints */
 387:Src/usbd_composite.c ****   0x00,                                            /* bInterfaceClass: MSC Class */
 388:Src/usbd_composite.c ****   0x01,                                            /* bInterfaceSubClass : SCSI transparent*/
 389:Src/usbd_composite.c ****   0x00,                                            /* nInterfaceProtocol */
 390:Src/usbd_composite.c ****   0x00,                                            /* iInterface: */
 391:Src/usbd_composite.c ****   /********************  Mass Storage Endpoints ********************/
 392:Src/usbd_composite.c ****   //92
 393:Src/usbd_composite.c ****   0x07,                                            /* Endpoint descriptor length = 7 */
 394:Src/usbd_composite.c ****   USB_DESC_TYPE_ENDPOINT,                                            /* Endpoint descriptor type */
 395:Src/usbd_composite.c ****   WIN_USB_EPOUT_ADDR,                                   /* Endpoint address (IN, address 1) */
 396:Src/usbd_composite.c ****   0x02,                                            /* Bulk endpoint type */
ARM GAS  C:\Users\ADMINI~1\AppData\Local\Temp\ccPht4JW.s 			page 13


 397:Src/usbd_composite.c ****   LOBYTE(WIN_DATA_FS_OUT_PACKET_SIZE),
 398:Src/usbd_composite.c ****   HIBYTE(WIN_DATA_FS_OUT_PACKET_SIZE),
 399:Src/usbd_composite.c ****   0x00,                                            /* Polling interval in milliseconds */
 400:Src/usbd_composite.c ****   //99
 401:Src/usbd_composite.c ****   0x07,                                            /* Endpoint descriptor length = 7 */
 402:Src/usbd_composite.c ****   USB_DESC_TYPE_ENDPOINT,                                            /* Endpoint descriptor type */
 403:Src/usbd_composite.c ****   WIN_USB_EPIN_ADDR,                                  /* Endpoint address (OUT, address 1) */
 404:Src/usbd_composite.c ****   0x02,                                            /* Bulk endpoint type */
 405:Src/usbd_composite.c ****   LOBYTE(WIN_DATA_FS_IN_PACKET_SIZE),
 406:Src/usbd_composite.c ****   HIBYTE(WIN_DATA_FS_IN_PACKET_SIZE),
 407:Src/usbd_composite.c ****   0x00                                             /* Polling interval in milliseconds */
 408:Src/usbd_composite.c ****   //106
 409:Src/usbd_composite.c **** };
 410:Src/usbd_composite.c **** __ALIGN_BEGIN static uint8_t USBD_CMPSIT_DeviceQualifierDesc[USB_LEN_DEV_QUALIFIER_DESC] __ALIGN_EN
 411:Src/usbd_composite.c **** {
 412:Src/usbd_composite.c ****   USB_LEN_DEV_QUALIFIER_DESC,
 413:Src/usbd_composite.c ****   USB_DESC_TYPE_DEVICE_QUALIFIER,
 414:Src/usbd_composite.c ****   0x00,
 415:Src/usbd_composite.c ****   0x02,
 416:Src/usbd_composite.c ****   0x00,
 417:Src/usbd_composite.c ****   0x00,
 418:Src/usbd_composite.c ****   0x00,
 419:Src/usbd_composite.c ****   0x40,
 420:Src/usbd_composite.c ****   0x01,
 421:Src/usbd_composite.c ****   0x00,
 422:Src/usbd_composite.c **** };
 423:Src/usbd_composite.c **** 
 424:Src/usbd_composite.c **** static uint8_t *USBD_CMPSIT_GetFSCfgDesc(uint16_t *length);
 425:Src/usbd_composite.c **** static uint8_t *USBD_CMPSIT_GetHSCfgDesc(uint16_t *length);
 426:Src/usbd_composite.c **** static uint8_t *USBD_CMPSIT_GetOtherSpeedCfgDesc(uint16_t *length);
 427:Src/usbd_composite.c **** uint8_t *USBD_CMPSIT_GetDeviceQualifierDescriptor(uint16_t *length);
 428:Src/usbd_composite.c **** 
 429:Src/usbd_composite.c **** 
 430:Src/usbd_composite.c **** 
 431:Src/usbd_composite.c **** USBD_ClassTypeDef USBD_CMPSIT=
 432:Src/usbd_composite.c **** {
 433:Src/usbd_composite.c ****   NULL,
 434:Src/usbd_composite.c ****   NULL,
 435:Src/usbd_composite.c ****   NULL,
 436:Src/usbd_composite.c ****   NULL,                 /* EP0_TxSent */
 437:Src/usbd_composite.c ****   NULL,
 438:Src/usbd_composite.c ****   NULL,
 439:Src/usbd_composite.c ****   NULL,
 440:Src/usbd_composite.c ****   NULL,
 441:Src/usbd_composite.c ****   NULL,
 442:Src/usbd_composite.c ****   NULL,
 443:Src/usbd_composite.c ****   USBD_CMPSIT_GetHSCfgDesc,
 444:Src/usbd_composite.c ****   USBD_CMPSIT_GetFSCfgDesc,  
 445:Src/usbd_composite.c ****   USBD_CMPSIT_GetOtherSpeedCfgDesc,
 446:Src/usbd_composite.c ****   USBD_CMPSIT_GetDeviceQualifierDescriptor  
 447:Src/usbd_composite.c **** };
 448:Src/usbd_composite.c **** 
 449:Src/usbd_composite.c **** #ifdef USE_USBD_COMPOSITE
 450:Src/usbd_composite.c **** void USBD_CMPSIT_AddClass(USBD_HandleTypeDef *pdev, USBD_ClassTypeDef *pclass, USBD_CompositeClassT
 451:Src/usbd_composite.c **** {
 452:Src/usbd_composite.c **** 	//printf("classId=%d  : %d\r\n",pdev->classId,classtype);
 453:Src/usbd_composite.c **** 	switch(classtype)
ARM GAS  C:\Users\ADMINI~1\AppData\Local\Temp\ccPht4JW.s 			page 14


 454:Src/usbd_composite.c **** 	{
 455:Src/usbd_composite.c **** 		case CLASS_TYPE_CDC:{
 456:Src/usbd_composite.c **** 			pdev->tclasslist[pdev->classId].ClassType = CLASS_TYPE_CDC;
 457:Src/usbd_composite.c **** 			
 458:Src/usbd_composite.c **** 			pdev->tclasslist[pdev->classId].Active = 1U;
 459:Src/usbd_composite.c **** 			pdev->tclasslist[pdev->classId].NumEps = 3;
 460:Src/usbd_composite.c **** 			
 461:Src/usbd_composite.c **** 			pdev->tclasslist[pdev->classId].Eps[0].add = CDC_CMD_EP;
 462:Src/usbd_composite.c **** 			pdev->tclasslist[pdev->classId].Eps[0].type = USBD_EP_TYPE_INTR;
 463:Src/usbd_composite.c **** 			pdev->tclasslist[pdev->classId].Eps[0].size = CDC_CMD_PACKET_SIZE;
 464:Src/usbd_composite.c **** 			pdev->tclasslist[pdev->classId].Eps[0].is_used = 1U;
 465:Src/usbd_composite.c **** 			
 466:Src/usbd_composite.c **** 			pdev->tclasslist[pdev->classId].Eps[1].add = CDC_OUT_EP;
 467:Src/usbd_composite.c **** 			pdev->tclasslist[pdev->classId].Eps[1].type = USBD_EP_TYPE_BULK;
 468:Src/usbd_composite.c **** 			pdev->tclasslist[pdev->classId].Eps[1].size = CDC_DATA_FS_MAX_PACKET_SIZE;
 469:Src/usbd_composite.c **** 			pdev->tclasslist[pdev->classId].Eps[1].is_used = 1U;
 470:Src/usbd_composite.c **** 			
 471:Src/usbd_composite.c **** 			pdev->tclasslist[pdev->classId].Eps[2].add = CDC_IN_EP;
 472:Src/usbd_composite.c **** 			pdev->tclasslist[pdev->classId].Eps[2].type = USBD_EP_TYPE_BULK;
 473:Src/usbd_composite.c **** 			pdev->tclasslist[pdev->classId].Eps[2].size = CDC_DATA_FS_MAX_PACKET_SIZE;
 474:Src/usbd_composite.c **** 			pdev->tclasslist[pdev->classId].Eps[2].is_used = 1U;
 475:Src/usbd_composite.c **** 
 476:Src/usbd_composite.c **** 			pdev->tclasslist[pdev->classId].NumIf = 2;
 477:Src/usbd_composite.c **** 			pdev->tclasslist[pdev->classId].Ifs[0] = 0;
 478:Src/usbd_composite.c **** 			pdev->tclasslist[pdev->classId].Ifs[1] = 1;	
 479:Src/usbd_composite.c **** 			
 480:Src/usbd_composite.c **** 		}break;
 481:Src/usbd_composite.c **** 
 482:Src/usbd_composite.c **** 		case CLASS_TYPE_WINUSB:{
 483:Src/usbd_composite.c **** 			pdev->tclasslist[pdev->classId].ClassType = CLASS_TYPE_WINUSB;
 484:Src/usbd_composite.c **** 			
 485:Src/usbd_composite.c **** 			pdev->tclasslist[pdev->classId].Active = 1U;
 486:Src/usbd_composite.c **** 			pdev->tclasslist[pdev->classId].NumEps = 2;
 487:Src/usbd_composite.c **** 			
 488:Src/usbd_composite.c **** 			pdev->tclasslist[pdev->classId].Eps[0].add = WIN_USB_EPOUT_ADDR;
 489:Src/usbd_composite.c **** 			pdev->tclasslist[pdev->classId].Eps[0].type = USBD_EP_TYPE_BULK;
 490:Src/usbd_composite.c **** 			pdev->tclasslist[pdev->classId].Eps[0].size = WIN_DATA_FS_OUT_PACKET_SIZE;
 491:Src/usbd_composite.c **** 			pdev->tclasslist[pdev->classId].Eps[0].is_used = 1U;
 492:Src/usbd_composite.c **** 			
 493:Src/usbd_composite.c **** 			pdev->tclasslist[pdev->classId].Eps[1].add = WIN_USB_EPIN_ADDR;
 494:Src/usbd_composite.c **** 			pdev->tclasslist[pdev->classId].Eps[1].type = USBD_EP_TYPE_BULK;
 495:Src/usbd_composite.c **** 			pdev->tclasslist[pdev->classId].Eps[1].size = WIN_DATA_FS_IN_PACKET_SIZE;
 496:Src/usbd_composite.c **** 			pdev->tclasslist[pdev->classId].Eps[1].is_used = 1U;
 497:Src/usbd_composite.c **** 			
 498:Src/usbd_composite.c **** 
 499:Src/usbd_composite.c **** 			pdev->tclasslist[pdev->classId].NumIf = 1;
 500:Src/usbd_composite.c **** 			pdev->tclasslist[pdev->classId].Ifs[0] = 2;		
 501:Src/usbd_composite.c **** 			
 502:Src/usbd_composite.c **** 		}break;
 503:Src/usbd_composite.c **** 		default:break;
 504:Src/usbd_composite.c **** 	}
 505:Src/usbd_composite.c **** 	pdev->tclasslist[pdev->classId].CurrPcktSze = 0U;
 506:Src/usbd_composite.c **** 		
 507:Src/usbd_composite.c **** }
 508:Src/usbd_composite.c **** void USBD_CMPST_ClearConfDesc(USBD_HandleTypeDef *pdev)
 509:Src/usbd_composite.c **** {
 510:Src/usbd_composite.c **** }
ARM GAS  C:\Users\ADMINI~1\AppData\Local\Temp\ccPht4JW.s 			page 15


 511:Src/usbd_composite.c **** 
 512:Src/usbd_composite.c **** #endif
 513:Src/usbd_composite.c **** __ALIGN_BEGIN uint8_t USBD_MS_OS_StringDescriptor[]  __ALIGN_END =
 514:Src/usbd_composite.c **** {
 515:Src/usbd_composite.c ****   0x12,           //  bLength           1 0x12  Length of the descriptor
 516:Src/usbd_composite.c ****   0x03,           //  bDescriptorType   1 0x03  Descriptor type
 517:Src/usbd_composite.c ****                   //  qwSignature      14 ‘MSFT100’ Signature field
 518:Src/usbd_composite.c ****   0x4D, 0x00,     //  'M'
 519:Src/usbd_composite.c ****   0x53, 0x00,     //  'S'
 520:Src/usbd_composite.c ****   0x46, 0x00,     //  'F'
 521:Src/usbd_composite.c ****   0x54, 0x00,     //  'T'
 522:Src/usbd_composite.c ****   0x31, 0x00,     //  '1'
 523:Src/usbd_composite.c ****   0x30, 0x00,     //  '0'
 524:Src/usbd_composite.c ****   0x30, 0x00,     //  '0'
 525:Src/usbd_composite.c ****   MS_VendorCode,  //  bMS_VendorCode    1 Vendor-specific Vendor code
 526:Src/usbd_composite.c ****   0x00            //  bPad              1 0x00  Pad field
 527:Src/usbd_composite.c **** };
 528:Src/usbd_composite.c **** uint8_t * USBD_UsrStrDescriptor(struct _USBD_HandleTypeDef *pdev, uint8_t index,  uint16_t *length)
 529:Src/usbd_composite.c **** {
 530:Src/usbd_composite.c ****   *length = 0;  
 531:Src/usbd_composite.c ****   // printf("index=%d\r\n",index);
 532:Src/usbd_composite.c ****   if (USBD_IDX_MICROSOFT_DESC_STR == index) {
 533:Src/usbd_composite.c ****     *length = sizeof (USBD_MS_OS_StringDescriptor);
 534:Src/usbd_composite.c ****     return USBD_MS_OS_StringDescriptor;
 535:Src/usbd_composite.c ****   } else if (USBD_IDX_CDC_INTF_STR == index) {
 536:Src/usbd_composite.c ****     USBD_GetString((uint8_t *)USBD_CDC_INTERFACE_STRING_FS, USBD_CMPSIT_StrDesc, length);
 537:Src/usbd_composite.c ****     return USBD_CMPSIT_StrDesc;
 538:Src/usbd_composite.c ****   }  
 539:Src/usbd_composite.c ****   else if (USBD_IDX_WIN_USB_INTF_STR == index) {
 540:Src/usbd_composite.c ****     USBD_GetString((uint8_t *)USBD_PRODUCT_XSTR(USBD_WIN_USB_INTERFACE_STRING_FS), USBD_CMPSIT_StrD
 541:Src/usbd_composite.c ****     return USBD_CMPSIT_StrDesc;
 542:Src/usbd_composite.c ****   }  
 543:Src/usbd_composite.c ****   return NULL;
 544:Src/usbd_composite.c **** }
 545:Src/usbd_composite.c **** 
 546:Src/usbd_composite.c **** static uint8_t *USBD_CMPSIT_GetFSCfgDesc(uint16_t *length)
 547:Src/usbd_composite.c **** {
 548:Src/usbd_composite.c **** 	USBD_EpDescTypeDef *pEpCmdDesc = USBD_GetEpDesc(USBD_CMPSIT_CfgDesc, CDC_CMD_EP);
 549:Src/usbd_composite.c ****   USBD_EpDescTypeDef *pEpOutDesc = USBD_GetEpDesc(USBD_CMPSIT_CfgDesc, CDC_OUT_EP);
 550:Src/usbd_composite.c ****   USBD_EpDescTypeDef *pEpInDesc = USBD_GetEpDesc(USBD_CMPSIT_CfgDesc, CDC_IN_EP);
 551:Src/usbd_composite.c **** 
 552:Src/usbd_composite.c ****   if (pEpCmdDesc != NULL)
 553:Src/usbd_composite.c ****   {
 554:Src/usbd_composite.c ****     pEpCmdDesc->bInterval = CDC_FS_BINTERVAL;
 555:Src/usbd_composite.c ****   }
 556:Src/usbd_composite.c **** 
 557:Src/usbd_composite.c ****   if (pEpOutDesc != NULL)
 558:Src/usbd_composite.c ****   {
 559:Src/usbd_composite.c ****     pEpOutDesc->wMaxPacketSize = CDC_DATA_FS_MAX_PACKET_SIZE;
 560:Src/usbd_composite.c ****   }
 561:Src/usbd_composite.c **** 
 562:Src/usbd_composite.c ****   if (pEpInDesc != NULL)
 563:Src/usbd_composite.c ****   {
 564:Src/usbd_composite.c ****     pEpInDesc->wMaxPacketSize = CDC_DATA_FS_MAX_PACKET_SIZE;
 565:Src/usbd_composite.c ****   }
 566:Src/usbd_composite.c **** 
 567:Src/usbd_composite.c ****   USBD_EpDescTypeDef *pWinUsbEpOutDesc = USBD_GetEpDesc(USBD_CMPSIT_CfgDesc, WIN_USB_EPOUT_ADDR);
ARM GAS  C:\Users\ADMINI~1\AppData\Local\Temp\ccPht4JW.s 			page 16


 568:Src/usbd_composite.c ****   USBD_EpDescTypeDef *pWinUsbEpInDesc = USBD_GetEpDesc(USBD_CMPSIT_CfgDesc, WIN_USB_EPIN_ADDR);
 569:Src/usbd_composite.c **** 
 570:Src/usbd_composite.c ****   
 571:Src/usbd_composite.c **** 
 572:Src/usbd_composite.c ****   if (pWinUsbEpOutDesc != NULL)
 573:Src/usbd_composite.c ****   {
 574:Src/usbd_composite.c ****     pWinUsbEpOutDesc->wMaxPacketSize = WIN_DATA_FS_MAX_PACKET_SIZE;
 575:Src/usbd_composite.c ****   }
 576:Src/usbd_composite.c **** 
 577:Src/usbd_composite.c ****   if (pWinUsbEpInDesc != NULL)
 578:Src/usbd_composite.c ****   {
 579:Src/usbd_composite.c ****     pWinUsbEpInDesc->wMaxPacketSize = WIN_DATA_FS_MAX_PACKET_SIZE;
 580:Src/usbd_composite.c ****   }
 581:Src/usbd_composite.c **** 	*length = (uint16_t)sizeof(USBD_CMPSIT_CfgDesc);
 582:Src/usbd_composite.c **** 	return USBD_CMPSIT_CfgDesc;
 583:Src/usbd_composite.c **** }
 584:Src/usbd_composite.c **** static uint8_t *USBD_CMPSIT_GetHSCfgDesc(uint16_t *length)
 585:Src/usbd_composite.c **** {
 586:Src/usbd_composite.c **** 
 587:Src/usbd_composite.c ****   USBD_EpDescTypeDef *pEpCmdDesc = USBD_GetEpDesc(USBD_CMPSIT_CfgDesc, CDC_CMD_EP);
 588:Src/usbd_composite.c ****   USBD_EpDescTypeDef *pEpOutDesc = USBD_GetEpDesc(USBD_CMPSIT_CfgDesc, CDC_OUT_EP);
 589:Src/usbd_composite.c ****   USBD_EpDescTypeDef *pEpInDesc = USBD_GetEpDesc(USBD_CMPSIT_CfgDesc, CDC_IN_EP);
 590:Src/usbd_composite.c **** 
 591:Src/usbd_composite.c ****   if (pEpCmdDesc != NULL)
 592:Src/usbd_composite.c ****   {
 593:Src/usbd_composite.c ****     pEpCmdDesc->bInterval = CDC_HS_BINTERVAL;
 594:Src/usbd_composite.c ****   }
 595:Src/usbd_composite.c **** 
 596:Src/usbd_composite.c ****   if (pEpOutDesc != NULL)
 597:Src/usbd_composite.c ****   {
 598:Src/usbd_composite.c ****     pEpOutDesc->wMaxPacketSize = CDC_DATA_HS_MAX_PACKET_SIZE;
 599:Src/usbd_composite.c ****   }
 600:Src/usbd_composite.c **** 
 601:Src/usbd_composite.c ****   if (pEpInDesc != NULL)
 602:Src/usbd_composite.c ****   {
 603:Src/usbd_composite.c ****     pEpInDesc->wMaxPacketSize = CDC_DATA_HS_MAX_PACKET_SIZE;
 604:Src/usbd_composite.c ****   }
 605:Src/usbd_composite.c **** 
 606:Src/usbd_composite.c ****   USBD_EpDescTypeDef *pWinUsbEpOutDesc = USBD_GetEpDesc(USBD_CMPSIT_CfgDesc, WIN_USB_EPOUT_ADDR);
 607:Src/usbd_composite.c ****   USBD_EpDescTypeDef *pWinUsbEpInDesc = USBD_GetEpDesc(USBD_CMPSIT_CfgDesc, WIN_USB_EPIN_ADDR);
 608:Src/usbd_composite.c **** 
 609:Src/usbd_composite.c ****   
 610:Src/usbd_composite.c **** 
 611:Src/usbd_composite.c ****   if (pWinUsbEpOutDesc != NULL)
 612:Src/usbd_composite.c ****   {
 613:Src/usbd_composite.c ****     pWinUsbEpOutDesc->wMaxPacketSize = WIN_DATA_HS_MAX_PACKET_SIZE;
 614:Src/usbd_composite.c ****   }
 615:Src/usbd_composite.c **** 
 616:Src/usbd_composite.c ****   if (pWinUsbEpInDesc != NULL)
 617:Src/usbd_composite.c ****   {
 618:Src/usbd_composite.c ****     pWinUsbEpInDesc->wMaxPacketSize = WIN_DATA_HS_MAX_PACKET_SIZE;
 619:Src/usbd_composite.c ****   }
 620:Src/usbd_composite.c **** 
 621:Src/usbd_composite.c ****   *length = (uint16_t)sizeof(USBD_CMPSIT_CfgDesc);
 622:Src/usbd_composite.c **** 	return USBD_CMPSIT_CfgDesc;
 623:Src/usbd_composite.c **** }
 624:Src/usbd_composite.c **** static uint8_t *USBD_CMPSIT_GetOtherSpeedCfgDesc(uint16_t *length)
ARM GAS  C:\Users\ADMINI~1\AppData\Local\Temp\ccPht4JW.s 			page 17


 625:Src/usbd_composite.c **** {
 626:Src/usbd_composite.c ****   USBD_EpDescTypeDef *pEpCmdDesc = USBD_GetEpDesc(USBD_CMPSIT_CfgDesc, CDC_CMD_EP);
 627:Src/usbd_composite.c ****   USBD_EpDescTypeDef *pEpOutDesc = USBD_GetEpDesc(USBD_CMPSIT_CfgDesc, CDC_OUT_EP);
 628:Src/usbd_composite.c ****   USBD_EpDescTypeDef *pEpInDesc = USBD_GetEpDesc(USBD_CMPSIT_CfgDesc, CDC_IN_EP);
 629:Src/usbd_composite.c **** 
 630:Src/usbd_composite.c ****   if (pEpCmdDesc != NULL)
 631:Src/usbd_composite.c ****   {
 632:Src/usbd_composite.c ****     pEpCmdDesc->bInterval = CDC_FS_BINTERVAL;
 633:Src/usbd_composite.c ****   }
 634:Src/usbd_composite.c **** 
 635:Src/usbd_composite.c ****   if (pEpOutDesc != NULL)
 636:Src/usbd_composite.c ****   {
 637:Src/usbd_composite.c ****     pEpOutDesc->wMaxPacketSize = CDC_DATA_FS_MAX_PACKET_SIZE;
 638:Src/usbd_composite.c ****   }
 639:Src/usbd_composite.c **** 
 640:Src/usbd_composite.c ****   if (pEpInDesc != NULL)
 641:Src/usbd_composite.c ****   {
 642:Src/usbd_composite.c ****     pEpInDesc->wMaxPacketSize = CDC_DATA_FS_MAX_PACKET_SIZE;
 643:Src/usbd_composite.c ****   }
 644:Src/usbd_composite.c **** 
 645:Src/usbd_composite.c ****   USBD_EpDescTypeDef *pWinUsbEpOutDesc = USBD_GetEpDesc(USBD_CMPSIT_CfgDesc, WIN_USB_EPOUT_ADDR);
 646:Src/usbd_composite.c ****   USBD_EpDescTypeDef *pWinUsbEpInDesc = USBD_GetEpDesc(USBD_CMPSIT_CfgDesc, WIN_USB_EPIN_ADDR);
 647:Src/usbd_composite.c **** 
 648:Src/usbd_composite.c ****   
 649:Src/usbd_composite.c **** 
 650:Src/usbd_composite.c ****   if (pWinUsbEpOutDesc != NULL)
 651:Src/usbd_composite.c ****   {
 652:Src/usbd_composite.c ****     pWinUsbEpOutDesc->wMaxPacketSize = WIN_DATA_FS_MAX_PACKET_SIZE;
 653:Src/usbd_composite.c ****   }
 654:Src/usbd_composite.c **** 
 655:Src/usbd_composite.c ****   if (pWinUsbEpInDesc != NULL)
 656:Src/usbd_composite.c ****   {
 657:Src/usbd_composite.c ****     pWinUsbEpInDesc->wMaxPacketSize = WIN_DATA_FS_MAX_PACKET_SIZE;
 658:Src/usbd_composite.c ****   }
 659:Src/usbd_composite.c **** 
 660:Src/usbd_composite.c ****   *length = (uint16_t)sizeof(USBD_CMPSIT_CfgDesc);
 661:Src/usbd_composite.c ****   return USBD_CMPSIT_CfgDesc;
 662:Src/usbd_composite.c **** }
 663:Src/usbd_composite.c **** uint8_t *USBD_CMPSIT_GetDeviceQualifierDescriptor(uint16_t *length)
 664:Src/usbd_composite.c **** {
 286              		.loc 1 664 1 is_stmt 1 view -0
 287              		.cfi_startproc
 288              		@ args = 0, pretend = 0, frame = 0
 289              		@ frame_needed = 0, uses_anonymous_args = 0
 290              		@ link register save eliminated.
 665:Src/usbd_composite.c ****   *length = (uint16_t)sizeof(USBD_CMPSIT_DeviceQualifierDesc);
 291              		.loc 1 665 3 view .LVU68
 292              		.loc 1 665 11 is_stmt 0 view .LVU69
 293 0000 0A23     		movs	r3, #10
 294 0002 0380     		strh	r3, [r0]	@ movhi
 666:Src/usbd_composite.c ****   return USBD_CMPSIT_DeviceQualifierDesc;
 295              		.loc 1 666 3 is_stmt 1 view .LVU70
 667:Src/usbd_composite.c **** }
 296              		.loc 1 667 1 is_stmt 0 view .LVU71
 297 0004 0048     		ldr	r0, .L28
 298              	.LVL20:
 299              		.loc 1 667 1 view .LVU72
ARM GAS  C:\Users\ADMINI~1\AppData\Local\Temp\ccPht4JW.s 			page 18


 300 0006 7047     		bx	lr
 301              	.L29:
 302              		.align	2
 303              	.L28:
 304 0008 00000000 		.word	.LANCHOR3
 305              		.cfi_endproc
 306              	.LFE149:
 308              		.section	.rodata.USBD_CMPSIT_FS_ManufacturerStrDescriptor.str1.4,"aMS",%progbits,1
 309              		.align	2
 310              	.LC0:
 311 0000 77656E79 		.ascii	"wenyz@wolfGroup\000"
 311      7A40776F 
 311      6C664772 
 311      6F757000 
 312              		.section	.text.USBD_CMPSIT_FS_ManufacturerStrDescriptor,"ax",%progbits
 313              		.align	1
 314              		.global	USBD_CMPSIT_FS_ManufacturerStrDescriptor
 315              		.syntax unified
 316              		.thumb
 317              		.thumb_func
 319              	USBD_CMPSIT_FS_ManufacturerStrDescriptor:
 320              	.LVL21:
 321              	.LFB136:
 149:Src/usbd_composite.c ****   UNUSED(speed);
 322              		.loc 1 149 1 is_stmt 1 view -0
 323              		.cfi_startproc
 324              		@ args = 0, pretend = 0, frame = 0
 325              		@ frame_needed = 0, uses_anonymous_args = 0
 149:Src/usbd_composite.c ****   UNUSED(speed);
 326              		.loc 1 149 1 is_stmt 0 view .LVU74
 327 0000 10B5     		push	{r4, lr}
 328              	.LCFI4:
 329              		.cfi_def_cfa_offset 8
 330              		.cfi_offset 4, -8
 331              		.cfi_offset 14, -4
 332 0002 0A46     		mov	r2, r1
 150:Src/usbd_composite.c ****   USBD_GetString((uint8_t *)USBD_CMPSIT_MANUFACTURER_STRING, USBD_CMPSIT_StrDesc, length);
 333              		.loc 1 150 3 is_stmt 1 view .LVU75
 151:Src/usbd_composite.c ****   return USBD_CMPSIT_StrDesc;
 334              		.loc 1 151 3 view .LVU76
 335 0004 034C     		ldr	r4, .L32
 336 0006 2146     		mov	r1, r4
 337              	.LVL22:
 151:Src/usbd_composite.c ****   return USBD_CMPSIT_StrDesc;
 338              		.loc 1 151 3 is_stmt 0 view .LVU77
 339 0008 0348     		ldr	r0, .L32+4
 340              	.LVL23:
 151:Src/usbd_composite.c ****   return USBD_CMPSIT_StrDesc;
 341              		.loc 1 151 3 view .LVU78
 342 000a FFF7FEFF 		bl	USBD_GetString
 343              	.LVL24:
 152:Src/usbd_composite.c **** }
 344              		.loc 1 152 3 is_stmt 1 view .LVU79
 153:Src/usbd_composite.c **** 
 345              		.loc 1 153 1 is_stmt 0 view .LVU80
 346 000e 2046     		mov	r0, r4
 347 0010 10BD     		pop	{r4, pc}
ARM GAS  C:\Users\ADMINI~1\AppData\Local\Temp\ccPht4JW.s 			page 19


 348              	.L33:
 349 0012 00BF     		.align	2
 350              	.L32:
 351 0014 00000000 		.word	.LANCHOR4
 352 0018 00000000 		.word	.LC0
 353              		.cfi_endproc
 354              	.LFE136:
 356              		.section	.rodata.USBD_CMPSIT_FS_ProductStrDescriptor.str1.4,"aMS",%progbits,1
 357              		.align	2
 358              	.LC1:
 359 0000 53544D33 		.ascii	"STM32 composite product\000"
 359      3220636F 
 359      6D706F73 
 359      69746520 
 359      70726F64 
 360              		.section	.text.USBD_CMPSIT_FS_ProductStrDescriptor,"ax",%progbits
 361              		.align	1
 362              		.global	USBD_CMPSIT_FS_ProductStrDescriptor
 363              		.syntax unified
 364              		.thumb
 365              		.thumb_func
 367              	USBD_CMPSIT_FS_ProductStrDescriptor:
 368              	.LVL25:
 369              	.LFB137:
 156:Src/usbd_composite.c ****   if(speed == 0)
 370              		.loc 1 156 1 is_stmt 1 view -0
 371              		.cfi_startproc
 372              		@ args = 0, pretend = 0, frame = 0
 373              		@ frame_needed = 0, uses_anonymous_args = 0
 156:Src/usbd_composite.c ****   if(speed == 0)
 374              		.loc 1 156 1 is_stmt 0 view .LVU82
 375 0000 08B5     		push	{r3, lr}
 376              	.LCFI5:
 377              		.cfi_def_cfa_offset 8
 378              		.cfi_offset 3, -8
 379              		.cfi_offset 14, -4
 380 0002 0A46     		mov	r2, r1
 157:Src/usbd_composite.c ****   {
 381              		.loc 1 157 3 is_stmt 1 view .LVU83
 157:Src/usbd_composite.c ****   {
 382              		.loc 1 157 5 is_stmt 0 view .LVU84
 383 0004 28B9     		cbnz	r0, .L35
 159:Src/usbd_composite.c ****   }
 384              		.loc 1 159 5 is_stmt 1 view .LVU85
 385 0006 0549     		ldr	r1, .L38
 386              	.LVL26:
 159:Src/usbd_composite.c ****   }
 387              		.loc 1 159 5 is_stmt 0 view .LVU86
 388 0008 0548     		ldr	r0, .L38+4
 389              	.LVL27:
 159:Src/usbd_composite.c ****   }
 390              		.loc 1 159 5 view .LVU87
 391 000a FFF7FEFF 		bl	USBD_GetString
 392              	.LVL28:
 393              	.L36:
 165:Src/usbd_composite.c **** }
 394              		.loc 1 165 3 is_stmt 1 view .LVU88
ARM GAS  C:\Users\ADMINI~1\AppData\Local\Temp\ccPht4JW.s 			page 20


 166:Src/usbd_composite.c **** 
 395              		.loc 1 166 1 is_stmt 0 view .LVU89
 396 000e 0348     		ldr	r0, .L38
 397 0010 08BD     		pop	{r3, pc}
 398              	.LVL29:
 399              	.L35:
 163:Src/usbd_composite.c ****   }
 400              		.loc 1 163 5 is_stmt 1 view .LVU90
 401 0012 0249     		ldr	r1, .L38
 402              	.LVL30:
 163:Src/usbd_composite.c ****   }
 403              		.loc 1 163 5 is_stmt 0 view .LVU91
 404 0014 0248     		ldr	r0, .L38+4
 405              	.LVL31:
 163:Src/usbd_composite.c ****   }
 406              		.loc 1 163 5 view .LVU92
 407 0016 FFF7FEFF 		bl	USBD_GetString
 408              	.LVL32:
 163:Src/usbd_composite.c ****   }
 409              		.loc 1 163 5 view .LVU93
 410 001a F8E7     		b	.L36
 411              	.L39:
 412              		.align	2
 413              	.L38:
 414 001c 00000000 		.word	.LANCHOR4
 415 0020 00000000 		.word	.LC1
 416              		.cfi_endproc
 417              	.LFE137:
 419              		.section	.rodata.USBD_CMPSIT_FS_InterfaceStrDescriptor.str1.4,"aMS",%progbits,1
 420              		.align	2
 421              	.LC2:
 422 0000 436F6D70 		.ascii	"Composite Interface\000"
 422      6F736974 
 422      6520496E 
 422      74657266 
 422      61636500 
 423              		.section	.text.USBD_CMPSIT_FS_InterfaceStrDescriptor,"ax",%progbits
 424              		.align	1
 425              		.global	USBD_CMPSIT_FS_InterfaceStrDescriptor
 426              		.syntax unified
 427              		.thumb
 428              		.thumb_func
 430              	USBD_CMPSIT_FS_InterfaceStrDescriptor:
 431              	.LVL33:
 432              	.LFB141:
 219:Src/usbd_composite.c ****   if(speed == 0)
 433              		.loc 1 219 1 is_stmt 1 view -0
 434              		.cfi_startproc
 435              		@ args = 0, pretend = 0, frame = 0
 436              		@ frame_needed = 0, uses_anonymous_args = 0
 219:Src/usbd_composite.c ****   if(speed == 0)
 437              		.loc 1 219 1 is_stmt 0 view .LVU95
 438 0000 08B5     		push	{r3, lr}
 439              	.LCFI6:
 440              		.cfi_def_cfa_offset 8
 441              		.cfi_offset 3, -8
 442              		.cfi_offset 14, -4
ARM GAS  C:\Users\ADMINI~1\AppData\Local\Temp\ccPht4JW.s 			page 21


 443 0002 0A46     		mov	r2, r1
 220:Src/usbd_composite.c ****   {
 444              		.loc 1 220 3 is_stmt 1 view .LVU96
 220:Src/usbd_composite.c ****   {
 445              		.loc 1 220 5 is_stmt 0 view .LVU97
 446 0004 28B9     		cbnz	r0, .L41
 222:Src/usbd_composite.c ****   }
 447              		.loc 1 222 5 is_stmt 1 view .LVU98
 448 0006 0549     		ldr	r1, .L44
 449              	.LVL34:
 222:Src/usbd_composite.c ****   }
 450              		.loc 1 222 5 is_stmt 0 view .LVU99
 451 0008 0548     		ldr	r0, .L44+4
 452              	.LVL35:
 222:Src/usbd_composite.c ****   }
 453              		.loc 1 222 5 view .LVU100
 454 000a FFF7FEFF 		bl	USBD_GetString
 455              	.LVL36:
 456              	.L42:
 228:Src/usbd_composite.c **** }
 457              		.loc 1 228 3 is_stmt 1 view .LVU101
 229:Src/usbd_composite.c **** 
 458              		.loc 1 229 1 is_stmt 0 view .LVU102
 459 000e 0348     		ldr	r0, .L44
 460 0010 08BD     		pop	{r3, pc}
 461              	.LVL37:
 462              	.L41:
 226:Src/usbd_composite.c ****   }
 463              		.loc 1 226 5 is_stmt 1 view .LVU103
 464 0012 0249     		ldr	r1, .L44
 465              	.LVL38:
 226:Src/usbd_composite.c ****   }
 466              		.loc 1 226 5 is_stmt 0 view .LVU104
 467 0014 0248     		ldr	r0, .L44+4
 468              	.LVL39:
 226:Src/usbd_composite.c ****   }
 469              		.loc 1 226 5 view .LVU105
 470 0016 FFF7FEFF 		bl	USBD_GetString
 471              	.LVL40:
 226:Src/usbd_composite.c ****   }
 472              		.loc 1 226 5 view .LVU106
 473 001a F8E7     		b	.L42
 474              	.L45:
 475              		.align	2
 476              	.L44:
 477 001c 00000000 		.word	.LANCHOR4
 478 0020 00000000 		.word	.LC2
 479              		.cfi_endproc
 480              	.LFE141:
 482              		.section	.rodata.USBD_CMPSIT_FS_ConfigStrDescriptor.str1.4,"aMS",%progbits,1
 483              		.align	2
 484              	.LC3:
 485 0000 436F6D70 		.ascii	"Composite Config\000"
 485      6F736974 
 485      6520436F 
 485      6E666967 
 485      00
ARM GAS  C:\Users\ADMINI~1\AppData\Local\Temp\ccPht4JW.s 			page 22


 486              		.section	.text.USBD_CMPSIT_FS_ConfigStrDescriptor,"ax",%progbits
 487              		.align	1
 488              		.global	USBD_CMPSIT_FS_ConfigStrDescriptor
 489              		.syntax unified
 490              		.thumb
 491              		.thumb_func
 493              	USBD_CMPSIT_FS_ConfigStrDescriptor:
 494              	.LVL41:
 495              	.LFB142:
 233:Src/usbd_composite.c ****   if(speed == USBD_SPEED_HIGH)
 496              		.loc 1 233 1 is_stmt 1 view -0
 497              		.cfi_startproc
 498              		@ args = 0, pretend = 0, frame = 0
 499              		@ frame_needed = 0, uses_anonymous_args = 0
 233:Src/usbd_composite.c ****   if(speed == USBD_SPEED_HIGH)
 500              		.loc 1 233 1 is_stmt 0 view .LVU108
 501 0000 08B5     		push	{r3, lr}
 502              	.LCFI7:
 503              		.cfi_def_cfa_offset 8
 504              		.cfi_offset 3, -8
 505              		.cfi_offset 14, -4
 506 0002 0A46     		mov	r2, r1
 234:Src/usbd_composite.c ****   {
 507              		.loc 1 234 3 is_stmt 1 view .LVU109
 234:Src/usbd_composite.c ****   {
 508              		.loc 1 234 5 is_stmt 0 view .LVU110
 509 0004 28B9     		cbnz	r0, .L47
 236:Src/usbd_composite.c ****   }
 510              		.loc 1 236 5 is_stmt 1 view .LVU111
 511 0006 0549     		ldr	r1, .L50
 512              	.LVL42:
 236:Src/usbd_composite.c ****   }
 513              		.loc 1 236 5 is_stmt 0 view .LVU112
 514 0008 0548     		ldr	r0, .L50+4
 515              	.LVL43:
 236:Src/usbd_composite.c ****   }
 516              		.loc 1 236 5 view .LVU113
 517 000a FFF7FEFF 		bl	USBD_GetString
 518              	.LVL44:
 519              	.L48:
 242:Src/usbd_composite.c **** }
 520              		.loc 1 242 3 is_stmt 1 view .LVU114
 243:Src/usbd_composite.c **** 
 521              		.loc 1 243 1 is_stmt 0 view .LVU115
 522 000e 0348     		ldr	r0, .L50
 523 0010 08BD     		pop	{r3, pc}
 524              	.LVL45:
 525              	.L47:
 240:Src/usbd_composite.c ****   }
 526              		.loc 1 240 5 is_stmt 1 view .LVU116
 527 0012 0249     		ldr	r1, .L50
 528              	.LVL46:
 240:Src/usbd_composite.c ****   }
 529              		.loc 1 240 5 is_stmt 0 view .LVU117
 530 0014 0248     		ldr	r0, .L50+4
 531              	.LVL47:
 240:Src/usbd_composite.c ****   }
ARM GAS  C:\Users\ADMINI~1\AppData\Local\Temp\ccPht4JW.s 			page 23


 532              		.loc 1 240 5 view .LVU118
 533 0016 FFF7FEFF 		bl	USBD_GetString
 534              	.LVL48:
 240:Src/usbd_composite.c ****   }
 535              		.loc 1 240 5 view .LVU119
 536 001a F8E7     		b	.L48
 537              	.L51:
 538              		.align	2
 539              	.L50:
 540 001c 00000000 		.word	.LANCHOR4
 541 0020 00000000 		.word	.LC3
 542              		.cfi_endproc
 543              	.LFE142:
 545              		.section	.text.USBD_CMPSIT_GetOtherSpeedCfgDesc,"ax",%progbits
 546              		.align	1
 547              		.syntax unified
 548              		.thumb
 549              		.thumb_func
 551              	USBD_CMPSIT_GetOtherSpeedCfgDesc:
 552              	.LVL49:
 553              	.LFB148:
 625:Src/usbd_composite.c ****   USBD_EpDescTypeDef *pEpCmdDesc = USBD_GetEpDesc(USBD_CMPSIT_CfgDesc, CDC_CMD_EP);
 554              		.loc 1 625 1 is_stmt 1 view -0
 555              		.cfi_startproc
 556              		@ args = 0, pretend = 0, frame = 0
 557              		@ frame_needed = 0, uses_anonymous_args = 0
 625:Src/usbd_composite.c ****   USBD_EpDescTypeDef *pEpCmdDesc = USBD_GetEpDesc(USBD_CMPSIT_CfgDesc, CDC_CMD_EP);
 558              		.loc 1 625 1 is_stmt 0 view .LVU121
 559 0000 F8B5     		push	{r3, r4, r5, r6, r7, lr}
 560              	.LCFI8:
 561              		.cfi_def_cfa_offset 24
 562              		.cfi_offset 3, -24
 563              		.cfi_offset 4, -20
 564              		.cfi_offset 5, -16
 565              		.cfi_offset 6, -12
 566              		.cfi_offset 7, -8
 567              		.cfi_offset 14, -4
 568 0002 0546     		mov	r5, r0
 626:Src/usbd_composite.c ****   USBD_EpDescTypeDef *pEpOutDesc = USBD_GetEpDesc(USBD_CMPSIT_CfgDesc, CDC_OUT_EP);
 569              		.loc 1 626 3 is_stmt 1 view .LVU122
 626:Src/usbd_composite.c ****   USBD_EpDescTypeDef *pEpOutDesc = USBD_GetEpDesc(USBD_CMPSIT_CfgDesc, CDC_OUT_EP);
 570              		.loc 1 626 36 is_stmt 0 view .LVU123
 571 0004 194F     		ldr	r7, .L59
 572 0006 8221     		movs	r1, #130
 573 0008 3846     		mov	r0, r7
 574              	.LVL50:
 626:Src/usbd_composite.c ****   USBD_EpDescTypeDef *pEpOutDesc = USBD_GetEpDesc(USBD_CMPSIT_CfgDesc, CDC_OUT_EP);
 575              		.loc 1 626 36 view .LVU124
 576 000a FFF7FEFF 		bl	USBD_GetEpDesc
 577              	.LVL51:
 578 000e 0646     		mov	r6, r0
 579              	.LVL52:
 627:Src/usbd_composite.c ****   USBD_EpDescTypeDef *pEpInDesc = USBD_GetEpDesc(USBD_CMPSIT_CfgDesc, CDC_IN_EP);
 580              		.loc 1 627 3 is_stmt 1 view .LVU125
 627:Src/usbd_composite.c ****   USBD_EpDescTypeDef *pEpInDesc = USBD_GetEpDesc(USBD_CMPSIT_CfgDesc, CDC_IN_EP);
 581              		.loc 1 627 36 is_stmt 0 view .LVU126
 582 0010 0121     		movs	r1, #1
ARM GAS  C:\Users\ADMINI~1\AppData\Local\Temp\ccPht4JW.s 			page 24


 583 0012 3846     		mov	r0, r7
 584              	.LVL53:
 627:Src/usbd_composite.c ****   USBD_EpDescTypeDef *pEpInDesc = USBD_GetEpDesc(USBD_CMPSIT_CfgDesc, CDC_IN_EP);
 585              		.loc 1 627 36 view .LVU127
 586 0014 FFF7FEFF 		bl	USBD_GetEpDesc
 587              	.LVL54:
 588 0018 0446     		mov	r4, r0
 589              	.LVL55:
 628:Src/usbd_composite.c **** 
 590              		.loc 1 628 3 is_stmt 1 view .LVU128
 628:Src/usbd_composite.c **** 
 591              		.loc 1 628 35 is_stmt 0 view .LVU129
 592 001a 8121     		movs	r1, #129
 593 001c 3846     		mov	r0, r7
 594              	.LVL56:
 628:Src/usbd_composite.c **** 
 595              		.loc 1 628 35 view .LVU130
 596 001e FFF7FEFF 		bl	USBD_GetEpDesc
 597              	.LVL57:
 630:Src/usbd_composite.c ****   {
 598              		.loc 1 630 3 is_stmt 1 view .LVU131
 630:Src/usbd_composite.c ****   {
 599              		.loc 1 630 6 is_stmt 0 view .LVU132
 600 0022 0EB1     		cbz	r6, .L53
 632:Src/usbd_composite.c ****   }
 601              		.loc 1 632 5 is_stmt 1 view .LVU133
 632:Src/usbd_composite.c ****   }
 602              		.loc 1 632 27 is_stmt 0 view .LVU134
 603 0024 1022     		movs	r2, #16
 604 0026 B271     		strb	r2, [r6, #6]
 605              	.L53:
 635:Src/usbd_composite.c ****   {
 606              		.loc 1 635 3 is_stmt 1 view .LVU135
 635:Src/usbd_composite.c ****   {
 607              		.loc 1 635 6 is_stmt 0 view .LVU136
 608 0028 1CB1     		cbz	r4, .L54
 637:Src/usbd_composite.c ****   }
 609              		.loc 1 637 5 is_stmt 1 view .LVU137
 637:Src/usbd_composite.c ****   }
 610              		.loc 1 637 32 is_stmt 0 view .LVU138
 611 002a 4022     		movs	r2, #64
 612 002c 2271     		strb	r2, [r4, #4]
 613 002e 0022     		movs	r2, #0
 614 0030 6271     		strb	r2, [r4, #5]
 615              	.L54:
 640:Src/usbd_composite.c ****   {
 616              		.loc 1 640 3 is_stmt 1 view .LVU139
 640:Src/usbd_composite.c ****   {
 617              		.loc 1 640 6 is_stmt 0 view .LVU140
 618 0032 18B1     		cbz	r0, .L55
 642:Src/usbd_composite.c ****   }
 619              		.loc 1 642 5 is_stmt 1 view .LVU141
 642:Src/usbd_composite.c ****   }
 620              		.loc 1 642 31 is_stmt 0 view .LVU142
 621 0034 4022     		movs	r2, #64
 622 0036 0271     		strb	r2, [r0, #4]
 623 0038 0022     		movs	r2, #0
ARM GAS  C:\Users\ADMINI~1\AppData\Local\Temp\ccPht4JW.s 			page 25


 624 003a 4271     		strb	r2, [r0, #5]
 625              	.L55:
 645:Src/usbd_composite.c ****   USBD_EpDescTypeDef *pWinUsbEpInDesc = USBD_GetEpDesc(USBD_CMPSIT_CfgDesc, WIN_USB_EPIN_ADDR);
 626              		.loc 1 645 3 is_stmt 1 view .LVU143
 645:Src/usbd_composite.c ****   USBD_EpDescTypeDef *pWinUsbEpInDesc = USBD_GetEpDesc(USBD_CMPSIT_CfgDesc, WIN_USB_EPIN_ADDR);
 627              		.loc 1 645 42 is_stmt 0 view .LVU144
 628 003c 0B4E     		ldr	r6, .L59
 629              	.LVL58:
 645:Src/usbd_composite.c ****   USBD_EpDescTypeDef *pWinUsbEpInDesc = USBD_GetEpDesc(USBD_CMPSIT_CfgDesc, WIN_USB_EPIN_ADDR);
 630              		.loc 1 645 42 view .LVU145
 631 003e 0321     		movs	r1, #3
 632 0040 3046     		mov	r0, r6
 633              	.LVL59:
 645:Src/usbd_composite.c ****   USBD_EpDescTypeDef *pWinUsbEpInDesc = USBD_GetEpDesc(USBD_CMPSIT_CfgDesc, WIN_USB_EPIN_ADDR);
 634              		.loc 1 645 42 view .LVU146
 635 0042 FFF7FEFF 		bl	USBD_GetEpDesc
 636              	.LVL60:
 637 0046 0446     		mov	r4, r0
 638              	.LVL61:
 646:Src/usbd_composite.c **** 
 639              		.loc 1 646 3 is_stmt 1 view .LVU147
 646:Src/usbd_composite.c **** 
 640              		.loc 1 646 41 is_stmt 0 view .LVU148
 641 0048 8321     		movs	r1, #131
 642 004a 3046     		mov	r0, r6
 643              	.LVL62:
 646:Src/usbd_composite.c **** 
 644              		.loc 1 646 41 view .LVU149
 645 004c FFF7FEFF 		bl	USBD_GetEpDesc
 646              	.LVL63:
 650:Src/usbd_composite.c ****   {
 647              		.loc 1 650 3 is_stmt 1 view .LVU150
 650:Src/usbd_composite.c ****   {
 648              		.loc 1 650 6 is_stmt 0 view .LVU151
 649 0050 1CB1     		cbz	r4, .L56
 652:Src/usbd_composite.c ****   }
 650              		.loc 1 652 5 is_stmt 1 view .LVU152
 652:Src/usbd_composite.c ****   }
 651              		.loc 1 652 38 is_stmt 0 view .LVU153
 652 0052 4022     		movs	r2, #64
 653 0054 2271     		strb	r2, [r4, #4]
 654 0056 0022     		movs	r2, #0
 655 0058 6271     		strb	r2, [r4, #5]
 656              	.L56:
 655:Src/usbd_composite.c ****   {
 657              		.loc 1 655 3 is_stmt 1 view .LVU154
 655:Src/usbd_composite.c ****   {
 658              		.loc 1 655 6 is_stmt 0 view .LVU155
 659 005a 18B1     		cbz	r0, .L57
 657:Src/usbd_composite.c ****   }
 660              		.loc 1 657 5 is_stmt 1 view .LVU156
 657:Src/usbd_composite.c ****   }
 661              		.loc 1 657 37 is_stmt 0 view .LVU157
 662 005c 4022     		movs	r2, #64
 663 005e 0271     		strb	r2, [r0, #4]
 664 0060 0022     		movs	r2, #0
 665 0062 4271     		strb	r2, [r0, #5]
ARM GAS  C:\Users\ADMINI~1\AppData\Local\Temp\ccPht4JW.s 			page 26


 666              	.L57:
 660:Src/usbd_composite.c ****   return USBD_CMPSIT_CfgDesc;
 667              		.loc 1 660 3 is_stmt 1 view .LVU158
 660:Src/usbd_composite.c ****   return USBD_CMPSIT_CfgDesc;
 668              		.loc 1 660 11 is_stmt 0 view .LVU159
 669 0064 6A23     		movs	r3, #106
 670 0066 2B80     		strh	r3, [r5]	@ movhi
 661:Src/usbd_composite.c **** }
 671              		.loc 1 661 3 is_stmt 1 view .LVU160
 662:Src/usbd_composite.c **** uint8_t *USBD_CMPSIT_GetDeviceQualifierDescriptor(uint16_t *length)
 672              		.loc 1 662 1 is_stmt 0 view .LVU161
 673 0068 0048     		ldr	r0, .L59
 674              	.LVL64:
 662:Src/usbd_composite.c **** uint8_t *USBD_CMPSIT_GetDeviceQualifierDescriptor(uint16_t *length)
 675              		.loc 1 662 1 view .LVU162
 676 006a F8BD     		pop	{r3, r4, r5, r6, r7, pc}
 677              	.LVL65:
 678              	.L60:
 662:Src/usbd_composite.c **** uint8_t *USBD_CMPSIT_GetDeviceQualifierDescriptor(uint16_t *length)
 679              		.loc 1 662 1 view .LVU163
 680              		.align	2
 681              	.L59:
 682 006c 00000000 		.word	.LANCHOR5
 683              		.cfi_endproc
 684              	.LFE148:
 686              		.section	.text.USBD_CMPSIT_GetFSCfgDesc,"ax",%progbits
 687              		.align	1
 688              		.syntax unified
 689              		.thumb
 690              		.thumb_func
 692              	USBD_CMPSIT_GetFSCfgDesc:
 693              	.LVL66:
 694              	.LFB146:
 547:Src/usbd_composite.c **** 	USBD_EpDescTypeDef *pEpCmdDesc = USBD_GetEpDesc(USBD_CMPSIT_CfgDesc, CDC_CMD_EP);
 695              		.loc 1 547 1 is_stmt 1 view -0
 696              		.cfi_startproc
 697              		@ args = 0, pretend = 0, frame = 0
 698              		@ frame_needed = 0, uses_anonymous_args = 0
 547:Src/usbd_composite.c **** 	USBD_EpDescTypeDef *pEpCmdDesc = USBD_GetEpDesc(USBD_CMPSIT_CfgDesc, CDC_CMD_EP);
 699              		.loc 1 547 1 is_stmt 0 view .LVU165
 700 0000 F8B5     		push	{r3, r4, r5, r6, r7, lr}
 701              	.LCFI9:
 702              		.cfi_def_cfa_offset 24
 703              		.cfi_offset 3, -24
 704              		.cfi_offset 4, -20
 705              		.cfi_offset 5, -16
 706              		.cfi_offset 6, -12
 707              		.cfi_offset 7, -8
 708              		.cfi_offset 14, -4
 709 0002 0546     		mov	r5, r0
 548:Src/usbd_composite.c ****   USBD_EpDescTypeDef *pEpOutDesc = USBD_GetEpDesc(USBD_CMPSIT_CfgDesc, CDC_OUT_EP);
 710              		.loc 1 548 2 is_stmt 1 view .LVU166
 548:Src/usbd_composite.c ****   USBD_EpDescTypeDef *pEpOutDesc = USBD_GetEpDesc(USBD_CMPSIT_CfgDesc, CDC_OUT_EP);
 711              		.loc 1 548 35 is_stmt 0 view .LVU167
 712 0004 194F     		ldr	r7, .L68
 713 0006 8221     		movs	r1, #130
 714 0008 3846     		mov	r0, r7
ARM GAS  C:\Users\ADMINI~1\AppData\Local\Temp\ccPht4JW.s 			page 27


 715              	.LVL67:
 548:Src/usbd_composite.c ****   USBD_EpDescTypeDef *pEpOutDesc = USBD_GetEpDesc(USBD_CMPSIT_CfgDesc, CDC_OUT_EP);
 716              		.loc 1 548 35 view .LVU168
 717 000a FFF7FEFF 		bl	USBD_GetEpDesc
 718              	.LVL68:
 719 000e 0646     		mov	r6, r0
 720              	.LVL69:
 549:Src/usbd_composite.c ****   USBD_EpDescTypeDef *pEpInDesc = USBD_GetEpDesc(USBD_CMPSIT_CfgDesc, CDC_IN_EP);
 721              		.loc 1 549 3 is_stmt 1 view .LVU169
 549:Src/usbd_composite.c ****   USBD_EpDescTypeDef *pEpInDesc = USBD_GetEpDesc(USBD_CMPSIT_CfgDesc, CDC_IN_EP);
 722              		.loc 1 549 36 is_stmt 0 view .LVU170
 723 0010 0121     		movs	r1, #1
 724 0012 3846     		mov	r0, r7
 725              	.LVL70:
 549:Src/usbd_composite.c ****   USBD_EpDescTypeDef *pEpInDesc = USBD_GetEpDesc(USBD_CMPSIT_CfgDesc, CDC_IN_EP);
 726              		.loc 1 549 36 view .LVU171
 727 0014 FFF7FEFF 		bl	USBD_GetEpDesc
 728              	.LVL71:
 729 0018 0446     		mov	r4, r0
 730              	.LVL72:
 550:Src/usbd_composite.c **** 
 731              		.loc 1 550 3 is_stmt 1 view .LVU172
 550:Src/usbd_composite.c **** 
 732              		.loc 1 550 35 is_stmt 0 view .LVU173
 733 001a 8121     		movs	r1, #129
 734 001c 3846     		mov	r0, r7
 735              	.LVL73:
 550:Src/usbd_composite.c **** 
 736              		.loc 1 550 35 view .LVU174
 737 001e FFF7FEFF 		bl	USBD_GetEpDesc
 738              	.LVL74:
 552:Src/usbd_composite.c ****   {
 739              		.loc 1 552 3 is_stmt 1 view .LVU175
 552:Src/usbd_composite.c ****   {
 740              		.loc 1 552 6 is_stmt 0 view .LVU176
 741 0022 0EB1     		cbz	r6, .L62
 554:Src/usbd_composite.c ****   }
 742              		.loc 1 554 5 is_stmt 1 view .LVU177
 554:Src/usbd_composite.c ****   }
 743              		.loc 1 554 27 is_stmt 0 view .LVU178
 744 0024 1022     		movs	r2, #16
 745 0026 B271     		strb	r2, [r6, #6]
 746              	.L62:
 557:Src/usbd_composite.c ****   {
 747              		.loc 1 557 3 is_stmt 1 view .LVU179
 557:Src/usbd_composite.c ****   {
 748              		.loc 1 557 6 is_stmt 0 view .LVU180
 749 0028 1CB1     		cbz	r4, .L63
 559:Src/usbd_composite.c ****   }
 750              		.loc 1 559 5 is_stmt 1 view .LVU181
 559:Src/usbd_composite.c ****   }
 751              		.loc 1 559 32 is_stmt 0 view .LVU182
 752 002a 4022     		movs	r2, #64
 753 002c 2271     		strb	r2, [r4, #4]
 754 002e 0022     		movs	r2, #0
 755 0030 6271     		strb	r2, [r4, #5]
 756              	.L63:
ARM GAS  C:\Users\ADMINI~1\AppData\Local\Temp\ccPht4JW.s 			page 28


 562:Src/usbd_composite.c ****   {
 757              		.loc 1 562 3 is_stmt 1 view .LVU183
 562:Src/usbd_composite.c ****   {
 758              		.loc 1 562 6 is_stmt 0 view .LVU184
 759 0032 18B1     		cbz	r0, .L64
 564:Src/usbd_composite.c ****   }
 760              		.loc 1 564 5 is_stmt 1 view .LVU185
 564:Src/usbd_composite.c ****   }
 761              		.loc 1 564 31 is_stmt 0 view .LVU186
 762 0034 4022     		movs	r2, #64
 763 0036 0271     		strb	r2, [r0, #4]
 764 0038 0022     		movs	r2, #0
 765 003a 4271     		strb	r2, [r0, #5]
 766              	.L64:
 567:Src/usbd_composite.c ****   USBD_EpDescTypeDef *pWinUsbEpInDesc = USBD_GetEpDesc(USBD_CMPSIT_CfgDesc, WIN_USB_EPIN_ADDR);
 767              		.loc 1 567 3 is_stmt 1 view .LVU187
 567:Src/usbd_composite.c ****   USBD_EpDescTypeDef *pWinUsbEpInDesc = USBD_GetEpDesc(USBD_CMPSIT_CfgDesc, WIN_USB_EPIN_ADDR);
 768              		.loc 1 567 42 is_stmt 0 view .LVU188
 769 003c 0B4E     		ldr	r6, .L68
 770              	.LVL75:
 567:Src/usbd_composite.c ****   USBD_EpDescTypeDef *pWinUsbEpInDesc = USBD_GetEpDesc(USBD_CMPSIT_CfgDesc, WIN_USB_EPIN_ADDR);
 771              		.loc 1 567 42 view .LVU189
 772 003e 0321     		movs	r1, #3
 773 0040 3046     		mov	r0, r6
 774              	.LVL76:
 567:Src/usbd_composite.c ****   USBD_EpDescTypeDef *pWinUsbEpInDesc = USBD_GetEpDesc(USBD_CMPSIT_CfgDesc, WIN_USB_EPIN_ADDR);
 775              		.loc 1 567 42 view .LVU190
 776 0042 FFF7FEFF 		bl	USBD_GetEpDesc
 777              	.LVL77:
 778 0046 0446     		mov	r4, r0
 779              	.LVL78:
 568:Src/usbd_composite.c **** 
 780              		.loc 1 568 3 is_stmt 1 view .LVU191
 568:Src/usbd_composite.c **** 
 781              		.loc 1 568 41 is_stmt 0 view .LVU192
 782 0048 8321     		movs	r1, #131
 783 004a 3046     		mov	r0, r6
 784              	.LVL79:
 568:Src/usbd_composite.c **** 
 785              		.loc 1 568 41 view .LVU193
 786 004c FFF7FEFF 		bl	USBD_GetEpDesc
 787              	.LVL80:
 572:Src/usbd_composite.c ****   {
 788              		.loc 1 572 3 is_stmt 1 view .LVU194
 572:Src/usbd_composite.c ****   {
 789              		.loc 1 572 6 is_stmt 0 view .LVU195
 790 0050 1CB1     		cbz	r4, .L65
 574:Src/usbd_composite.c ****   }
 791              		.loc 1 574 5 is_stmt 1 view .LVU196
 574:Src/usbd_composite.c ****   }
 792              		.loc 1 574 38 is_stmt 0 view .LVU197
 793 0052 4022     		movs	r2, #64
 794 0054 2271     		strb	r2, [r4, #4]
 795 0056 0022     		movs	r2, #0
 796 0058 6271     		strb	r2, [r4, #5]
 797              	.L65:
 577:Src/usbd_composite.c ****   {
ARM GAS  C:\Users\ADMINI~1\AppData\Local\Temp\ccPht4JW.s 			page 29


 798              		.loc 1 577 3 is_stmt 1 view .LVU198
 577:Src/usbd_composite.c ****   {
 799              		.loc 1 577 6 is_stmt 0 view .LVU199
 800 005a 18B1     		cbz	r0, .L66
 579:Src/usbd_composite.c ****   }
 801              		.loc 1 579 5 is_stmt 1 view .LVU200
 579:Src/usbd_composite.c ****   }
 802              		.loc 1 579 37 is_stmt 0 view .LVU201
 803 005c 4022     		movs	r2, #64
 804 005e 0271     		strb	r2, [r0, #4]
 805 0060 0022     		movs	r2, #0
 806 0062 4271     		strb	r2, [r0, #5]
 807              	.L66:
 581:Src/usbd_composite.c **** 	return USBD_CMPSIT_CfgDesc;
 808              		.loc 1 581 2 is_stmt 1 view .LVU202
 581:Src/usbd_composite.c **** 	return USBD_CMPSIT_CfgDesc;
 809              		.loc 1 581 10 is_stmt 0 view .LVU203
 810 0064 6A23     		movs	r3, #106
 811 0066 2B80     		strh	r3, [r5]	@ movhi
 582:Src/usbd_composite.c **** }
 812              		.loc 1 582 2 is_stmt 1 view .LVU204
 583:Src/usbd_composite.c **** static uint8_t *USBD_CMPSIT_GetHSCfgDesc(uint16_t *length)
 813              		.loc 1 583 1 is_stmt 0 view .LVU205
 814 0068 0048     		ldr	r0, .L68
 815              	.LVL81:
 583:Src/usbd_composite.c **** static uint8_t *USBD_CMPSIT_GetHSCfgDesc(uint16_t *length)
 816              		.loc 1 583 1 view .LVU206
 817 006a F8BD     		pop	{r3, r4, r5, r6, r7, pc}
 818              	.LVL82:
 819              	.L69:
 583:Src/usbd_composite.c **** static uint8_t *USBD_CMPSIT_GetHSCfgDesc(uint16_t *length)
 820              		.loc 1 583 1 view .LVU207
 821              		.align	2
 822              	.L68:
 823 006c 00000000 		.word	.LANCHOR5
 824              		.cfi_endproc
 825              	.LFE146:
 827              		.section	.text.USBD_CMPSIT_GetHSCfgDesc,"ax",%progbits
 828              		.align	1
 829              		.syntax unified
 830              		.thumb
 831              		.thumb_func
 833              	USBD_CMPSIT_GetHSCfgDesc:
 834              	.LVL83:
 835              	.LFB147:
 585:Src/usbd_composite.c **** 
 836              		.loc 1 585 1 is_stmt 1 view -0
 837              		.cfi_startproc
 838              		@ args = 0, pretend = 0, frame = 0
 839              		@ frame_needed = 0, uses_anonymous_args = 0
 585:Src/usbd_composite.c **** 
 840              		.loc 1 585 1 is_stmt 0 view .LVU209
 841 0000 F8B5     		push	{r3, r4, r5, r6, r7, lr}
 842              	.LCFI10:
 843              		.cfi_def_cfa_offset 24
 844              		.cfi_offset 3, -24
 845              		.cfi_offset 4, -20
ARM GAS  C:\Users\ADMINI~1\AppData\Local\Temp\ccPht4JW.s 			page 30


 846              		.cfi_offset 5, -16
 847              		.cfi_offset 6, -12
 848              		.cfi_offset 7, -8
 849              		.cfi_offset 14, -4
 850 0002 0546     		mov	r5, r0
 587:Src/usbd_composite.c ****   USBD_EpDescTypeDef *pEpOutDesc = USBD_GetEpDesc(USBD_CMPSIT_CfgDesc, CDC_OUT_EP);
 851              		.loc 1 587 3 is_stmt 1 view .LVU210
 587:Src/usbd_composite.c ****   USBD_EpDescTypeDef *pEpOutDesc = USBD_GetEpDesc(USBD_CMPSIT_CfgDesc, CDC_OUT_EP);
 852              		.loc 1 587 36 is_stmt 0 view .LVU211
 853 0004 194F     		ldr	r7, .L77
 854 0006 8221     		movs	r1, #130
 855 0008 3846     		mov	r0, r7
 856              	.LVL84:
 587:Src/usbd_composite.c ****   USBD_EpDescTypeDef *pEpOutDesc = USBD_GetEpDesc(USBD_CMPSIT_CfgDesc, CDC_OUT_EP);
 857              		.loc 1 587 36 view .LVU212
 858 000a FFF7FEFF 		bl	USBD_GetEpDesc
 859              	.LVL85:
 860 000e 0646     		mov	r6, r0
 861              	.LVL86:
 588:Src/usbd_composite.c ****   USBD_EpDescTypeDef *pEpInDesc = USBD_GetEpDesc(USBD_CMPSIT_CfgDesc, CDC_IN_EP);
 862              		.loc 1 588 3 is_stmt 1 view .LVU213
 588:Src/usbd_composite.c ****   USBD_EpDescTypeDef *pEpInDesc = USBD_GetEpDesc(USBD_CMPSIT_CfgDesc, CDC_IN_EP);
 863              		.loc 1 588 36 is_stmt 0 view .LVU214
 864 0010 0121     		movs	r1, #1
 865 0012 3846     		mov	r0, r7
 866              	.LVL87:
 588:Src/usbd_composite.c ****   USBD_EpDescTypeDef *pEpInDesc = USBD_GetEpDesc(USBD_CMPSIT_CfgDesc, CDC_IN_EP);
 867              		.loc 1 588 36 view .LVU215
 868 0014 FFF7FEFF 		bl	USBD_GetEpDesc
 869              	.LVL88:
 870 0018 0446     		mov	r4, r0
 871              	.LVL89:
 589:Src/usbd_composite.c **** 
 872              		.loc 1 589 3 is_stmt 1 view .LVU216
 589:Src/usbd_composite.c **** 
 873              		.loc 1 589 35 is_stmt 0 view .LVU217
 874 001a 8121     		movs	r1, #129
 875 001c 3846     		mov	r0, r7
 876              	.LVL90:
 589:Src/usbd_composite.c **** 
 877              		.loc 1 589 35 view .LVU218
 878 001e FFF7FEFF 		bl	USBD_GetEpDesc
 879              	.LVL91:
 591:Src/usbd_composite.c ****   {
 880              		.loc 1 591 3 is_stmt 1 view .LVU219
 591:Src/usbd_composite.c ****   {
 881              		.loc 1 591 6 is_stmt 0 view .LVU220
 882 0022 0EB1     		cbz	r6, .L71
 593:Src/usbd_composite.c ****   }
 883              		.loc 1 593 5 is_stmt 1 view .LVU221
 593:Src/usbd_composite.c ****   }
 884              		.loc 1 593 27 is_stmt 0 view .LVU222
 885 0024 1022     		movs	r2, #16
 886 0026 B271     		strb	r2, [r6, #6]
 887              	.L71:
 596:Src/usbd_composite.c ****   {
 888              		.loc 1 596 3 is_stmt 1 view .LVU223
ARM GAS  C:\Users\ADMINI~1\AppData\Local\Temp\ccPht4JW.s 			page 31


 596:Src/usbd_composite.c ****   {
 889              		.loc 1 596 6 is_stmt 0 view .LVU224
 890 0028 1CB1     		cbz	r4, .L72
 598:Src/usbd_composite.c ****   }
 891              		.loc 1 598 5 is_stmt 1 view .LVU225
 598:Src/usbd_composite.c ****   }
 892              		.loc 1 598 32 is_stmt 0 view .LVU226
 893 002a 0022     		movs	r2, #0
 894 002c 2271     		strb	r2, [r4, #4]
 895 002e 0222     		movs	r2, #2
 896 0030 6271     		strb	r2, [r4, #5]
 897              	.L72:
 601:Src/usbd_composite.c ****   {
 898              		.loc 1 601 3 is_stmt 1 view .LVU227
 601:Src/usbd_composite.c ****   {
 899              		.loc 1 601 6 is_stmt 0 view .LVU228
 900 0032 18B1     		cbz	r0, .L73
 603:Src/usbd_composite.c ****   }
 901              		.loc 1 603 5 is_stmt 1 view .LVU229
 603:Src/usbd_composite.c ****   }
 902              		.loc 1 603 31 is_stmt 0 view .LVU230
 903 0034 0022     		movs	r2, #0
 904 0036 0271     		strb	r2, [r0, #4]
 905 0038 0222     		movs	r2, #2
 906 003a 4271     		strb	r2, [r0, #5]
 907              	.L73:
 606:Src/usbd_composite.c ****   USBD_EpDescTypeDef *pWinUsbEpInDesc = USBD_GetEpDesc(USBD_CMPSIT_CfgDesc, WIN_USB_EPIN_ADDR);
 908              		.loc 1 606 3 is_stmt 1 view .LVU231
 606:Src/usbd_composite.c ****   USBD_EpDescTypeDef *pWinUsbEpInDesc = USBD_GetEpDesc(USBD_CMPSIT_CfgDesc, WIN_USB_EPIN_ADDR);
 909              		.loc 1 606 42 is_stmt 0 view .LVU232
 910 003c 0B4E     		ldr	r6, .L77
 911              	.LVL92:
 606:Src/usbd_composite.c ****   USBD_EpDescTypeDef *pWinUsbEpInDesc = USBD_GetEpDesc(USBD_CMPSIT_CfgDesc, WIN_USB_EPIN_ADDR);
 912              		.loc 1 606 42 view .LVU233
 913 003e 0321     		movs	r1, #3
 914 0040 3046     		mov	r0, r6
 915              	.LVL93:
 606:Src/usbd_composite.c ****   USBD_EpDescTypeDef *pWinUsbEpInDesc = USBD_GetEpDesc(USBD_CMPSIT_CfgDesc, WIN_USB_EPIN_ADDR);
 916              		.loc 1 606 42 view .LVU234
 917 0042 FFF7FEFF 		bl	USBD_GetEpDesc
 918              	.LVL94:
 919 0046 0446     		mov	r4, r0
 920              	.LVL95:
 607:Src/usbd_composite.c **** 
 921              		.loc 1 607 3 is_stmt 1 view .LVU235
 607:Src/usbd_composite.c **** 
 922              		.loc 1 607 41 is_stmt 0 view .LVU236
 923 0048 8321     		movs	r1, #131
 924 004a 3046     		mov	r0, r6
 925              	.LVL96:
 607:Src/usbd_composite.c **** 
 926              		.loc 1 607 41 view .LVU237
 927 004c FFF7FEFF 		bl	USBD_GetEpDesc
 928              	.LVL97:
 611:Src/usbd_composite.c ****   {
 929              		.loc 1 611 3 is_stmt 1 view .LVU238
 611:Src/usbd_composite.c ****   {
ARM GAS  C:\Users\ADMINI~1\AppData\Local\Temp\ccPht4JW.s 			page 32


 930              		.loc 1 611 6 is_stmt 0 view .LVU239
 931 0050 1CB1     		cbz	r4, .L74
 613:Src/usbd_composite.c ****   }
 932              		.loc 1 613 5 is_stmt 1 view .LVU240
 613:Src/usbd_composite.c ****   }
 933              		.loc 1 613 38 is_stmt 0 view .LVU241
 934 0052 0022     		movs	r2, #0
 935 0054 2271     		strb	r2, [r4, #4]
 936 0056 0222     		movs	r2, #2
 937 0058 6271     		strb	r2, [r4, #5]
 938              	.L74:
 616:Src/usbd_composite.c ****   {
 939              		.loc 1 616 3 is_stmt 1 view .LVU242
 616:Src/usbd_composite.c ****   {
 940              		.loc 1 616 6 is_stmt 0 view .LVU243
 941 005a 18B1     		cbz	r0, .L75
 618:Src/usbd_composite.c ****   }
 942              		.loc 1 618 5 is_stmt 1 view .LVU244
 618:Src/usbd_composite.c ****   }
 943              		.loc 1 618 37 is_stmt 0 view .LVU245
 944 005c 0022     		movs	r2, #0
 945 005e 0271     		strb	r2, [r0, #4]
 946 0060 0222     		movs	r2, #2
 947 0062 4271     		strb	r2, [r0, #5]
 948              	.L75:
 621:Src/usbd_composite.c **** 	return USBD_CMPSIT_CfgDesc;
 949              		.loc 1 621 3 is_stmt 1 view .LVU246
 621:Src/usbd_composite.c **** 	return USBD_CMPSIT_CfgDesc;
 950              		.loc 1 621 11 is_stmt 0 view .LVU247
 951 0064 6A23     		movs	r3, #106
 952 0066 2B80     		strh	r3, [r5]	@ movhi
 622:Src/usbd_composite.c **** }
 953              		.loc 1 622 2 is_stmt 1 view .LVU248
 623:Src/usbd_composite.c **** static uint8_t *USBD_CMPSIT_GetOtherSpeedCfgDesc(uint16_t *length)
 954              		.loc 1 623 1 is_stmt 0 view .LVU249
 955 0068 0048     		ldr	r0, .L77
 956              	.LVL98:
 623:Src/usbd_composite.c **** static uint8_t *USBD_CMPSIT_GetOtherSpeedCfgDesc(uint16_t *length)
 957              		.loc 1 623 1 view .LVU250
 958 006a F8BD     		pop	{r3, r4, r5, r6, r7, pc}
 959              	.LVL99:
 960              	.L78:
 623:Src/usbd_composite.c **** static uint8_t *USBD_CMPSIT_GetOtherSpeedCfgDesc(uint16_t *length)
 961              		.loc 1 623 1 view .LVU251
 962              		.align	2
 963              	.L77:
 964 006c 00000000 		.word	.LANCHOR5
 965              		.cfi_endproc
 966              	.LFE147:
 968              		.section	.text.USBD_CMPSIT_AddClass,"ax",%progbits
 969              		.align	1
 970              		.global	USBD_CMPSIT_AddClass
 971              		.syntax unified
 972              		.thumb
 973              		.thumb_func
 975              	USBD_CMPSIT_AddClass:
 976              	.LVL100:
ARM GAS  C:\Users\ADMINI~1\AppData\Local\Temp\ccPht4JW.s 			page 33


 977              	.LFB143:
 451:Src/usbd_composite.c **** 	//printf("classId=%d  : %d\r\n",pdev->classId,classtype);
 978              		.loc 1 451 1 is_stmt 1 view -0
 979              		.cfi_startproc
 980              		@ args = 0, pretend = 0, frame = 0
 981              		@ frame_needed = 0, uses_anonymous_args = 0
 982              		@ link register save eliminated.
 451:Src/usbd_composite.c **** 	//printf("classId=%d  : %d\r\n",pdev->classId,classtype);
 983              		.loc 1 451 1 is_stmt 0 view .LVU253
 984 0000 30B4     		push	{r4, r5}
 985              	.LCFI11:
 986              		.cfi_def_cfa_offset 8
 987              		.cfi_offset 4, -8
 988              		.cfi_offset 5, -4
 453:Src/usbd_composite.c **** 	{
 989              		.loc 1 453 2 is_stmt 1 view .LVU254
 990 0002 022A     		cmp	r2, #2
 991 0004 0CD0     		beq	.L80
 992 0006 0D2A     		cmp	r2, #13
 993 0008 3FD0     		beq	.L81
 994              	.LVL101:
 995              	.L82:
 505:Src/usbd_composite.c **** 		
 996              		.loc 1 505 2 view .LVU255
 505:Src/usbd_composite.c **** 		
 997              		.loc 1 505 23 is_stmt 0 view .LVU256
 998 000a D0F8F832 		ldr	r3, [r0, #760]
 505:Src/usbd_composite.c **** 		
 999              		.loc 1 505 46 view .LVU257
 1000 000e C3EBC303 		rsb	r3, r3, r3, lsl #3
 1001 0012 00EBC300 		add	r0, r0, r3, lsl #3
 1002              	.LVL102:
 505:Src/usbd_composite.c **** 		
 1003              		.loc 1 505 46 view .LVU258
 1004 0016 0023     		movs	r3, #0
 1005 0018 C0F83433 		str	r3, [r0, #820]
 507:Src/usbd_composite.c **** void USBD_CMPST_ClearConfDesc(USBD_HandleTypeDef *pdev)
 1006              		.loc 1 507 1 view .LVU259
 1007 001c 30BC     		pop	{r4, r5}
 1008              	.LCFI12:
 1009              		.cfi_remember_state
 1010              		.cfi_restore 5
 1011              		.cfi_restore 4
 1012              		.cfi_def_cfa_offset 0
 1013 001e 7047     		bx	lr
 1014              	.LVL103:
 1015              	.L80:
 1016              	.LCFI13:
 1017              		.cfi_restore_state
 456:Src/usbd_composite.c **** 			
 1018              		.loc 1 456 4 is_stmt 1 view .LVU260
 456:Src/usbd_composite.c **** 			
 1019              		.loc 1 456 25 is_stmt 0 view .LVU261
 1020 0020 D0F8F822 		ldr	r2, [r0, #760]
 1021              	.LVL104:
 456:Src/usbd_composite.c **** 			
 1022              		.loc 1 456 46 view .LVU262
ARM GAS  C:\Users\ADMINI~1\AppData\Local\Temp\ccPht4JW.s 			page 34


 1023 0024 C2EBC203 		rsb	r3, r2, r2, lsl #3
 1024              	.LVL105:
 456:Src/usbd_composite.c **** 			
 1025              		.loc 1 456 46 view .LVU263
 1026 0028 00EBC303 		add	r3, r0, r3, lsl #3
 1027 002c 0224     		movs	r4, #2
 1028 002e 83F80043 		strb	r4, [r3, #768]
 458:Src/usbd_composite.c **** 			pdev->tclasslist[pdev->classId].NumEps = 3;
 1029              		.loc 1 458 4 is_stmt 1 view .LVU264
 458:Src/usbd_composite.c **** 			pdev->tclasslist[pdev->classId].NumEps = 3;
 1030              		.loc 1 458 43 is_stmt 0 view .LVU265
 1031 0032 0121     		movs	r1, #1
 1032              	.LVL106:
 458:Src/usbd_composite.c **** 			pdev->tclasslist[pdev->classId].NumEps = 3;
 1033              		.loc 1 458 43 view .LVU266
 1034 0034 C3F80813 		str	r1, [r3, #776]
 459:Src/usbd_composite.c **** 			
 1035              		.loc 1 459 4 is_stmt 1 view .LVU267
 459:Src/usbd_composite.c **** 			
 1036              		.loc 1 459 43 is_stmt 0 view .LVU268
 1037 0038 0325     		movs	r5, #3
 1038 003a C3F80C53 		str	r5, [r3, #780]
 461:Src/usbd_composite.c **** 			pdev->tclasslist[pdev->classId].Eps[0].type = USBD_EP_TYPE_INTR;
 1039              		.loc 1 461 4 is_stmt 1 view .LVU269
 461:Src/usbd_composite.c **** 			pdev->tclasslist[pdev->classId].Eps[0].type = USBD_EP_TYPE_INTR;
 1040              		.loc 1 461 47 is_stmt 0 view .LVU270
 1041 003e 4FF0820C 		mov	ip, #130
 1042 0042 83F810C3 		strb	ip, [r3, #784]
 462:Src/usbd_composite.c **** 			pdev->tclasslist[pdev->classId].Eps[0].size = CDC_CMD_PACKET_SIZE;
 1043              		.loc 1 462 4 is_stmt 1 view .LVU271
 462:Src/usbd_composite.c **** 			pdev->tclasslist[pdev->classId].Eps[0].size = CDC_CMD_PACKET_SIZE;
 1044              		.loc 1 462 48 is_stmt 0 view .LVU272
 1045 0046 83F81153 		strb	r5, [r3, #785]
 463:Src/usbd_composite.c **** 			pdev->tclasslist[pdev->classId].Eps[0].is_used = 1U;
 1046              		.loc 1 463 4 is_stmt 1 view .LVU273
 463:Src/usbd_composite.c **** 			pdev->tclasslist[pdev->classId].Eps[0].is_used = 1U;
 1047              		.loc 1 463 48 is_stmt 0 view .LVU274
 1048 004a 0825     		movs	r5, #8
 1049 004c 83F81253 		strb	r5, [r3, #786]
 464:Src/usbd_composite.c **** 			
 1050              		.loc 1 464 4 is_stmt 1 view .LVU275
 464:Src/usbd_composite.c **** 			
 1051              		.loc 1 464 51 is_stmt 0 view .LVU276
 1052 0050 83F81313 		strb	r1, [r3, #787]
 466:Src/usbd_composite.c **** 			pdev->tclasslist[pdev->classId].Eps[1].type = USBD_EP_TYPE_BULK;
 1053              		.loc 1 466 4 is_stmt 1 view .LVU277
 466:Src/usbd_composite.c **** 			pdev->tclasslist[pdev->classId].Eps[1].type = USBD_EP_TYPE_BULK;
 1054              		.loc 1 466 47 is_stmt 0 view .LVU278
 1055 0054 83F81413 		strb	r1, [r3, #788]
 467:Src/usbd_composite.c **** 			pdev->tclasslist[pdev->classId].Eps[1].size = CDC_DATA_FS_MAX_PACKET_SIZE;
 1056              		.loc 1 467 4 is_stmt 1 view .LVU279
 467:Src/usbd_composite.c **** 			pdev->tclasslist[pdev->classId].Eps[1].size = CDC_DATA_FS_MAX_PACKET_SIZE;
 1057              		.loc 1 467 48 is_stmt 0 view .LVU280
 1058 0058 83F81543 		strb	r4, [r3, #789]
 468:Src/usbd_composite.c **** 			pdev->tclasslist[pdev->classId].Eps[1].is_used = 1U;
 1059              		.loc 1 468 4 is_stmt 1 view .LVU281
 468:Src/usbd_composite.c **** 			pdev->tclasslist[pdev->classId].Eps[1].is_used = 1U;
ARM GAS  C:\Users\ADMINI~1\AppData\Local\Temp\ccPht4JW.s 			page 35


 1060              		.loc 1 468 48 is_stmt 0 view .LVU282
 1061 005c 4FF0400C 		mov	ip, #64
 1062 0060 83F816C3 		strb	ip, [r3, #790]
 469:Src/usbd_composite.c **** 			
 1063              		.loc 1 469 4 is_stmt 1 view .LVU283
 469:Src/usbd_composite.c **** 			
 1064              		.loc 1 469 51 is_stmt 0 view .LVU284
 1065 0064 83F81713 		strb	r1, [r3, #791]
 471:Src/usbd_composite.c **** 			pdev->tclasslist[pdev->classId].Eps[2].type = USBD_EP_TYPE_BULK;
 1066              		.loc 1 471 4 is_stmt 1 view .LVU285
 471:Src/usbd_composite.c **** 			pdev->tclasslist[pdev->classId].Eps[2].type = USBD_EP_TYPE_BULK;
 1067              		.loc 1 471 47 is_stmt 0 view .LVU286
 1068 0068 8125     		movs	r5, #129
 1069 006a 83F81853 		strb	r5, [r3, #792]
 472:Src/usbd_composite.c **** 			pdev->tclasslist[pdev->classId].Eps[2].size = CDC_DATA_FS_MAX_PACKET_SIZE;
 1070              		.loc 1 472 4 is_stmt 1 view .LVU287
 472:Src/usbd_composite.c **** 			pdev->tclasslist[pdev->classId].Eps[2].size = CDC_DATA_FS_MAX_PACKET_SIZE;
 1071              		.loc 1 472 48 is_stmt 0 view .LVU288
 1072 006e 83F81943 		strb	r4, [r3, #793]
 473:Src/usbd_composite.c **** 			pdev->tclasslist[pdev->classId].Eps[2].is_used = 1U;
 1073              		.loc 1 473 4 is_stmt 1 view .LVU289
 473:Src/usbd_composite.c **** 			pdev->tclasslist[pdev->classId].Eps[2].is_used = 1U;
 1074              		.loc 1 473 48 is_stmt 0 view .LVU290
 1075 0072 83F81AC3 		strb	ip, [r3, #794]
 474:Src/usbd_composite.c **** 
 1076              		.loc 1 474 4 is_stmt 1 view .LVU291
 474:Src/usbd_composite.c **** 
 1077              		.loc 1 474 51 is_stmt 0 view .LVU292
 1078 0076 83F81B13 		strb	r1, [r3, #795]
 476:Src/usbd_composite.c **** 			pdev->tclasslist[pdev->classId].Ifs[0] = 0;
 1079              		.loc 1 476 4 is_stmt 1 view .LVU293
 476:Src/usbd_composite.c **** 			pdev->tclasslist[pdev->classId].Ifs[0] = 0;
 1080              		.loc 1 476 42 is_stmt 0 view .LVU294
 1081 007a C3F82843 		str	r4, [r3, #808]
 477:Src/usbd_composite.c **** 			pdev->tclasslist[pdev->classId].Ifs[1] = 1;	
 1082              		.loc 1 477 4 is_stmt 1 view .LVU295
 477:Src/usbd_composite.c **** 			pdev->tclasslist[pdev->classId].Ifs[1] = 1;	
 1083              		.loc 1 477 43 is_stmt 0 view .LVU296
 1084 007e 0024     		movs	r4, #0
 1085 0080 83F82C43 		strb	r4, [r3, #812]
 478:Src/usbd_composite.c **** 			
 1086              		.loc 1 478 4 is_stmt 1 view .LVU297
 478:Src/usbd_composite.c **** 			
 1087              		.loc 1 478 43 is_stmt 0 view .LVU298
 1088 0084 83F82D13 		strb	r1, [r3, #813]
 480:Src/usbd_composite.c **** 
 1089              		.loc 1 480 4 is_stmt 1 view .LVU299
 480:Src/usbd_composite.c **** 
 1090              		.loc 1 480 3 is_stmt 0 view .LVU300
 1091 0088 BFE7     		b	.L82
 1092              	.LVL107:
 1093              	.L81:
 483:Src/usbd_composite.c **** 			
 1094              		.loc 1 483 4 is_stmt 1 view .LVU301
 483:Src/usbd_composite.c **** 			
 1095              		.loc 1 483 25 is_stmt 0 view .LVU302
 1096 008a D0F8F822 		ldr	r2, [r0, #760]
ARM GAS  C:\Users\ADMINI~1\AppData\Local\Temp\ccPht4JW.s 			page 36


 1097              	.LVL108:
 483:Src/usbd_composite.c **** 			
 1098              		.loc 1 483 46 view .LVU303
 1099 008e C2EBC203 		rsb	r3, r2, r2, lsl #3
 1100              	.LVL109:
 483:Src/usbd_composite.c **** 			
 1101              		.loc 1 483 46 view .LVU304
 1102 0092 00EBC303 		add	r3, r0, r3, lsl #3
 1103 0096 0D21     		movs	r1, #13
 1104              	.LVL110:
 483:Src/usbd_composite.c **** 			
 1105              		.loc 1 483 46 view .LVU305
 1106 0098 83F80013 		strb	r1, [r3, #768]
 485:Src/usbd_composite.c **** 			pdev->tclasslist[pdev->classId].NumEps = 2;
 1107              		.loc 1 485 4 is_stmt 1 view .LVU306
 485:Src/usbd_composite.c **** 			pdev->tclasslist[pdev->classId].NumEps = 2;
 1108              		.loc 1 485 43 is_stmt 0 view .LVU307
 1109 009c 0124     		movs	r4, #1
 1110 009e C3F80843 		str	r4, [r3, #776]
 486:Src/usbd_composite.c **** 			
 1111              		.loc 1 486 4 is_stmt 1 view .LVU308
 486:Src/usbd_composite.c **** 			
 1112              		.loc 1 486 43 is_stmt 0 view .LVU309
 1113 00a2 0221     		movs	r1, #2
 1114 00a4 C3F80C13 		str	r1, [r3, #780]
 488:Src/usbd_composite.c **** 			pdev->tclasslist[pdev->classId].Eps[0].type = USBD_EP_TYPE_BULK;
 1115              		.loc 1 488 4 is_stmt 1 view .LVU310
 488:Src/usbd_composite.c **** 			pdev->tclasslist[pdev->classId].Eps[0].type = USBD_EP_TYPE_BULK;
 1116              		.loc 1 488 47 is_stmt 0 view .LVU311
 1117 00a8 0325     		movs	r5, #3
 1118 00aa 83F81053 		strb	r5, [r3, #784]
 489:Src/usbd_composite.c **** 			pdev->tclasslist[pdev->classId].Eps[0].size = WIN_DATA_FS_OUT_PACKET_SIZE;
 1119              		.loc 1 489 4 is_stmt 1 view .LVU312
 489:Src/usbd_composite.c **** 			pdev->tclasslist[pdev->classId].Eps[0].size = WIN_DATA_FS_OUT_PACKET_SIZE;
 1120              		.loc 1 489 48 is_stmt 0 view .LVU313
 1121 00ae 83F81113 		strb	r1, [r3, #785]
 490:Src/usbd_composite.c **** 			pdev->tclasslist[pdev->classId].Eps[0].is_used = 1U;
 1122              		.loc 1 490 4 is_stmt 1 view .LVU314
 490:Src/usbd_composite.c **** 			pdev->tclasslist[pdev->classId].Eps[0].is_used = 1U;
 1123              		.loc 1 490 48 is_stmt 0 view .LVU315
 1124 00b2 4FF0400C 		mov	ip, #64
 1125 00b6 83F812C3 		strb	ip, [r3, #786]
 491:Src/usbd_composite.c **** 			
 1126              		.loc 1 491 4 is_stmt 1 view .LVU316
 491:Src/usbd_composite.c **** 			
 1127              		.loc 1 491 51 is_stmt 0 view .LVU317
 1128 00ba 83F81343 		strb	r4, [r3, #787]
 493:Src/usbd_composite.c **** 			pdev->tclasslist[pdev->classId].Eps[1].type = USBD_EP_TYPE_BULK;
 1129              		.loc 1 493 4 is_stmt 1 view .LVU318
 493:Src/usbd_composite.c **** 			pdev->tclasslist[pdev->classId].Eps[1].type = USBD_EP_TYPE_BULK;
 1130              		.loc 1 493 47 is_stmt 0 view .LVU319
 1131 00be 8325     		movs	r5, #131
 1132 00c0 83F81453 		strb	r5, [r3, #788]
 494:Src/usbd_composite.c **** 			pdev->tclasslist[pdev->classId].Eps[1].size = WIN_DATA_FS_IN_PACKET_SIZE;
 1133              		.loc 1 494 4 is_stmt 1 view .LVU320
 494:Src/usbd_composite.c **** 			pdev->tclasslist[pdev->classId].Eps[1].size = WIN_DATA_FS_IN_PACKET_SIZE;
 1134              		.loc 1 494 48 is_stmt 0 view .LVU321
ARM GAS  C:\Users\ADMINI~1\AppData\Local\Temp\ccPht4JW.s 			page 37


 1135 00c4 83F81513 		strb	r1, [r3, #789]
 495:Src/usbd_composite.c **** 			pdev->tclasslist[pdev->classId].Eps[1].is_used = 1U;
 1136              		.loc 1 495 4 is_stmt 1 view .LVU322
 495:Src/usbd_composite.c **** 			pdev->tclasslist[pdev->classId].Eps[1].is_used = 1U;
 1137              		.loc 1 495 48 is_stmt 0 view .LVU323
 1138 00c8 83F816C3 		strb	ip, [r3, #790]
 496:Src/usbd_composite.c **** 			
 1139              		.loc 1 496 4 is_stmt 1 view .LVU324
 496:Src/usbd_composite.c **** 			
 1140              		.loc 1 496 51 is_stmt 0 view .LVU325
 1141 00cc 83F81743 		strb	r4, [r3, #791]
 499:Src/usbd_composite.c **** 			pdev->tclasslist[pdev->classId].Ifs[0] = 2;		
 1142              		.loc 1 499 4 is_stmt 1 view .LVU326
 499:Src/usbd_composite.c **** 			pdev->tclasslist[pdev->classId].Ifs[0] = 2;		
 1143              		.loc 1 499 42 is_stmt 0 view .LVU327
 1144 00d0 C3F82843 		str	r4, [r3, #808]
 500:Src/usbd_composite.c **** 			
 1145              		.loc 1 500 4 is_stmt 1 view .LVU328
 500:Src/usbd_composite.c **** 			
 1146              		.loc 1 500 43 is_stmt 0 view .LVU329
 1147 00d4 83F82C13 		strb	r1, [r3, #812]
 502:Src/usbd_composite.c **** 		default:break;
 1148              		.loc 1 502 4 is_stmt 1 view .LVU330
 502:Src/usbd_composite.c **** 		default:break;
 1149              		.loc 1 502 3 is_stmt 0 view .LVU331
 1150 00d8 97E7     		b	.L82
 1151              		.cfi_endproc
 1152              	.LFE143:
 1154              		.section	.text.USBD_CMPST_ClearConfDesc,"ax",%progbits
 1155              		.align	1
 1156              		.global	USBD_CMPST_ClearConfDesc
 1157              		.syntax unified
 1158              		.thumb
 1159              		.thumb_func
 1161              	USBD_CMPST_ClearConfDesc:
 1162              	.LVL111:
 1163              	.LFB144:
 509:Src/usbd_composite.c **** }
 1164              		.loc 1 509 1 is_stmt 1 view -0
 1165              		.cfi_startproc
 1166              		@ args = 0, pretend = 0, frame = 0
 1167              		@ frame_needed = 0, uses_anonymous_args = 0
 1168              		@ link register save eliminated.
 510:Src/usbd_composite.c **** 
 1169              		.loc 1 510 1 view .LVU333
 1170 0000 7047     		bx	lr
 1171              		.cfi_endproc
 1172              	.LFE144:
 1174              		.section	.rodata.USBD_UsrStrDescriptor.str1.4,"aMS",%progbits,1
 1175              		.align	2
 1176              	.LC4:
 1177 0000 43444320 		.ascii	"CDC Interface\000"
 1177      496E7465 
 1177      72666163 
 1177      6500
 1178 000e 0000     		.align	2
 1179              	.LC5:
ARM GAS  C:\Users\ADMINI~1\AppData\Local\Temp\ccPht4JW.s 			page 38


 1180 0010 456C6563 		.ascii	"Electronbot Native Interface\000"
 1180      74726F6E 
 1180      626F7420 
 1180      4E617469 
 1180      76652049 
 1181              		.section	.text.USBD_UsrStrDescriptor,"ax",%progbits
 1182              		.align	1
 1183              		.global	USBD_UsrStrDescriptor
 1184              		.syntax unified
 1185              		.thumb
 1186              		.thumb_func
 1188              	USBD_UsrStrDescriptor:
 1189              	.LVL112:
 1190              	.LFB145:
 529:Src/usbd_composite.c ****   *length = 0;  
 1191              		.loc 1 529 1 view -0
 1192              		.cfi_startproc
 1193              		@ args = 0, pretend = 0, frame = 0
 1194              		@ frame_needed = 0, uses_anonymous_args = 0
 530:Src/usbd_composite.c ****   // printf("index=%d\r\n",index);
 1195              		.loc 1 530 3 view .LVU335
 530:Src/usbd_composite.c ****   // printf("index=%d\r\n",index);
 1196              		.loc 1 530 11 is_stmt 0 view .LVU336
 1197 0000 0023     		movs	r3, #0
 1198 0002 1380     		strh	r3, [r2]	@ movhi
 532:Src/usbd_composite.c ****     *length = sizeof (USBD_MS_OS_StringDescriptor);
 1199              		.loc 1 532 3 is_stmt 1 view .LVU337
 532:Src/usbd_composite.c ****     *length = sizeof (USBD_MS_OS_StringDescriptor);
 1200              		.loc 1 532 6 is_stmt 0 view .LVU338
 1201 0004 EE29     		cmp	r1, #238
 1202 0006 06D0     		beq	.L93
 529:Src/usbd_composite.c ****   *length = 0;  
 1203              		.loc 1 529 1 view .LVU339
 1204 0008 10B5     		push	{r4, lr}
 1205              	.LCFI14:
 1206              		.cfi_def_cfa_offset 8
 1207              		.cfi_offset 4, -8
 1208              		.cfi_offset 14, -4
 535:Src/usbd_composite.c ****     USBD_GetString((uint8_t *)USBD_CDC_INTERFACE_STRING_FS, USBD_CMPSIT_StrDesc, length);
 1209              		.loc 1 535 10 is_stmt 1 view .LVU340
 535:Src/usbd_composite.c ****     USBD_GetString((uint8_t *)USBD_CDC_INTERFACE_STRING_FS, USBD_CMPSIT_StrDesc, length);
 1210              		.loc 1 535 13 is_stmt 0 view .LVU341
 1211 000a 0629     		cmp	r1, #6
 1212 000c 07D0     		beq	.L94
 539:Src/usbd_composite.c ****     USBD_GetString((uint8_t *)USBD_PRODUCT_XSTR(USBD_WIN_USB_INTERFACE_STRING_FS), USBD_CMPSIT_StrD
 1213              		.loc 1 539 8 is_stmt 1 view .LVU342
 539:Src/usbd_composite.c ****     USBD_GetString((uint8_t *)USBD_PRODUCT_XSTR(USBD_WIN_USB_INTERFACE_STRING_FS), USBD_CMPSIT_StrD
 1214              		.loc 1 539 11 is_stmt 0 view .LVU343
 1215 000e 0729     		cmp	r1, #7
 1216 0010 0CD0     		beq	.L95
 543:Src/usbd_composite.c **** }
 1217              		.loc 1 543 10 view .LVU344
 1218 0012 0020     		movs	r0, #0
 1219              	.LVL113:
 1220              	.L85:
 544:Src/usbd_composite.c **** 
 1221              		.loc 1 544 1 view .LVU345
ARM GAS  C:\Users\ADMINI~1\AppData\Local\Temp\ccPht4JW.s 			page 39


 1222 0014 10BD     		pop	{r4, pc}
 1223              	.LVL114:
 1224              	.L93:
 1225              	.LCFI15:
 1226              		.cfi_def_cfa_offset 0
 1227              		.cfi_restore 4
 1228              		.cfi_restore 14
 533:Src/usbd_composite.c ****     return USBD_MS_OS_StringDescriptor;
 1229              		.loc 1 533 5 is_stmt 1 view .LVU346
 533:Src/usbd_composite.c ****     return USBD_MS_OS_StringDescriptor;
 1230              		.loc 1 533 13 is_stmt 0 view .LVU347
 1231 0016 1223     		movs	r3, #18
 1232 0018 1380     		strh	r3, [r2]	@ movhi
 534:Src/usbd_composite.c ****   } else if (USBD_IDX_CDC_INTF_STR == index) {
 1233              		.loc 1 534 5 is_stmt 1 view .LVU348
 534:Src/usbd_composite.c ****   } else if (USBD_IDX_CDC_INTF_STR == index) {
 1234              		.loc 1 534 12 is_stmt 0 view .LVU349
 1235 001a 0848     		ldr	r0, .L96
 1236              	.LVL115:
 544:Src/usbd_composite.c **** 
 1237              		.loc 1 544 1 view .LVU350
 1238 001c 7047     		bx	lr
 1239              	.LVL116:
 1240              	.L94:
 1241              	.LCFI16:
 1242              		.cfi_def_cfa_offset 8
 1243              		.cfi_offset 4, -8
 1244              		.cfi_offset 14, -4
 536:Src/usbd_composite.c ****     return USBD_CMPSIT_StrDesc;
 1245              		.loc 1 536 5 is_stmt 1 view .LVU351
 1246 001e 084C     		ldr	r4, .L96+4
 1247 0020 2146     		mov	r1, r4
 1248              	.LVL117:
 536:Src/usbd_composite.c ****     return USBD_CMPSIT_StrDesc;
 1249              		.loc 1 536 5 is_stmt 0 view .LVU352
 1250 0022 0848     		ldr	r0, .L96+8
 1251              	.LVL118:
 536:Src/usbd_composite.c ****     return USBD_CMPSIT_StrDesc;
 1252              		.loc 1 536 5 view .LVU353
 1253 0024 FFF7FEFF 		bl	USBD_GetString
 1254              	.LVL119:
 537:Src/usbd_composite.c ****   }  
 1255              		.loc 1 537 5 is_stmt 1 view .LVU354
 537:Src/usbd_composite.c ****   }  
 1256              		.loc 1 537 12 is_stmt 0 view .LVU355
 1257 0028 2046     		mov	r0, r4
 1258 002a F3E7     		b	.L85
 1259              	.LVL120:
 1260              	.L95:
 540:Src/usbd_composite.c ****     return USBD_CMPSIT_StrDesc;
 1261              		.loc 1 540 5 is_stmt 1 view .LVU356
 1262 002c 044C     		ldr	r4, .L96+4
 1263 002e 2146     		mov	r1, r4
 1264              	.LVL121:
 540:Src/usbd_composite.c ****     return USBD_CMPSIT_StrDesc;
 1265              		.loc 1 540 5 is_stmt 0 view .LVU357
 1266 0030 0548     		ldr	r0, .L96+12
ARM GAS  C:\Users\ADMINI~1\AppData\Local\Temp\ccPht4JW.s 			page 40


 1267              	.LVL122:
 540:Src/usbd_composite.c ****     return USBD_CMPSIT_StrDesc;
 1268              		.loc 1 540 5 view .LVU358
 1269 0032 FFF7FEFF 		bl	USBD_GetString
 1270              	.LVL123:
 541:Src/usbd_composite.c ****   }  
 1271              		.loc 1 541 5 is_stmt 1 view .LVU359
 541:Src/usbd_composite.c ****   }  
 1272              		.loc 1 541 12 is_stmt 0 view .LVU360
 1273 0036 2046     		mov	r0, r4
 1274 0038 ECE7     		b	.L85
 1275              	.L97:
 1276 003a 00BF     		.align	2
 1277              	.L96:
 1278 003c 00000000 		.word	.LANCHOR6
 1279 0040 00000000 		.word	.LANCHOR4
 1280 0044 00000000 		.word	.LC4
 1281 0048 10000000 		.word	.LC5
 1282              		.cfi_endproc
 1283              	.LFE145:
 1285              		.global	USBD_MS_OS_StringDescriptor
 1286              		.global	USBD_CMPSIT
 1287              		.global	USBD_CMPSIT_StringSerial
 1288              		.global	USBD_CMPSIT_StrDesc
 1289              		.global	USBD_CMPSIT_LangIDDesc
 1290              		.global	USBD_CMPSIT_FS_DeviceDesc
 1291              		.global	usbCmpsitFS_Desc
 1292              		.section	.bss.USBD_CMPSIT_StrDesc,"aw",%nobits
 1293              		.align	2
 1294              		.set	.LANCHOR4,. + 0
 1297              	USBD_CMPSIT_StrDesc:
 1298 0000 00000000 		.space	512
 1298      00000000 
 1298      00000000 
 1298      00000000 
 1298      00000000 
 1299              		.section	.data.USBD_CMPSIT,"aw"
 1300              		.align	2
 1303              	USBD_CMPSIT:
 1304 0000 00000000 		.word	0
 1305 0004 00000000 		.word	0
 1306 0008 00000000 		.word	0
 1307 000c 00000000 		.word	0
 1308 0010 00000000 		.word	0
 1309 0014 00000000 		.word	0
 1310 0018 00000000 		.word	0
 1311 001c 00000000 		.word	0
 1312 0020 00000000 		.word	0
 1313 0024 00000000 		.word	0
 1314 0028 00000000 		.word	USBD_CMPSIT_GetHSCfgDesc
 1315 002c 00000000 		.word	USBD_CMPSIT_GetFSCfgDesc
 1316 0030 00000000 		.word	USBD_CMPSIT_GetOtherSpeedCfgDesc
 1317 0034 00000000 		.word	USBD_CMPSIT_GetDeviceQualifierDescriptor
 1318 0038 00000000 		.space	4
 1319              		.section	.data.USBD_CMPSIT_CfgDesc,"aw"
 1320              		.align	2
 1321              		.set	.LANCHOR5,. + 0
ARM GAS  C:\Users\ADMINI~1\AppData\Local\Temp\ccPht4JW.s 			page 41


 1324              	USBD_CMPSIT_CfgDesc:
 1325 0000 09026A00 		.ascii	"\011\002j\000\003\001\000\3002\010\013\000\002\002\002"
 1325      030100C0 
 1325      32080B00 
 1325      020202
 1326 000f 01060904 		.ascii	"\001\006\011\004\000\000\001\002\002\001\000\005$\000"
 1326      00000102 
 1326      02010005 
 1326      2400
 1327 001d 10010524 		.ascii	"\020\001\005$\001\000\001\004$\002\002\005$\006\000"
 1327      01000104 
 1327      24020205 
 1327      240600
 1328 002c 01070582 		.ascii	"\001\007\005\202\003\010\000\020\011\004\001\000\002"
 1328      03080010 
 1328      09040100 
 1328      02
 1329 0039 0A000000 		.ascii	"\012\000\000\000\007\005\001\002@\000\000\007\005\201"
 1329      07050102 
 1329      40000007 
 1329      0581
 1330 0047 02400000 		.ascii	"\002@\000\000\010\013\002\001\000\000\000\007\011\004"
 1330      080B0201 
 1330      00000007 
 1330      0904
 1331 0055 02000200 		.ascii	"\002\000\002\000\001\000\000\007\005\003\002@\000\000"
 1331      01000007 
 1331      05030240 
 1331      0000
 1332 0063 07058302 		.ascii	"\007\005\203\002@\000\000"
 1332      400000
 1333              		.section	.data.USBD_CMPSIT_DeviceQualifierDesc,"aw"
 1334              		.align	2
 1335              		.set	.LANCHOR3,. + 0
 1338              	USBD_CMPSIT_DeviceQualifierDesc:
 1339 0000 0A060002 		.ascii	"\012\006\000\002\000\000\000@\001\000"
 1339      00000040 
 1339      0100
 1340              		.section	.data.USBD_CMPSIT_FS_DeviceDesc,"aw"
 1341              		.align	2
 1342              		.set	.LANCHOR0,. + 0
 1345              	USBD_CMPSIT_FS_DeviceDesc:
 1346 0000 12010002 		.ascii	"\022\001\000\002\357\002\001@\027\0229\015\000\002\001"
 1346      EF020140 
 1346      1712390D 
 1346      000201
 1347 000f 020301   		.ascii	"\002\003\001"
 1348              		.section	.data.USBD_CMPSIT_LangIDDesc,"aw"
 1349              		.align	2
 1350              		.set	.LANCHOR1,. + 0
 1353              	USBD_CMPSIT_LangIDDesc:
 1354 0000 04030904 		.ascii	"\004\003\011\004"
 1355              		.section	.data.USBD_CMPSIT_StringSerial,"aw"
 1356              		.align	2
 1357              		.set	.LANCHOR2,. + 0
 1360              	USBD_CMPSIT_StringSerial:
 1361 0000 1A0300   		.ascii	"\032\003\000"
ARM GAS  C:\Users\ADMINI~1\AppData\Local\Temp\ccPht4JW.s 			page 42


 1362 0003 00000000 		.space	23
 1362      00000000 
 1362      00000000 
 1362      00000000 
 1362      00000000 
 1363              		.section	.data.USBD_MS_OS_StringDescriptor,"aw"
 1364              		.align	2
 1365              		.set	.LANCHOR6,. + 0
 1368              	USBD_MS_OS_StringDescriptor:
 1369 0000 12034D00 		.ascii	"\022\003M\000S\000F\000T\0001\0000\0000\000P\000"
 1369      53004600 
 1369      54003100 
 1369      30003000 
 1369      5000
 1370              		.section	.data.usbCmpsitFS_Desc,"aw"
 1371              		.align	2
 1374              	usbCmpsitFS_Desc:
 1375 0000 00000000 		.word	USBD_CMPSIT_FS_DeviceDescriptor
 1376 0004 00000000 		.word	USBD_CMPSIT_FS_LangIDStrDescriptor
 1377 0008 00000000 		.word	USBD_CMPSIT_FS_ManufacturerStrDescriptor
 1378 000c 00000000 		.word	USBD_CMPSIT_FS_ProductStrDescriptor
 1379 0010 00000000 		.word	USBD_CMPSIT_FS_SerialStrDescriptor
 1380 0014 00000000 		.word	USBD_CMPSIT_FS_ConfigStrDescriptor
 1381 0018 00000000 		.word	USBD_CMPSIT_FS_InterfaceStrDescriptor
 1382              		.text
 1383              	.Letext0:
 1384              		.file 2 "c:\\program files (x86)\\gnu arm embedded toolchain\\10 2021.10\\arm-none-eabi\\include\\
 1385              		.file 3 "c:\\program files (x86)\\gnu arm embedded toolchain\\10 2021.10\\arm-none-eabi\\include\\
 1386              		.file 4 "Middlewares/ST/STM32_USB_Device_Library/Core/Inc/usbd_def.h"
 1387              		.file 5 "Inc/usbd_composite.h"
 1388              		.file 6 "Middlewares/ST/STM32_USB_Device_Library/Core/Inc/usbd_core.h"
 1389              		.file 7 "Middlewares/ST/STM32_USB_Device_Library/Core/Inc/usbd_ctlreq.h"
ARM GAS  C:\Users\ADMINI~1\AppData\Local\Temp\ccPht4JW.s 			page 43

