ARM GAS  C:\Users\ADMINI~1\AppData\Local\Temp\ccOzU0Ff.s 			page 1


   1              		.cpu cortex-m4
   2              		.arch armv7e-m
   3              		.fpu fpv4-sp-d16
   4              		.eabi_attribute 27, 1
   5              		.eabi_attribute 28, 1
   6              		.eabi_attribute 20, 1
   7              		.eabi_attribute 21, 1
   8              		.eabi_attribute 23, 3
   9              		.eabi_attribute 24, 1
  10              		.eabi_attribute 25, 1
  11              		.eabi_attribute 26, 1
  12              		.eabi_attribute 30, 1
  13              		.eabi_attribute 34, 1
  14              		.eabi_attribute 18, 4
  15              		.file	"usbd_core.c"
  16              		.text
  17              	.Ltext0:
  18              		.cfi_sections	.debug_frame
  19              		.section	.text.USBD_Init,"ax",%progbits
  20              		.align	1
  21              		.global	USBD_Init
  22              		.syntax unified
  23              		.thumb
  24              		.thumb_func
  26              	USBD_Init:
  27              	.LVL0:
  28              	.LFB134:
  29              		.file 1 "Middlewares/ST/STM32_USB_Device_Library/Core/Src/usbd_core.c"
   1:Middlewares/ST/STM32_USB_Device_Library/Core/Src/usbd_core.c **** /**
   2:Middlewares/ST/STM32_USB_Device_Library/Core/Src/usbd_core.c ****   ******************************************************************************
   3:Middlewares/ST/STM32_USB_Device_Library/Core/Src/usbd_core.c ****   * @file    usbd_core.c
   4:Middlewares/ST/STM32_USB_Device_Library/Core/Src/usbd_core.c ****   * @author  MCD Application Team
   5:Middlewares/ST/STM32_USB_Device_Library/Core/Src/usbd_core.c ****   * @brief   This file provides all the USBD core functions.
   6:Middlewares/ST/STM32_USB_Device_Library/Core/Src/usbd_core.c ****   ******************************************************************************
   7:Middlewares/ST/STM32_USB_Device_Library/Core/Src/usbd_core.c ****   * @attention
   8:Middlewares/ST/STM32_USB_Device_Library/Core/Src/usbd_core.c ****   *
   9:Middlewares/ST/STM32_USB_Device_Library/Core/Src/usbd_core.c ****   * Copyright (c) 2015 STMicroelectronics.
  10:Middlewares/ST/STM32_USB_Device_Library/Core/Src/usbd_core.c ****   * All rights reserved.
  11:Middlewares/ST/STM32_USB_Device_Library/Core/Src/usbd_core.c ****   *
  12:Middlewares/ST/STM32_USB_Device_Library/Core/Src/usbd_core.c ****   * This software is licensed under terms that can be found in the LICENSE file
  13:Middlewares/ST/STM32_USB_Device_Library/Core/Src/usbd_core.c ****   * in the root directory of this software component.
  14:Middlewares/ST/STM32_USB_Device_Library/Core/Src/usbd_core.c ****   * If no LICENSE file comes with this software, it is provided AS-IS.
  15:Middlewares/ST/STM32_USB_Device_Library/Core/Src/usbd_core.c ****   *
  16:Middlewares/ST/STM32_USB_Device_Library/Core/Src/usbd_core.c ****   ******************************************************************************
  17:Middlewares/ST/STM32_USB_Device_Library/Core/Src/usbd_core.c ****   */
  18:Middlewares/ST/STM32_USB_Device_Library/Core/Src/usbd_core.c **** 
  19:Middlewares/ST/STM32_USB_Device_Library/Core/Src/usbd_core.c **** /* Includes ------------------------------------------------------------------*/
  20:Middlewares/ST/STM32_USB_Device_Library/Core/Src/usbd_core.c **** #include "usbd_core.h"
  21:Middlewares/ST/STM32_USB_Device_Library/Core/Src/usbd_core.c **** 
  22:Middlewares/ST/STM32_USB_Device_Library/Core/Src/usbd_core.c **** #ifdef USE_USBD_COMPOSITE
  23:Middlewares/ST/STM32_USB_Device_Library/Core/Src/usbd_core.c **** #include "usbd_composite.h"
  24:Middlewares/ST/STM32_USB_Device_Library/Core/Src/usbd_core.c **** #endif /* USE_USBD_COMPOSITE */
  25:Middlewares/ST/STM32_USB_Device_Library/Core/Src/usbd_core.c **** 
  26:Middlewares/ST/STM32_USB_Device_Library/Core/Src/usbd_core.c **** /** @addtogroup STM32_USBD_DEVICE_LIBRARY
  27:Middlewares/ST/STM32_USB_Device_Library/Core/Src/usbd_core.c ****   * @{
  28:Middlewares/ST/STM32_USB_Device_Library/Core/Src/usbd_core.c ****   */
  29:Middlewares/ST/STM32_USB_Device_Library/Core/Src/usbd_core.c **** 
ARM GAS  C:\Users\ADMINI~1\AppData\Local\Temp\ccOzU0Ff.s 			page 2


  30:Middlewares/ST/STM32_USB_Device_Library/Core/Src/usbd_core.c **** 
  31:Middlewares/ST/STM32_USB_Device_Library/Core/Src/usbd_core.c **** /** @defgroup USBD_CORE
  32:Middlewares/ST/STM32_USB_Device_Library/Core/Src/usbd_core.c ****   * @brief usbd core module
  33:Middlewares/ST/STM32_USB_Device_Library/Core/Src/usbd_core.c ****   * @{
  34:Middlewares/ST/STM32_USB_Device_Library/Core/Src/usbd_core.c ****   */
  35:Middlewares/ST/STM32_USB_Device_Library/Core/Src/usbd_core.c **** 
  36:Middlewares/ST/STM32_USB_Device_Library/Core/Src/usbd_core.c **** /** @defgroup USBD_CORE_Private_TypesDefinitions
  37:Middlewares/ST/STM32_USB_Device_Library/Core/Src/usbd_core.c ****   * @{
  38:Middlewares/ST/STM32_USB_Device_Library/Core/Src/usbd_core.c ****   */
  39:Middlewares/ST/STM32_USB_Device_Library/Core/Src/usbd_core.c **** 
  40:Middlewares/ST/STM32_USB_Device_Library/Core/Src/usbd_core.c **** /**
  41:Middlewares/ST/STM32_USB_Device_Library/Core/Src/usbd_core.c ****   * @}
  42:Middlewares/ST/STM32_USB_Device_Library/Core/Src/usbd_core.c ****   */
  43:Middlewares/ST/STM32_USB_Device_Library/Core/Src/usbd_core.c **** 
  44:Middlewares/ST/STM32_USB_Device_Library/Core/Src/usbd_core.c **** 
  45:Middlewares/ST/STM32_USB_Device_Library/Core/Src/usbd_core.c **** /** @defgroup USBD_CORE_Private_Defines
  46:Middlewares/ST/STM32_USB_Device_Library/Core/Src/usbd_core.c ****   * @{
  47:Middlewares/ST/STM32_USB_Device_Library/Core/Src/usbd_core.c ****   */
  48:Middlewares/ST/STM32_USB_Device_Library/Core/Src/usbd_core.c **** 
  49:Middlewares/ST/STM32_USB_Device_Library/Core/Src/usbd_core.c **** /**
  50:Middlewares/ST/STM32_USB_Device_Library/Core/Src/usbd_core.c ****   * @}
  51:Middlewares/ST/STM32_USB_Device_Library/Core/Src/usbd_core.c ****   */
  52:Middlewares/ST/STM32_USB_Device_Library/Core/Src/usbd_core.c **** 
  53:Middlewares/ST/STM32_USB_Device_Library/Core/Src/usbd_core.c **** 
  54:Middlewares/ST/STM32_USB_Device_Library/Core/Src/usbd_core.c **** /** @defgroup USBD_CORE_Private_Macros
  55:Middlewares/ST/STM32_USB_Device_Library/Core/Src/usbd_core.c ****   * @{
  56:Middlewares/ST/STM32_USB_Device_Library/Core/Src/usbd_core.c ****   */
  57:Middlewares/ST/STM32_USB_Device_Library/Core/Src/usbd_core.c **** 
  58:Middlewares/ST/STM32_USB_Device_Library/Core/Src/usbd_core.c **** /**
  59:Middlewares/ST/STM32_USB_Device_Library/Core/Src/usbd_core.c ****   * @}
  60:Middlewares/ST/STM32_USB_Device_Library/Core/Src/usbd_core.c ****   */
  61:Middlewares/ST/STM32_USB_Device_Library/Core/Src/usbd_core.c **** 
  62:Middlewares/ST/STM32_USB_Device_Library/Core/Src/usbd_core.c **** 
  63:Middlewares/ST/STM32_USB_Device_Library/Core/Src/usbd_core.c **** /** @defgroup USBD_CORE_Private_FunctionPrototypes
  64:Middlewares/ST/STM32_USB_Device_Library/Core/Src/usbd_core.c ****   * @{
  65:Middlewares/ST/STM32_USB_Device_Library/Core/Src/usbd_core.c ****   */
  66:Middlewares/ST/STM32_USB_Device_Library/Core/Src/usbd_core.c **** 
  67:Middlewares/ST/STM32_USB_Device_Library/Core/Src/usbd_core.c **** /**
  68:Middlewares/ST/STM32_USB_Device_Library/Core/Src/usbd_core.c ****   * @}
  69:Middlewares/ST/STM32_USB_Device_Library/Core/Src/usbd_core.c ****   */
  70:Middlewares/ST/STM32_USB_Device_Library/Core/Src/usbd_core.c **** 
  71:Middlewares/ST/STM32_USB_Device_Library/Core/Src/usbd_core.c **** /** @defgroup USBD_CORE_Private_Variables
  72:Middlewares/ST/STM32_USB_Device_Library/Core/Src/usbd_core.c ****   * @{
  73:Middlewares/ST/STM32_USB_Device_Library/Core/Src/usbd_core.c ****   */
  74:Middlewares/ST/STM32_USB_Device_Library/Core/Src/usbd_core.c **** 
  75:Middlewares/ST/STM32_USB_Device_Library/Core/Src/usbd_core.c **** /**
  76:Middlewares/ST/STM32_USB_Device_Library/Core/Src/usbd_core.c ****   * @}
  77:Middlewares/ST/STM32_USB_Device_Library/Core/Src/usbd_core.c ****   */
  78:Middlewares/ST/STM32_USB_Device_Library/Core/Src/usbd_core.c **** 
  79:Middlewares/ST/STM32_USB_Device_Library/Core/Src/usbd_core.c **** 
  80:Middlewares/ST/STM32_USB_Device_Library/Core/Src/usbd_core.c **** /** @defgroup USBD_CORE_Private_Functions
  81:Middlewares/ST/STM32_USB_Device_Library/Core/Src/usbd_core.c ****   * @{
  82:Middlewares/ST/STM32_USB_Device_Library/Core/Src/usbd_core.c ****   */
  83:Middlewares/ST/STM32_USB_Device_Library/Core/Src/usbd_core.c **** 
  84:Middlewares/ST/STM32_USB_Device_Library/Core/Src/usbd_core.c **** /**
  85:Middlewares/ST/STM32_USB_Device_Library/Core/Src/usbd_core.c ****   * @brief  USBD_Init
  86:Middlewares/ST/STM32_USB_Device_Library/Core/Src/usbd_core.c ****   *         Initializes the device stack and load the class driver
ARM GAS  C:\Users\ADMINI~1\AppData\Local\Temp\ccOzU0Ff.s 			page 3


  87:Middlewares/ST/STM32_USB_Device_Library/Core/Src/usbd_core.c ****   * @param  pdev: device instance
  88:Middlewares/ST/STM32_USB_Device_Library/Core/Src/usbd_core.c ****   * @param  pdesc: Descriptor structure address
  89:Middlewares/ST/STM32_USB_Device_Library/Core/Src/usbd_core.c ****   * @param  id: Low level core index
  90:Middlewares/ST/STM32_USB_Device_Library/Core/Src/usbd_core.c ****   * @retval None
  91:Middlewares/ST/STM32_USB_Device_Library/Core/Src/usbd_core.c ****   */
  92:Middlewares/ST/STM32_USB_Device_Library/Core/Src/usbd_core.c **** USBD_StatusTypeDef USBD_Init(USBD_HandleTypeDef *pdev,
  93:Middlewares/ST/STM32_USB_Device_Library/Core/Src/usbd_core.c ****                              USBD_DescriptorsTypeDef *pdesc, uint8_t id)
  94:Middlewares/ST/STM32_USB_Device_Library/Core/Src/usbd_core.c **** {
  30              		.loc 1 94 1 view -0
  31              		.cfi_startproc
  32              		@ args = 0, pretend = 0, frame = 0
  33              		@ frame_needed = 0, uses_anonymous_args = 0
  95:Middlewares/ST/STM32_USB_Device_Library/Core/Src/usbd_core.c ****   USBD_StatusTypeDef ret;
  34              		.loc 1 95 3 view .LVU1
  96:Middlewares/ST/STM32_USB_Device_Library/Core/Src/usbd_core.c **** 
  97:Middlewares/ST/STM32_USB_Device_Library/Core/Src/usbd_core.c ****   /* Check whether the USB Host handle is valid */
  98:Middlewares/ST/STM32_USB_Device_Library/Core/Src/usbd_core.c ****   if (pdev == NULL)
  35              		.loc 1 98 3 view .LVU2
  36              		.loc 1 98 6 is_stmt 0 view .LVU3
  37 0000 50B3     		cbz	r0, .L6
  94:Middlewares/ST/STM32_USB_Device_Library/Core/Src/usbd_core.c ****   USBD_StatusTypeDef ret;
  38              		.loc 1 94 1 view .LVU4
  39 0002 08B5     		push	{r3, lr}
  40              	.LCFI0:
  41              		.cfi_def_cfa_offset 8
  42              		.cfi_offset 3, -8
  43              		.cfi_offset 14, -4
  44 0004 8446     		mov	ip, r0
  45              	.LBB2:
  99:Middlewares/ST/STM32_USB_Device_Library/Core/Src/usbd_core.c ****   {
 100:Middlewares/ST/STM32_USB_Device_Library/Core/Src/usbd_core.c **** #if (USBD_DEBUG_LEVEL > 1U)
 101:Middlewares/ST/STM32_USB_Device_Library/Core/Src/usbd_core.c ****     USBD_ErrLog("Invalid Device handle");
 102:Middlewares/ST/STM32_USB_Device_Library/Core/Src/usbd_core.c **** #endif /* (USBD_DEBUG_LEVEL > 1U) */
 103:Middlewares/ST/STM32_USB_Device_Library/Core/Src/usbd_core.c ****     return USBD_FAIL;
 104:Middlewares/ST/STM32_USB_Device_Library/Core/Src/usbd_core.c ****   }
 105:Middlewares/ST/STM32_USB_Device_Library/Core/Src/usbd_core.c **** 
 106:Middlewares/ST/STM32_USB_Device_Library/Core/Src/usbd_core.c **** #ifdef USE_USBD_COMPOSITE
 107:Middlewares/ST/STM32_USB_Device_Library/Core/Src/usbd_core.c ****   /* Parse the table of classes in use */
 108:Middlewares/ST/STM32_USB_Device_Library/Core/Src/usbd_core.c ****   for (uint32_t i = 0; i < USBD_MAX_SUPPORTED_CLASS; i++)
  46              		.loc 1 108 17 view .LVU5
  47 0006 0023     		movs	r3, #0
  48 0008 15E0     		b	.L3
  49              	.LVL1:
  50              	.L4:
 109:Middlewares/ST/STM32_USB_Device_Library/Core/Src/usbd_core.c ****   {
 110:Middlewares/ST/STM32_USB_Device_Library/Core/Src/usbd_core.c ****     /* Unlink previous class*/
 111:Middlewares/ST/STM32_USB_Device_Library/Core/Src/usbd_core.c ****     pdev->pClass[i] = NULL;
  51              		.loc 1 111 5 is_stmt 1 discriminator 3 view .LVU6
  52              		.loc 1 111 21 is_stmt 0 discriminator 3 view .LVU7
  53 000a 03F1AE0E 		add	lr, r3, #174
  54 000e 0020     		movs	r0, #0
  55 0010 4CF82E00 		str	r0, [ip, lr, lsl #2]
 112:Middlewares/ST/STM32_USB_Device_Library/Core/Src/usbd_core.c ****     pdev->pUserData[i] = NULL;
  56              		.loc 1 112 5 is_stmt 1 discriminator 3 view .LVU8
  57              		.loc 1 112 24 is_stmt 0 discriminator 3 view .LVU9
  58 0014 03F1B60E 		add	lr, r3, #182
  59 0018 0CEB8E0E 		add	lr, ip, lr, lsl #2
ARM GAS  C:\Users\ADMINI~1\AppData\Local\Temp\ccOzU0Ff.s 			page 4


  60 001c CEF80400 		str	r0, [lr, #4]
 113:Middlewares/ST/STM32_USB_Device_Library/Core/Src/usbd_core.c **** 
 114:Middlewares/ST/STM32_USB_Device_Library/Core/Src/usbd_core.c ****     /* Set class as inactive */
 115:Middlewares/ST/STM32_USB_Device_Library/Core/Src/usbd_core.c ****     pdev->tclasslist[i].Active = 0;
  61              		.loc 1 115 5 is_stmt 1 discriminator 3 view .LVU10
  62              		.loc 1 115 32 is_stmt 0 discriminator 3 view .LVU11
  63 0020 C3EBC30E 		rsb	lr, r3, r3, lsl #3
  64 0024 0CEBCE0E 		add	lr, ip, lr, lsl #3
  65 0028 CEF80803 		str	r0, [lr, #776]
 116:Middlewares/ST/STM32_USB_Device_Library/Core/Src/usbd_core.c ****     pdev->NumClasses = 0;
  66              		.loc 1 116 5 is_stmt 1 discriminator 3 view .LVU12
  67              		.loc 1 116 22 is_stmt 0 discriminator 3 view .LVU13
  68 002c CCF8FC02 		str	r0, [ip, #764]
 117:Middlewares/ST/STM32_USB_Device_Library/Core/Src/usbd_core.c ****     pdev->classId = 0;
  69              		.loc 1 117 5 is_stmt 1 discriminator 3 view .LVU14
  70              		.loc 1 117 19 is_stmt 0 discriminator 3 view .LVU15
  71 0030 CCF8F802 		str	r0, [ip, #760]
 108:Middlewares/ST/STM32_USB_Device_Library/Core/Src/usbd_core.c ****   {
  72              		.loc 1 108 54 is_stmt 1 discriminator 3 view .LVU16
 108:Middlewares/ST/STM32_USB_Device_Library/Core/Src/usbd_core.c ****   {
  73              		.loc 1 108 55 is_stmt 0 discriminator 3 view .LVU17
  74 0034 0133     		adds	r3, r3, #1
  75              	.LVL2:
  76              	.L3:
 108:Middlewares/ST/STM32_USB_Device_Library/Core/Src/usbd_core.c ****   {
  77              		.loc 1 108 24 is_stmt 1 discriminator 1 view .LVU18
 108:Middlewares/ST/STM32_USB_Device_Library/Core/Src/usbd_core.c ****   {
  78              		.loc 1 108 3 is_stmt 0 discriminator 1 view .LVU19
  79 0036 032B     		cmp	r3, #3
  80 0038 E7D9     		bls	.L4
  81              	.LBE2:
 118:Middlewares/ST/STM32_USB_Device_Library/Core/Src/usbd_core.c ****   }
 119:Middlewares/ST/STM32_USB_Device_Library/Core/Src/usbd_core.c **** #else
 120:Middlewares/ST/STM32_USB_Device_Library/Core/Src/usbd_core.c ****   /* Unlink previous class*/
 121:Middlewares/ST/STM32_USB_Device_Library/Core/Src/usbd_core.c ****   pdev->pClass[0] = NULL;
 122:Middlewares/ST/STM32_USB_Device_Library/Core/Src/usbd_core.c ****   pdev->pUserData[0] = NULL;
 123:Middlewares/ST/STM32_USB_Device_Library/Core/Src/usbd_core.c **** #endif /* USE_USBD_COMPOSITE */
 124:Middlewares/ST/STM32_USB_Device_Library/Core/Src/usbd_core.c **** 
 125:Middlewares/ST/STM32_USB_Device_Library/Core/Src/usbd_core.c ****   pdev->pConfDesc = NULL;
  82              		.loc 1 125 3 is_stmt 1 view .LVU20
  83              		.loc 1 125 19 is_stmt 0 view .LVU21
  84 003a 0023     		movs	r3, #0
  85              	.LVL3:
  86              		.loc 1 125 19 view .LVU22
  87 003c CCF8F432 		str	r3, [ip, #756]
 126:Middlewares/ST/STM32_USB_Device_Library/Core/Src/usbd_core.c **** 
 127:Middlewares/ST/STM32_USB_Device_Library/Core/Src/usbd_core.c ****   /* Assign USBD Descriptors */
 128:Middlewares/ST/STM32_USB_Device_Library/Core/Src/usbd_core.c ****   if (pdesc != NULL)
  88              		.loc 1 128 3 is_stmt 1 view .LVU23
  89              		.loc 1 128 6 is_stmt 0 view .LVU24
  90 0040 09B1     		cbz	r1, .L5
 129:Middlewares/ST/STM32_USB_Device_Library/Core/Src/usbd_core.c ****   {
 130:Middlewares/ST/STM32_USB_Device_Library/Core/Src/usbd_core.c ****     pdev->pDesc = pdesc;
  91              		.loc 1 130 5 is_stmt 1 view .LVU25
  92              		.loc 1 130 17 is_stmt 0 view .LVU26
  93 0042 CCF8B412 		str	r1, [ip, #692]
  94              	.L5:
ARM GAS  C:\Users\ADMINI~1\AppData\Local\Temp\ccOzU0Ff.s 			page 5


 131:Middlewares/ST/STM32_USB_Device_Library/Core/Src/usbd_core.c ****   }
 132:Middlewares/ST/STM32_USB_Device_Library/Core/Src/usbd_core.c **** 
 133:Middlewares/ST/STM32_USB_Device_Library/Core/Src/usbd_core.c ****   /* Set Device initial State */
 134:Middlewares/ST/STM32_USB_Device_Library/Core/Src/usbd_core.c ****   pdev->dev_state = USBD_STATE_DEFAULT;
  95              		.loc 1 134 3 is_stmt 1 view .LVU27
  96              		.loc 1 134 19 is_stmt 0 view .LVU28
  97 0046 0123     		movs	r3, #1
  98 0048 8CF89C32 		strb	r3, [ip, #668]
 135:Middlewares/ST/STM32_USB_Device_Library/Core/Src/usbd_core.c ****   pdev->id = id;
  99              		.loc 1 135 3 is_stmt 1 view .LVU29
 100              		.loc 1 135 12 is_stmt 0 view .LVU30
 101 004c 8CF80020 		strb	r2, [ip]
 136:Middlewares/ST/STM32_USB_Device_Library/Core/Src/usbd_core.c **** 
 137:Middlewares/ST/STM32_USB_Device_Library/Core/Src/usbd_core.c ****   /* Initialize low level driver */
 138:Middlewares/ST/STM32_USB_Device_Library/Core/Src/usbd_core.c ****   ret = USBD_LL_Init(pdev);
 102              		.loc 1 138 3 is_stmt 1 view .LVU31
 103              		.loc 1 138 9 is_stmt 0 view .LVU32
 104 0050 6046     		mov	r0, ip
 105 0052 FFF7FEFF 		bl	USBD_LL_Init
 106              	.LVL4:
 139:Middlewares/ST/STM32_USB_Device_Library/Core/Src/usbd_core.c **** 
 140:Middlewares/ST/STM32_USB_Device_Library/Core/Src/usbd_core.c ****   return ret;
 107              		.loc 1 140 3 is_stmt 1 view .LVU33
 141:Middlewares/ST/STM32_USB_Device_Library/Core/Src/usbd_core.c **** }
 108              		.loc 1 141 1 is_stmt 0 view .LVU34
 109 0056 08BD     		pop	{r3, pc}
 110              	.LVL5:
 111              	.L6:
 112              	.LCFI1:
 113              		.cfi_def_cfa_offset 0
 114              		.cfi_restore 3
 115              		.cfi_restore 14
 103:Middlewares/ST/STM32_USB_Device_Library/Core/Src/usbd_core.c ****   }
 116              		.loc 1 103 12 view .LVU35
 117 0058 0320     		movs	r0, #3
 118              	.LVL6:
 119              		.loc 1 141 1 view .LVU36
 120 005a 7047     		bx	lr
 121              		.cfi_endproc
 122              	.LFE134:
 124              		.section	.text.USBD_DeInit,"ax",%progbits
 125              		.align	1
 126              		.global	USBD_DeInit
 127              		.syntax unified
 128              		.thumb
 129              		.thumb_func
 131              	USBD_DeInit:
 132              	.LVL7:
 133              	.LFB135:
 142:Middlewares/ST/STM32_USB_Device_Library/Core/Src/usbd_core.c **** 
 143:Middlewares/ST/STM32_USB_Device_Library/Core/Src/usbd_core.c **** /**
 144:Middlewares/ST/STM32_USB_Device_Library/Core/Src/usbd_core.c ****   * @brief  USBD_DeInit
 145:Middlewares/ST/STM32_USB_Device_Library/Core/Src/usbd_core.c ****   *         Re-Initialize the device library
 146:Middlewares/ST/STM32_USB_Device_Library/Core/Src/usbd_core.c ****   * @param  pdev: device instance
 147:Middlewares/ST/STM32_USB_Device_Library/Core/Src/usbd_core.c ****   * @retval status: status
 148:Middlewares/ST/STM32_USB_Device_Library/Core/Src/usbd_core.c ****   */
 149:Middlewares/ST/STM32_USB_Device_Library/Core/Src/usbd_core.c **** USBD_StatusTypeDef USBD_DeInit(USBD_HandleTypeDef *pdev)
ARM GAS  C:\Users\ADMINI~1\AppData\Local\Temp\ccOzU0Ff.s 			page 6


 150:Middlewares/ST/STM32_USB_Device_Library/Core/Src/usbd_core.c **** {
 134              		.loc 1 150 1 is_stmt 1 view -0
 135              		.cfi_startproc
 136              		@ args = 0, pretend = 0, frame = 0
 137              		@ frame_needed = 0, uses_anonymous_args = 0
 138              		.loc 1 150 1 is_stmt 0 view .LVU38
 139 0000 38B5     		push	{r3, r4, r5, lr}
 140              	.LCFI2:
 141              		.cfi_def_cfa_offset 16
 142              		.cfi_offset 3, -16
 143              		.cfi_offset 4, -12
 144              		.cfi_offset 5, -8
 145              		.cfi_offset 14, -4
 146 0002 0546     		mov	r5, r0
 151:Middlewares/ST/STM32_USB_Device_Library/Core/Src/usbd_core.c ****   USBD_StatusTypeDef ret;
 147              		.loc 1 151 3 is_stmt 1 view .LVU39
 152:Middlewares/ST/STM32_USB_Device_Library/Core/Src/usbd_core.c **** 
 153:Middlewares/ST/STM32_USB_Device_Library/Core/Src/usbd_core.c ****   /* Disconnect the USB Device */
 154:Middlewares/ST/STM32_USB_Device_Library/Core/Src/usbd_core.c ****   (void)USBD_LL_Stop(pdev);
 148              		.loc 1 154 3 view .LVU40
 149              		.loc 1 154 9 is_stmt 0 view .LVU41
 150 0004 FFF7FEFF 		bl	USBD_LL_Stop
 151              	.LVL8:
 155:Middlewares/ST/STM32_USB_Device_Library/Core/Src/usbd_core.c **** 
 156:Middlewares/ST/STM32_USB_Device_Library/Core/Src/usbd_core.c ****   /* Set Default State */
 157:Middlewares/ST/STM32_USB_Device_Library/Core/Src/usbd_core.c ****   pdev->dev_state = USBD_STATE_DEFAULT;
 152              		.loc 1 157 3 is_stmt 1 view .LVU42
 153              		.loc 1 157 19 is_stmt 0 view .LVU43
 154 0008 0123     		movs	r3, #1
 155 000a 85F89C32 		strb	r3, [r5, #668]
 158:Middlewares/ST/STM32_USB_Device_Library/Core/Src/usbd_core.c **** 
 159:Middlewares/ST/STM32_USB_Device_Library/Core/Src/usbd_core.c **** #ifdef USE_USBD_COMPOSITE
 160:Middlewares/ST/STM32_USB_Device_Library/Core/Src/usbd_core.c ****   /* Parse the table of classes in use */
 161:Middlewares/ST/STM32_USB_Device_Library/Core/Src/usbd_core.c ****   for (uint32_t i = 0; i < USBD_MAX_SUPPORTED_CLASS; i++)
 156              		.loc 1 161 3 is_stmt 1 view .LVU44
 157              	.LBB3:
 158              		.loc 1 161 8 view .LVU45
 159              	.LVL9:
 160              		.loc 1 161 17 is_stmt 0 view .LVU46
 161 000e 0024     		movs	r4, #0
 162              		.loc 1 161 3 view .LVU47
 163 0010 06E0     		b	.L12
 164              	.LVL10:
 165              	.L17:
 162:Middlewares/ST/STM32_USB_Device_Library/Core/Src/usbd_core.c ****   {
 163:Middlewares/ST/STM32_USB_Device_Library/Core/Src/usbd_core.c ****     /* Check if current class is in use */
 164:Middlewares/ST/STM32_USB_Device_Library/Core/Src/usbd_core.c ****     if ((pdev->tclasslist[i].Active) == 1U)
 165:Middlewares/ST/STM32_USB_Device_Library/Core/Src/usbd_core.c ****     {
 166:Middlewares/ST/STM32_USB_Device_Library/Core/Src/usbd_core.c ****       if (pdev->pClass[i] != NULL)
 167:Middlewares/ST/STM32_USB_Device_Library/Core/Src/usbd_core.c ****       {
 168:Middlewares/ST/STM32_USB_Device_Library/Core/Src/usbd_core.c ****         pdev->classId = i;
 166              		.loc 1 168 9 is_stmt 1 view .LVU48
 167              		.loc 1 168 23 is_stmt 0 view .LVU49
 168 0012 C5F8F842 		str	r4, [r5, #760]
 169:Middlewares/ST/STM32_USB_Device_Library/Core/Src/usbd_core.c ****         /* Free Class Resources */
 170:Middlewares/ST/STM32_USB_Device_Library/Core/Src/usbd_core.c ****         pdev->pClass[i]->DeInit(pdev, (uint8_t)pdev->dev_config);
 169              		.loc 1 170 9 is_stmt 1 view .LVU50
ARM GAS  C:\Users\ADMINI~1\AppData\Local\Temp\ccOzU0Ff.s 			page 7


 170              		.loc 1 170 24 is_stmt 0 view .LVU51
 171 0016 5B68     		ldr	r3, [r3, #4]
 172              		.loc 1 170 9 view .LVU52
 173 0018 2979     		ldrb	r1, [r5, #4]	@ zero_extendqisi2
 174 001a 2846     		mov	r0, r5
 175 001c 9847     		blx	r3
 176              	.LVL11:
 177              	.L13:
 161:Middlewares/ST/STM32_USB_Device_Library/Core/Src/usbd_core.c ****   {
 178              		.loc 1 161 54 is_stmt 1 discriminator 2 view .LVU53
 161:Middlewares/ST/STM32_USB_Device_Library/Core/Src/usbd_core.c ****   {
 179              		.loc 1 161 55 is_stmt 0 discriminator 2 view .LVU54
 180 001e 0134     		adds	r4, r4, #1
 181              	.LVL12:
 182              	.L12:
 161:Middlewares/ST/STM32_USB_Device_Library/Core/Src/usbd_core.c ****   {
 183              		.loc 1 161 24 is_stmt 1 discriminator 1 view .LVU55
 161:Middlewares/ST/STM32_USB_Device_Library/Core/Src/usbd_core.c ****   {
 184              		.loc 1 161 3 is_stmt 0 discriminator 1 view .LVU56
 185 0020 032C     		cmp	r4, #3
 186 0022 0ED8     		bhi	.L16
 164:Middlewares/ST/STM32_USB_Device_Library/Core/Src/usbd_core.c ****     {
 187              		.loc 1 164 5 is_stmt 1 view .LVU57
 164:Middlewares/ST/STM32_USB_Device_Library/Core/Src/usbd_core.c ****     {
 188              		.loc 1 164 29 is_stmt 0 view .LVU58
 189 0024 C4EBC403 		rsb	r3, r4, r4, lsl #3
 190 0028 05EBC303 		add	r3, r5, r3, lsl #3
 191 002c D3F80833 		ldr	r3, [r3, #776]
 164:Middlewares/ST/STM32_USB_Device_Library/Core/Src/usbd_core.c ****     {
 192              		.loc 1 164 8 view .LVU59
 193 0030 012B     		cmp	r3, #1
 194 0032 F4D1     		bne	.L13
 166:Middlewares/ST/STM32_USB_Device_Library/Core/Src/usbd_core.c ****       {
 195              		.loc 1 166 7 is_stmt 1 view .LVU60
 166:Middlewares/ST/STM32_USB_Device_Library/Core/Src/usbd_core.c ****       {
 196              		.loc 1 166 23 is_stmt 0 view .LVU61
 197 0034 04F1AE03 		add	r3, r4, #174
 198 0038 55F82330 		ldr	r3, [r5, r3, lsl #2]
 166:Middlewares/ST/STM32_USB_Device_Library/Core/Src/usbd_core.c ****       {
 199              		.loc 1 166 10 view .LVU62
 200 003c 002B     		cmp	r3, #0
 201 003e E8D1     		bne	.L17
 202 0040 EDE7     		b	.L13
 203              	.L16:
 166:Middlewares/ST/STM32_USB_Device_Library/Core/Src/usbd_core.c ****       {
 204              		.loc 1 166 10 view .LVU63
 205              	.LBE3:
 171:Middlewares/ST/STM32_USB_Device_Library/Core/Src/usbd_core.c ****       }
 172:Middlewares/ST/STM32_USB_Device_Library/Core/Src/usbd_core.c ****     }
 173:Middlewares/ST/STM32_USB_Device_Library/Core/Src/usbd_core.c ****   }
 174:Middlewares/ST/STM32_USB_Device_Library/Core/Src/usbd_core.c **** #else
 175:Middlewares/ST/STM32_USB_Device_Library/Core/Src/usbd_core.c ****   /* Free Class Resources */
 176:Middlewares/ST/STM32_USB_Device_Library/Core/Src/usbd_core.c ****   if (pdev->pClass[0] != NULL)
 177:Middlewares/ST/STM32_USB_Device_Library/Core/Src/usbd_core.c ****   {
 178:Middlewares/ST/STM32_USB_Device_Library/Core/Src/usbd_core.c ****     pdev->pClass[0]->DeInit(pdev, (uint8_t)pdev->dev_config);
 179:Middlewares/ST/STM32_USB_Device_Library/Core/Src/usbd_core.c ****   }
 180:Middlewares/ST/STM32_USB_Device_Library/Core/Src/usbd_core.c **** 
ARM GAS  C:\Users\ADMINI~1\AppData\Local\Temp\ccOzU0Ff.s 			page 8


 181:Middlewares/ST/STM32_USB_Device_Library/Core/Src/usbd_core.c ****   pdev->pUserData[0] = NULL;
 182:Middlewares/ST/STM32_USB_Device_Library/Core/Src/usbd_core.c **** 
 183:Middlewares/ST/STM32_USB_Device_Library/Core/Src/usbd_core.c **** #endif /* USE_USBD_COMPOSITE */
 184:Middlewares/ST/STM32_USB_Device_Library/Core/Src/usbd_core.c **** 
 185:Middlewares/ST/STM32_USB_Device_Library/Core/Src/usbd_core.c ****   /* Free Device descriptors resources */
 186:Middlewares/ST/STM32_USB_Device_Library/Core/Src/usbd_core.c ****   pdev->pDesc = NULL;
 206              		.loc 1 186 3 is_stmt 1 view .LVU64
 207              		.loc 1 186 15 is_stmt 0 view .LVU65
 208 0042 0023     		movs	r3, #0
 209 0044 C5F8B432 		str	r3, [r5, #692]
 187:Middlewares/ST/STM32_USB_Device_Library/Core/Src/usbd_core.c ****   pdev->pConfDesc = NULL;
 210              		.loc 1 187 3 is_stmt 1 view .LVU66
 211              		.loc 1 187 19 is_stmt 0 view .LVU67
 212 0048 C5F8F432 		str	r3, [r5, #756]
 188:Middlewares/ST/STM32_USB_Device_Library/Core/Src/usbd_core.c **** 
 189:Middlewares/ST/STM32_USB_Device_Library/Core/Src/usbd_core.c ****   /* DeInitialize low level driver */
 190:Middlewares/ST/STM32_USB_Device_Library/Core/Src/usbd_core.c ****   ret = USBD_LL_DeInit(pdev);
 213              		.loc 1 190 3 is_stmt 1 view .LVU68
 214              		.loc 1 190 9 is_stmt 0 view .LVU69
 215 004c 2846     		mov	r0, r5
 216 004e FFF7FEFF 		bl	USBD_LL_DeInit
 217              	.LVL13:
 191:Middlewares/ST/STM32_USB_Device_Library/Core/Src/usbd_core.c **** 
 192:Middlewares/ST/STM32_USB_Device_Library/Core/Src/usbd_core.c ****   return ret;
 218              		.loc 1 192 3 is_stmt 1 view .LVU70
 193:Middlewares/ST/STM32_USB_Device_Library/Core/Src/usbd_core.c **** }
 219              		.loc 1 193 1 is_stmt 0 view .LVU71
 220 0052 38BD     		pop	{r3, r4, r5, pc}
 221              		.loc 1 193 1 view .LVU72
 222              		.cfi_endproc
 223              	.LFE135:
 225              		.section	.text.USBD_RegisterClass,"ax",%progbits
 226              		.align	1
 227              		.global	USBD_RegisterClass
 228              		.syntax unified
 229              		.thumb
 230              		.thumb_func
 232              	USBD_RegisterClass:
 233              	.LVL14:
 234              	.LFB136:
 194:Middlewares/ST/STM32_USB_Device_Library/Core/Src/usbd_core.c **** 
 195:Middlewares/ST/STM32_USB_Device_Library/Core/Src/usbd_core.c **** /**
 196:Middlewares/ST/STM32_USB_Device_Library/Core/Src/usbd_core.c ****   * @brief  USBD_RegisterClass
 197:Middlewares/ST/STM32_USB_Device_Library/Core/Src/usbd_core.c ****   *         Link class driver to Device Core.
 198:Middlewares/ST/STM32_USB_Device_Library/Core/Src/usbd_core.c ****   * @param  pDevice : Device Handle
 199:Middlewares/ST/STM32_USB_Device_Library/Core/Src/usbd_core.c ****   * @param  pclass: Class handle
 200:Middlewares/ST/STM32_USB_Device_Library/Core/Src/usbd_core.c ****   * @retval USBD Status
 201:Middlewares/ST/STM32_USB_Device_Library/Core/Src/usbd_core.c ****   */
 202:Middlewares/ST/STM32_USB_Device_Library/Core/Src/usbd_core.c **** USBD_StatusTypeDef USBD_RegisterClass(USBD_HandleTypeDef *pdev, USBD_ClassTypeDef *pclass)
 203:Middlewares/ST/STM32_USB_Device_Library/Core/Src/usbd_core.c **** {
 235              		.loc 1 203 1 is_stmt 1 view -0
 236              		.cfi_startproc
 237              		@ args = 0, pretend = 0, frame = 8
 238              		@ frame_needed = 0, uses_anonymous_args = 0
 239              		.loc 1 203 1 is_stmt 0 view .LVU74
 240 0000 10B5     		push	{r4, lr}
 241              	.LCFI3:
ARM GAS  C:\Users\ADMINI~1\AppData\Local\Temp\ccOzU0Ff.s 			page 9


 242              		.cfi_def_cfa_offset 8
 243              		.cfi_offset 4, -8
 244              		.cfi_offset 14, -4
 245 0002 82B0     		sub	sp, sp, #8
 246              	.LCFI4:
 247              		.cfi_def_cfa_offset 16
 204:Middlewares/ST/STM32_USB_Device_Library/Core/Src/usbd_core.c ****   uint16_t len = 0U;
 248              		.loc 1 204 3 is_stmt 1 view .LVU75
 249              		.loc 1 204 12 is_stmt 0 view .LVU76
 250 0004 0023     		movs	r3, #0
 251 0006 ADF80630 		strh	r3, [sp, #6]	@ movhi
 205:Middlewares/ST/STM32_USB_Device_Library/Core/Src/usbd_core.c **** 
 206:Middlewares/ST/STM32_USB_Device_Library/Core/Src/usbd_core.c ****   if (pclass == NULL)
 252              		.loc 1 206 3 is_stmt 1 view .LVU77
 253              		.loc 1 206 6 is_stmt 0 view .LVU78
 254 000a B1B1     		cbz	r1, .L21
 255 000c 0446     		mov	r4, r0
 207:Middlewares/ST/STM32_USB_Device_Library/Core/Src/usbd_core.c ****   {
 208:Middlewares/ST/STM32_USB_Device_Library/Core/Src/usbd_core.c **** #if (USBD_DEBUG_LEVEL > 1U)
 209:Middlewares/ST/STM32_USB_Device_Library/Core/Src/usbd_core.c ****     USBD_ErrLog("Invalid Class handle");
 210:Middlewares/ST/STM32_USB_Device_Library/Core/Src/usbd_core.c **** #endif /* (USBD_DEBUG_LEVEL > 1U) */
 211:Middlewares/ST/STM32_USB_Device_Library/Core/Src/usbd_core.c ****     return USBD_FAIL;
 212:Middlewares/ST/STM32_USB_Device_Library/Core/Src/usbd_core.c ****   }
 213:Middlewares/ST/STM32_USB_Device_Library/Core/Src/usbd_core.c **** 
 214:Middlewares/ST/STM32_USB_Device_Library/Core/Src/usbd_core.c ****   /* link the class to the USB Device handle */
 215:Middlewares/ST/STM32_USB_Device_Library/Core/Src/usbd_core.c ****   pdev->pClass[0] = pclass;
 256              		.loc 1 215 3 is_stmt 1 view .LVU79
 257              		.loc 1 215 19 is_stmt 0 view .LVU80
 258 000e C0F8B812 		str	r1, [r0, #696]
 216:Middlewares/ST/STM32_USB_Device_Library/Core/Src/usbd_core.c **** 
 217:Middlewares/ST/STM32_USB_Device_Library/Core/Src/usbd_core.c ****   /* Get Device Configuration Descriptor */
 218:Middlewares/ST/STM32_USB_Device_Library/Core/Src/usbd_core.c **** #ifdef USE_USB_HS
 219:Middlewares/ST/STM32_USB_Device_Library/Core/Src/usbd_core.c ****   if (pdev->pClass[pdev->classId]->GetHSConfigDescriptor != NULL)
 259              		.loc 1 219 3 is_stmt 1 view .LVU81
 260              		.loc 1 219 24 is_stmt 0 view .LVU82
 261 0012 D0F8F832 		ldr	r3, [r0, #760]
 262              		.loc 1 219 19 view .LVU83
 263 0016 AE33     		adds	r3, r3, #174
 264 0018 50F82330 		ldr	r3, [r0, r3, lsl #2]
 265              		.loc 1 219 34 view .LVU84
 266 001c 9B6A     		ldr	r3, [r3, #40]
 267              		.loc 1 219 6 view .LVU85
 268 001e 23B1     		cbz	r3, .L20
 220:Middlewares/ST/STM32_USB_Device_Library/Core/Src/usbd_core.c ****   {
 221:Middlewares/ST/STM32_USB_Device_Library/Core/Src/usbd_core.c ****     pdev->pConfDesc = (void *)pdev->pClass[pdev->classId]->GetHSConfigDescriptor(&len);
 269              		.loc 1 221 5 is_stmt 1 view .LVU86
 270              		.loc 1 221 31 is_stmt 0 view .LVU87
 271 0020 0DF10600 		add	r0, sp, #6
 272              	.LVL15:
 273              		.loc 1 221 31 view .LVU88
 274 0024 9847     		blx	r3
 275              	.LVL16:
 276              		.loc 1 221 21 view .LVU89
 277 0026 C4F8F402 		str	r0, [r4, #756]
 278              	.L20:
 222:Middlewares/ST/STM32_USB_Device_Library/Core/Src/usbd_core.c ****   }
 223:Middlewares/ST/STM32_USB_Device_Library/Core/Src/usbd_core.c **** #else /* Default USE_USB_FS */
ARM GAS  C:\Users\ADMINI~1\AppData\Local\Temp\ccOzU0Ff.s 			page 10


 224:Middlewares/ST/STM32_USB_Device_Library/Core/Src/usbd_core.c ****   if (pdev->pClass[pdev->classId]->GetFSConfigDescriptor != NULL)
 225:Middlewares/ST/STM32_USB_Device_Library/Core/Src/usbd_core.c ****   {
 226:Middlewares/ST/STM32_USB_Device_Library/Core/Src/usbd_core.c ****     pdev->pConfDesc = (void *)pdev->pClass[pdev->classId]->GetFSConfigDescriptor(&len);
 227:Middlewares/ST/STM32_USB_Device_Library/Core/Src/usbd_core.c ****   }
 228:Middlewares/ST/STM32_USB_Device_Library/Core/Src/usbd_core.c **** #endif /* USE_USB_FS */
 229:Middlewares/ST/STM32_USB_Device_Library/Core/Src/usbd_core.c **** 
 230:Middlewares/ST/STM32_USB_Device_Library/Core/Src/usbd_core.c ****   /* Increment the NumClasses */
 231:Middlewares/ST/STM32_USB_Device_Library/Core/Src/usbd_core.c ****   pdev->NumClasses ++;
 279              		.loc 1 231 3 is_stmt 1 view .LVU90
 280              		.loc 1 231 7 is_stmt 0 view .LVU91
 281 002a D4F8FC32 		ldr	r3, [r4, #764]
 282              		.loc 1 231 20 view .LVU92
 283 002e 0133     		adds	r3, r3, #1
 284 0030 C4F8FC32 		str	r3, [r4, #764]
 232:Middlewares/ST/STM32_USB_Device_Library/Core/Src/usbd_core.c **** 
 233:Middlewares/ST/STM32_USB_Device_Library/Core/Src/usbd_core.c ****   return USBD_OK;
 285              		.loc 1 233 3 is_stmt 1 view .LVU93
 286              		.loc 1 233 10 is_stmt 0 view .LVU94
 287 0034 0020     		movs	r0, #0
 288              	.LVL17:
 289              	.L19:
 234:Middlewares/ST/STM32_USB_Device_Library/Core/Src/usbd_core.c **** }
 290              		.loc 1 234 1 view .LVU95
 291 0036 02B0     		add	sp, sp, #8
 292              	.LCFI5:
 293              		.cfi_remember_state
 294              		.cfi_def_cfa_offset 8
 295              		@ sp needed
 296 0038 10BD     		pop	{r4, pc}
 297              	.LVL18:
 298              	.L21:
 299              	.LCFI6:
 300              		.cfi_restore_state
 211:Middlewares/ST/STM32_USB_Device_Library/Core/Src/usbd_core.c ****   }
 301              		.loc 1 211 12 view .LVU96
 302 003a 0320     		movs	r0, #3
 303              	.LVL19:
 211:Middlewares/ST/STM32_USB_Device_Library/Core/Src/usbd_core.c ****   }
 304              		.loc 1 211 12 view .LVU97
 305 003c FBE7     		b	.L19
 306              		.cfi_endproc
 307              	.LFE136:
 309              		.section	.text.USBD_RegisterClassComposite,"ax",%progbits
 310              		.align	1
 311              		.global	USBD_RegisterClassComposite
 312              		.syntax unified
 313              		.thumb
 314              		.thumb_func
 316              	USBD_RegisterClassComposite:
 317              	.LVL20:
 318              	.LFB137:
 235:Middlewares/ST/STM32_USB_Device_Library/Core/Src/usbd_core.c **** 
 236:Middlewares/ST/STM32_USB_Device_Library/Core/Src/usbd_core.c **** #ifdef USE_USBD_COMPOSITE
 237:Middlewares/ST/STM32_USB_Device_Library/Core/Src/usbd_core.c **** /**
 238:Middlewares/ST/STM32_USB_Device_Library/Core/Src/usbd_core.c ****   * @brief  USBD_RegisterClassComposite
 239:Middlewares/ST/STM32_USB_Device_Library/Core/Src/usbd_core.c ****   *         Link class driver to Device Core.
 240:Middlewares/ST/STM32_USB_Device_Library/Core/Src/usbd_core.c ****   * @param  pdev : Device Handle
ARM GAS  C:\Users\ADMINI~1\AppData\Local\Temp\ccOzU0Ff.s 			page 11


 241:Middlewares/ST/STM32_USB_Device_Library/Core/Src/usbd_core.c ****   * @param  pclass: Class handle
 242:Middlewares/ST/STM32_USB_Device_Library/Core/Src/usbd_core.c ****   * @param  classtype: Class type
 243:Middlewares/ST/STM32_USB_Device_Library/Core/Src/usbd_core.c ****   * @param  EpAddr: Endpoint Address handle
 244:Middlewares/ST/STM32_USB_Device_Library/Core/Src/usbd_core.c ****   * @retval USBD Status
 245:Middlewares/ST/STM32_USB_Device_Library/Core/Src/usbd_core.c ****   */
 246:Middlewares/ST/STM32_USB_Device_Library/Core/Src/usbd_core.c **** USBD_StatusTypeDef  USBD_RegisterClassComposite(USBD_HandleTypeDef *pdev, USBD_ClassTypeDef *pclass
 247:Middlewares/ST/STM32_USB_Device_Library/Core/Src/usbd_core.c ****                                                 USBD_CompositeClassTypeDef classtype, uint8_t *EpAd
 248:Middlewares/ST/STM32_USB_Device_Library/Core/Src/usbd_core.c **** {
 319              		.loc 1 248 1 is_stmt 1 view -0
 320              		.cfi_startproc
 321              		@ args = 0, pretend = 0, frame = 8
 322              		@ frame_needed = 0, uses_anonymous_args = 0
 323              		.loc 1 248 1 is_stmt 0 view .LVU99
 324 0000 30B5     		push	{r4, r5, lr}
 325              	.LCFI7:
 326              		.cfi_def_cfa_offset 12
 327              		.cfi_offset 4, -12
 328              		.cfi_offset 5, -8
 329              		.cfi_offset 14, -4
 330 0002 83B0     		sub	sp, sp, #12
 331              	.LCFI8:
 332              		.cfi_def_cfa_offset 24
 333 0004 0446     		mov	r4, r0
 249:Middlewares/ST/STM32_USB_Device_Library/Core/Src/usbd_core.c ****   USBD_StatusTypeDef   ret = USBD_OK;
 334              		.loc 1 249 3 is_stmt 1 view .LVU100
 335              	.LVL21:
 250:Middlewares/ST/STM32_USB_Device_Library/Core/Src/usbd_core.c ****   uint16_t len = 0U;
 336              		.loc 1 250 3 view .LVU101
 337              		.loc 1 250 12 is_stmt 0 view .LVU102
 338 0006 0020     		movs	r0, #0
 339              	.LVL22:
 340              		.loc 1 250 12 view .LVU103
 341 0008 ADF80600 		strh	r0, [sp, #6]	@ movhi
 251:Middlewares/ST/STM32_USB_Device_Library/Core/Src/usbd_core.c **** 
 252:Middlewares/ST/STM32_USB_Device_Library/Core/Src/usbd_core.c ****   if ((pdev->classId < USBD_MAX_SUPPORTED_CLASS) && (pdev->NumClasses < USBD_MAX_SUPPORTED_CLASS))
 342              		.loc 1 252 3 is_stmt 1 view .LVU104
 343              		.loc 1 252 12 is_stmt 0 view .LVU105
 344 000c D4F8F802 		ldr	r0, [r4, #760]
 345              		.loc 1 252 6 view .LVU106
 346 0010 0328     		cmp	r0, #3
 347 0012 1CD8     		bhi	.L24
 348              		.loc 1 252 50 discriminator 1 view .LVU107
 349 0014 D4F8FC52 		ldr	r5, [r4, #764]
 350 0018 032D     		cmp	r5, #3
 351 001a 18D8     		bhi	.L24
 253:Middlewares/ST/STM32_USB_Device_Library/Core/Src/usbd_core.c ****   {
 254:Middlewares/ST/STM32_USB_Device_Library/Core/Src/usbd_core.c ****     if ((uint32_t)pclass != 0U)
 352              		.loc 1 254 5 is_stmt 1 view .LVU108
 353              		.loc 1 254 8 is_stmt 0 view .LVU109
 354 001c 09B3     		cbz	r1, .L26
 255:Middlewares/ST/STM32_USB_Device_Library/Core/Src/usbd_core.c ****     {
 256:Middlewares/ST/STM32_USB_Device_Library/Core/Src/usbd_core.c ****       /* Link the class to the USB Device handle */
 257:Middlewares/ST/STM32_USB_Device_Library/Core/Src/usbd_core.c ****       pdev->pClass[pdev->classId] = pclass;
 355              		.loc 1 257 7 is_stmt 1 view .LVU110
 356              		.loc 1 257 35 is_stmt 0 view .LVU111
 357 001e 00F1AE0C 		add	ip, r0, #174
 358 0022 44F82C10 		str	r1, [r4, ip, lsl #2]
ARM GAS  C:\Users\ADMINI~1\AppData\Local\Temp\ccOzU0Ff.s 			page 12


 258:Middlewares/ST/STM32_USB_Device_Library/Core/Src/usbd_core.c ****       ret = USBD_OK;
 359              		.loc 1 258 7 is_stmt 1 view .LVU112
 259:Middlewares/ST/STM32_USB_Device_Library/Core/Src/usbd_core.c **** 
 260:Middlewares/ST/STM32_USB_Device_Library/Core/Src/usbd_core.c ****       pdev->tclasslist[pdev->classId].EpAdd = EpAddr;
 360              		.loc 1 260 7 view .LVU113
 361              		.loc 1 260 45 is_stmt 0 view .LVU114
 362 0026 C0EBC000 		rsb	r0, r0, r0, lsl #3
 363 002a 04EBC000 		add	r0, r4, r0, lsl #3
 364 002e C0F82433 		str	r3, [r0, #804]
 261:Middlewares/ST/STM32_USB_Device_Library/Core/Src/usbd_core.c **** 
 262:Middlewares/ST/STM32_USB_Device_Library/Core/Src/usbd_core.c ****       /* Call the composite class builder */
 263:Middlewares/ST/STM32_USB_Device_Library/Core/Src/usbd_core.c ****       (void)USBD_CMPSIT_AddClass(pdev, pclass, classtype, 0);
 365              		.loc 1 263 7 is_stmt 1 view .LVU115
 366 0032 0023     		movs	r3, #0
 367              	.LVL23:
 368              		.loc 1 263 7 is_stmt 0 view .LVU116
 369 0034 2046     		mov	r0, r4
 370              	.LVL24:
 371              		.loc 1 263 7 view .LVU117
 372 0036 FFF7FEFF 		bl	USBD_CMPSIT_AddClass
 373              	.LVL25:
 264:Middlewares/ST/STM32_USB_Device_Library/Core/Src/usbd_core.c **** 
 265:Middlewares/ST/STM32_USB_Device_Library/Core/Src/usbd_core.c ****       /* Increment the ClassId for the next occurrence */
 266:Middlewares/ST/STM32_USB_Device_Library/Core/Src/usbd_core.c ****       pdev->classId ++;
 374              		.loc 1 266 7 is_stmt 1 view .LVU118
 375              		.loc 1 266 11 is_stmt 0 view .LVU119
 376 003a D4F8F832 		ldr	r3, [r4, #760]
 377              		.loc 1 266 21 view .LVU120
 378 003e 0133     		adds	r3, r3, #1
 379 0040 C4F8F832 		str	r3, [r4, #760]
 267:Middlewares/ST/STM32_USB_Device_Library/Core/Src/usbd_core.c ****       pdev->NumClasses ++;
 380              		.loc 1 267 7 is_stmt 1 view .LVU121
 381              		.loc 1 267 11 is_stmt 0 view .LVU122
 382 0044 D4F8FC32 		ldr	r3, [r4, #764]
 383              		.loc 1 267 24 view .LVU123
 384 0048 0133     		adds	r3, r3, #1
 385 004a C4F8FC32 		str	r3, [r4, #764]
 268:Middlewares/ST/STM32_USB_Device_Library/Core/Src/usbd_core.c ****     }
 269:Middlewares/ST/STM32_USB_Device_Library/Core/Src/usbd_core.c ****     else
 270:Middlewares/ST/STM32_USB_Device_Library/Core/Src/usbd_core.c ****     {
 271:Middlewares/ST/STM32_USB_Device_Library/Core/Src/usbd_core.c **** #if (USBD_DEBUG_LEVEL > 1U)
 272:Middlewares/ST/STM32_USB_Device_Library/Core/Src/usbd_core.c ****       USBD_ErrLog("Invalid Class handle");
 273:Middlewares/ST/STM32_USB_Device_Library/Core/Src/usbd_core.c **** #endif /* (USBD_DEBUG_LEVEL > 1U) */
 274:Middlewares/ST/STM32_USB_Device_Library/Core/Src/usbd_core.c ****       ret = USBD_FAIL;
 275:Middlewares/ST/STM32_USB_Device_Library/Core/Src/usbd_core.c ****     }
 276:Middlewares/ST/STM32_USB_Device_Library/Core/Src/usbd_core.c ****   }
 277:Middlewares/ST/STM32_USB_Device_Library/Core/Src/usbd_core.c **** 
 278:Middlewares/ST/STM32_USB_Device_Library/Core/Src/usbd_core.c ****   if (ret == USBD_OK)
 386              		.loc 1 278 3 is_stmt 1 view .LVU124
 387              	.L24:
 388              	.LVL26:
 279:Middlewares/ST/STM32_USB_Device_Library/Core/Src/usbd_core.c ****   {
 280:Middlewares/ST/STM32_USB_Device_Library/Core/Src/usbd_core.c ****     /* Get Device Configuration Descriptor */
 281:Middlewares/ST/STM32_USB_Device_Library/Core/Src/usbd_core.c **** #ifdef USE_USB_HS
 282:Middlewares/ST/STM32_USB_Device_Library/Core/Src/usbd_core.c ****     pdev->pConfDesc = USBD_CMPSIT.GetHSConfigDescriptor(&len);
 389              		.loc 1 282 5 view .LVU125
 390              		.loc 1 282 34 is_stmt 0 view .LVU126
ARM GAS  C:\Users\ADMINI~1\AppData\Local\Temp\ccOzU0Ff.s 			page 13


 391 004e 064B     		ldr	r3, .L28
 392 0050 9B6A     		ldr	r3, [r3, #40]
 393              		.loc 1 282 23 view .LVU127
 394 0052 0DF10600 		add	r0, sp, #6
 395 0056 9847     		blx	r3
 396              	.LVL27:
 397              		.loc 1 282 21 view .LVU128
 398 0058 C4F8F402 		str	r0, [r4, #756]
 399 005c 0020     		movs	r0, #0
 400              	.L25:
 283:Middlewares/ST/STM32_USB_Device_Library/Core/Src/usbd_core.c **** #else /* Default USE_USB_FS */
 284:Middlewares/ST/STM32_USB_Device_Library/Core/Src/usbd_core.c ****     pdev->pConfDesc = USBD_CMPSIT.GetFSConfigDescriptor(&len);
 285:Middlewares/ST/STM32_USB_Device_Library/Core/Src/usbd_core.c **** #endif /* USE_USB_FS */
 286:Middlewares/ST/STM32_USB_Device_Library/Core/Src/usbd_core.c ****   }
 287:Middlewares/ST/STM32_USB_Device_Library/Core/Src/usbd_core.c **** 
 288:Middlewares/ST/STM32_USB_Device_Library/Core/Src/usbd_core.c ****   return ret;
 401              		.loc 1 288 3 is_stmt 1 view .LVU129
 289:Middlewares/ST/STM32_USB_Device_Library/Core/Src/usbd_core.c **** }
 402              		.loc 1 289 1 is_stmt 0 view .LVU130
 403 005e 03B0     		add	sp, sp, #12
 404              	.LCFI9:
 405              		.cfi_remember_state
 406              		.cfi_def_cfa_offset 12
 407              		@ sp needed
 408 0060 30BD     		pop	{r4, r5, pc}
 409              	.LVL28:
 410              	.L26:
 411              	.LCFI10:
 412              		.cfi_restore_state
 274:Middlewares/ST/STM32_USB_Device_Library/Core/Src/usbd_core.c ****     }
 413              		.loc 1 274 11 view .LVU131
 414 0062 0320     		movs	r0, #3
 415 0064 FBE7     		b	.L25
 416              	.L29:
 417 0066 00BF     		.align	2
 418              	.L28:
 419 0068 00000000 		.word	USBD_CMPSIT
 420              		.cfi_endproc
 421              	.LFE137:
 423              		.section	.text.USBD_UnRegisterClassComposite,"ax",%progbits
 424              		.align	1
 425              		.global	USBD_UnRegisterClassComposite
 426              		.syntax unified
 427              		.thumb
 428              		.thumb_func
 430              	USBD_UnRegisterClassComposite:
 431              	.LVL29:
 432              	.LFB138:
 290:Middlewares/ST/STM32_USB_Device_Library/Core/Src/usbd_core.c **** 
 291:Middlewares/ST/STM32_USB_Device_Library/Core/Src/usbd_core.c **** /**
 292:Middlewares/ST/STM32_USB_Device_Library/Core/Src/usbd_core.c ****   * @brief  USBD_UnRegisterClassComposite
 293:Middlewares/ST/STM32_USB_Device_Library/Core/Src/usbd_core.c ****   *         UnLink all composite class drivers from Device Core.
 294:Middlewares/ST/STM32_USB_Device_Library/Core/Src/usbd_core.c ****   * @param  pDevice : Device Handle
 295:Middlewares/ST/STM32_USB_Device_Library/Core/Src/usbd_core.c ****   * @retval USBD Status
 296:Middlewares/ST/STM32_USB_Device_Library/Core/Src/usbd_core.c ****   */
 297:Middlewares/ST/STM32_USB_Device_Library/Core/Src/usbd_core.c **** USBD_StatusTypeDef  USBD_UnRegisterClassComposite(USBD_HandleTypeDef *pdev)
 298:Middlewares/ST/STM32_USB_Device_Library/Core/Src/usbd_core.c **** {
ARM GAS  C:\Users\ADMINI~1\AppData\Local\Temp\ccOzU0Ff.s 			page 14


 433              		.loc 1 298 1 is_stmt 1 view -0
 434              		.cfi_startproc
 435              		@ args = 0, pretend = 0, frame = 0
 436              		@ frame_needed = 0, uses_anonymous_args = 0
 437              		.loc 1 298 1 is_stmt 0 view .LVU133
 438 0000 38B5     		push	{r3, r4, r5, lr}
 439              	.LCFI11:
 440              		.cfi_def_cfa_offset 16
 441              		.cfi_offset 3, -16
 442              		.cfi_offset 4, -12
 443              		.cfi_offset 5, -8
 444              		.cfi_offset 14, -4
 445 0002 0546     		mov	r5, r0
 299:Middlewares/ST/STM32_USB_Device_Library/Core/Src/usbd_core.c ****   USBD_StatusTypeDef   ret = USBD_FAIL;
 446              		.loc 1 299 3 is_stmt 1 view .LVU134
 447              	.LVL30:
 300:Middlewares/ST/STM32_USB_Device_Library/Core/Src/usbd_core.c ****   uint8_t idx1;
 448              		.loc 1 300 3 view .LVU135
 301:Middlewares/ST/STM32_USB_Device_Library/Core/Src/usbd_core.c ****   uint8_t idx2;
 449              		.loc 1 301 3 view .LVU136
 302:Middlewares/ST/STM32_USB_Device_Library/Core/Src/usbd_core.c **** 
 303:Middlewares/ST/STM32_USB_Device_Library/Core/Src/usbd_core.c ****   /* Unroll all activated classes */
 304:Middlewares/ST/STM32_USB_Device_Library/Core/Src/usbd_core.c ****   for (idx1 = 0; idx1 < pdev->NumClasses; idx1++)
 450              		.loc 1 304 3 view .LVU137
 451              		.loc 1 304 13 is_stmt 0 view .LVU138
 452 0004 0024     		movs	r4, #0
 453              		.loc 1 304 3 view .LVU139
 454 0006 20E0     		b	.L31
 455              	.LVL31:
 456              	.L35:
 305:Middlewares/ST/STM32_USB_Device_Library/Core/Src/usbd_core.c ****   {
 306:Middlewares/ST/STM32_USB_Device_Library/Core/Src/usbd_core.c ****     /* Check if the class correspond to the requested type and if it is active */
 307:Middlewares/ST/STM32_USB_Device_Library/Core/Src/usbd_core.c ****     if (pdev->tclasslist[idx1].Active == 1U)
 308:Middlewares/ST/STM32_USB_Device_Library/Core/Src/usbd_core.c ****     {
 309:Middlewares/ST/STM32_USB_Device_Library/Core/Src/usbd_core.c ****       /* Set the new class ID */
 310:Middlewares/ST/STM32_USB_Device_Library/Core/Src/usbd_core.c ****       pdev->classId = idx1;
 311:Middlewares/ST/STM32_USB_Device_Library/Core/Src/usbd_core.c **** 
 312:Middlewares/ST/STM32_USB_Device_Library/Core/Src/usbd_core.c ****       /* Free resources used by the selected class */
 313:Middlewares/ST/STM32_USB_Device_Library/Core/Src/usbd_core.c ****       if (pdev->pClass[pdev->classId] != NULL)
 314:Middlewares/ST/STM32_USB_Device_Library/Core/Src/usbd_core.c ****       {
 315:Middlewares/ST/STM32_USB_Device_Library/Core/Src/usbd_core.c ****         /* Free Class Resources */
 316:Middlewares/ST/STM32_USB_Device_Library/Core/Src/usbd_core.c ****         if (pdev->pClass[pdev->classId]->DeInit(pdev, (uint8_t)pdev->dev_config) != 0U)
 317:Middlewares/ST/STM32_USB_Device_Library/Core/Src/usbd_core.c ****         {
 318:Middlewares/ST/STM32_USB_Device_Library/Core/Src/usbd_core.c **** #if (USBD_DEBUG_LEVEL > 1U)
 319:Middlewares/ST/STM32_USB_Device_Library/Core/Src/usbd_core.c ****           USBD_ErrLog("Class DeInit didn't succeed!, can't unregister selected class");
 320:Middlewares/ST/STM32_USB_Device_Library/Core/Src/usbd_core.c **** #endif /* (USBD_DEBUG_LEVEL > 1U) */
 321:Middlewares/ST/STM32_USB_Device_Library/Core/Src/usbd_core.c **** 
 322:Middlewares/ST/STM32_USB_Device_Library/Core/Src/usbd_core.c ****           ret = USBD_FAIL;
 323:Middlewares/ST/STM32_USB_Device_Library/Core/Src/usbd_core.c ****         }
 324:Middlewares/ST/STM32_USB_Device_Library/Core/Src/usbd_core.c ****       }
 325:Middlewares/ST/STM32_USB_Device_Library/Core/Src/usbd_core.c **** 
 326:Middlewares/ST/STM32_USB_Device_Library/Core/Src/usbd_core.c ****       /* Free the class pointer */
 327:Middlewares/ST/STM32_USB_Device_Library/Core/Src/usbd_core.c ****       pdev->pClass[pdev->classId] = NULL;
 328:Middlewares/ST/STM32_USB_Device_Library/Core/Src/usbd_core.c **** 
 329:Middlewares/ST/STM32_USB_Device_Library/Core/Src/usbd_core.c ****       /* Free the class location in classes table and reset its parameters to zero */
 330:Middlewares/ST/STM32_USB_Device_Library/Core/Src/usbd_core.c ****       pdev->tclasslist[pdev->classId].ClassType = CLASS_TYPE_NONE;
 331:Middlewares/ST/STM32_USB_Device_Library/Core/Src/usbd_core.c ****       pdev->tclasslist[pdev->classId].ClassId = 0U;
ARM GAS  C:\Users\ADMINI~1\AppData\Local\Temp\ccOzU0Ff.s 			page 15


 332:Middlewares/ST/STM32_USB_Device_Library/Core/Src/usbd_core.c ****       pdev->tclasslist[pdev->classId].Active = 0U;
 333:Middlewares/ST/STM32_USB_Device_Library/Core/Src/usbd_core.c ****       pdev->tclasslist[pdev->classId].NumEps = 0U;
 334:Middlewares/ST/STM32_USB_Device_Library/Core/Src/usbd_core.c ****       pdev->tclasslist[pdev->classId].NumIf = 0U;
 335:Middlewares/ST/STM32_USB_Device_Library/Core/Src/usbd_core.c ****       pdev->tclasslist[pdev->classId].CurrPcktSze = 0U;
 336:Middlewares/ST/STM32_USB_Device_Library/Core/Src/usbd_core.c **** 
 337:Middlewares/ST/STM32_USB_Device_Library/Core/Src/usbd_core.c ****       for (idx2 = 0U; idx2 < USBD_MAX_CLASS_ENDPOINTS; idx2++)
 338:Middlewares/ST/STM32_USB_Device_Library/Core/Src/usbd_core.c ****       {
 339:Middlewares/ST/STM32_USB_Device_Library/Core/Src/usbd_core.c ****         pdev->tclasslist[pdev->classId].Eps[idx2].add = 0U;
 457              		.loc 1 339 9 is_stmt 1 discriminator 3 view .LVU140
 458              		.loc 1 339 55 is_stmt 0 discriminator 3 view .LVU141
 459 0008 C1EBC103 		rsb	r3, r1, r1, lsl #3
 460 000c 02EB4303 		add	r3, r2, r3, lsl #1
 461 0010 C433     		adds	r3, r3, #196
 462 0012 0020     		movs	r0, #0
 463 0014 05F82300 		strb	r0, [r5, r3, lsl #2]
 340:Middlewares/ST/STM32_USB_Device_Library/Core/Src/usbd_core.c ****         pdev->tclasslist[pdev->classId].Eps[idx2].type = 0U;
 464              		.loc 1 340 9 is_stmt 1 discriminator 3 view .LVU142
 465              		.loc 1 340 56 is_stmt 0 discriminator 3 view .LVU143
 466 0018 05EB8303 		add	r3, r5, r3, lsl #2
 467 001c 5870     		strb	r0, [r3, #1]
 341:Middlewares/ST/STM32_USB_Device_Library/Core/Src/usbd_core.c ****         pdev->tclasslist[pdev->classId].Eps[idx2].size = 0U;
 468              		.loc 1 341 9 is_stmt 1 discriminator 3 view .LVU144
 469              		.loc 1 341 56 is_stmt 0 discriminator 3 view .LVU145
 470 001e 9870     		strb	r0, [r3, #2]
 342:Middlewares/ST/STM32_USB_Device_Library/Core/Src/usbd_core.c ****         pdev->tclasslist[pdev->classId].Eps[idx2].is_used = 0U;
 471              		.loc 1 342 9 is_stmt 1 discriminator 3 view .LVU146
 472              		.loc 1 342 59 is_stmt 0 discriminator 3 view .LVU147
 473 0020 D870     		strb	r0, [r3, #3]
 337:Middlewares/ST/STM32_USB_Device_Library/Core/Src/usbd_core.c ****       {
 474              		.loc 1 337 56 is_stmt 1 discriminator 3 view .LVU148
 337:Middlewares/ST/STM32_USB_Device_Library/Core/Src/usbd_core.c ****       {
 475              		.loc 1 337 60 is_stmt 0 discriminator 3 view .LVU149
 476 0022 0132     		adds	r2, r2, #1
 477              	.LVL32:
 337:Middlewares/ST/STM32_USB_Device_Library/Core/Src/usbd_core.c ****       {
 478              		.loc 1 337 60 discriminator 3 view .LVU150
 479 0024 D2B2     		uxtb	r2, r2
 480              	.LVL33:
 481              	.L34:
 337:Middlewares/ST/STM32_USB_Device_Library/Core/Src/usbd_core.c ****       {
 482              		.loc 1 337 23 is_stmt 1 discriminator 1 view .LVU151
 337:Middlewares/ST/STM32_USB_Device_Library/Core/Src/usbd_core.c ****       {
 483              		.loc 1 337 7 is_stmt 0 discriminator 1 view .LVU152
 484 0026 042A     		cmp	r2, #4
 485 0028 EED9     		bls	.L35
 343:Middlewares/ST/STM32_USB_Device_Library/Core/Src/usbd_core.c ****       }
 344:Middlewares/ST/STM32_USB_Device_Library/Core/Src/usbd_core.c **** 
 345:Middlewares/ST/STM32_USB_Device_Library/Core/Src/usbd_core.c ****       for (idx2 = 0U; idx2 < USBD_MAX_CLASS_INTERFACES; idx2++)
 486              		.loc 1 345 17 view .LVU153
 487 002a 0023     		movs	r3, #0
 488 002c 09E0     		b	.L36
 489              	.LVL34:
 490              	.L37:
 346:Middlewares/ST/STM32_USB_Device_Library/Core/Src/usbd_core.c ****       {
 347:Middlewares/ST/STM32_USB_Device_Library/Core/Src/usbd_core.c ****         pdev->tclasslist[pdev->classId].Ifs[idx2] = 0U;
 491              		.loc 1 347 9 is_stmt 1 discriminator 3 view .LVU154
 492              		.loc 1 347 51 is_stmt 0 discriminator 3 view .LVU155
ARM GAS  C:\Users\ADMINI~1\AppData\Local\Temp\ccOzU0Ff.s 			page 16


 493 002e C1EBC102 		rsb	r2, r1, r1, lsl #3
 494 0032 05EBC202 		add	r2, r5, r2, lsl #3
 495 0036 1A44     		add	r2, r2, r3
 496 0038 0020     		movs	r0, #0
 497 003a 82F82C03 		strb	r0, [r2, #812]
 345:Middlewares/ST/STM32_USB_Device_Library/Core/Src/usbd_core.c ****       {
 498              		.loc 1 345 57 is_stmt 1 discriminator 3 view .LVU156
 345:Middlewares/ST/STM32_USB_Device_Library/Core/Src/usbd_core.c ****       {
 499              		.loc 1 345 61 is_stmt 0 discriminator 3 view .LVU157
 500 003e 0133     		adds	r3, r3, #1
 501              	.LVL35:
 345:Middlewares/ST/STM32_USB_Device_Library/Core/Src/usbd_core.c ****       {
 502              		.loc 1 345 61 discriminator 3 view .LVU158
 503 0040 DBB2     		uxtb	r3, r3
 504              	.LVL36:
 505              	.L36:
 345:Middlewares/ST/STM32_USB_Device_Library/Core/Src/usbd_core.c ****       {
 506              		.loc 1 345 23 is_stmt 1 discriminator 1 view .LVU159
 345:Middlewares/ST/STM32_USB_Device_Library/Core/Src/usbd_core.c ****       {
 507              		.loc 1 345 7 is_stmt 0 discriminator 1 view .LVU160
 508 0042 042B     		cmp	r3, #4
 509 0044 F3D9     		bls	.L37
 510              	.LVL37:
 511              	.L32:
 304:Middlewares/ST/STM32_USB_Device_Library/Core/Src/usbd_core.c ****   {
 512              		.loc 1 304 43 is_stmt 1 discriminator 2 view .LVU161
 304:Middlewares/ST/STM32_USB_Device_Library/Core/Src/usbd_core.c ****   {
 513              		.loc 1 304 47 is_stmt 0 discriminator 2 view .LVU162
 514 0046 0134     		adds	r4, r4, #1
 515              	.LVL38:
 304:Middlewares/ST/STM32_USB_Device_Library/Core/Src/usbd_core.c ****   {
 516              		.loc 1 304 47 discriminator 2 view .LVU163
 517 0048 E4B2     		uxtb	r4, r4
 518              	.LVL39:
 519              	.L31:
 304:Middlewares/ST/STM32_USB_Device_Library/Core/Src/usbd_core.c ****   {
 520              		.loc 1 304 18 is_stmt 1 discriminator 1 view .LVU164
 304:Middlewares/ST/STM32_USB_Device_Library/Core/Src/usbd_core.c ****   {
 521              		.loc 1 304 23 is_stmt 0 discriminator 1 view .LVU165
 522 004a 2246     		mov	r2, r4
 304:Middlewares/ST/STM32_USB_Device_Library/Core/Src/usbd_core.c ****   {
 523              		.loc 1 304 29 discriminator 1 view .LVU166
 524 004c D5F8FC32 		ldr	r3, [r5, #764]
 304:Middlewares/ST/STM32_USB_Device_Library/Core/Src/usbd_core.c ****   {
 525              		.loc 1 304 3 discriminator 1 view .LVU167
 526 0050 9C42     		cmp	r4, r3
 527 0052 29D2     		bcs	.L40
 307:Middlewares/ST/STM32_USB_Device_Library/Core/Src/usbd_core.c ****     {
 528              		.loc 1 307 5 is_stmt 1 view .LVU168
 307:Middlewares/ST/STM32_USB_Device_Library/Core/Src/usbd_core.c ****     {
 529              		.loc 1 307 31 is_stmt 0 view .LVU169
 530 0054 C4EBC403 		rsb	r3, r4, r4, lsl #3
 531 0058 05EBC303 		add	r3, r5, r3, lsl #3
 532 005c D3F80833 		ldr	r3, [r3, #776]
 307:Middlewares/ST/STM32_USB_Device_Library/Core/Src/usbd_core.c ****     {
 533              		.loc 1 307 8 view .LVU170
 534 0060 012B     		cmp	r3, #1
ARM GAS  C:\Users\ADMINI~1\AppData\Local\Temp\ccOzU0Ff.s 			page 17


 535 0062 F0D1     		bne	.L32
 310:Middlewares/ST/STM32_USB_Device_Library/Core/Src/usbd_core.c **** 
 536              		.loc 1 310 7 is_stmt 1 view .LVU171
 310:Middlewares/ST/STM32_USB_Device_Library/Core/Src/usbd_core.c **** 
 537              		.loc 1 310 21 is_stmt 0 view .LVU172
 538 0064 C5F8F822 		str	r2, [r5, #760]
 313:Middlewares/ST/STM32_USB_Device_Library/Core/Src/usbd_core.c ****       {
 539              		.loc 1 313 7 is_stmt 1 view .LVU173
 313:Middlewares/ST/STM32_USB_Device_Library/Core/Src/usbd_core.c ****       {
 540              		.loc 1 313 23 is_stmt 0 view .LVU174
 541 0068 AE32     		adds	r2, r2, #174
 542 006a 55F82230 		ldr	r3, [r5, r2, lsl #2]
 313:Middlewares/ST/STM32_USB_Device_Library/Core/Src/usbd_core.c ****       {
 543              		.loc 1 313 10 view .LVU175
 544 006e 1BB1     		cbz	r3, .L33
 316:Middlewares/ST/STM32_USB_Device_Library/Core/Src/usbd_core.c ****         {
 545              		.loc 1 316 9 is_stmt 1 view .LVU176
 316:Middlewares/ST/STM32_USB_Device_Library/Core/Src/usbd_core.c ****         {
 546              		.loc 1 316 40 is_stmt 0 view .LVU177
 547 0070 5B68     		ldr	r3, [r3, #4]
 316:Middlewares/ST/STM32_USB_Device_Library/Core/Src/usbd_core.c ****         {
 548              		.loc 1 316 13 view .LVU178
 549 0072 2979     		ldrb	r1, [r5, #4]	@ zero_extendqisi2
 550 0074 2846     		mov	r0, r5
 551 0076 9847     		blx	r3
 552              	.LVL40:
 553              	.L33:
 327:Middlewares/ST/STM32_USB_Device_Library/Core/Src/usbd_core.c **** 
 554              		.loc 1 327 7 is_stmt 1 view .LVU179
 327:Middlewares/ST/STM32_USB_Device_Library/Core/Src/usbd_core.c **** 
 555              		.loc 1 327 24 is_stmt 0 view .LVU180
 556 0078 D5F8F812 		ldr	r1, [r5, #760]
 327:Middlewares/ST/STM32_USB_Device_Library/Core/Src/usbd_core.c **** 
 557              		.loc 1 327 35 view .LVU181
 558 007c 01F1AE03 		add	r3, r1, #174
 559 0080 0022     		movs	r2, #0
 560 0082 45F82320 		str	r2, [r5, r3, lsl #2]
 330:Middlewares/ST/STM32_USB_Device_Library/Core/Src/usbd_core.c ****       pdev->tclasslist[pdev->classId].ClassId = 0U;
 561              		.loc 1 330 7 is_stmt 1 view .LVU182
 330:Middlewares/ST/STM32_USB_Device_Library/Core/Src/usbd_core.c ****       pdev->tclasslist[pdev->classId].ClassId = 0U;
 562              		.loc 1 330 49 is_stmt 0 view .LVU183
 563 0086 C1EBC103 		rsb	r3, r1, r1, lsl #3
 564 008a 05EBC303 		add	r3, r5, r3, lsl #3
 565 008e 83F80023 		strb	r2, [r3, #768]
 331:Middlewares/ST/STM32_USB_Device_Library/Core/Src/usbd_core.c ****       pdev->tclasslist[pdev->classId].Active = 0U;
 566              		.loc 1 331 7 is_stmt 1 view .LVU184
 331:Middlewares/ST/STM32_USB_Device_Library/Core/Src/usbd_core.c ****       pdev->tclasslist[pdev->classId].Active = 0U;
 567              		.loc 1 331 47 is_stmt 0 view .LVU185
 568 0092 C3F80423 		str	r2, [r3, #772]
 332:Middlewares/ST/STM32_USB_Device_Library/Core/Src/usbd_core.c ****       pdev->tclasslist[pdev->classId].NumEps = 0U;
 569              		.loc 1 332 7 is_stmt 1 view .LVU186
 332:Middlewares/ST/STM32_USB_Device_Library/Core/Src/usbd_core.c ****       pdev->tclasslist[pdev->classId].NumEps = 0U;
 570              		.loc 1 332 46 is_stmt 0 view .LVU187
 571 0096 C3F80823 		str	r2, [r3, #776]
 333:Middlewares/ST/STM32_USB_Device_Library/Core/Src/usbd_core.c ****       pdev->tclasslist[pdev->classId].NumIf = 0U;
 572              		.loc 1 333 7 is_stmt 1 view .LVU188
 333:Middlewares/ST/STM32_USB_Device_Library/Core/Src/usbd_core.c ****       pdev->tclasslist[pdev->classId].NumIf = 0U;
ARM GAS  C:\Users\ADMINI~1\AppData\Local\Temp\ccOzU0Ff.s 			page 18


 573              		.loc 1 333 46 is_stmt 0 view .LVU189
 574 009a C3F80C23 		str	r2, [r3, #780]
 334:Middlewares/ST/STM32_USB_Device_Library/Core/Src/usbd_core.c ****       pdev->tclasslist[pdev->classId].CurrPcktSze = 0U;
 575              		.loc 1 334 7 is_stmt 1 view .LVU190
 334:Middlewares/ST/STM32_USB_Device_Library/Core/Src/usbd_core.c ****       pdev->tclasslist[pdev->classId].CurrPcktSze = 0U;
 576              		.loc 1 334 45 is_stmt 0 view .LVU191
 577 009e C3F82823 		str	r2, [r3, #808]
 335:Middlewares/ST/STM32_USB_Device_Library/Core/Src/usbd_core.c **** 
 578              		.loc 1 335 7 is_stmt 1 view .LVU192
 335:Middlewares/ST/STM32_USB_Device_Library/Core/Src/usbd_core.c **** 
 579              		.loc 1 335 51 is_stmt 0 view .LVU193
 580 00a2 C3F83423 		str	r2, [r3, #820]
 337:Middlewares/ST/STM32_USB_Device_Library/Core/Src/usbd_core.c ****       {
 581              		.loc 1 337 7 is_stmt 1 view .LVU194
 582              	.LVL41:
 337:Middlewares/ST/STM32_USB_Device_Library/Core/Src/usbd_core.c ****       {
 583              		.loc 1 337 7 is_stmt 0 view .LVU195
 584 00a6 BEE7     		b	.L34
 585              	.LVL42:
 586              	.L40:
 348:Middlewares/ST/STM32_USB_Device_Library/Core/Src/usbd_core.c ****       }
 349:Middlewares/ST/STM32_USB_Device_Library/Core/Src/usbd_core.c ****     }
 350:Middlewares/ST/STM32_USB_Device_Library/Core/Src/usbd_core.c ****   }
 351:Middlewares/ST/STM32_USB_Device_Library/Core/Src/usbd_core.c **** 
 352:Middlewares/ST/STM32_USB_Device_Library/Core/Src/usbd_core.c ****   /* Reset the configuration descriptor */
 353:Middlewares/ST/STM32_USB_Device_Library/Core/Src/usbd_core.c ****   (void)USBD_CMPST_ClearConfDesc(pdev);
 587              		.loc 1 353 3 is_stmt 1 view .LVU196
 588 00a8 2846     		mov	r0, r5
 589 00aa FFF7FEFF 		bl	USBD_CMPST_ClearConfDesc
 590              	.LVL43:
 354:Middlewares/ST/STM32_USB_Device_Library/Core/Src/usbd_core.c **** 
 355:Middlewares/ST/STM32_USB_Device_Library/Core/Src/usbd_core.c ****   /* Reset the class ID and number of classes */
 356:Middlewares/ST/STM32_USB_Device_Library/Core/Src/usbd_core.c ****   pdev->classId = 0U;
 591              		.loc 1 356 3 view .LVU197
 592              		.loc 1 356 17 is_stmt 0 view .LVU198
 593 00ae 0023     		movs	r3, #0
 594 00b0 C5F8F832 		str	r3, [r5, #760]
 357:Middlewares/ST/STM32_USB_Device_Library/Core/Src/usbd_core.c ****   pdev->NumClasses = 0U;
 595              		.loc 1 357 3 is_stmt 1 view .LVU199
 596              		.loc 1 357 20 is_stmt 0 view .LVU200
 597 00b4 C5F8FC32 		str	r3, [r5, #764]
 358:Middlewares/ST/STM32_USB_Device_Library/Core/Src/usbd_core.c **** 
 359:Middlewares/ST/STM32_USB_Device_Library/Core/Src/usbd_core.c ****   return ret;
 598              		.loc 1 359 3 is_stmt 1 view .LVU201
 360:Middlewares/ST/STM32_USB_Device_Library/Core/Src/usbd_core.c **** }
 599              		.loc 1 360 1 is_stmt 0 view .LVU202
 600 00b8 0320     		movs	r0, #3
 601 00ba 38BD     		pop	{r3, r4, r5, pc}
 602              		.loc 1 360 1 view .LVU203
 603              		.cfi_endproc
 604              	.LFE138:
 606              		.section	.text.USBD_Start,"ax",%progbits
 607              		.align	1
 608              		.global	USBD_Start
 609              		.syntax unified
 610              		.thumb
 611              		.thumb_func
ARM GAS  C:\Users\ADMINI~1\AppData\Local\Temp\ccOzU0Ff.s 			page 19


 613              	USBD_Start:
 614              	.LVL44:
 615              	.LFB139:
 361:Middlewares/ST/STM32_USB_Device_Library/Core/Src/usbd_core.c **** 
 362:Middlewares/ST/STM32_USB_Device_Library/Core/Src/usbd_core.c **** 
 363:Middlewares/ST/STM32_USB_Device_Library/Core/Src/usbd_core.c **** #endif /* USE_USBD_COMPOSITE */
 364:Middlewares/ST/STM32_USB_Device_Library/Core/Src/usbd_core.c **** 
 365:Middlewares/ST/STM32_USB_Device_Library/Core/Src/usbd_core.c **** /**
 366:Middlewares/ST/STM32_USB_Device_Library/Core/Src/usbd_core.c ****   * @brief  USBD_Start
 367:Middlewares/ST/STM32_USB_Device_Library/Core/Src/usbd_core.c ****   *         Start the USB Device Core.
 368:Middlewares/ST/STM32_USB_Device_Library/Core/Src/usbd_core.c ****   * @param  pdev: Device Handle
 369:Middlewares/ST/STM32_USB_Device_Library/Core/Src/usbd_core.c ****   * @retval USBD Status
 370:Middlewares/ST/STM32_USB_Device_Library/Core/Src/usbd_core.c ****   */
 371:Middlewares/ST/STM32_USB_Device_Library/Core/Src/usbd_core.c **** USBD_StatusTypeDef USBD_Start(USBD_HandleTypeDef *pdev)
 372:Middlewares/ST/STM32_USB_Device_Library/Core/Src/usbd_core.c **** {
 616              		.loc 1 372 1 is_stmt 1 view -0
 617              		.cfi_startproc
 618              		@ args = 0, pretend = 0, frame = 0
 619              		@ frame_needed = 0, uses_anonymous_args = 0
 620              		.loc 1 372 1 is_stmt 0 view .LVU205
 621 0000 08B5     		push	{r3, lr}
 622              	.LCFI12:
 623              		.cfi_def_cfa_offset 8
 624              		.cfi_offset 3, -8
 625              		.cfi_offset 14, -4
 373:Middlewares/ST/STM32_USB_Device_Library/Core/Src/usbd_core.c **** #ifdef USE_USBD_COMPOSITE
 374:Middlewares/ST/STM32_USB_Device_Library/Core/Src/usbd_core.c ****   pdev->classId = 0U;
 626              		.loc 1 374 3 is_stmt 1 view .LVU206
 627              		.loc 1 374 17 is_stmt 0 view .LVU207
 628 0002 0022     		movs	r2, #0
 629 0004 C0F8F822 		str	r2, [r0, #760]
 375:Middlewares/ST/STM32_USB_Device_Library/Core/Src/usbd_core.c **** #endif /* USE_USBD_COMPOSITE */
 376:Middlewares/ST/STM32_USB_Device_Library/Core/Src/usbd_core.c **** 
 377:Middlewares/ST/STM32_USB_Device_Library/Core/Src/usbd_core.c ****   /* Start the low level driver  */
 378:Middlewares/ST/STM32_USB_Device_Library/Core/Src/usbd_core.c ****   return USBD_LL_Start(pdev);
 630              		.loc 1 378 3 is_stmt 1 view .LVU208
 631              		.loc 1 378 10 is_stmt 0 view .LVU209
 632 0008 FFF7FEFF 		bl	USBD_LL_Start
 633              	.LVL45:
 379:Middlewares/ST/STM32_USB_Device_Library/Core/Src/usbd_core.c **** }
 634              		.loc 1 379 1 view .LVU210
 635 000c 08BD     		pop	{r3, pc}
 636              		.cfi_endproc
 637              	.LFE139:
 639              		.section	.text.USBD_Stop,"ax",%progbits
 640              		.align	1
 641              		.global	USBD_Stop
 642              		.syntax unified
 643              		.thumb
 644              		.thumb_func
 646              	USBD_Stop:
 647              	.LVL46:
 648              	.LFB140:
 380:Middlewares/ST/STM32_USB_Device_Library/Core/Src/usbd_core.c **** 
 381:Middlewares/ST/STM32_USB_Device_Library/Core/Src/usbd_core.c **** /**
 382:Middlewares/ST/STM32_USB_Device_Library/Core/Src/usbd_core.c ****   * @brief  USBD_Stop
 383:Middlewares/ST/STM32_USB_Device_Library/Core/Src/usbd_core.c ****   *         Stop the USB Device Core.
ARM GAS  C:\Users\ADMINI~1\AppData\Local\Temp\ccOzU0Ff.s 			page 20


 384:Middlewares/ST/STM32_USB_Device_Library/Core/Src/usbd_core.c ****   * @param  pdev: Device Handle
 385:Middlewares/ST/STM32_USB_Device_Library/Core/Src/usbd_core.c ****   * @retval USBD Status
 386:Middlewares/ST/STM32_USB_Device_Library/Core/Src/usbd_core.c ****   */
 387:Middlewares/ST/STM32_USB_Device_Library/Core/Src/usbd_core.c **** USBD_StatusTypeDef USBD_Stop(USBD_HandleTypeDef *pdev)
 388:Middlewares/ST/STM32_USB_Device_Library/Core/Src/usbd_core.c **** {
 649              		.loc 1 388 1 is_stmt 1 view -0
 650              		.cfi_startproc
 651              		@ args = 0, pretend = 0, frame = 0
 652              		@ frame_needed = 0, uses_anonymous_args = 0
 653              		.loc 1 388 1 is_stmt 0 view .LVU212
 654 0000 38B5     		push	{r3, r4, r5, lr}
 655              	.LCFI13:
 656              		.cfi_def_cfa_offset 16
 657              		.cfi_offset 3, -16
 658              		.cfi_offset 4, -12
 659              		.cfi_offset 5, -8
 660              		.cfi_offset 14, -4
 661 0002 0546     		mov	r5, r0
 389:Middlewares/ST/STM32_USB_Device_Library/Core/Src/usbd_core.c ****   /* Disconnect USB Device */
 390:Middlewares/ST/STM32_USB_Device_Library/Core/Src/usbd_core.c ****   (void)USBD_LL_Stop(pdev);
 662              		.loc 1 390 3 is_stmt 1 view .LVU213
 663              		.loc 1 390 9 is_stmt 0 view .LVU214
 664 0004 FFF7FEFF 		bl	USBD_LL_Stop
 665              	.LVL47:
 391:Middlewares/ST/STM32_USB_Device_Library/Core/Src/usbd_core.c **** 
 392:Middlewares/ST/STM32_USB_Device_Library/Core/Src/usbd_core.c ****   /* Free Class Resources */
 393:Middlewares/ST/STM32_USB_Device_Library/Core/Src/usbd_core.c **** #ifdef USE_USBD_COMPOSITE
 394:Middlewares/ST/STM32_USB_Device_Library/Core/Src/usbd_core.c ****   /* Parse the table of classes in use */
 395:Middlewares/ST/STM32_USB_Device_Library/Core/Src/usbd_core.c ****   for (uint32_t i = 0U; i < USBD_MAX_SUPPORTED_CLASS; i++)
 666              		.loc 1 395 3 is_stmt 1 view .LVU215
 667              	.LBB4:
 668              		.loc 1 395 8 view .LVU216
 669              		.loc 1 395 17 is_stmt 0 view .LVU217
 670 0008 0024     		movs	r4, #0
 671              		.loc 1 395 3 view .LVU218
 672 000a 06E0     		b	.L44
 673              	.LVL48:
 674              	.L49:
 396:Middlewares/ST/STM32_USB_Device_Library/Core/Src/usbd_core.c ****   {
 397:Middlewares/ST/STM32_USB_Device_Library/Core/Src/usbd_core.c ****     /* Check if current class is in use */
 398:Middlewares/ST/STM32_USB_Device_Library/Core/Src/usbd_core.c ****     if ((pdev->tclasslist[i].Active) == 1U)
 399:Middlewares/ST/STM32_USB_Device_Library/Core/Src/usbd_core.c ****     {
 400:Middlewares/ST/STM32_USB_Device_Library/Core/Src/usbd_core.c ****       if (pdev->pClass[i] != NULL)
 401:Middlewares/ST/STM32_USB_Device_Library/Core/Src/usbd_core.c ****       {
 402:Middlewares/ST/STM32_USB_Device_Library/Core/Src/usbd_core.c ****         pdev->classId = i;
 675              		.loc 1 402 9 is_stmt 1 view .LVU219
 676              		.loc 1 402 23 is_stmt 0 view .LVU220
 677 000c C5F8F842 		str	r4, [r5, #760]
 403:Middlewares/ST/STM32_USB_Device_Library/Core/Src/usbd_core.c ****         /* Free Class Resources */
 404:Middlewares/ST/STM32_USB_Device_Library/Core/Src/usbd_core.c ****         (void)pdev->pClass[i]->DeInit(pdev, (uint8_t)pdev->dev_config);
 678              		.loc 1 404 9 is_stmt 1 view .LVU221
 679              		.loc 1 404 30 is_stmt 0 view .LVU222
 680 0010 5B68     		ldr	r3, [r3, #4]
 681              		.loc 1 404 15 view .LVU223
 682 0012 2979     		ldrb	r1, [r5, #4]	@ zero_extendqisi2
 683 0014 2846     		mov	r0, r5
 684 0016 9847     		blx	r3
ARM GAS  C:\Users\ADMINI~1\AppData\Local\Temp\ccOzU0Ff.s 			page 21


 685              	.LVL49:
 686              	.L45:
 395:Middlewares/ST/STM32_USB_Device_Library/Core/Src/usbd_core.c ****   {
 687              		.loc 1 395 55 is_stmt 1 discriminator 2 view .LVU224
 395:Middlewares/ST/STM32_USB_Device_Library/Core/Src/usbd_core.c ****   {
 688              		.loc 1 395 56 is_stmt 0 discriminator 2 view .LVU225
 689 0018 0134     		adds	r4, r4, #1
 690              	.LVL50:
 691              	.L44:
 395:Middlewares/ST/STM32_USB_Device_Library/Core/Src/usbd_core.c ****   {
 692              		.loc 1 395 25 is_stmt 1 discriminator 1 view .LVU226
 395:Middlewares/ST/STM32_USB_Device_Library/Core/Src/usbd_core.c ****   {
 693              		.loc 1 395 3 is_stmt 0 discriminator 1 view .LVU227
 694 001a 032C     		cmp	r4, #3
 695 001c 0ED8     		bhi	.L48
 398:Middlewares/ST/STM32_USB_Device_Library/Core/Src/usbd_core.c ****     {
 696              		.loc 1 398 5 is_stmt 1 view .LVU228
 398:Middlewares/ST/STM32_USB_Device_Library/Core/Src/usbd_core.c ****     {
 697              		.loc 1 398 29 is_stmt 0 view .LVU229
 698 001e C4EBC403 		rsb	r3, r4, r4, lsl #3
 699 0022 05EBC303 		add	r3, r5, r3, lsl #3
 700 0026 D3F80833 		ldr	r3, [r3, #776]
 398:Middlewares/ST/STM32_USB_Device_Library/Core/Src/usbd_core.c ****     {
 701              		.loc 1 398 8 view .LVU230
 702 002a 012B     		cmp	r3, #1
 703 002c F4D1     		bne	.L45
 400:Middlewares/ST/STM32_USB_Device_Library/Core/Src/usbd_core.c ****       {
 704              		.loc 1 400 7 is_stmt 1 view .LVU231
 400:Middlewares/ST/STM32_USB_Device_Library/Core/Src/usbd_core.c ****       {
 705              		.loc 1 400 23 is_stmt 0 view .LVU232
 706 002e 04F1AE03 		add	r3, r4, #174
 707 0032 55F82330 		ldr	r3, [r5, r3, lsl #2]
 400:Middlewares/ST/STM32_USB_Device_Library/Core/Src/usbd_core.c ****       {
 708              		.loc 1 400 10 view .LVU233
 709 0036 002B     		cmp	r3, #0
 710 0038 E8D1     		bne	.L49
 711 003a EDE7     		b	.L45
 712              	.L48:
 400:Middlewares/ST/STM32_USB_Device_Library/Core/Src/usbd_core.c ****       {
 713              		.loc 1 400 10 view .LVU234
 714              	.LBE4:
 405:Middlewares/ST/STM32_USB_Device_Library/Core/Src/usbd_core.c ****       }
 406:Middlewares/ST/STM32_USB_Device_Library/Core/Src/usbd_core.c ****     }
 407:Middlewares/ST/STM32_USB_Device_Library/Core/Src/usbd_core.c ****   }
 408:Middlewares/ST/STM32_USB_Device_Library/Core/Src/usbd_core.c **** 
 409:Middlewares/ST/STM32_USB_Device_Library/Core/Src/usbd_core.c ****   /* Reset the class ID */
 410:Middlewares/ST/STM32_USB_Device_Library/Core/Src/usbd_core.c ****   pdev->classId = 0U;
 715              		.loc 1 410 3 is_stmt 1 view .LVU235
 716              		.loc 1 410 17 is_stmt 0 view .LVU236
 717 003c 0020     		movs	r0, #0
 718 003e C5F8F802 		str	r0, [r5, #760]
 411:Middlewares/ST/STM32_USB_Device_Library/Core/Src/usbd_core.c **** #else
 412:Middlewares/ST/STM32_USB_Device_Library/Core/Src/usbd_core.c ****   if (pdev->pClass[0] != NULL)
 413:Middlewares/ST/STM32_USB_Device_Library/Core/Src/usbd_core.c ****   {
 414:Middlewares/ST/STM32_USB_Device_Library/Core/Src/usbd_core.c ****     (void)pdev->pClass[0]->DeInit(pdev, (uint8_t)pdev->dev_config);
 415:Middlewares/ST/STM32_USB_Device_Library/Core/Src/usbd_core.c ****   }
 416:Middlewares/ST/STM32_USB_Device_Library/Core/Src/usbd_core.c **** #endif /* USE_USBD_COMPOSITE */
ARM GAS  C:\Users\ADMINI~1\AppData\Local\Temp\ccOzU0Ff.s 			page 22


 417:Middlewares/ST/STM32_USB_Device_Library/Core/Src/usbd_core.c **** 
 418:Middlewares/ST/STM32_USB_Device_Library/Core/Src/usbd_core.c ****   return USBD_OK;
 719              		.loc 1 418 3 is_stmt 1 view .LVU237
 419:Middlewares/ST/STM32_USB_Device_Library/Core/Src/usbd_core.c **** }
 720              		.loc 1 419 1 is_stmt 0 view .LVU238
 721 0042 38BD     		pop	{r3, r4, r5, pc}
 722              		.loc 1 419 1 view .LVU239
 723              		.cfi_endproc
 724              	.LFE140:
 726              		.section	.text.USBD_RunTestMode,"ax",%progbits
 727              		.align	1
 728              		.global	USBD_RunTestMode
 729              		.syntax unified
 730              		.thumb
 731              		.thumb_func
 733              	USBD_RunTestMode:
 734              	.LVL51:
 735              	.LFB141:
 420:Middlewares/ST/STM32_USB_Device_Library/Core/Src/usbd_core.c **** 
 421:Middlewares/ST/STM32_USB_Device_Library/Core/Src/usbd_core.c **** /**
 422:Middlewares/ST/STM32_USB_Device_Library/Core/Src/usbd_core.c ****   * @brief  USBD_RunTestMode
 423:Middlewares/ST/STM32_USB_Device_Library/Core/Src/usbd_core.c ****   *         Launch test mode process
 424:Middlewares/ST/STM32_USB_Device_Library/Core/Src/usbd_core.c ****   * @param  pdev: device instance
 425:Middlewares/ST/STM32_USB_Device_Library/Core/Src/usbd_core.c ****   * @retval status
 426:Middlewares/ST/STM32_USB_Device_Library/Core/Src/usbd_core.c ****   */
 427:Middlewares/ST/STM32_USB_Device_Library/Core/Src/usbd_core.c **** USBD_StatusTypeDef USBD_RunTestMode(USBD_HandleTypeDef *pdev)
 428:Middlewares/ST/STM32_USB_Device_Library/Core/Src/usbd_core.c **** {
 736              		.loc 1 428 1 is_stmt 1 view -0
 737              		.cfi_startproc
 738              		@ args = 0, pretend = 0, frame = 0
 739              		@ frame_needed = 0, uses_anonymous_args = 0
 740              		@ link register save eliminated.
 429:Middlewares/ST/STM32_USB_Device_Library/Core/Src/usbd_core.c **** #ifdef USBD_HS_TESTMODE_ENABLE
 430:Middlewares/ST/STM32_USB_Device_Library/Core/Src/usbd_core.c ****   USBD_StatusTypeDef ret;
 431:Middlewares/ST/STM32_USB_Device_Library/Core/Src/usbd_core.c **** 
 432:Middlewares/ST/STM32_USB_Device_Library/Core/Src/usbd_core.c ****   /* Run USB HS test mode */
 433:Middlewares/ST/STM32_USB_Device_Library/Core/Src/usbd_core.c ****   ret = USBD_LL_SetTestMode(pdev, pdev->dev_test_mode);
 434:Middlewares/ST/STM32_USB_Device_Library/Core/Src/usbd_core.c **** 
 435:Middlewares/ST/STM32_USB_Device_Library/Core/Src/usbd_core.c ****   return ret;
 436:Middlewares/ST/STM32_USB_Device_Library/Core/Src/usbd_core.c **** #else
 437:Middlewares/ST/STM32_USB_Device_Library/Core/Src/usbd_core.c ****   /* Prevent unused argument compilation warning */
 438:Middlewares/ST/STM32_USB_Device_Library/Core/Src/usbd_core.c ****   UNUSED(pdev);
 741              		.loc 1 438 3 view .LVU241
 439:Middlewares/ST/STM32_USB_Device_Library/Core/Src/usbd_core.c **** 
 440:Middlewares/ST/STM32_USB_Device_Library/Core/Src/usbd_core.c ****   return USBD_OK;
 742              		.loc 1 440 3 view .LVU242
 441:Middlewares/ST/STM32_USB_Device_Library/Core/Src/usbd_core.c **** #endif /* USBD_HS_TESTMODE_ENABLE */
 442:Middlewares/ST/STM32_USB_Device_Library/Core/Src/usbd_core.c **** }
 743              		.loc 1 442 1 is_stmt 0 view .LVU243
 744 0000 0020     		movs	r0, #0
 745              	.LVL52:
 746              		.loc 1 442 1 view .LVU244
 747 0002 7047     		bx	lr
 748              		.cfi_endproc
 749              	.LFE141:
 751              		.section	.text.USBD_SetClassConfig,"ax",%progbits
 752              		.align	1
ARM GAS  C:\Users\ADMINI~1\AppData\Local\Temp\ccOzU0Ff.s 			page 23


 753              		.global	USBD_SetClassConfig
 754              		.syntax unified
 755              		.thumb
 756              		.thumb_func
 758              	USBD_SetClassConfig:
 759              	.LVL53:
 760              	.LFB142:
 443:Middlewares/ST/STM32_USB_Device_Library/Core/Src/usbd_core.c **** 
 444:Middlewares/ST/STM32_USB_Device_Library/Core/Src/usbd_core.c **** /**
 445:Middlewares/ST/STM32_USB_Device_Library/Core/Src/usbd_core.c ****   * @brief  USBD_SetClassConfig
 446:Middlewares/ST/STM32_USB_Device_Library/Core/Src/usbd_core.c ****   *        Configure device and start the interface
 447:Middlewares/ST/STM32_USB_Device_Library/Core/Src/usbd_core.c ****   * @param  pdev: device instance
 448:Middlewares/ST/STM32_USB_Device_Library/Core/Src/usbd_core.c ****   * @param  cfgidx: configuration index
 449:Middlewares/ST/STM32_USB_Device_Library/Core/Src/usbd_core.c ****   * @retval status
 450:Middlewares/ST/STM32_USB_Device_Library/Core/Src/usbd_core.c ****   */
 451:Middlewares/ST/STM32_USB_Device_Library/Core/Src/usbd_core.c **** 
 452:Middlewares/ST/STM32_USB_Device_Library/Core/Src/usbd_core.c **** USBD_StatusTypeDef USBD_SetClassConfig(USBD_HandleTypeDef *pdev, uint8_t cfgidx)
 453:Middlewares/ST/STM32_USB_Device_Library/Core/Src/usbd_core.c **** {
 761              		.loc 1 453 1 is_stmt 1 view -0
 762              		.cfi_startproc
 763              		@ args = 0, pretend = 0, frame = 0
 764              		@ frame_needed = 0, uses_anonymous_args = 0
 765              		.loc 1 453 1 is_stmt 0 view .LVU246
 766 0000 F8B5     		push	{r3, r4, r5, r6, r7, lr}
 767              	.LCFI14:
 768              		.cfi_def_cfa_offset 24
 769              		.cfi_offset 3, -24
 770              		.cfi_offset 4, -20
 771              		.cfi_offset 5, -16
 772              		.cfi_offset 6, -12
 773              		.cfi_offset 7, -8
 774              		.cfi_offset 14, -4
 775 0002 0546     		mov	r5, r0
 776 0004 0E46     		mov	r6, r1
 454:Middlewares/ST/STM32_USB_Device_Library/Core/Src/usbd_core.c ****   USBD_StatusTypeDef ret = USBD_OK;
 777              		.loc 1 454 3 is_stmt 1 view .LVU247
 778              	.LVL54:
 455:Middlewares/ST/STM32_USB_Device_Library/Core/Src/usbd_core.c **** 
 456:Middlewares/ST/STM32_USB_Device_Library/Core/Src/usbd_core.c **** #ifdef USE_USBD_COMPOSITE
 457:Middlewares/ST/STM32_USB_Device_Library/Core/Src/usbd_core.c ****   /* Parse the table of classes in use */
 458:Middlewares/ST/STM32_USB_Device_Library/Core/Src/usbd_core.c ****   for (uint32_t i = 0U; i < USBD_MAX_SUPPORTED_CLASS; i++)
 779              		.loc 1 458 3 view .LVU248
 780              	.LBB5:
 781              		.loc 1 458 8 view .LVU249
 782              		.loc 1 458 17 is_stmt 0 view .LVU250
 783 0006 0024     		movs	r4, #0
 784              	.LBE5:
 454:Middlewares/ST/STM32_USB_Device_Library/Core/Src/usbd_core.c ****   USBD_StatusTypeDef ret = USBD_OK;
 785              		.loc 1 454 22 view .LVU251
 786 0008 2746     		mov	r7, r4
 787              	.LBB6:
 788              		.loc 1 458 3 view .LVU252
 789 000a 00E0     		b	.L52
 790              	.LVL55:
 791              	.L53:
 792              		.loc 1 458 55 is_stmt 1 discriminator 2 view .LVU253
 793              		.loc 1 458 56 is_stmt 0 discriminator 2 view .LVU254
ARM GAS  C:\Users\ADMINI~1\AppData\Local\Temp\ccOzU0Ff.s 			page 24


 794 000c 0134     		adds	r4, r4, #1
 795              	.LVL56:
 796              	.L52:
 797              		.loc 1 458 25 is_stmt 1 discriminator 1 view .LVU255
 798              		.loc 1 458 3 is_stmt 0 discriminator 1 view .LVU256
 799 000e 032C     		cmp	r4, #3
 800 0010 17D8     		bhi	.L57
 459:Middlewares/ST/STM32_USB_Device_Library/Core/Src/usbd_core.c ****   {
 460:Middlewares/ST/STM32_USB_Device_Library/Core/Src/usbd_core.c ****     /* Check if current class is in use */
 461:Middlewares/ST/STM32_USB_Device_Library/Core/Src/usbd_core.c ****     if ((pdev->tclasslist[i].Active) == 1U)
 801              		.loc 1 461 5 is_stmt 1 view .LVU257
 802              		.loc 1 461 29 is_stmt 0 view .LVU258
 803 0012 C4EBC403 		rsb	r3, r4, r4, lsl #3
 804 0016 05EBC303 		add	r3, r5, r3, lsl #3
 805 001a D3F80833 		ldr	r3, [r3, #776]
 806              		.loc 1 461 8 view .LVU259
 807 001e 012B     		cmp	r3, #1
 808 0020 F4D1     		bne	.L53
 462:Middlewares/ST/STM32_USB_Device_Library/Core/Src/usbd_core.c ****     {
 463:Middlewares/ST/STM32_USB_Device_Library/Core/Src/usbd_core.c ****       if (pdev->pClass[i] != NULL)
 809              		.loc 1 463 7 is_stmt 1 view .LVU260
 810              		.loc 1 463 23 is_stmt 0 view .LVU261
 811 0022 04F1AE03 		add	r3, r4, #174
 812 0026 55F82330 		ldr	r3, [r5, r3, lsl #2]
 813              		.loc 1 463 10 view .LVU262
 814 002a 002B     		cmp	r3, #0
 815 002c EED0     		beq	.L53
 464:Middlewares/ST/STM32_USB_Device_Library/Core/Src/usbd_core.c ****       {
 465:Middlewares/ST/STM32_USB_Device_Library/Core/Src/usbd_core.c ****         pdev->classId = i;
 816              		.loc 1 465 9 is_stmt 1 view .LVU263
 817              		.loc 1 465 23 is_stmt 0 view .LVU264
 818 002e C5F8F842 		str	r4, [r5, #760]
 466:Middlewares/ST/STM32_USB_Device_Library/Core/Src/usbd_core.c ****         /* Set configuration  and Start the Class*/
 467:Middlewares/ST/STM32_USB_Device_Library/Core/Src/usbd_core.c ****         if (pdev->pClass[i]->Init(pdev, cfgidx) != 0U)
 819              		.loc 1 467 9 is_stmt 1 view .LVU265
 820              		.loc 1 467 28 is_stmt 0 view .LVU266
 821 0032 1B68     		ldr	r3, [r3]
 822              		.loc 1 467 13 view .LVU267
 823 0034 3146     		mov	r1, r6
 824 0036 2846     		mov	r0, r5
 825 0038 9847     		blx	r3
 826              	.LVL57:
 827              		.loc 1 467 12 view .LVU268
 828 003a 0028     		cmp	r0, #0
 829 003c E6D0     		beq	.L53
 468:Middlewares/ST/STM32_USB_Device_Library/Core/Src/usbd_core.c ****         {
 469:Middlewares/ST/STM32_USB_Device_Library/Core/Src/usbd_core.c ****           ret = USBD_FAIL;
 830              		.loc 1 469 15 view .LVU269
 831 003e 0327     		movs	r7, #3
 832              	.LVL58:
 833              		.loc 1 469 15 view .LVU270
 834 0040 E4E7     		b	.L53
 835              	.LVL59:
 836              	.L57:
 837              		.loc 1 469 15 view .LVU271
 838              	.LBE6:
 470:Middlewares/ST/STM32_USB_Device_Library/Core/Src/usbd_core.c ****         }
ARM GAS  C:\Users\ADMINI~1\AppData\Local\Temp\ccOzU0Ff.s 			page 25


 471:Middlewares/ST/STM32_USB_Device_Library/Core/Src/usbd_core.c ****       }
 472:Middlewares/ST/STM32_USB_Device_Library/Core/Src/usbd_core.c ****     }
 473:Middlewares/ST/STM32_USB_Device_Library/Core/Src/usbd_core.c ****   }
 474:Middlewares/ST/STM32_USB_Device_Library/Core/Src/usbd_core.c **** #else
 475:Middlewares/ST/STM32_USB_Device_Library/Core/Src/usbd_core.c ****   if (pdev->pClass[0] != NULL)
 476:Middlewares/ST/STM32_USB_Device_Library/Core/Src/usbd_core.c ****   {
 477:Middlewares/ST/STM32_USB_Device_Library/Core/Src/usbd_core.c ****     /* Set configuration and Start the Class */
 478:Middlewares/ST/STM32_USB_Device_Library/Core/Src/usbd_core.c ****     ret = (USBD_StatusTypeDef)pdev->pClass[0]->Init(pdev, cfgidx);
 479:Middlewares/ST/STM32_USB_Device_Library/Core/Src/usbd_core.c ****   }
 480:Middlewares/ST/STM32_USB_Device_Library/Core/Src/usbd_core.c **** #endif /* USE_USBD_COMPOSITE */
 481:Middlewares/ST/STM32_USB_Device_Library/Core/Src/usbd_core.c **** 
 482:Middlewares/ST/STM32_USB_Device_Library/Core/Src/usbd_core.c ****   return ret;
 839              		.loc 1 482 3 is_stmt 1 view .LVU272
 483:Middlewares/ST/STM32_USB_Device_Library/Core/Src/usbd_core.c **** }
 840              		.loc 1 483 1 is_stmt 0 view .LVU273
 841 0042 3846     		mov	r0, r7
 842 0044 F8BD     		pop	{r3, r4, r5, r6, r7, pc}
 843              		.loc 1 483 1 view .LVU274
 844              		.cfi_endproc
 845              	.LFE142:
 847              		.section	.text.USBD_ClrClassConfig,"ax",%progbits
 848              		.align	1
 849              		.global	USBD_ClrClassConfig
 850              		.syntax unified
 851              		.thumb
 852              		.thumb_func
 854              	USBD_ClrClassConfig:
 855              	.LVL60:
 856              	.LFB143:
 484:Middlewares/ST/STM32_USB_Device_Library/Core/Src/usbd_core.c **** 
 485:Middlewares/ST/STM32_USB_Device_Library/Core/Src/usbd_core.c **** /**
 486:Middlewares/ST/STM32_USB_Device_Library/Core/Src/usbd_core.c ****   * @brief  USBD_ClrClassConfig
 487:Middlewares/ST/STM32_USB_Device_Library/Core/Src/usbd_core.c ****   *         Clear current configuration
 488:Middlewares/ST/STM32_USB_Device_Library/Core/Src/usbd_core.c ****   * @param  pdev: device instance
 489:Middlewares/ST/STM32_USB_Device_Library/Core/Src/usbd_core.c ****   * @param  cfgidx: configuration index
 490:Middlewares/ST/STM32_USB_Device_Library/Core/Src/usbd_core.c ****   * @retval status: USBD_StatusTypeDef
 491:Middlewares/ST/STM32_USB_Device_Library/Core/Src/usbd_core.c ****   */
 492:Middlewares/ST/STM32_USB_Device_Library/Core/Src/usbd_core.c **** USBD_StatusTypeDef USBD_ClrClassConfig(USBD_HandleTypeDef *pdev, uint8_t cfgidx)
 493:Middlewares/ST/STM32_USB_Device_Library/Core/Src/usbd_core.c **** {
 857              		.loc 1 493 1 is_stmt 1 view -0
 858              		.cfi_startproc
 859              		@ args = 0, pretend = 0, frame = 0
 860              		@ frame_needed = 0, uses_anonymous_args = 0
 861              		.loc 1 493 1 is_stmt 0 view .LVU276
 862 0000 F8B5     		push	{r3, r4, r5, r6, r7, lr}
 863              	.LCFI15:
 864              		.cfi_def_cfa_offset 24
 865              		.cfi_offset 3, -24
 866              		.cfi_offset 4, -20
 867              		.cfi_offset 5, -16
 868              		.cfi_offset 6, -12
 869              		.cfi_offset 7, -8
 870              		.cfi_offset 14, -4
 871 0002 0546     		mov	r5, r0
 872 0004 0E46     		mov	r6, r1
 494:Middlewares/ST/STM32_USB_Device_Library/Core/Src/usbd_core.c ****   USBD_StatusTypeDef ret = USBD_OK;
 873              		.loc 1 494 3 is_stmt 1 view .LVU277
ARM GAS  C:\Users\ADMINI~1\AppData\Local\Temp\ccOzU0Ff.s 			page 26


 874              	.LVL61:
 495:Middlewares/ST/STM32_USB_Device_Library/Core/Src/usbd_core.c **** 
 496:Middlewares/ST/STM32_USB_Device_Library/Core/Src/usbd_core.c **** #ifdef USE_USBD_COMPOSITE
 497:Middlewares/ST/STM32_USB_Device_Library/Core/Src/usbd_core.c ****   /* Parse the table of classes in use */
 498:Middlewares/ST/STM32_USB_Device_Library/Core/Src/usbd_core.c ****   for (uint32_t i = 0U; i < USBD_MAX_SUPPORTED_CLASS; i++)
 875              		.loc 1 498 3 view .LVU278
 876              	.LBB7:
 877              		.loc 1 498 8 view .LVU279
 878              		.loc 1 498 17 is_stmt 0 view .LVU280
 879 0006 0024     		movs	r4, #0
 880              	.LBE7:
 494:Middlewares/ST/STM32_USB_Device_Library/Core/Src/usbd_core.c ****   USBD_StatusTypeDef ret = USBD_OK;
 881              		.loc 1 494 22 view .LVU281
 882 0008 2746     		mov	r7, r4
 883              	.LBB8:
 884              		.loc 1 498 3 view .LVU282
 885 000a 00E0     		b	.L59
 886              	.LVL62:
 887              	.L60:
 888              		.loc 1 498 55 is_stmt 1 discriminator 2 view .LVU283
 889              		.loc 1 498 56 is_stmt 0 discriminator 2 view .LVU284
 890 000c 0134     		adds	r4, r4, #1
 891              	.LVL63:
 892              	.L59:
 893              		.loc 1 498 25 is_stmt 1 discriminator 1 view .LVU285
 894              		.loc 1 498 3 is_stmt 0 discriminator 1 view .LVU286
 895 000e 032C     		cmp	r4, #3
 896 0010 17D8     		bhi	.L64
 499:Middlewares/ST/STM32_USB_Device_Library/Core/Src/usbd_core.c ****   {
 500:Middlewares/ST/STM32_USB_Device_Library/Core/Src/usbd_core.c ****     /* Check if current class is in use */
 501:Middlewares/ST/STM32_USB_Device_Library/Core/Src/usbd_core.c ****     if ((pdev->tclasslist[i].Active) == 1U)
 897              		.loc 1 501 5 is_stmt 1 view .LVU287
 898              		.loc 1 501 29 is_stmt 0 view .LVU288
 899 0012 C4EBC403 		rsb	r3, r4, r4, lsl #3
 900 0016 05EBC303 		add	r3, r5, r3, lsl #3
 901 001a D3F80833 		ldr	r3, [r3, #776]
 902              		.loc 1 501 8 view .LVU289
 903 001e 012B     		cmp	r3, #1
 904 0020 F4D1     		bne	.L60
 502:Middlewares/ST/STM32_USB_Device_Library/Core/Src/usbd_core.c ****     {
 503:Middlewares/ST/STM32_USB_Device_Library/Core/Src/usbd_core.c ****       if (pdev->pClass[i] != NULL)
 905              		.loc 1 503 7 is_stmt 1 view .LVU290
 906              		.loc 1 503 23 is_stmt 0 view .LVU291
 907 0022 04F1AE03 		add	r3, r4, #174
 908 0026 55F82330 		ldr	r3, [r5, r3, lsl #2]
 909              		.loc 1 503 10 view .LVU292
 910 002a 002B     		cmp	r3, #0
 911 002c EED0     		beq	.L60
 504:Middlewares/ST/STM32_USB_Device_Library/Core/Src/usbd_core.c ****       {
 505:Middlewares/ST/STM32_USB_Device_Library/Core/Src/usbd_core.c ****         pdev->classId = i;
 912              		.loc 1 505 9 is_stmt 1 view .LVU293
 913              		.loc 1 505 23 is_stmt 0 view .LVU294
 914 002e C5F8F842 		str	r4, [r5, #760]
 506:Middlewares/ST/STM32_USB_Device_Library/Core/Src/usbd_core.c ****         /* Clear configuration  and De-initialize the Class process */
 507:Middlewares/ST/STM32_USB_Device_Library/Core/Src/usbd_core.c ****         if (pdev->pClass[i]->DeInit(pdev, cfgidx) != 0U)
 915              		.loc 1 507 9 is_stmt 1 view .LVU295
 916              		.loc 1 507 28 is_stmt 0 view .LVU296
ARM GAS  C:\Users\ADMINI~1\AppData\Local\Temp\ccOzU0Ff.s 			page 27


 917 0032 5B68     		ldr	r3, [r3, #4]
 918              		.loc 1 507 13 view .LVU297
 919 0034 3146     		mov	r1, r6
 920 0036 2846     		mov	r0, r5
 921 0038 9847     		blx	r3
 922              	.LVL64:
 923              		.loc 1 507 12 view .LVU298
 924 003a 0028     		cmp	r0, #0
 925 003c E6D0     		beq	.L60
 508:Middlewares/ST/STM32_USB_Device_Library/Core/Src/usbd_core.c ****         {
 509:Middlewares/ST/STM32_USB_Device_Library/Core/Src/usbd_core.c ****           ret = USBD_FAIL;
 926              		.loc 1 509 15 view .LVU299
 927 003e 0327     		movs	r7, #3
 928              	.LVL65:
 929              		.loc 1 509 15 view .LVU300
 930 0040 E4E7     		b	.L60
 931              	.LVL66:
 932              	.L64:
 933              		.loc 1 509 15 view .LVU301
 934              	.LBE8:
 510:Middlewares/ST/STM32_USB_Device_Library/Core/Src/usbd_core.c ****         }
 511:Middlewares/ST/STM32_USB_Device_Library/Core/Src/usbd_core.c ****       }
 512:Middlewares/ST/STM32_USB_Device_Library/Core/Src/usbd_core.c ****     }
 513:Middlewares/ST/STM32_USB_Device_Library/Core/Src/usbd_core.c ****   }
 514:Middlewares/ST/STM32_USB_Device_Library/Core/Src/usbd_core.c **** #else
 515:Middlewares/ST/STM32_USB_Device_Library/Core/Src/usbd_core.c ****   /* Clear configuration  and De-initialize the Class process */
 516:Middlewares/ST/STM32_USB_Device_Library/Core/Src/usbd_core.c ****   if (pdev->pClass[0]->DeInit(pdev, cfgidx) != 0U)
 517:Middlewares/ST/STM32_USB_Device_Library/Core/Src/usbd_core.c ****   {
 518:Middlewares/ST/STM32_USB_Device_Library/Core/Src/usbd_core.c ****     ret = USBD_FAIL;
 519:Middlewares/ST/STM32_USB_Device_Library/Core/Src/usbd_core.c ****   }
 520:Middlewares/ST/STM32_USB_Device_Library/Core/Src/usbd_core.c **** #endif /* USE_USBD_COMPOSITE */
 521:Middlewares/ST/STM32_USB_Device_Library/Core/Src/usbd_core.c **** 
 522:Middlewares/ST/STM32_USB_Device_Library/Core/Src/usbd_core.c ****   return ret;
 935              		.loc 1 522 3 is_stmt 1 view .LVU302
 523:Middlewares/ST/STM32_USB_Device_Library/Core/Src/usbd_core.c **** }
 936              		.loc 1 523 1 is_stmt 0 view .LVU303
 937 0042 3846     		mov	r0, r7
 938 0044 F8BD     		pop	{r3, r4, r5, r6, r7, pc}
 939              		.loc 1 523 1 view .LVU304
 940              		.cfi_endproc
 941              	.LFE143:
 943              		.section	.text.USBD_LL_SetupStage,"ax",%progbits
 944              		.align	1
 945              		.global	USBD_LL_SetupStage
 946              		.syntax unified
 947              		.thumb
 948              		.thumb_func
 950              	USBD_LL_SetupStage:
 951              	.LVL67:
 952              	.LFB144:
 524:Middlewares/ST/STM32_USB_Device_Library/Core/Src/usbd_core.c **** 
 525:Middlewares/ST/STM32_USB_Device_Library/Core/Src/usbd_core.c **** 
 526:Middlewares/ST/STM32_USB_Device_Library/Core/Src/usbd_core.c **** /**
 527:Middlewares/ST/STM32_USB_Device_Library/Core/Src/usbd_core.c ****   * @brief  USBD_LL_SetupStage
 528:Middlewares/ST/STM32_USB_Device_Library/Core/Src/usbd_core.c ****   *         Handle the setup stage
 529:Middlewares/ST/STM32_USB_Device_Library/Core/Src/usbd_core.c ****   * @param  pdev: device instance
 530:Middlewares/ST/STM32_USB_Device_Library/Core/Src/usbd_core.c ****   * @retval status
ARM GAS  C:\Users\ADMINI~1\AppData\Local\Temp\ccOzU0Ff.s 			page 28


 531:Middlewares/ST/STM32_USB_Device_Library/Core/Src/usbd_core.c ****   */
 532:Middlewares/ST/STM32_USB_Device_Library/Core/Src/usbd_core.c **** USBD_StatusTypeDef USBD_LL_SetupStage(USBD_HandleTypeDef *pdev, uint8_t *psetup)
 533:Middlewares/ST/STM32_USB_Device_Library/Core/Src/usbd_core.c **** {
 953              		.loc 1 533 1 is_stmt 1 view -0
 954              		.cfi_startproc
 955              		@ args = 0, pretend = 0, frame = 0
 956              		@ frame_needed = 0, uses_anonymous_args = 0
 957              		.loc 1 533 1 is_stmt 0 view .LVU306
 958 0000 38B5     		push	{r3, r4, r5, lr}
 959              	.LCFI16:
 960              		.cfi_def_cfa_offset 16
 961              		.cfi_offset 3, -16
 962              		.cfi_offset 4, -12
 963              		.cfi_offset 5, -8
 964              		.cfi_offset 14, -4
 965 0002 0446     		mov	r4, r0
 534:Middlewares/ST/STM32_USB_Device_Library/Core/Src/usbd_core.c ****   USBD_StatusTypeDef ret;
 966              		.loc 1 534 3 is_stmt 1 view .LVU307
 535:Middlewares/ST/STM32_USB_Device_Library/Core/Src/usbd_core.c **** 
 536:Middlewares/ST/STM32_USB_Device_Library/Core/Src/usbd_core.c ****   USBD_ParseSetupRequest(&pdev->request, psetup);
 967              		.loc 1 536 3 view .LVU308
 968 0004 00F2AA25 		addw	r5, r0, #682
 969 0008 2846     		mov	r0, r5
 970              	.LVL68:
 971              		.loc 1 536 3 is_stmt 0 view .LVU309
 972 000a FFF7FEFF 		bl	USBD_ParseSetupRequest
 973              	.LVL69:
 537:Middlewares/ST/STM32_USB_Device_Library/Core/Src/usbd_core.c **** 
 538:Middlewares/ST/STM32_USB_Device_Library/Core/Src/usbd_core.c ****   pdev->ep0_state = USBD_EP0_SETUP;
 974              		.loc 1 538 3 is_stmt 1 view .LVU310
 975              		.loc 1 538 19 is_stmt 0 view .LVU311
 976 000e 0123     		movs	r3, #1
 977 0010 C4F89432 		str	r3, [r4, #660]
 539:Middlewares/ST/STM32_USB_Device_Library/Core/Src/usbd_core.c **** 
 540:Middlewares/ST/STM32_USB_Device_Library/Core/Src/usbd_core.c ****   pdev->ep0_data_len = pdev->request.wLength;
 978              		.loc 1 540 3 is_stmt 1 view .LVU312
 979              		.loc 1 540 37 is_stmt 0 view .LVU313
 980 0014 B4F8B032 		ldrh	r3, [r4, #688]
 981              		.loc 1 540 22 view .LVU314
 982 0018 C4F89832 		str	r3, [r4, #664]
 541:Middlewares/ST/STM32_USB_Device_Library/Core/Src/usbd_core.c **** 
 542:Middlewares/ST/STM32_USB_Device_Library/Core/Src/usbd_core.c ****   switch (pdev->request.bmRequest & 0x1FU)
 983              		.loc 1 542 3 is_stmt 1 view .LVU315
 984              		.loc 1 542 24 is_stmt 0 view .LVU316
 985 001c 94F8AA12 		ldrb	r1, [r4, #682]	@ zero_extendqisi2
 986 0020 01F01F03 		and	r3, r1, #31
 987              		.loc 1 542 3 view .LVU317
 988 0024 012B     		cmp	r3, #1
 989 0026 0DD0     		beq	.L66
 990 0028 022B     		cmp	r3, #2
 991 002a 10D0     		beq	.L67
 992 002c 2BB1     		cbz	r3, .L71
 543:Middlewares/ST/STM32_USB_Device_Library/Core/Src/usbd_core.c ****   {
 544:Middlewares/ST/STM32_USB_Device_Library/Core/Src/usbd_core.c ****     case USB_REQ_RECIPIENT_DEVICE:
 545:Middlewares/ST/STM32_USB_Device_Library/Core/Src/usbd_core.c ****       ret = USBD_StdDevReq(pdev, &pdev->request);
 546:Middlewares/ST/STM32_USB_Device_Library/Core/Src/usbd_core.c ****       break;
 547:Middlewares/ST/STM32_USB_Device_Library/Core/Src/usbd_core.c **** 
ARM GAS  C:\Users\ADMINI~1\AppData\Local\Temp\ccOzU0Ff.s 			page 29


 548:Middlewares/ST/STM32_USB_Device_Library/Core/Src/usbd_core.c ****     case USB_REQ_RECIPIENT_INTERFACE:
 549:Middlewares/ST/STM32_USB_Device_Library/Core/Src/usbd_core.c ****       ret = USBD_StdItfReq(pdev, &pdev->request);
 550:Middlewares/ST/STM32_USB_Device_Library/Core/Src/usbd_core.c ****       break;
 551:Middlewares/ST/STM32_USB_Device_Library/Core/Src/usbd_core.c **** 
 552:Middlewares/ST/STM32_USB_Device_Library/Core/Src/usbd_core.c ****     case USB_REQ_RECIPIENT_ENDPOINT:
 553:Middlewares/ST/STM32_USB_Device_Library/Core/Src/usbd_core.c ****       ret = USBD_StdEPReq(pdev, &pdev->request);
 554:Middlewares/ST/STM32_USB_Device_Library/Core/Src/usbd_core.c ****       break;
 555:Middlewares/ST/STM32_USB_Device_Library/Core/Src/usbd_core.c **** 
 556:Middlewares/ST/STM32_USB_Device_Library/Core/Src/usbd_core.c ****     default:
 557:Middlewares/ST/STM32_USB_Device_Library/Core/Src/usbd_core.c ****       ret = USBD_LL_StallEP(pdev, (pdev->request.bmRequest & 0x80U));
 993              		.loc 1 557 7 is_stmt 1 view .LVU318
 994              		.loc 1 557 13 is_stmt 0 view .LVU319
 995 002e 01F08001 		and	r1, r1, #128
 996 0032 2046     		mov	r0, r4
 997 0034 FFF7FEFF 		bl	USBD_LL_StallEP
 998              	.LVL70:
 558:Middlewares/ST/STM32_USB_Device_Library/Core/Src/usbd_core.c ****       break;
 999              		.loc 1 558 7 is_stmt 1 view .LVU320
 1000 0038 03E0     		b	.L69
 1001              	.LVL71:
 1002              	.L71:
 545:Middlewares/ST/STM32_USB_Device_Library/Core/Src/usbd_core.c ****       break;
 1003              		.loc 1 545 7 view .LVU321
 545:Middlewares/ST/STM32_USB_Device_Library/Core/Src/usbd_core.c ****       break;
 1004              		.loc 1 545 13 is_stmt 0 view .LVU322
 1005 003a 2946     		mov	r1, r5
 1006 003c 2046     		mov	r0, r4
 1007 003e FFF7FEFF 		bl	USBD_StdDevReq
 1008              	.LVL72:
 546:Middlewares/ST/STM32_USB_Device_Library/Core/Src/usbd_core.c **** 
 1009              		.loc 1 546 7 is_stmt 1 view .LVU323
 1010              	.L69:
 559:Middlewares/ST/STM32_USB_Device_Library/Core/Src/usbd_core.c ****   }
 560:Middlewares/ST/STM32_USB_Device_Library/Core/Src/usbd_core.c **** 
 561:Middlewares/ST/STM32_USB_Device_Library/Core/Src/usbd_core.c ****   return ret;
 1011              		.loc 1 561 3 view .LVU324
 562:Middlewares/ST/STM32_USB_Device_Library/Core/Src/usbd_core.c **** }
 1012              		.loc 1 562 1 is_stmt 0 view .LVU325
 1013 0042 38BD     		pop	{r3, r4, r5, pc}
 1014              	.LVL73:
 1015              	.L66:
 549:Middlewares/ST/STM32_USB_Device_Library/Core/Src/usbd_core.c ****       break;
 1016              		.loc 1 549 7 is_stmt 1 view .LVU326
 549:Middlewares/ST/STM32_USB_Device_Library/Core/Src/usbd_core.c ****       break;
 1017              		.loc 1 549 13 is_stmt 0 view .LVU327
 1018 0044 2946     		mov	r1, r5
 1019 0046 2046     		mov	r0, r4
 1020 0048 FFF7FEFF 		bl	USBD_StdItfReq
 1021              	.LVL74:
 550:Middlewares/ST/STM32_USB_Device_Library/Core/Src/usbd_core.c **** 
 1022              		.loc 1 550 7 is_stmt 1 view .LVU328
 1023 004c F9E7     		b	.L69
 1024              	.LVL75:
 1025              	.L67:
 553:Middlewares/ST/STM32_USB_Device_Library/Core/Src/usbd_core.c ****       break;
 1026              		.loc 1 553 7 view .LVU329
 553:Middlewares/ST/STM32_USB_Device_Library/Core/Src/usbd_core.c ****       break;
ARM GAS  C:\Users\ADMINI~1\AppData\Local\Temp\ccOzU0Ff.s 			page 30


 1027              		.loc 1 553 13 is_stmt 0 view .LVU330
 1028 004e 2946     		mov	r1, r5
 1029 0050 2046     		mov	r0, r4
 1030 0052 FFF7FEFF 		bl	USBD_StdEPReq
 1031              	.LVL76:
 554:Middlewares/ST/STM32_USB_Device_Library/Core/Src/usbd_core.c **** 
 1032              		.loc 1 554 7 is_stmt 1 view .LVU331
 1033 0056 F4E7     		b	.L69
 1034              		.cfi_endproc
 1035              	.LFE144:
 1037              		.section	.text.USBD_LL_Reset,"ax",%progbits
 1038              		.align	1
 1039              		.global	USBD_LL_Reset
 1040              		.syntax unified
 1041              		.thumb
 1042              		.thumb_func
 1044              	USBD_LL_Reset:
 1045              	.LVL77:
 1046              	.LFB147:
 563:Middlewares/ST/STM32_USB_Device_Library/Core/Src/usbd_core.c **** 
 564:Middlewares/ST/STM32_USB_Device_Library/Core/Src/usbd_core.c **** /**
 565:Middlewares/ST/STM32_USB_Device_Library/Core/Src/usbd_core.c ****   * @brief  USBD_LL_DataOutStage
 566:Middlewares/ST/STM32_USB_Device_Library/Core/Src/usbd_core.c ****   *         Handle data OUT stage
 567:Middlewares/ST/STM32_USB_Device_Library/Core/Src/usbd_core.c ****   * @param  pdev: device instance
 568:Middlewares/ST/STM32_USB_Device_Library/Core/Src/usbd_core.c ****   * @param  epnum: endpoint index
 569:Middlewares/ST/STM32_USB_Device_Library/Core/Src/usbd_core.c ****   * @param  pdata: data pointer
 570:Middlewares/ST/STM32_USB_Device_Library/Core/Src/usbd_core.c ****   * @retval status
 571:Middlewares/ST/STM32_USB_Device_Library/Core/Src/usbd_core.c ****   */
 572:Middlewares/ST/STM32_USB_Device_Library/Core/Src/usbd_core.c **** USBD_StatusTypeDef USBD_LL_DataOutStage(USBD_HandleTypeDef *pdev,
 573:Middlewares/ST/STM32_USB_Device_Library/Core/Src/usbd_core.c ****                                         uint8_t epnum, uint8_t *pdata)
 574:Middlewares/ST/STM32_USB_Device_Library/Core/Src/usbd_core.c **** {
 575:Middlewares/ST/STM32_USB_Device_Library/Core/Src/usbd_core.c ****   USBD_EndpointTypeDef *pep;
 576:Middlewares/ST/STM32_USB_Device_Library/Core/Src/usbd_core.c ****   USBD_StatusTypeDef ret = USBD_OK;
 577:Middlewares/ST/STM32_USB_Device_Library/Core/Src/usbd_core.c ****   uint8_t idx;
 578:Middlewares/ST/STM32_USB_Device_Library/Core/Src/usbd_core.c **** 
 579:Middlewares/ST/STM32_USB_Device_Library/Core/Src/usbd_core.c ****   if (epnum == 0U)
 580:Middlewares/ST/STM32_USB_Device_Library/Core/Src/usbd_core.c ****   {
 581:Middlewares/ST/STM32_USB_Device_Library/Core/Src/usbd_core.c ****     pep = &pdev->ep_out[0];
 582:Middlewares/ST/STM32_USB_Device_Library/Core/Src/usbd_core.c **** 
 583:Middlewares/ST/STM32_USB_Device_Library/Core/Src/usbd_core.c ****     if (pdev->ep0_state == USBD_EP0_DATA_OUT)
 584:Middlewares/ST/STM32_USB_Device_Library/Core/Src/usbd_core.c ****     {
 585:Middlewares/ST/STM32_USB_Device_Library/Core/Src/usbd_core.c ****       if (pep->rem_length > pep->maxpacket)
 586:Middlewares/ST/STM32_USB_Device_Library/Core/Src/usbd_core.c ****       {
 587:Middlewares/ST/STM32_USB_Device_Library/Core/Src/usbd_core.c ****         pep->rem_length -= pep->maxpacket;
 588:Middlewares/ST/STM32_USB_Device_Library/Core/Src/usbd_core.c **** 
 589:Middlewares/ST/STM32_USB_Device_Library/Core/Src/usbd_core.c ****         (void)USBD_CtlContinueRx(pdev, pdata, MIN(pep->rem_length, pep->maxpacket));
 590:Middlewares/ST/STM32_USB_Device_Library/Core/Src/usbd_core.c ****       }
 591:Middlewares/ST/STM32_USB_Device_Library/Core/Src/usbd_core.c ****       else
 592:Middlewares/ST/STM32_USB_Device_Library/Core/Src/usbd_core.c ****       {
 593:Middlewares/ST/STM32_USB_Device_Library/Core/Src/usbd_core.c ****         /* Find the class ID relative to the current request */
 594:Middlewares/ST/STM32_USB_Device_Library/Core/Src/usbd_core.c ****         switch (pdev->request.bmRequest & 0x1FU)
 595:Middlewares/ST/STM32_USB_Device_Library/Core/Src/usbd_core.c ****         {
 596:Middlewares/ST/STM32_USB_Device_Library/Core/Src/usbd_core.c ****           case USB_REQ_RECIPIENT_DEVICE:
 597:Middlewares/ST/STM32_USB_Device_Library/Core/Src/usbd_core.c ****             /* Device requests must be managed by the first instantiated class
 598:Middlewares/ST/STM32_USB_Device_Library/Core/Src/usbd_core.c ****                (or duplicated by all classes for simplicity) */
 599:Middlewares/ST/STM32_USB_Device_Library/Core/Src/usbd_core.c ****             idx = 0U;
 600:Middlewares/ST/STM32_USB_Device_Library/Core/Src/usbd_core.c ****             break;
ARM GAS  C:\Users\ADMINI~1\AppData\Local\Temp\ccOzU0Ff.s 			page 31


 601:Middlewares/ST/STM32_USB_Device_Library/Core/Src/usbd_core.c **** 
 602:Middlewares/ST/STM32_USB_Device_Library/Core/Src/usbd_core.c ****           case USB_REQ_RECIPIENT_INTERFACE:
 603:Middlewares/ST/STM32_USB_Device_Library/Core/Src/usbd_core.c ****             idx = USBD_CoreFindIF(pdev, LOBYTE(pdev->request.wIndex));
 604:Middlewares/ST/STM32_USB_Device_Library/Core/Src/usbd_core.c ****             break;
 605:Middlewares/ST/STM32_USB_Device_Library/Core/Src/usbd_core.c **** 
 606:Middlewares/ST/STM32_USB_Device_Library/Core/Src/usbd_core.c ****           case USB_REQ_RECIPIENT_ENDPOINT:
 607:Middlewares/ST/STM32_USB_Device_Library/Core/Src/usbd_core.c ****             idx = USBD_CoreFindEP(pdev, LOBYTE(pdev->request.wIndex));
 608:Middlewares/ST/STM32_USB_Device_Library/Core/Src/usbd_core.c ****             break;
 609:Middlewares/ST/STM32_USB_Device_Library/Core/Src/usbd_core.c **** 
 610:Middlewares/ST/STM32_USB_Device_Library/Core/Src/usbd_core.c ****           default:
 611:Middlewares/ST/STM32_USB_Device_Library/Core/Src/usbd_core.c ****             /* Back to the first class in case of doubt */
 612:Middlewares/ST/STM32_USB_Device_Library/Core/Src/usbd_core.c ****             idx = 0U;
 613:Middlewares/ST/STM32_USB_Device_Library/Core/Src/usbd_core.c ****             break;
 614:Middlewares/ST/STM32_USB_Device_Library/Core/Src/usbd_core.c ****         }
 615:Middlewares/ST/STM32_USB_Device_Library/Core/Src/usbd_core.c **** 
 616:Middlewares/ST/STM32_USB_Device_Library/Core/Src/usbd_core.c ****         if (idx < USBD_MAX_SUPPORTED_CLASS)
 617:Middlewares/ST/STM32_USB_Device_Library/Core/Src/usbd_core.c ****         {
 618:Middlewares/ST/STM32_USB_Device_Library/Core/Src/usbd_core.c ****           /* Setup the class ID and route the request to the relative class function */
 619:Middlewares/ST/STM32_USB_Device_Library/Core/Src/usbd_core.c ****           if (pdev->dev_state == USBD_STATE_CONFIGURED)
 620:Middlewares/ST/STM32_USB_Device_Library/Core/Src/usbd_core.c ****           {
 621:Middlewares/ST/STM32_USB_Device_Library/Core/Src/usbd_core.c ****             if (pdev->pClass[idx]->EP0_RxReady != NULL)
 622:Middlewares/ST/STM32_USB_Device_Library/Core/Src/usbd_core.c ****             {
 623:Middlewares/ST/STM32_USB_Device_Library/Core/Src/usbd_core.c ****               pdev->classId = idx;
 624:Middlewares/ST/STM32_USB_Device_Library/Core/Src/usbd_core.c ****               pdev->pClass[idx]->EP0_RxReady(pdev);
 625:Middlewares/ST/STM32_USB_Device_Library/Core/Src/usbd_core.c ****             }
 626:Middlewares/ST/STM32_USB_Device_Library/Core/Src/usbd_core.c ****           }
 627:Middlewares/ST/STM32_USB_Device_Library/Core/Src/usbd_core.c ****         }
 628:Middlewares/ST/STM32_USB_Device_Library/Core/Src/usbd_core.c **** 
 629:Middlewares/ST/STM32_USB_Device_Library/Core/Src/usbd_core.c ****         (void)USBD_CtlSendStatus(pdev);
 630:Middlewares/ST/STM32_USB_Device_Library/Core/Src/usbd_core.c ****       }
 631:Middlewares/ST/STM32_USB_Device_Library/Core/Src/usbd_core.c ****     }
 632:Middlewares/ST/STM32_USB_Device_Library/Core/Src/usbd_core.c ****     else
 633:Middlewares/ST/STM32_USB_Device_Library/Core/Src/usbd_core.c ****     {
 634:Middlewares/ST/STM32_USB_Device_Library/Core/Src/usbd_core.c **** #if 0
 635:Middlewares/ST/STM32_USB_Device_Library/Core/Src/usbd_core.c ****       if (pdev->ep0_state == USBD_EP0_STATUS_OUT)
 636:Middlewares/ST/STM32_USB_Device_Library/Core/Src/usbd_core.c ****       {
 637:Middlewares/ST/STM32_USB_Device_Library/Core/Src/usbd_core.c ****         /*
 638:Middlewares/ST/STM32_USB_Device_Library/Core/Src/usbd_core.c ****           * STATUS PHASE completed, update ep0_state to idle
 639:Middlewares/ST/STM32_USB_Device_Library/Core/Src/usbd_core.c ****           */
 640:Middlewares/ST/STM32_USB_Device_Library/Core/Src/usbd_core.c ****         pdev->ep0_state = USBD_EP0_IDLE;
 641:Middlewares/ST/STM32_USB_Device_Library/Core/Src/usbd_core.c ****         (void)USBD_LL_StallEP(pdev, 0U);
 642:Middlewares/ST/STM32_USB_Device_Library/Core/Src/usbd_core.c ****       }
 643:Middlewares/ST/STM32_USB_Device_Library/Core/Src/usbd_core.c **** #endif
 644:Middlewares/ST/STM32_USB_Device_Library/Core/Src/usbd_core.c ****     }
 645:Middlewares/ST/STM32_USB_Device_Library/Core/Src/usbd_core.c ****   }
 646:Middlewares/ST/STM32_USB_Device_Library/Core/Src/usbd_core.c ****   else
 647:Middlewares/ST/STM32_USB_Device_Library/Core/Src/usbd_core.c ****   {
 648:Middlewares/ST/STM32_USB_Device_Library/Core/Src/usbd_core.c ****     /* Get the class index relative to this interface */
 649:Middlewares/ST/STM32_USB_Device_Library/Core/Src/usbd_core.c ****     idx = USBD_CoreFindEP(pdev, (epnum & 0x7FU));
 650:Middlewares/ST/STM32_USB_Device_Library/Core/Src/usbd_core.c **** 
 651:Middlewares/ST/STM32_USB_Device_Library/Core/Src/usbd_core.c ****     if (((uint16_t)idx != 0xFFU) && (idx < USBD_MAX_SUPPORTED_CLASS))
 652:Middlewares/ST/STM32_USB_Device_Library/Core/Src/usbd_core.c ****     {
 653:Middlewares/ST/STM32_USB_Device_Library/Core/Src/usbd_core.c ****       /* Call the class data out function to manage the request */
 654:Middlewares/ST/STM32_USB_Device_Library/Core/Src/usbd_core.c ****       if (pdev->dev_state == USBD_STATE_CONFIGURED)
 655:Middlewares/ST/STM32_USB_Device_Library/Core/Src/usbd_core.c ****       {
 656:Middlewares/ST/STM32_USB_Device_Library/Core/Src/usbd_core.c ****         if (pdev->pClass[idx]->DataOut != NULL)
 657:Middlewares/ST/STM32_USB_Device_Library/Core/Src/usbd_core.c ****         {
ARM GAS  C:\Users\ADMINI~1\AppData\Local\Temp\ccOzU0Ff.s 			page 32


 658:Middlewares/ST/STM32_USB_Device_Library/Core/Src/usbd_core.c ****           pdev->classId = idx;
 659:Middlewares/ST/STM32_USB_Device_Library/Core/Src/usbd_core.c ****           ret = (USBD_StatusTypeDef)pdev->pClass[idx]->DataOut(pdev, epnum);
 660:Middlewares/ST/STM32_USB_Device_Library/Core/Src/usbd_core.c ****         }
 661:Middlewares/ST/STM32_USB_Device_Library/Core/Src/usbd_core.c ****       }
 662:Middlewares/ST/STM32_USB_Device_Library/Core/Src/usbd_core.c ****       if (ret != USBD_OK)
 663:Middlewares/ST/STM32_USB_Device_Library/Core/Src/usbd_core.c ****       {
 664:Middlewares/ST/STM32_USB_Device_Library/Core/Src/usbd_core.c ****         return ret;
 665:Middlewares/ST/STM32_USB_Device_Library/Core/Src/usbd_core.c ****       }
 666:Middlewares/ST/STM32_USB_Device_Library/Core/Src/usbd_core.c ****     }
 667:Middlewares/ST/STM32_USB_Device_Library/Core/Src/usbd_core.c ****   }
 668:Middlewares/ST/STM32_USB_Device_Library/Core/Src/usbd_core.c **** 
 669:Middlewares/ST/STM32_USB_Device_Library/Core/Src/usbd_core.c ****   return USBD_OK;
 670:Middlewares/ST/STM32_USB_Device_Library/Core/Src/usbd_core.c **** }
 671:Middlewares/ST/STM32_USB_Device_Library/Core/Src/usbd_core.c **** 
 672:Middlewares/ST/STM32_USB_Device_Library/Core/Src/usbd_core.c **** /**
 673:Middlewares/ST/STM32_USB_Device_Library/Core/Src/usbd_core.c ****   * @brief  USBD_LL_DataInStage
 674:Middlewares/ST/STM32_USB_Device_Library/Core/Src/usbd_core.c ****   *         Handle data in stage
 675:Middlewares/ST/STM32_USB_Device_Library/Core/Src/usbd_core.c ****   * @param  pdev: device instance
 676:Middlewares/ST/STM32_USB_Device_Library/Core/Src/usbd_core.c ****   * @param  epnum: endpoint index
 677:Middlewares/ST/STM32_USB_Device_Library/Core/Src/usbd_core.c ****   * @retval status
 678:Middlewares/ST/STM32_USB_Device_Library/Core/Src/usbd_core.c ****   */
 679:Middlewares/ST/STM32_USB_Device_Library/Core/Src/usbd_core.c **** USBD_StatusTypeDef USBD_LL_DataInStage(USBD_HandleTypeDef *pdev,
 680:Middlewares/ST/STM32_USB_Device_Library/Core/Src/usbd_core.c ****                                        uint8_t epnum, uint8_t *pdata)
 681:Middlewares/ST/STM32_USB_Device_Library/Core/Src/usbd_core.c **** {
 682:Middlewares/ST/STM32_USB_Device_Library/Core/Src/usbd_core.c ****   USBD_EndpointTypeDef *pep;
 683:Middlewares/ST/STM32_USB_Device_Library/Core/Src/usbd_core.c ****   USBD_StatusTypeDef ret;
 684:Middlewares/ST/STM32_USB_Device_Library/Core/Src/usbd_core.c ****   uint8_t idx;
 685:Middlewares/ST/STM32_USB_Device_Library/Core/Src/usbd_core.c **** 
 686:Middlewares/ST/STM32_USB_Device_Library/Core/Src/usbd_core.c ****   if (epnum == 0U)
 687:Middlewares/ST/STM32_USB_Device_Library/Core/Src/usbd_core.c ****   {
 688:Middlewares/ST/STM32_USB_Device_Library/Core/Src/usbd_core.c ****     pep = &pdev->ep_in[0];
 689:Middlewares/ST/STM32_USB_Device_Library/Core/Src/usbd_core.c **** 
 690:Middlewares/ST/STM32_USB_Device_Library/Core/Src/usbd_core.c ****     if (pdev->ep0_state == USBD_EP0_DATA_IN)
 691:Middlewares/ST/STM32_USB_Device_Library/Core/Src/usbd_core.c ****     {
 692:Middlewares/ST/STM32_USB_Device_Library/Core/Src/usbd_core.c ****       if (pep->rem_length > pep->maxpacket)
 693:Middlewares/ST/STM32_USB_Device_Library/Core/Src/usbd_core.c ****       {
 694:Middlewares/ST/STM32_USB_Device_Library/Core/Src/usbd_core.c ****         pep->rem_length -= pep->maxpacket;
 695:Middlewares/ST/STM32_USB_Device_Library/Core/Src/usbd_core.c **** 
 696:Middlewares/ST/STM32_USB_Device_Library/Core/Src/usbd_core.c ****         (void)USBD_CtlContinueSendData(pdev, pdata, pep->rem_length);
 697:Middlewares/ST/STM32_USB_Device_Library/Core/Src/usbd_core.c **** 
 698:Middlewares/ST/STM32_USB_Device_Library/Core/Src/usbd_core.c ****         /* Prepare endpoint for premature end of transfer */
 699:Middlewares/ST/STM32_USB_Device_Library/Core/Src/usbd_core.c ****         (void)USBD_LL_PrepareReceive(pdev, 0U, NULL, 0U);
 700:Middlewares/ST/STM32_USB_Device_Library/Core/Src/usbd_core.c ****       }
 701:Middlewares/ST/STM32_USB_Device_Library/Core/Src/usbd_core.c ****       else
 702:Middlewares/ST/STM32_USB_Device_Library/Core/Src/usbd_core.c ****       {
 703:Middlewares/ST/STM32_USB_Device_Library/Core/Src/usbd_core.c ****         /* last packet is MPS multiple, so send ZLP packet */
 704:Middlewares/ST/STM32_USB_Device_Library/Core/Src/usbd_core.c ****         if ((pep->maxpacket == pep->rem_length) &&
 705:Middlewares/ST/STM32_USB_Device_Library/Core/Src/usbd_core.c ****             (pep->total_length >= pep->maxpacket) &&
 706:Middlewares/ST/STM32_USB_Device_Library/Core/Src/usbd_core.c ****             (pep->total_length < pdev->ep0_data_len))
 707:Middlewares/ST/STM32_USB_Device_Library/Core/Src/usbd_core.c ****         {
 708:Middlewares/ST/STM32_USB_Device_Library/Core/Src/usbd_core.c ****           (void)USBD_CtlContinueSendData(pdev, NULL, 0U);
 709:Middlewares/ST/STM32_USB_Device_Library/Core/Src/usbd_core.c ****           pdev->ep0_data_len = 0U;
 710:Middlewares/ST/STM32_USB_Device_Library/Core/Src/usbd_core.c **** 
 711:Middlewares/ST/STM32_USB_Device_Library/Core/Src/usbd_core.c ****           /* Prepare endpoint for premature end of transfer */
 712:Middlewares/ST/STM32_USB_Device_Library/Core/Src/usbd_core.c ****           (void)USBD_LL_PrepareReceive(pdev, 0U, NULL, 0U);
 713:Middlewares/ST/STM32_USB_Device_Library/Core/Src/usbd_core.c ****         }
 714:Middlewares/ST/STM32_USB_Device_Library/Core/Src/usbd_core.c ****         else
ARM GAS  C:\Users\ADMINI~1\AppData\Local\Temp\ccOzU0Ff.s 			page 33


 715:Middlewares/ST/STM32_USB_Device_Library/Core/Src/usbd_core.c ****         {
 716:Middlewares/ST/STM32_USB_Device_Library/Core/Src/usbd_core.c ****           if (pdev->dev_state == USBD_STATE_CONFIGURED)
 717:Middlewares/ST/STM32_USB_Device_Library/Core/Src/usbd_core.c ****           {
 718:Middlewares/ST/STM32_USB_Device_Library/Core/Src/usbd_core.c ****             if (pdev->pClass[0]->EP0_TxSent != NULL)
 719:Middlewares/ST/STM32_USB_Device_Library/Core/Src/usbd_core.c ****             {
 720:Middlewares/ST/STM32_USB_Device_Library/Core/Src/usbd_core.c ****               pdev->classId = 0U;
 721:Middlewares/ST/STM32_USB_Device_Library/Core/Src/usbd_core.c ****               pdev->pClass[0]->EP0_TxSent(pdev);
 722:Middlewares/ST/STM32_USB_Device_Library/Core/Src/usbd_core.c ****             }
 723:Middlewares/ST/STM32_USB_Device_Library/Core/Src/usbd_core.c ****           }
 724:Middlewares/ST/STM32_USB_Device_Library/Core/Src/usbd_core.c ****           (void)USBD_LL_StallEP(pdev, 0x80U);
 725:Middlewares/ST/STM32_USB_Device_Library/Core/Src/usbd_core.c ****           (void)USBD_CtlReceiveStatus(pdev);
 726:Middlewares/ST/STM32_USB_Device_Library/Core/Src/usbd_core.c ****         }
 727:Middlewares/ST/STM32_USB_Device_Library/Core/Src/usbd_core.c ****       }
 728:Middlewares/ST/STM32_USB_Device_Library/Core/Src/usbd_core.c ****     }
 729:Middlewares/ST/STM32_USB_Device_Library/Core/Src/usbd_core.c ****     else
 730:Middlewares/ST/STM32_USB_Device_Library/Core/Src/usbd_core.c ****     {
 731:Middlewares/ST/STM32_USB_Device_Library/Core/Src/usbd_core.c **** #if 0
 732:Middlewares/ST/STM32_USB_Device_Library/Core/Src/usbd_core.c ****       if ((pdev->ep0_state == USBD_EP0_STATUS_IN) ||
 733:Middlewares/ST/STM32_USB_Device_Library/Core/Src/usbd_core.c ****           (pdev->ep0_state == USBD_EP0_IDLE))
 734:Middlewares/ST/STM32_USB_Device_Library/Core/Src/usbd_core.c ****       {
 735:Middlewares/ST/STM32_USB_Device_Library/Core/Src/usbd_core.c ****         (void)USBD_LL_StallEP(pdev, 0x80U);
 736:Middlewares/ST/STM32_USB_Device_Library/Core/Src/usbd_core.c ****       }
 737:Middlewares/ST/STM32_USB_Device_Library/Core/Src/usbd_core.c **** #endif
 738:Middlewares/ST/STM32_USB_Device_Library/Core/Src/usbd_core.c ****     }
 739:Middlewares/ST/STM32_USB_Device_Library/Core/Src/usbd_core.c **** 
 740:Middlewares/ST/STM32_USB_Device_Library/Core/Src/usbd_core.c ****     if (pdev->dev_test_mode != 0U)
 741:Middlewares/ST/STM32_USB_Device_Library/Core/Src/usbd_core.c ****     {
 742:Middlewares/ST/STM32_USB_Device_Library/Core/Src/usbd_core.c ****       (void)USBD_RunTestMode(pdev);
 743:Middlewares/ST/STM32_USB_Device_Library/Core/Src/usbd_core.c ****       pdev->dev_test_mode = 0U;
 744:Middlewares/ST/STM32_USB_Device_Library/Core/Src/usbd_core.c ****     }
 745:Middlewares/ST/STM32_USB_Device_Library/Core/Src/usbd_core.c ****   }
 746:Middlewares/ST/STM32_USB_Device_Library/Core/Src/usbd_core.c ****   else
 747:Middlewares/ST/STM32_USB_Device_Library/Core/Src/usbd_core.c ****   {
 748:Middlewares/ST/STM32_USB_Device_Library/Core/Src/usbd_core.c ****     /* Get the class index relative to this interface */
 749:Middlewares/ST/STM32_USB_Device_Library/Core/Src/usbd_core.c ****     idx = USBD_CoreFindEP(pdev, ((uint8_t)epnum | 0x80U));
 750:Middlewares/ST/STM32_USB_Device_Library/Core/Src/usbd_core.c **** 
 751:Middlewares/ST/STM32_USB_Device_Library/Core/Src/usbd_core.c ****     if (((uint16_t)idx != 0xFFU) && (idx < USBD_MAX_SUPPORTED_CLASS))
 752:Middlewares/ST/STM32_USB_Device_Library/Core/Src/usbd_core.c ****     {
 753:Middlewares/ST/STM32_USB_Device_Library/Core/Src/usbd_core.c ****       /* Call the class data out function to manage the request */
 754:Middlewares/ST/STM32_USB_Device_Library/Core/Src/usbd_core.c ****       if (pdev->dev_state == USBD_STATE_CONFIGURED)
 755:Middlewares/ST/STM32_USB_Device_Library/Core/Src/usbd_core.c ****       {
 756:Middlewares/ST/STM32_USB_Device_Library/Core/Src/usbd_core.c ****         if (pdev->pClass[idx]->DataIn != NULL)
 757:Middlewares/ST/STM32_USB_Device_Library/Core/Src/usbd_core.c ****         {
 758:Middlewares/ST/STM32_USB_Device_Library/Core/Src/usbd_core.c ****           pdev->classId = idx;
 759:Middlewares/ST/STM32_USB_Device_Library/Core/Src/usbd_core.c ****           ret = (USBD_StatusTypeDef)pdev->pClass[idx]->DataIn(pdev, epnum);
 760:Middlewares/ST/STM32_USB_Device_Library/Core/Src/usbd_core.c **** 
 761:Middlewares/ST/STM32_USB_Device_Library/Core/Src/usbd_core.c ****           if (ret != USBD_OK)
 762:Middlewares/ST/STM32_USB_Device_Library/Core/Src/usbd_core.c ****           {
 763:Middlewares/ST/STM32_USB_Device_Library/Core/Src/usbd_core.c ****             return ret;
 764:Middlewares/ST/STM32_USB_Device_Library/Core/Src/usbd_core.c ****           }
 765:Middlewares/ST/STM32_USB_Device_Library/Core/Src/usbd_core.c ****         }
 766:Middlewares/ST/STM32_USB_Device_Library/Core/Src/usbd_core.c ****       }
 767:Middlewares/ST/STM32_USB_Device_Library/Core/Src/usbd_core.c ****     }
 768:Middlewares/ST/STM32_USB_Device_Library/Core/Src/usbd_core.c ****   }
 769:Middlewares/ST/STM32_USB_Device_Library/Core/Src/usbd_core.c **** 
 770:Middlewares/ST/STM32_USB_Device_Library/Core/Src/usbd_core.c ****   return USBD_OK;
 771:Middlewares/ST/STM32_USB_Device_Library/Core/Src/usbd_core.c **** }
ARM GAS  C:\Users\ADMINI~1\AppData\Local\Temp\ccOzU0Ff.s 			page 34


 772:Middlewares/ST/STM32_USB_Device_Library/Core/Src/usbd_core.c **** 
 773:Middlewares/ST/STM32_USB_Device_Library/Core/Src/usbd_core.c **** /**
 774:Middlewares/ST/STM32_USB_Device_Library/Core/Src/usbd_core.c ****   * @brief  USBD_LL_Reset
 775:Middlewares/ST/STM32_USB_Device_Library/Core/Src/usbd_core.c ****   *         Handle Reset event
 776:Middlewares/ST/STM32_USB_Device_Library/Core/Src/usbd_core.c ****   * @param  pdev: device instance
 777:Middlewares/ST/STM32_USB_Device_Library/Core/Src/usbd_core.c ****   * @retval status
 778:Middlewares/ST/STM32_USB_Device_Library/Core/Src/usbd_core.c ****   */
 779:Middlewares/ST/STM32_USB_Device_Library/Core/Src/usbd_core.c **** 
 780:Middlewares/ST/STM32_USB_Device_Library/Core/Src/usbd_core.c **** USBD_StatusTypeDef USBD_LL_Reset(USBD_HandleTypeDef *pdev)
 781:Middlewares/ST/STM32_USB_Device_Library/Core/Src/usbd_core.c **** {
 1047              		.loc 1 781 1 view -0
 1048              		.cfi_startproc
 1049              		@ args = 0, pretend = 0, frame = 0
 1050              		@ frame_needed = 0, uses_anonymous_args = 0
 1051              		.loc 1 781 1 is_stmt 0 view .LVU333
 1052 0000 F8B5     		push	{r3, r4, r5, r6, r7, lr}
 1053              	.LCFI17:
 1054              		.cfi_def_cfa_offset 24
 1055              		.cfi_offset 3, -24
 1056              		.cfi_offset 4, -20
 1057              		.cfi_offset 5, -16
 1058              		.cfi_offset 6, -12
 1059              		.cfi_offset 7, -8
 1060              		.cfi_offset 14, -4
 1061 0002 0546     		mov	r5, r0
 782:Middlewares/ST/STM32_USB_Device_Library/Core/Src/usbd_core.c ****   USBD_StatusTypeDef ret = USBD_OK;
 1062              		.loc 1 782 3 is_stmt 1 view .LVU334
 1063              	.LVL78:
 783:Middlewares/ST/STM32_USB_Device_Library/Core/Src/usbd_core.c **** 
 784:Middlewares/ST/STM32_USB_Device_Library/Core/Src/usbd_core.c ****   /* Upon Reset call user call back */
 785:Middlewares/ST/STM32_USB_Device_Library/Core/Src/usbd_core.c ****   pdev->dev_state = USBD_STATE_DEFAULT;
 1064              		.loc 1 785 3 view .LVU335
 1065              		.loc 1 785 19 is_stmt 0 view .LVU336
 1066 0004 0123     		movs	r3, #1
 1067 0006 80F89C32 		strb	r3, [r0, #668]
 786:Middlewares/ST/STM32_USB_Device_Library/Core/Src/usbd_core.c ****   pdev->ep0_state = USBD_EP0_IDLE;
 1068              		.loc 1 786 3 is_stmt 1 view .LVU337
 1069              		.loc 1 786 19 is_stmt 0 view .LVU338
 1070 000a 0026     		movs	r6, #0
 1071 000c C0F89462 		str	r6, [r0, #660]
 787:Middlewares/ST/STM32_USB_Device_Library/Core/Src/usbd_core.c ****   pdev->dev_config = 0U;
 1072              		.loc 1 787 3 is_stmt 1 view .LVU339
 1073              		.loc 1 787 20 is_stmt 0 view .LVU340
 1074 0010 4660     		str	r6, [r0, #4]
 788:Middlewares/ST/STM32_USB_Device_Library/Core/Src/usbd_core.c ****   pdev->dev_remote_wakeup = 0U;
 1075              		.loc 1 788 3 is_stmt 1 view .LVU341
 1076              		.loc 1 788 27 is_stmt 0 view .LVU342
 1077 0012 C0F8A462 		str	r6, [r0, #676]
 789:Middlewares/ST/STM32_USB_Device_Library/Core/Src/usbd_core.c ****   pdev->dev_test_mode = 0U;
 1078              		.loc 1 789 3 is_stmt 1 view .LVU343
 1079              		.loc 1 789 23 is_stmt 0 view .LVU344
 1080 0016 80F8A062 		strb	r6, [r0, #672]
 790:Middlewares/ST/STM32_USB_Device_Library/Core/Src/usbd_core.c **** 
 791:Middlewares/ST/STM32_USB_Device_Library/Core/Src/usbd_core.c **** #ifdef USE_USBD_COMPOSITE
 792:Middlewares/ST/STM32_USB_Device_Library/Core/Src/usbd_core.c ****   /* Parse the table of classes in use */
 793:Middlewares/ST/STM32_USB_Device_Library/Core/Src/usbd_core.c ****   for (uint32_t i = 0U; i < USBD_MAX_SUPPORTED_CLASS; i++)
 1081              		.loc 1 793 3 is_stmt 1 view .LVU345
ARM GAS  C:\Users\ADMINI~1\AppData\Local\Temp\ccOzU0Ff.s 			page 35


 1082              	.LBB9:
 1083              		.loc 1 793 8 view .LVU346
 1084              	.LVL79:
 1085              		.loc 1 793 17 is_stmt 0 view .LVU347
 1086 001a 3446     		mov	r4, r6
 1087              		.loc 1 793 3 view .LVU348
 1088 001c 00E0     		b	.L73
 1089              	.LVL80:
 1090              	.L74:
 1091              		.loc 1 793 55 is_stmt 1 discriminator 2 view .LVU349
 1092              		.loc 1 793 56 is_stmt 0 discriminator 2 view .LVU350
 1093 001e 0134     		adds	r4, r4, #1
 1094              	.LVL81:
 1095              	.L73:
 1096              		.loc 1 793 25 is_stmt 1 discriminator 1 view .LVU351
 1097              		.loc 1 793 3 is_stmt 0 discriminator 1 view .LVU352
 1098 0020 032C     		cmp	r4, #3
 1099 0022 19D8     		bhi	.L78
 794:Middlewares/ST/STM32_USB_Device_Library/Core/Src/usbd_core.c ****   {
 795:Middlewares/ST/STM32_USB_Device_Library/Core/Src/usbd_core.c ****     /* Check if current class is in use */
 796:Middlewares/ST/STM32_USB_Device_Library/Core/Src/usbd_core.c ****     if ((pdev->tclasslist[i].Active) == 1U)
 1100              		.loc 1 796 5 is_stmt 1 view .LVU353
 1101              		.loc 1 796 29 is_stmt 0 view .LVU354
 1102 0024 C4EBC403 		rsb	r3, r4, r4, lsl #3
 1103 0028 05EBC303 		add	r3, r5, r3, lsl #3
 1104 002c D3F80833 		ldr	r3, [r3, #776]
 1105              		.loc 1 796 8 view .LVU355
 1106 0030 012B     		cmp	r3, #1
 1107 0032 F4D1     		bne	.L74
 797:Middlewares/ST/STM32_USB_Device_Library/Core/Src/usbd_core.c ****     {
 798:Middlewares/ST/STM32_USB_Device_Library/Core/Src/usbd_core.c ****       if (pdev->pClass[i] != NULL)
 1108              		.loc 1 798 7 is_stmt 1 view .LVU356
 1109              		.loc 1 798 23 is_stmt 0 view .LVU357
 1110 0034 04F1AE03 		add	r3, r4, #174
 1111 0038 55F82330 		ldr	r3, [r5, r3, lsl #2]
 1112              		.loc 1 798 10 view .LVU358
 1113 003c 002B     		cmp	r3, #0
 1114 003e EED0     		beq	.L74
 799:Middlewares/ST/STM32_USB_Device_Library/Core/Src/usbd_core.c ****       {
 800:Middlewares/ST/STM32_USB_Device_Library/Core/Src/usbd_core.c ****         pdev->classId = i;
 1115              		.loc 1 800 9 is_stmt 1 view .LVU359
 1116              		.loc 1 800 23 is_stmt 0 view .LVU360
 1117 0040 C5F8F842 		str	r4, [r5, #760]
 801:Middlewares/ST/STM32_USB_Device_Library/Core/Src/usbd_core.c ****         /* Clear configuration  and De-initialize the Class process*/
 802:Middlewares/ST/STM32_USB_Device_Library/Core/Src/usbd_core.c **** 
 803:Middlewares/ST/STM32_USB_Device_Library/Core/Src/usbd_core.c ****         if (pdev->pClass[i]->DeInit != NULL)
 1118              		.loc 1 803 9 is_stmt 1 view .LVU361
 1119              		.loc 1 803 28 is_stmt 0 view .LVU362
 1120 0044 5B68     		ldr	r3, [r3, #4]
 1121              		.loc 1 803 12 view .LVU363
 1122 0046 002B     		cmp	r3, #0
 1123 0048 E9D0     		beq	.L74
 804:Middlewares/ST/STM32_USB_Device_Library/Core/Src/usbd_core.c ****         {
 805:Middlewares/ST/STM32_USB_Device_Library/Core/Src/usbd_core.c ****           if (pdev->pClass[i]->DeInit(pdev, (uint8_t)pdev->dev_config) != USBD_OK)
 1124              		.loc 1 805 11 is_stmt 1 view .LVU364
 1125              		.loc 1 805 15 is_stmt 0 view .LVU365
 1126 004a 2979     		ldrb	r1, [r5, #4]	@ zero_extendqisi2
ARM GAS  C:\Users\ADMINI~1\AppData\Local\Temp\ccOzU0Ff.s 			page 36


 1127 004c 2846     		mov	r0, r5
 1128 004e 9847     		blx	r3
 1129              	.LVL82:
 1130              		.loc 1 805 14 view .LVU366
 1131 0050 0028     		cmp	r0, #0
 1132 0052 E4D0     		beq	.L74
 806:Middlewares/ST/STM32_USB_Device_Library/Core/Src/usbd_core.c ****           {
 807:Middlewares/ST/STM32_USB_Device_Library/Core/Src/usbd_core.c ****             ret = USBD_FAIL;
 1133              		.loc 1 807 17 view .LVU367
 1134 0054 0326     		movs	r6, #3
 1135              	.LVL83:
 1136              		.loc 1 807 17 view .LVU368
 1137 0056 E2E7     		b	.L74
 1138              	.LVL84:
 1139              	.L78:
 1140              		.loc 1 807 17 view .LVU369
 1141              	.LBE9:
 808:Middlewares/ST/STM32_USB_Device_Library/Core/Src/usbd_core.c ****           }
 809:Middlewares/ST/STM32_USB_Device_Library/Core/Src/usbd_core.c ****         }
 810:Middlewares/ST/STM32_USB_Device_Library/Core/Src/usbd_core.c ****       }
 811:Middlewares/ST/STM32_USB_Device_Library/Core/Src/usbd_core.c ****     }
 812:Middlewares/ST/STM32_USB_Device_Library/Core/Src/usbd_core.c ****   }
 813:Middlewares/ST/STM32_USB_Device_Library/Core/Src/usbd_core.c **** #else
 814:Middlewares/ST/STM32_USB_Device_Library/Core/Src/usbd_core.c **** 
 815:Middlewares/ST/STM32_USB_Device_Library/Core/Src/usbd_core.c ****   if (pdev->pClass[0] != NULL)
 816:Middlewares/ST/STM32_USB_Device_Library/Core/Src/usbd_core.c ****   {
 817:Middlewares/ST/STM32_USB_Device_Library/Core/Src/usbd_core.c ****     if (pdev->pClass[0]->DeInit != NULL)
 818:Middlewares/ST/STM32_USB_Device_Library/Core/Src/usbd_core.c ****     {
 819:Middlewares/ST/STM32_USB_Device_Library/Core/Src/usbd_core.c ****       if (pdev->pClass[0]->DeInit(pdev, (uint8_t)pdev->dev_config) != USBD_OK)
 820:Middlewares/ST/STM32_USB_Device_Library/Core/Src/usbd_core.c ****       {
 821:Middlewares/ST/STM32_USB_Device_Library/Core/Src/usbd_core.c ****         ret = USBD_FAIL;
 822:Middlewares/ST/STM32_USB_Device_Library/Core/Src/usbd_core.c ****       }
 823:Middlewares/ST/STM32_USB_Device_Library/Core/Src/usbd_core.c ****     }
 824:Middlewares/ST/STM32_USB_Device_Library/Core/Src/usbd_core.c ****   }
 825:Middlewares/ST/STM32_USB_Device_Library/Core/Src/usbd_core.c **** #endif /* USE_USBD_COMPOSITE */
 826:Middlewares/ST/STM32_USB_Device_Library/Core/Src/usbd_core.c **** 
 827:Middlewares/ST/STM32_USB_Device_Library/Core/Src/usbd_core.c ****   /* Open EP0 OUT */
 828:Middlewares/ST/STM32_USB_Device_Library/Core/Src/usbd_core.c ****   (void)USBD_LL_OpenEP(pdev, 0x00U, USBD_EP_TYPE_CTRL, USB_MAX_EP0_SIZE);
 1142              		.loc 1 828 3 is_stmt 1 view .LVU370
 1143              		.loc 1 828 9 is_stmt 0 view .LVU371
 1144 0058 4023     		movs	r3, #64
 1145 005a 0022     		movs	r2, #0
 1146 005c 1146     		mov	r1, r2
 1147 005e 2846     		mov	r0, r5
 1148 0060 FFF7FEFF 		bl	USBD_LL_OpenEP
 1149              	.LVL85:
 829:Middlewares/ST/STM32_USB_Device_Library/Core/Src/usbd_core.c ****   pdev->ep_out[0x00U & 0xFU].is_used = 1U;
 1150              		.loc 1 829 3 is_stmt 1 view .LVU372
 1151              		.loc 1 829 38 is_stmt 0 view .LVU373
 1152 0064 0127     		movs	r7, #1
 1153 0066 A5F86471 		strh	r7, [r5, #356]	@ movhi
 830:Middlewares/ST/STM32_USB_Device_Library/Core/Src/usbd_core.c **** 
 831:Middlewares/ST/STM32_USB_Device_Library/Core/Src/usbd_core.c ****   pdev->ep_out[0].maxpacket = USB_MAX_EP0_SIZE;
 1154              		.loc 1 831 3 is_stmt 1 view .LVU374
 1155              		.loc 1 831 29 is_stmt 0 view .LVU375
 1156 006a 4024     		movs	r4, #64
 1157              	.LVL86:
ARM GAS  C:\Users\ADMINI~1\AppData\Local\Temp\ccOzU0Ff.s 			page 37


 1158              		.loc 1 831 29 view .LVU376
 1159 006c C5F86041 		str	r4, [r5, #352]
 832:Middlewares/ST/STM32_USB_Device_Library/Core/Src/usbd_core.c **** 
 833:Middlewares/ST/STM32_USB_Device_Library/Core/Src/usbd_core.c ****   /* Open EP0 IN */
 834:Middlewares/ST/STM32_USB_Device_Library/Core/Src/usbd_core.c ****   (void)USBD_LL_OpenEP(pdev, 0x80U, USBD_EP_TYPE_CTRL, USB_MAX_EP0_SIZE);
 1160              		.loc 1 834 3 is_stmt 1 view .LVU377
 1161              		.loc 1 834 9 is_stmt 0 view .LVU378
 1162 0070 2346     		mov	r3, r4
 1163 0072 0022     		movs	r2, #0
 1164 0074 8021     		movs	r1, #128
 1165 0076 2846     		mov	r0, r5
 1166 0078 FFF7FEFF 		bl	USBD_LL_OpenEP
 1167              	.LVL87:
 835:Middlewares/ST/STM32_USB_Device_Library/Core/Src/usbd_core.c ****   pdev->ep_in[0x80U & 0xFU].is_used = 1U;
 1168              		.loc 1 835 3 is_stmt 1 view .LVU379
 1169              		.loc 1 835 37 is_stmt 0 view .LVU380
 1170 007c AF84     		strh	r7, [r5, #36]	@ movhi
 836:Middlewares/ST/STM32_USB_Device_Library/Core/Src/usbd_core.c **** 
 837:Middlewares/ST/STM32_USB_Device_Library/Core/Src/usbd_core.c ****   pdev->ep_in[0].maxpacket = USB_MAX_EP0_SIZE;
 1171              		.loc 1 837 3 is_stmt 1 view .LVU381
 1172              		.loc 1 837 28 is_stmt 0 view .LVU382
 1173 007e 2C62     		str	r4, [r5, #32]
 838:Middlewares/ST/STM32_USB_Device_Library/Core/Src/usbd_core.c **** 
 839:Middlewares/ST/STM32_USB_Device_Library/Core/Src/usbd_core.c ****   return ret;
 1174              		.loc 1 839 3 is_stmt 1 view .LVU383
 840:Middlewares/ST/STM32_USB_Device_Library/Core/Src/usbd_core.c **** }
 1175              		.loc 1 840 1 is_stmt 0 view .LVU384
 1176 0080 3046     		mov	r0, r6
 1177 0082 F8BD     		pop	{r3, r4, r5, r6, r7, pc}
 1178              		.loc 1 840 1 view .LVU385
 1179              		.cfi_endproc
 1180              	.LFE147:
 1182              		.section	.text.USBD_LL_SetSpeed,"ax",%progbits
 1183              		.align	1
 1184              		.global	USBD_LL_SetSpeed
 1185              		.syntax unified
 1186              		.thumb
 1187              		.thumb_func
 1189              	USBD_LL_SetSpeed:
 1190              	.LVL88:
 1191              	.LFB148:
 841:Middlewares/ST/STM32_USB_Device_Library/Core/Src/usbd_core.c **** 
 842:Middlewares/ST/STM32_USB_Device_Library/Core/Src/usbd_core.c **** /**
 843:Middlewares/ST/STM32_USB_Device_Library/Core/Src/usbd_core.c ****   * @brief  USBD_LL_SetSpeed
 844:Middlewares/ST/STM32_USB_Device_Library/Core/Src/usbd_core.c ****   *         Handle Reset event
 845:Middlewares/ST/STM32_USB_Device_Library/Core/Src/usbd_core.c ****   * @param  pdev: device instance
 846:Middlewares/ST/STM32_USB_Device_Library/Core/Src/usbd_core.c ****   * @retval status
 847:Middlewares/ST/STM32_USB_Device_Library/Core/Src/usbd_core.c ****   */
 848:Middlewares/ST/STM32_USB_Device_Library/Core/Src/usbd_core.c **** USBD_StatusTypeDef USBD_LL_SetSpeed(USBD_HandleTypeDef *pdev,
 849:Middlewares/ST/STM32_USB_Device_Library/Core/Src/usbd_core.c ****                                     USBD_SpeedTypeDef speed)
 850:Middlewares/ST/STM32_USB_Device_Library/Core/Src/usbd_core.c **** {
 1192              		.loc 1 850 1 is_stmt 1 view -0
 1193              		.cfi_startproc
 1194              		@ args = 0, pretend = 0, frame = 0
 1195              		@ frame_needed = 0, uses_anonymous_args = 0
 1196              		@ link register save eliminated.
 851:Middlewares/ST/STM32_USB_Device_Library/Core/Src/usbd_core.c ****   pdev->dev_speed = speed;
ARM GAS  C:\Users\ADMINI~1\AppData\Local\Temp\ccOzU0Ff.s 			page 38


 1197              		.loc 1 851 3 view .LVU387
 1198              		.loc 1 851 19 is_stmt 0 view .LVU388
 1199 0000 0174     		strb	r1, [r0, #16]
 852:Middlewares/ST/STM32_USB_Device_Library/Core/Src/usbd_core.c **** 
 853:Middlewares/ST/STM32_USB_Device_Library/Core/Src/usbd_core.c ****   return USBD_OK;
 1200              		.loc 1 853 3 is_stmt 1 view .LVU389
 854:Middlewares/ST/STM32_USB_Device_Library/Core/Src/usbd_core.c **** }
 1201              		.loc 1 854 1 is_stmt 0 view .LVU390
 1202 0002 0020     		movs	r0, #0
 1203              	.LVL89:
 1204              		.loc 1 854 1 view .LVU391
 1205 0004 7047     		bx	lr
 1206              		.cfi_endproc
 1207              	.LFE148:
 1209              		.section	.text.USBD_LL_Suspend,"ax",%progbits
 1210              		.align	1
 1211              		.global	USBD_LL_Suspend
 1212              		.syntax unified
 1213              		.thumb
 1214              		.thumb_func
 1216              	USBD_LL_Suspend:
 1217              	.LVL90:
 1218              	.LFB149:
 855:Middlewares/ST/STM32_USB_Device_Library/Core/Src/usbd_core.c **** 
 856:Middlewares/ST/STM32_USB_Device_Library/Core/Src/usbd_core.c **** /**
 857:Middlewares/ST/STM32_USB_Device_Library/Core/Src/usbd_core.c ****   * @brief  USBD_LL_Suspend
 858:Middlewares/ST/STM32_USB_Device_Library/Core/Src/usbd_core.c ****   *         Handle Suspend event
 859:Middlewares/ST/STM32_USB_Device_Library/Core/Src/usbd_core.c ****   * @param  pdev: device instance
 860:Middlewares/ST/STM32_USB_Device_Library/Core/Src/usbd_core.c ****   * @retval status
 861:Middlewares/ST/STM32_USB_Device_Library/Core/Src/usbd_core.c ****   */
 862:Middlewares/ST/STM32_USB_Device_Library/Core/Src/usbd_core.c **** 
 863:Middlewares/ST/STM32_USB_Device_Library/Core/Src/usbd_core.c **** USBD_StatusTypeDef USBD_LL_Suspend(USBD_HandleTypeDef *pdev)
 864:Middlewares/ST/STM32_USB_Device_Library/Core/Src/usbd_core.c **** {
 1219              		.loc 1 864 1 is_stmt 1 view -0
 1220              		.cfi_startproc
 1221              		@ args = 0, pretend = 0, frame = 0
 1222              		@ frame_needed = 0, uses_anonymous_args = 0
 1223              		@ link register save eliminated.
 865:Middlewares/ST/STM32_USB_Device_Library/Core/Src/usbd_core.c ****   pdev->dev_old_state = pdev->dev_state;
 1224              		.loc 1 865 3 view .LVU393
 1225              		.loc 1 865 29 is_stmt 0 view .LVU394
 1226 0000 90F89C32 		ldrb	r3, [r0, #668]	@ zero_extendqisi2
 1227 0004 DBB2     		uxtb	r3, r3
 1228              		.loc 1 865 23 view .LVU395
 1229 0006 80F89D32 		strb	r3, [r0, #669]
 866:Middlewares/ST/STM32_USB_Device_Library/Core/Src/usbd_core.c ****   pdev->dev_state = USBD_STATE_SUSPENDED;
 1230              		.loc 1 866 3 is_stmt 1 view .LVU396
 1231              		.loc 1 866 19 is_stmt 0 view .LVU397
 1232 000a 0423     		movs	r3, #4
 1233 000c 80F89C32 		strb	r3, [r0, #668]
 867:Middlewares/ST/STM32_USB_Device_Library/Core/Src/usbd_core.c **** 
 868:Middlewares/ST/STM32_USB_Device_Library/Core/Src/usbd_core.c ****   return USBD_OK;
 1234              		.loc 1 868 3 is_stmt 1 view .LVU398
 869:Middlewares/ST/STM32_USB_Device_Library/Core/Src/usbd_core.c **** }
 1235              		.loc 1 869 1 is_stmt 0 view .LVU399
 1236 0010 0020     		movs	r0, #0
 1237              	.LVL91:
ARM GAS  C:\Users\ADMINI~1\AppData\Local\Temp\ccOzU0Ff.s 			page 39


 1238              		.loc 1 869 1 view .LVU400
 1239 0012 7047     		bx	lr
 1240              		.cfi_endproc
 1241              	.LFE149:
 1243              		.section	.text.USBD_LL_Resume,"ax",%progbits
 1244              		.align	1
 1245              		.global	USBD_LL_Resume
 1246              		.syntax unified
 1247              		.thumb
 1248              		.thumb_func
 1250              	USBD_LL_Resume:
 1251              	.LVL92:
 1252              	.LFB150:
 870:Middlewares/ST/STM32_USB_Device_Library/Core/Src/usbd_core.c **** 
 871:Middlewares/ST/STM32_USB_Device_Library/Core/Src/usbd_core.c **** /**
 872:Middlewares/ST/STM32_USB_Device_Library/Core/Src/usbd_core.c ****   * @brief  USBD_LL_Resume
 873:Middlewares/ST/STM32_USB_Device_Library/Core/Src/usbd_core.c ****   *         Handle Resume event
 874:Middlewares/ST/STM32_USB_Device_Library/Core/Src/usbd_core.c ****   * @param  pdev: device instance
 875:Middlewares/ST/STM32_USB_Device_Library/Core/Src/usbd_core.c ****   * @retval status
 876:Middlewares/ST/STM32_USB_Device_Library/Core/Src/usbd_core.c ****   */
 877:Middlewares/ST/STM32_USB_Device_Library/Core/Src/usbd_core.c **** 
 878:Middlewares/ST/STM32_USB_Device_Library/Core/Src/usbd_core.c **** USBD_StatusTypeDef USBD_LL_Resume(USBD_HandleTypeDef *pdev)
 879:Middlewares/ST/STM32_USB_Device_Library/Core/Src/usbd_core.c **** {
 1253              		.loc 1 879 1 is_stmt 1 view -0
 1254              		.cfi_startproc
 1255              		@ args = 0, pretend = 0, frame = 0
 1256              		@ frame_needed = 0, uses_anonymous_args = 0
 1257              		@ link register save eliminated.
 880:Middlewares/ST/STM32_USB_Device_Library/Core/Src/usbd_core.c ****   if (pdev->dev_state == USBD_STATE_SUSPENDED)
 1258              		.loc 1 880 3 view .LVU402
 1259              		.loc 1 880 11 is_stmt 0 view .LVU403
 1260 0000 90F89C32 		ldrb	r3, [r0, #668]	@ zero_extendqisi2
 1261 0004 DBB2     		uxtb	r3, r3
 1262              		.loc 1 880 6 view .LVU404
 1263 0006 042B     		cmp	r3, #4
 1264 0008 01D0     		beq	.L83
 1265              	.L82:
 881:Middlewares/ST/STM32_USB_Device_Library/Core/Src/usbd_core.c ****   {
 882:Middlewares/ST/STM32_USB_Device_Library/Core/Src/usbd_core.c ****     pdev->dev_state = pdev->dev_old_state;
 883:Middlewares/ST/STM32_USB_Device_Library/Core/Src/usbd_core.c ****   }
 884:Middlewares/ST/STM32_USB_Device_Library/Core/Src/usbd_core.c **** 
 885:Middlewares/ST/STM32_USB_Device_Library/Core/Src/usbd_core.c ****   return USBD_OK;
 1266              		.loc 1 885 3 is_stmt 1 view .LVU405
 886:Middlewares/ST/STM32_USB_Device_Library/Core/Src/usbd_core.c **** }
 1267              		.loc 1 886 1 is_stmt 0 view .LVU406
 1268 000a 0020     		movs	r0, #0
 1269              	.LVL93:
 1270              		.loc 1 886 1 view .LVU407
 1271 000c 7047     		bx	lr
 1272              	.LVL94:
 1273              	.L83:
 882:Middlewares/ST/STM32_USB_Device_Library/Core/Src/usbd_core.c ****   }
 1274              		.loc 1 882 5 is_stmt 1 view .LVU408
 882:Middlewares/ST/STM32_USB_Device_Library/Core/Src/usbd_core.c ****   }
 1275              		.loc 1 882 27 is_stmt 0 view .LVU409
 1276 000e 90F89D32 		ldrb	r3, [r0, #669]	@ zero_extendqisi2
 1277 0012 DBB2     		uxtb	r3, r3
ARM GAS  C:\Users\ADMINI~1\AppData\Local\Temp\ccOzU0Ff.s 			page 40


 882:Middlewares/ST/STM32_USB_Device_Library/Core/Src/usbd_core.c ****   }
 1278              		.loc 1 882 21 view .LVU410
 1279 0014 80F89C32 		strb	r3, [r0, #668]
 1280 0018 F7E7     		b	.L82
 1281              		.cfi_endproc
 1282              	.LFE150:
 1284              		.section	.text.USBD_LL_SOF,"ax",%progbits
 1285              		.align	1
 1286              		.global	USBD_LL_SOF
 1287              		.syntax unified
 1288              		.thumb
 1289              		.thumb_func
 1291              	USBD_LL_SOF:
 1292              	.LVL95:
 1293              	.LFB151:
 887:Middlewares/ST/STM32_USB_Device_Library/Core/Src/usbd_core.c **** 
 888:Middlewares/ST/STM32_USB_Device_Library/Core/Src/usbd_core.c **** /**
 889:Middlewares/ST/STM32_USB_Device_Library/Core/Src/usbd_core.c ****   * @brief  USBD_LL_SOF
 890:Middlewares/ST/STM32_USB_Device_Library/Core/Src/usbd_core.c ****   *         Handle SOF event
 891:Middlewares/ST/STM32_USB_Device_Library/Core/Src/usbd_core.c ****   * @param  pdev: device instance
 892:Middlewares/ST/STM32_USB_Device_Library/Core/Src/usbd_core.c ****   * @retval status
 893:Middlewares/ST/STM32_USB_Device_Library/Core/Src/usbd_core.c ****   */
 894:Middlewares/ST/STM32_USB_Device_Library/Core/Src/usbd_core.c **** 
 895:Middlewares/ST/STM32_USB_Device_Library/Core/Src/usbd_core.c **** USBD_StatusTypeDef USBD_LL_SOF(USBD_HandleTypeDef *pdev)
 896:Middlewares/ST/STM32_USB_Device_Library/Core/Src/usbd_core.c **** {
 1294              		.loc 1 896 1 is_stmt 1 view -0
 1295              		.cfi_startproc
 1296              		@ args = 0, pretend = 0, frame = 0
 1297              		@ frame_needed = 0, uses_anonymous_args = 0
 1298              		.loc 1 896 1 is_stmt 0 view .LVU412
 1299 0000 38B5     		push	{r3, r4, r5, lr}
 1300              	.LCFI18:
 1301              		.cfi_def_cfa_offset 16
 1302              		.cfi_offset 3, -16
 1303              		.cfi_offset 4, -12
 1304              		.cfi_offset 5, -8
 1305              		.cfi_offset 14, -4
 897:Middlewares/ST/STM32_USB_Device_Library/Core/Src/usbd_core.c ****   /* The SOF event can be distributed for all classes that support it */
 898:Middlewares/ST/STM32_USB_Device_Library/Core/Src/usbd_core.c ****   if (pdev->dev_state == USBD_STATE_CONFIGURED)
 1306              		.loc 1 898 3 is_stmt 1 view .LVU413
 1307              		.loc 1 898 11 is_stmt 0 view .LVU414
 1308 0002 90F89C32 		ldrb	r3, [r0, #668]	@ zero_extendqisi2
 1309 0006 DBB2     		uxtb	r3, r3
 1310              		.loc 1 898 6 view .LVU415
 1311 0008 032B     		cmp	r3, #3
 1312 000a 1BD0     		beq	.L92
 1313              	.LVL96:
 1314              	.L86:
 899:Middlewares/ST/STM32_USB_Device_Library/Core/Src/usbd_core.c ****   {
 900:Middlewares/ST/STM32_USB_Device_Library/Core/Src/usbd_core.c **** #ifdef USE_USBD_COMPOSITE
 901:Middlewares/ST/STM32_USB_Device_Library/Core/Src/usbd_core.c ****     /* Parse the table of classes in use */
 902:Middlewares/ST/STM32_USB_Device_Library/Core/Src/usbd_core.c ****     for (uint32_t i = 0; i < USBD_MAX_SUPPORTED_CLASS; i++)
 903:Middlewares/ST/STM32_USB_Device_Library/Core/Src/usbd_core.c ****     {
 904:Middlewares/ST/STM32_USB_Device_Library/Core/Src/usbd_core.c ****       /* Check if current class is in use */
 905:Middlewares/ST/STM32_USB_Device_Library/Core/Src/usbd_core.c ****       if ((pdev->tclasslist[i].Active) == 1U)
 906:Middlewares/ST/STM32_USB_Device_Library/Core/Src/usbd_core.c ****       {
 907:Middlewares/ST/STM32_USB_Device_Library/Core/Src/usbd_core.c ****         if (pdev->pClass[i] != NULL)
ARM GAS  C:\Users\ADMINI~1\AppData\Local\Temp\ccOzU0Ff.s 			page 41


 908:Middlewares/ST/STM32_USB_Device_Library/Core/Src/usbd_core.c ****         {
 909:Middlewares/ST/STM32_USB_Device_Library/Core/Src/usbd_core.c ****           if (pdev->pClass[i]->SOF != NULL)
 910:Middlewares/ST/STM32_USB_Device_Library/Core/Src/usbd_core.c ****           {
 911:Middlewares/ST/STM32_USB_Device_Library/Core/Src/usbd_core.c ****             pdev->classId = i;
 912:Middlewares/ST/STM32_USB_Device_Library/Core/Src/usbd_core.c ****             (void)pdev->pClass[i]->SOF(pdev);
 913:Middlewares/ST/STM32_USB_Device_Library/Core/Src/usbd_core.c ****           }
 914:Middlewares/ST/STM32_USB_Device_Library/Core/Src/usbd_core.c ****         }
 915:Middlewares/ST/STM32_USB_Device_Library/Core/Src/usbd_core.c ****       }
 916:Middlewares/ST/STM32_USB_Device_Library/Core/Src/usbd_core.c ****     }
 917:Middlewares/ST/STM32_USB_Device_Library/Core/Src/usbd_core.c **** #else
 918:Middlewares/ST/STM32_USB_Device_Library/Core/Src/usbd_core.c ****     if (pdev->pClass[0] != NULL)
 919:Middlewares/ST/STM32_USB_Device_Library/Core/Src/usbd_core.c ****     {
 920:Middlewares/ST/STM32_USB_Device_Library/Core/Src/usbd_core.c ****       if (pdev->pClass[0]->SOF != NULL)
 921:Middlewares/ST/STM32_USB_Device_Library/Core/Src/usbd_core.c ****       {
 922:Middlewares/ST/STM32_USB_Device_Library/Core/Src/usbd_core.c ****         (void)pdev->pClass[0]->SOF(pdev);
 923:Middlewares/ST/STM32_USB_Device_Library/Core/Src/usbd_core.c ****       }
 924:Middlewares/ST/STM32_USB_Device_Library/Core/Src/usbd_core.c ****     }
 925:Middlewares/ST/STM32_USB_Device_Library/Core/Src/usbd_core.c **** #endif /* USE_USBD_COMPOSITE */
 926:Middlewares/ST/STM32_USB_Device_Library/Core/Src/usbd_core.c ****   }
 927:Middlewares/ST/STM32_USB_Device_Library/Core/Src/usbd_core.c **** 
 928:Middlewares/ST/STM32_USB_Device_Library/Core/Src/usbd_core.c ****   return USBD_OK;
 1315              		.loc 1 928 3 is_stmt 1 view .LVU416
 929:Middlewares/ST/STM32_USB_Device_Library/Core/Src/usbd_core.c **** }
 1316              		.loc 1 929 1 is_stmt 0 view .LVU417
 1317 000c 0020     		movs	r0, #0
 1318 000e 38BD     		pop	{r3, r4, r5, pc}
 1319              	.LVL97:
 1320              	.L87:
 1321              	.LBB10:
 902:Middlewares/ST/STM32_USB_Device_Library/Core/Src/usbd_core.c ****     {
 1322              		.loc 1 902 56 is_stmt 1 discriminator 2 view .LVU418
 902:Middlewares/ST/STM32_USB_Device_Library/Core/Src/usbd_core.c ****     {
 1323              		.loc 1 902 57 is_stmt 0 discriminator 2 view .LVU419
 1324 0010 0134     		adds	r4, r4, #1
 1325              	.LVL98:
 1326              	.L85:
 902:Middlewares/ST/STM32_USB_Device_Library/Core/Src/usbd_core.c ****     {
 1327              		.loc 1 902 26 is_stmt 1 discriminator 1 view .LVU420
 902:Middlewares/ST/STM32_USB_Device_Library/Core/Src/usbd_core.c ****     {
 1328              		.loc 1 902 5 is_stmt 0 discriminator 1 view .LVU421
 1329 0012 032C     		cmp	r4, #3
 1330 0014 FAD8     		bhi	.L86
 905:Middlewares/ST/STM32_USB_Device_Library/Core/Src/usbd_core.c ****       {
 1331              		.loc 1 905 7 is_stmt 1 view .LVU422
 905:Middlewares/ST/STM32_USB_Device_Library/Core/Src/usbd_core.c ****       {
 1332              		.loc 1 905 31 is_stmt 0 view .LVU423
 1333 0016 C4EBC403 		rsb	r3, r4, r4, lsl #3
 1334 001a 05EBC303 		add	r3, r5, r3, lsl #3
 1335 001e D3F80833 		ldr	r3, [r3, #776]
 905:Middlewares/ST/STM32_USB_Device_Library/Core/Src/usbd_core.c ****       {
 1336              		.loc 1 905 10 view .LVU424
 1337 0022 012B     		cmp	r3, #1
 1338 0024 F4D1     		bne	.L87
 907:Middlewares/ST/STM32_USB_Device_Library/Core/Src/usbd_core.c ****         {
 1339              		.loc 1 907 9 is_stmt 1 view .LVU425
 907:Middlewares/ST/STM32_USB_Device_Library/Core/Src/usbd_core.c ****         {
 1340              		.loc 1 907 25 is_stmt 0 view .LVU426
ARM GAS  C:\Users\ADMINI~1\AppData\Local\Temp\ccOzU0Ff.s 			page 42


 1341 0026 04F1AE03 		add	r3, r4, #174
 1342 002a 55F82330 		ldr	r3, [r5, r3, lsl #2]
 907:Middlewares/ST/STM32_USB_Device_Library/Core/Src/usbd_core.c ****         {
 1343              		.loc 1 907 12 view .LVU427
 1344 002e 002B     		cmp	r3, #0
 1345 0030 EED0     		beq	.L87
 909:Middlewares/ST/STM32_USB_Device_Library/Core/Src/usbd_core.c ****           {
 1346              		.loc 1 909 11 is_stmt 1 view .LVU428
 909:Middlewares/ST/STM32_USB_Device_Library/Core/Src/usbd_core.c ****           {
 1347              		.loc 1 909 30 is_stmt 0 view .LVU429
 1348 0032 DA69     		ldr	r2, [r3, #28]
 909:Middlewares/ST/STM32_USB_Device_Library/Core/Src/usbd_core.c ****           {
 1349              		.loc 1 909 14 view .LVU430
 1350 0034 002A     		cmp	r2, #0
 1351 0036 EBD0     		beq	.L87
 911:Middlewares/ST/STM32_USB_Device_Library/Core/Src/usbd_core.c ****             (void)pdev->pClass[i]->SOF(pdev);
 1352              		.loc 1 911 13 is_stmt 1 view .LVU431
 911:Middlewares/ST/STM32_USB_Device_Library/Core/Src/usbd_core.c ****             (void)pdev->pClass[i]->SOF(pdev);
 1353              		.loc 1 911 27 is_stmt 0 view .LVU432
 1354 0038 C5F8F842 		str	r4, [r5, #760]
 912:Middlewares/ST/STM32_USB_Device_Library/Core/Src/usbd_core.c ****           }
 1355              		.loc 1 912 13 is_stmt 1 view .LVU433
 912:Middlewares/ST/STM32_USB_Device_Library/Core/Src/usbd_core.c ****           }
 1356              		.loc 1 912 34 is_stmt 0 view .LVU434
 1357 003c DB69     		ldr	r3, [r3, #28]
 912:Middlewares/ST/STM32_USB_Device_Library/Core/Src/usbd_core.c ****           }
 1358              		.loc 1 912 19 view .LVU435
 1359 003e 2846     		mov	r0, r5
 1360 0040 9847     		blx	r3
 1361              	.LVL99:
 1362 0042 E5E7     		b	.L87
 1363              	.LVL100:
 1364              	.L92:
 912:Middlewares/ST/STM32_USB_Device_Library/Core/Src/usbd_core.c ****           }
 1365              		.loc 1 912 19 view .LVU436
 1366 0044 0546     		mov	r5, r0
 902:Middlewares/ST/STM32_USB_Device_Library/Core/Src/usbd_core.c ****     {
 1367              		.loc 1 902 19 view .LVU437
 1368 0046 0024     		movs	r4, #0
 1369 0048 E3E7     		b	.L85
 1370              	.LBE10:
 1371              		.cfi_endproc
 1372              	.LFE151:
 1374              		.section	.text.USBD_LL_IsoINIncomplete,"ax",%progbits
 1375              		.align	1
 1376              		.global	USBD_LL_IsoINIncomplete
 1377              		.syntax unified
 1378              		.thumb
 1379              		.thumb_func
 1381              	USBD_LL_IsoINIncomplete:
 1382              	.LVL101:
 1383              	.LFB152:
 930:Middlewares/ST/STM32_USB_Device_Library/Core/Src/usbd_core.c **** 
 931:Middlewares/ST/STM32_USB_Device_Library/Core/Src/usbd_core.c **** /**
 932:Middlewares/ST/STM32_USB_Device_Library/Core/Src/usbd_core.c ****   * @brief  USBD_LL_IsoINIncomplete
 933:Middlewares/ST/STM32_USB_Device_Library/Core/Src/usbd_core.c ****   *         Handle iso in incomplete event
 934:Middlewares/ST/STM32_USB_Device_Library/Core/Src/usbd_core.c ****   * @param  pdev: device instance
ARM GAS  C:\Users\ADMINI~1\AppData\Local\Temp\ccOzU0Ff.s 			page 43


 935:Middlewares/ST/STM32_USB_Device_Library/Core/Src/usbd_core.c ****   * @retval status
 936:Middlewares/ST/STM32_USB_Device_Library/Core/Src/usbd_core.c ****   */
 937:Middlewares/ST/STM32_USB_Device_Library/Core/Src/usbd_core.c **** USBD_StatusTypeDef USBD_LL_IsoINIncomplete(USBD_HandleTypeDef *pdev,
 938:Middlewares/ST/STM32_USB_Device_Library/Core/Src/usbd_core.c ****                                            uint8_t epnum)
 939:Middlewares/ST/STM32_USB_Device_Library/Core/Src/usbd_core.c **** {
 1384              		.loc 1 939 1 is_stmt 1 view -0
 1385              		.cfi_startproc
 1386              		@ args = 0, pretend = 0, frame = 0
 1387              		@ frame_needed = 0, uses_anonymous_args = 0
 1388              		.loc 1 939 1 is_stmt 0 view .LVU439
 1389 0000 08B5     		push	{r3, lr}
 1390              	.LCFI19:
 1391              		.cfi_def_cfa_offset 8
 1392              		.cfi_offset 3, -8
 1393              		.cfi_offset 14, -4
 940:Middlewares/ST/STM32_USB_Device_Library/Core/Src/usbd_core.c ****   if (pdev->pClass[pdev->classId] == NULL)
 1394              		.loc 1 940 3 is_stmt 1 view .LVU440
 1395              		.loc 1 940 24 is_stmt 0 view .LVU441
 1396 0002 D0F8F832 		ldr	r3, [r0, #760]
 1397              		.loc 1 940 19 view .LVU442
 1398 0006 AE33     		adds	r3, r3, #174
 1399 0008 50F82320 		ldr	r2, [r0, r3, lsl #2]
 1400              		.loc 1 940 6 view .LVU443
 1401 000c 5AB1     		cbz	r2, .L95
 941:Middlewares/ST/STM32_USB_Device_Library/Core/Src/usbd_core.c ****   {
 942:Middlewares/ST/STM32_USB_Device_Library/Core/Src/usbd_core.c ****     return USBD_FAIL;
 943:Middlewares/ST/STM32_USB_Device_Library/Core/Src/usbd_core.c ****   }
 944:Middlewares/ST/STM32_USB_Device_Library/Core/Src/usbd_core.c **** 
 945:Middlewares/ST/STM32_USB_Device_Library/Core/Src/usbd_core.c ****   if (pdev->dev_state == USBD_STATE_CONFIGURED)
 1402              		.loc 1 945 3 is_stmt 1 view .LVU444
 1403              		.loc 1 945 11 is_stmt 0 view .LVU445
 1404 000e 90F89C32 		ldrb	r3, [r0, #668]	@ zero_extendqisi2
 1405 0012 DBB2     		uxtb	r3, r3
 1406              		.loc 1 945 6 view .LVU446
 1407 0014 032B     		cmp	r3, #3
 1408 0016 01D0     		beq	.L99
 946:Middlewares/ST/STM32_USB_Device_Library/Core/Src/usbd_core.c ****   {
 947:Middlewares/ST/STM32_USB_Device_Library/Core/Src/usbd_core.c ****     if (pdev->pClass[pdev->classId]->IsoINIncomplete != NULL)
 948:Middlewares/ST/STM32_USB_Device_Library/Core/Src/usbd_core.c ****     {
 949:Middlewares/ST/STM32_USB_Device_Library/Core/Src/usbd_core.c ****       (void)pdev->pClass[pdev->classId]->IsoINIncomplete(pdev, epnum);
 950:Middlewares/ST/STM32_USB_Device_Library/Core/Src/usbd_core.c ****     }
 951:Middlewares/ST/STM32_USB_Device_Library/Core/Src/usbd_core.c ****   }
 952:Middlewares/ST/STM32_USB_Device_Library/Core/Src/usbd_core.c **** 
 953:Middlewares/ST/STM32_USB_Device_Library/Core/Src/usbd_core.c ****   return USBD_OK;
 1409              		.loc 1 953 10 view .LVU447
 1410 0018 0020     		movs	r0, #0
 1411              	.LVL102:
 1412              	.L94:
 954:Middlewares/ST/STM32_USB_Device_Library/Core/Src/usbd_core.c **** }
 1413              		.loc 1 954 1 view .LVU448
 1414 001a 08BD     		pop	{r3, pc}
 1415              	.LVL103:
 1416              	.L99:
 947:Middlewares/ST/STM32_USB_Device_Library/Core/Src/usbd_core.c ****     {
 1417              		.loc 1 947 5 is_stmt 1 view .LVU449
 947:Middlewares/ST/STM32_USB_Device_Library/Core/Src/usbd_core.c ****     {
 1418              		.loc 1 947 36 is_stmt 0 view .LVU450
ARM GAS  C:\Users\ADMINI~1\AppData\Local\Temp\ccOzU0Ff.s 			page 44


 1419 001c 136A     		ldr	r3, [r2, #32]
 947:Middlewares/ST/STM32_USB_Device_Library/Core/Src/usbd_core.c ****     {
 1420              		.loc 1 947 8 view .LVU451
 1421 001e 23B1     		cbz	r3, .L97
 949:Middlewares/ST/STM32_USB_Device_Library/Core/Src/usbd_core.c ****     }
 1422              		.loc 1 949 7 is_stmt 1 view .LVU452
 949:Middlewares/ST/STM32_USB_Device_Library/Core/Src/usbd_core.c ****     }
 1423              		.loc 1 949 13 is_stmt 0 view .LVU453
 1424 0020 9847     		blx	r3
 1425              	.LVL104:
 953:Middlewares/ST/STM32_USB_Device_Library/Core/Src/usbd_core.c **** }
 1426              		.loc 1 953 10 view .LVU454
 1427 0022 0020     		movs	r0, #0
 1428 0024 F9E7     		b	.L94
 1429              	.LVL105:
 1430              	.L95:
 942:Middlewares/ST/STM32_USB_Device_Library/Core/Src/usbd_core.c ****   }
 1431              		.loc 1 942 12 view .LVU455
 1432 0026 0320     		movs	r0, #3
 1433              	.LVL106:
 942:Middlewares/ST/STM32_USB_Device_Library/Core/Src/usbd_core.c ****   }
 1434              		.loc 1 942 12 view .LVU456
 1435 0028 F7E7     		b	.L94
 1436              	.LVL107:
 1437              	.L97:
 953:Middlewares/ST/STM32_USB_Device_Library/Core/Src/usbd_core.c **** }
 1438              		.loc 1 953 10 view .LVU457
 1439 002a 0020     		movs	r0, #0
 1440              	.LVL108:
 953:Middlewares/ST/STM32_USB_Device_Library/Core/Src/usbd_core.c **** }
 1441              		.loc 1 953 10 view .LVU458
 1442 002c F5E7     		b	.L94
 1443              		.cfi_endproc
 1444              	.LFE152:
 1446              		.section	.text.USBD_LL_IsoOUTIncomplete,"ax",%progbits
 1447              		.align	1
 1448              		.global	USBD_LL_IsoOUTIncomplete
 1449              		.syntax unified
 1450              		.thumb
 1451              		.thumb_func
 1453              	USBD_LL_IsoOUTIncomplete:
 1454              	.LVL109:
 1455              	.LFB153:
 955:Middlewares/ST/STM32_USB_Device_Library/Core/Src/usbd_core.c **** 
 956:Middlewares/ST/STM32_USB_Device_Library/Core/Src/usbd_core.c **** /**
 957:Middlewares/ST/STM32_USB_Device_Library/Core/Src/usbd_core.c ****   * @brief  USBD_LL_IsoOUTIncomplete
 958:Middlewares/ST/STM32_USB_Device_Library/Core/Src/usbd_core.c ****   *         Handle iso out incomplete event
 959:Middlewares/ST/STM32_USB_Device_Library/Core/Src/usbd_core.c ****   * @param  pdev: device instance
 960:Middlewares/ST/STM32_USB_Device_Library/Core/Src/usbd_core.c ****   * @retval status
 961:Middlewares/ST/STM32_USB_Device_Library/Core/Src/usbd_core.c ****   */
 962:Middlewares/ST/STM32_USB_Device_Library/Core/Src/usbd_core.c **** USBD_StatusTypeDef USBD_LL_IsoOUTIncomplete(USBD_HandleTypeDef *pdev,
 963:Middlewares/ST/STM32_USB_Device_Library/Core/Src/usbd_core.c ****                                             uint8_t epnum)
 964:Middlewares/ST/STM32_USB_Device_Library/Core/Src/usbd_core.c **** {
 1456              		.loc 1 964 1 is_stmt 1 view -0
 1457              		.cfi_startproc
 1458              		@ args = 0, pretend = 0, frame = 0
 1459              		@ frame_needed = 0, uses_anonymous_args = 0
ARM GAS  C:\Users\ADMINI~1\AppData\Local\Temp\ccOzU0Ff.s 			page 45


 1460              		.loc 1 964 1 is_stmt 0 view .LVU460
 1461 0000 08B5     		push	{r3, lr}
 1462              	.LCFI20:
 1463              		.cfi_def_cfa_offset 8
 1464              		.cfi_offset 3, -8
 1465              		.cfi_offset 14, -4
 965:Middlewares/ST/STM32_USB_Device_Library/Core/Src/usbd_core.c ****   if (pdev->pClass[pdev->classId] == NULL)
 1466              		.loc 1 965 3 is_stmt 1 view .LVU461
 1467              		.loc 1 965 24 is_stmt 0 view .LVU462
 1468 0002 D0F8F832 		ldr	r3, [r0, #760]
 1469              		.loc 1 965 19 view .LVU463
 1470 0006 AE33     		adds	r3, r3, #174
 1471 0008 50F82320 		ldr	r2, [r0, r3, lsl #2]
 1472              		.loc 1 965 6 view .LVU464
 1473 000c 5AB1     		cbz	r2, .L102
 966:Middlewares/ST/STM32_USB_Device_Library/Core/Src/usbd_core.c ****   {
 967:Middlewares/ST/STM32_USB_Device_Library/Core/Src/usbd_core.c ****     return USBD_FAIL;
 968:Middlewares/ST/STM32_USB_Device_Library/Core/Src/usbd_core.c ****   }
 969:Middlewares/ST/STM32_USB_Device_Library/Core/Src/usbd_core.c **** 
 970:Middlewares/ST/STM32_USB_Device_Library/Core/Src/usbd_core.c ****   if (pdev->dev_state == USBD_STATE_CONFIGURED)
 1474              		.loc 1 970 3 is_stmt 1 view .LVU465
 1475              		.loc 1 970 11 is_stmt 0 view .LVU466
 1476 000e 90F89C32 		ldrb	r3, [r0, #668]	@ zero_extendqisi2
 1477 0012 DBB2     		uxtb	r3, r3
 1478              		.loc 1 970 6 view .LVU467
 1479 0014 032B     		cmp	r3, #3
 1480 0016 01D0     		beq	.L106
 971:Middlewares/ST/STM32_USB_Device_Library/Core/Src/usbd_core.c ****   {
 972:Middlewares/ST/STM32_USB_Device_Library/Core/Src/usbd_core.c ****     if (pdev->pClass[pdev->classId]->IsoOUTIncomplete != NULL)
 973:Middlewares/ST/STM32_USB_Device_Library/Core/Src/usbd_core.c ****     {
 974:Middlewares/ST/STM32_USB_Device_Library/Core/Src/usbd_core.c ****       (void)pdev->pClass[pdev->classId]->IsoOUTIncomplete(pdev, epnum);
 975:Middlewares/ST/STM32_USB_Device_Library/Core/Src/usbd_core.c ****     }
 976:Middlewares/ST/STM32_USB_Device_Library/Core/Src/usbd_core.c ****   }
 977:Middlewares/ST/STM32_USB_Device_Library/Core/Src/usbd_core.c **** 
 978:Middlewares/ST/STM32_USB_Device_Library/Core/Src/usbd_core.c ****   return USBD_OK;
 1481              		.loc 1 978 10 view .LVU468
 1482 0018 0020     		movs	r0, #0
 1483              	.LVL110:
 1484              	.L101:
 979:Middlewares/ST/STM32_USB_Device_Library/Core/Src/usbd_core.c **** }
 1485              		.loc 1 979 1 view .LVU469
 1486 001a 08BD     		pop	{r3, pc}
 1487              	.LVL111:
 1488              	.L106:
 972:Middlewares/ST/STM32_USB_Device_Library/Core/Src/usbd_core.c ****     {
 1489              		.loc 1 972 5 is_stmt 1 view .LVU470
 972:Middlewares/ST/STM32_USB_Device_Library/Core/Src/usbd_core.c ****     {
 1490              		.loc 1 972 36 is_stmt 0 view .LVU471
 1491 001c 536A     		ldr	r3, [r2, #36]
 972:Middlewares/ST/STM32_USB_Device_Library/Core/Src/usbd_core.c ****     {
 1492              		.loc 1 972 8 view .LVU472
 1493 001e 23B1     		cbz	r3, .L104
 974:Middlewares/ST/STM32_USB_Device_Library/Core/Src/usbd_core.c ****     }
 1494              		.loc 1 974 7 is_stmt 1 view .LVU473
 974:Middlewares/ST/STM32_USB_Device_Library/Core/Src/usbd_core.c ****     }
 1495              		.loc 1 974 13 is_stmt 0 view .LVU474
 1496 0020 9847     		blx	r3
ARM GAS  C:\Users\ADMINI~1\AppData\Local\Temp\ccOzU0Ff.s 			page 46


 1497              	.LVL112:
 978:Middlewares/ST/STM32_USB_Device_Library/Core/Src/usbd_core.c **** }
 1498              		.loc 1 978 10 view .LVU475
 1499 0022 0020     		movs	r0, #0
 1500 0024 F9E7     		b	.L101
 1501              	.LVL113:
 1502              	.L102:
 967:Middlewares/ST/STM32_USB_Device_Library/Core/Src/usbd_core.c ****   }
 1503              		.loc 1 967 12 view .LVU476
 1504 0026 0320     		movs	r0, #3
 1505              	.LVL114:
 967:Middlewares/ST/STM32_USB_Device_Library/Core/Src/usbd_core.c ****   }
 1506              		.loc 1 967 12 view .LVU477
 1507 0028 F7E7     		b	.L101
 1508              	.LVL115:
 1509              	.L104:
 978:Middlewares/ST/STM32_USB_Device_Library/Core/Src/usbd_core.c **** }
 1510              		.loc 1 978 10 view .LVU478
 1511 002a 0020     		movs	r0, #0
 1512              	.LVL116:
 978:Middlewares/ST/STM32_USB_Device_Library/Core/Src/usbd_core.c **** }
 1513              		.loc 1 978 10 view .LVU479
 1514 002c F5E7     		b	.L101
 1515              		.cfi_endproc
 1516              	.LFE153:
 1518              		.section	.text.USBD_LL_DevConnected,"ax",%progbits
 1519              		.align	1
 1520              		.global	USBD_LL_DevConnected
 1521              		.syntax unified
 1522              		.thumb
 1523              		.thumb_func
 1525              	USBD_LL_DevConnected:
 1526              	.LVL117:
 1527              	.LFB154:
 980:Middlewares/ST/STM32_USB_Device_Library/Core/Src/usbd_core.c **** 
 981:Middlewares/ST/STM32_USB_Device_Library/Core/Src/usbd_core.c **** /**
 982:Middlewares/ST/STM32_USB_Device_Library/Core/Src/usbd_core.c ****   * @brief  USBD_LL_DevConnected
 983:Middlewares/ST/STM32_USB_Device_Library/Core/Src/usbd_core.c ****   *         Handle device connection event
 984:Middlewares/ST/STM32_USB_Device_Library/Core/Src/usbd_core.c ****   * @param  pdev: device instance
 985:Middlewares/ST/STM32_USB_Device_Library/Core/Src/usbd_core.c ****   * @retval status
 986:Middlewares/ST/STM32_USB_Device_Library/Core/Src/usbd_core.c ****   */
 987:Middlewares/ST/STM32_USB_Device_Library/Core/Src/usbd_core.c **** USBD_StatusTypeDef USBD_LL_DevConnected(USBD_HandleTypeDef *pdev)
 988:Middlewares/ST/STM32_USB_Device_Library/Core/Src/usbd_core.c **** {
 1528              		.loc 1 988 1 is_stmt 1 view -0
 1529              		.cfi_startproc
 1530              		@ args = 0, pretend = 0, frame = 0
 1531              		@ frame_needed = 0, uses_anonymous_args = 0
 1532              		@ link register save eliminated.
 989:Middlewares/ST/STM32_USB_Device_Library/Core/Src/usbd_core.c ****   /* Prevent unused argument compilation warning */
 990:Middlewares/ST/STM32_USB_Device_Library/Core/Src/usbd_core.c ****   UNUSED(pdev);
 1533              		.loc 1 990 3 view .LVU481
 991:Middlewares/ST/STM32_USB_Device_Library/Core/Src/usbd_core.c **** 
 992:Middlewares/ST/STM32_USB_Device_Library/Core/Src/usbd_core.c ****   return USBD_OK;
 1534              		.loc 1 992 3 view .LVU482
 993:Middlewares/ST/STM32_USB_Device_Library/Core/Src/usbd_core.c **** }
 1535              		.loc 1 993 1 is_stmt 0 view .LVU483
 1536 0000 0020     		movs	r0, #0
ARM GAS  C:\Users\ADMINI~1\AppData\Local\Temp\ccOzU0Ff.s 			page 47


 1537              	.LVL118:
 1538              		.loc 1 993 1 view .LVU484
 1539 0002 7047     		bx	lr
 1540              		.cfi_endproc
 1541              	.LFE154:
 1543              		.section	.text.USBD_LL_DevDisconnected,"ax",%progbits
 1544              		.align	1
 1545              		.global	USBD_LL_DevDisconnected
 1546              		.syntax unified
 1547              		.thumb
 1548              		.thumb_func
 1550              	USBD_LL_DevDisconnected:
 1551              	.LVL119:
 1552              	.LFB155:
 994:Middlewares/ST/STM32_USB_Device_Library/Core/Src/usbd_core.c **** 
 995:Middlewares/ST/STM32_USB_Device_Library/Core/Src/usbd_core.c **** /**
 996:Middlewares/ST/STM32_USB_Device_Library/Core/Src/usbd_core.c ****   * @brief  USBD_LL_DevDisconnected
 997:Middlewares/ST/STM32_USB_Device_Library/Core/Src/usbd_core.c ****   *         Handle device disconnection event
 998:Middlewares/ST/STM32_USB_Device_Library/Core/Src/usbd_core.c ****   * @param  pdev: device instance
 999:Middlewares/ST/STM32_USB_Device_Library/Core/Src/usbd_core.c ****   * @retval status
1000:Middlewares/ST/STM32_USB_Device_Library/Core/Src/usbd_core.c ****   */
1001:Middlewares/ST/STM32_USB_Device_Library/Core/Src/usbd_core.c **** USBD_StatusTypeDef USBD_LL_DevDisconnected(USBD_HandleTypeDef *pdev)
1002:Middlewares/ST/STM32_USB_Device_Library/Core/Src/usbd_core.c **** {
 1553              		.loc 1 1002 1 is_stmt 1 view -0
 1554              		.cfi_startproc
 1555              		@ args = 0, pretend = 0, frame = 0
 1556              		@ frame_needed = 0, uses_anonymous_args = 0
 1557              		.loc 1 1002 1 is_stmt 0 view .LVU486
 1558 0000 70B5     		push	{r4, r5, r6, lr}
 1559              	.LCFI21:
 1560              		.cfi_def_cfa_offset 16
 1561              		.cfi_offset 4, -16
 1562              		.cfi_offset 5, -12
 1563              		.cfi_offset 6, -8
 1564              		.cfi_offset 14, -4
 1565 0002 0546     		mov	r5, r0
1003:Middlewares/ST/STM32_USB_Device_Library/Core/Src/usbd_core.c ****   USBD_StatusTypeDef   ret = USBD_OK;
 1566              		.loc 1 1003 3 is_stmt 1 view .LVU487
 1567              	.LVL120:
1004:Middlewares/ST/STM32_USB_Device_Library/Core/Src/usbd_core.c **** 
1005:Middlewares/ST/STM32_USB_Device_Library/Core/Src/usbd_core.c ****   /* Free Class Resources */
1006:Middlewares/ST/STM32_USB_Device_Library/Core/Src/usbd_core.c ****   pdev->dev_state = USBD_STATE_DEFAULT;
 1568              		.loc 1 1006 3 view .LVU488
 1569              		.loc 1 1006 19 is_stmt 0 view .LVU489
 1570 0004 0123     		movs	r3, #1
 1571 0006 80F89C32 		strb	r3, [r0, #668]
1007:Middlewares/ST/STM32_USB_Device_Library/Core/Src/usbd_core.c **** 
1008:Middlewares/ST/STM32_USB_Device_Library/Core/Src/usbd_core.c **** #ifdef USE_USBD_COMPOSITE
1009:Middlewares/ST/STM32_USB_Device_Library/Core/Src/usbd_core.c ****   /* Parse the table of classes in use */
1010:Middlewares/ST/STM32_USB_Device_Library/Core/Src/usbd_core.c ****   for (uint32_t i = 0; i < USBD_MAX_SUPPORTED_CLASS; i++)
 1572              		.loc 1 1010 3 is_stmt 1 view .LVU490
 1573              	.LBB11:
 1574              		.loc 1 1010 8 view .LVU491
 1575              	.LVL121:
 1576              		.loc 1 1010 17 is_stmt 0 view .LVU492
 1577 000a 0024     		movs	r4, #0
 1578              	.LBE11:
ARM GAS  C:\Users\ADMINI~1\AppData\Local\Temp\ccOzU0Ff.s 			page 48


1003:Middlewares/ST/STM32_USB_Device_Library/Core/Src/usbd_core.c **** 
 1579              		.loc 1 1003 24 view .LVU493
 1580 000c 2646     		mov	r6, r4
 1581              	.LBB12:
 1582              		.loc 1 1010 3 view .LVU494
 1583 000e 00E0     		b	.L109
 1584              	.LVL122:
 1585              	.L110:
 1586              		.loc 1 1010 54 is_stmt 1 discriminator 2 view .LVU495
 1587              		.loc 1 1010 55 is_stmt 0 discriminator 2 view .LVU496
 1588 0010 0134     		adds	r4, r4, #1
 1589              	.LVL123:
 1590              	.L109:
 1591              		.loc 1 1010 24 is_stmt 1 discriminator 1 view .LVU497
 1592              		.loc 1 1010 3 is_stmt 0 discriminator 1 view .LVU498
 1593 0012 032C     		cmp	r4, #3
 1594 0014 17D8     		bhi	.L114
1011:Middlewares/ST/STM32_USB_Device_Library/Core/Src/usbd_core.c ****   {
1012:Middlewares/ST/STM32_USB_Device_Library/Core/Src/usbd_core.c ****     /* Check if current class is in use */
1013:Middlewares/ST/STM32_USB_Device_Library/Core/Src/usbd_core.c ****     if ((pdev->tclasslist[i].Active) == 1U)
 1595              		.loc 1 1013 5 is_stmt 1 view .LVU499
 1596              		.loc 1 1013 29 is_stmt 0 view .LVU500
 1597 0016 C4EBC403 		rsb	r3, r4, r4, lsl #3
 1598 001a 05EBC303 		add	r3, r5, r3, lsl #3
 1599 001e D3F80833 		ldr	r3, [r3, #776]
 1600              		.loc 1 1013 8 view .LVU501
 1601 0022 012B     		cmp	r3, #1
 1602 0024 F4D1     		bne	.L110
1014:Middlewares/ST/STM32_USB_Device_Library/Core/Src/usbd_core.c ****     {
1015:Middlewares/ST/STM32_USB_Device_Library/Core/Src/usbd_core.c ****       if (pdev->pClass[i] != NULL)
 1603              		.loc 1 1015 7 is_stmt 1 view .LVU502
 1604              		.loc 1 1015 23 is_stmt 0 view .LVU503
 1605 0026 04F1AE03 		add	r3, r4, #174
 1606 002a 55F82330 		ldr	r3, [r5, r3, lsl #2]
 1607              		.loc 1 1015 10 view .LVU504
 1608 002e 002B     		cmp	r3, #0
 1609 0030 EED0     		beq	.L110
1016:Middlewares/ST/STM32_USB_Device_Library/Core/Src/usbd_core.c ****       {
1017:Middlewares/ST/STM32_USB_Device_Library/Core/Src/usbd_core.c ****         pdev->classId = i;
 1610              		.loc 1 1017 9 is_stmt 1 view .LVU505
 1611              		.loc 1 1017 23 is_stmt 0 view .LVU506
 1612 0032 C5F8F842 		str	r4, [r5, #760]
1018:Middlewares/ST/STM32_USB_Device_Library/Core/Src/usbd_core.c ****         /* Clear configuration  and De-initialize the Class process*/
1019:Middlewares/ST/STM32_USB_Device_Library/Core/Src/usbd_core.c ****         if (pdev->pClass[i]->DeInit(pdev, (uint8_t)pdev->dev_config) != 0U)
 1613              		.loc 1 1019 9 is_stmt 1 view .LVU507
 1614              		.loc 1 1019 28 is_stmt 0 view .LVU508
 1615 0036 5B68     		ldr	r3, [r3, #4]
 1616              		.loc 1 1019 13 view .LVU509
 1617 0038 2979     		ldrb	r1, [r5, #4]	@ zero_extendqisi2
 1618 003a 2846     		mov	r0, r5
 1619 003c 9847     		blx	r3
 1620              	.LVL124:
 1621              		.loc 1 1019 12 view .LVU510
 1622 003e 0028     		cmp	r0, #0
 1623 0040 E6D0     		beq	.L110
1020:Middlewares/ST/STM32_USB_Device_Library/Core/Src/usbd_core.c ****         {
1021:Middlewares/ST/STM32_USB_Device_Library/Core/Src/usbd_core.c ****           ret = USBD_FAIL;
ARM GAS  C:\Users\ADMINI~1\AppData\Local\Temp\ccOzU0Ff.s 			page 49


 1624              		.loc 1 1021 15 view .LVU511
 1625 0042 0326     		movs	r6, #3
 1626              	.LVL125:
 1627              		.loc 1 1021 15 view .LVU512
 1628 0044 E4E7     		b	.L110
 1629              	.LVL126:
 1630              	.L114:
 1631              		.loc 1 1021 15 view .LVU513
 1632              	.LBE12:
1022:Middlewares/ST/STM32_USB_Device_Library/Core/Src/usbd_core.c ****         }
1023:Middlewares/ST/STM32_USB_Device_Library/Core/Src/usbd_core.c ****       }
1024:Middlewares/ST/STM32_USB_Device_Library/Core/Src/usbd_core.c ****     }
1025:Middlewares/ST/STM32_USB_Device_Library/Core/Src/usbd_core.c ****   }
1026:Middlewares/ST/STM32_USB_Device_Library/Core/Src/usbd_core.c **** #else
1027:Middlewares/ST/STM32_USB_Device_Library/Core/Src/usbd_core.c ****   if (pdev->pClass[0] != NULL)
1028:Middlewares/ST/STM32_USB_Device_Library/Core/Src/usbd_core.c ****   {
1029:Middlewares/ST/STM32_USB_Device_Library/Core/Src/usbd_core.c ****     if (pdev->pClass[0]->DeInit(pdev, (uint8_t)pdev->dev_config) != 0U)
1030:Middlewares/ST/STM32_USB_Device_Library/Core/Src/usbd_core.c ****     {
1031:Middlewares/ST/STM32_USB_Device_Library/Core/Src/usbd_core.c ****       ret = USBD_FAIL;
1032:Middlewares/ST/STM32_USB_Device_Library/Core/Src/usbd_core.c ****     }
1033:Middlewares/ST/STM32_USB_Device_Library/Core/Src/usbd_core.c ****   }
1034:Middlewares/ST/STM32_USB_Device_Library/Core/Src/usbd_core.c **** #endif /* USE_USBD_COMPOSITE */
1035:Middlewares/ST/STM32_USB_Device_Library/Core/Src/usbd_core.c **** 
1036:Middlewares/ST/STM32_USB_Device_Library/Core/Src/usbd_core.c ****   return ret;
 1633              		.loc 1 1036 3 is_stmt 1 view .LVU514
1037:Middlewares/ST/STM32_USB_Device_Library/Core/Src/usbd_core.c **** }
 1634              		.loc 1 1037 1 is_stmt 0 view .LVU515
 1635 0046 3046     		mov	r0, r6
 1636 0048 70BD     		pop	{r4, r5, r6, pc}
 1637              		.loc 1 1037 1 view .LVU516
 1638              		.cfi_endproc
 1639              	.LFE155:
 1641              		.section	.text.USBD_CoreFindIF,"ax",%progbits
 1642              		.align	1
 1643              		.global	USBD_CoreFindIF
 1644              		.syntax unified
 1645              		.thumb
 1646              		.thumb_func
 1648              	USBD_CoreFindIF:
 1649              	.LVL127:
 1650              	.LFB156:
1038:Middlewares/ST/STM32_USB_Device_Library/Core/Src/usbd_core.c **** 
1039:Middlewares/ST/STM32_USB_Device_Library/Core/Src/usbd_core.c **** /**
1040:Middlewares/ST/STM32_USB_Device_Library/Core/Src/usbd_core.c ****   * @brief  USBD_CoreFindIF
1041:Middlewares/ST/STM32_USB_Device_Library/Core/Src/usbd_core.c ****   *         return the class index relative to the selected interface
1042:Middlewares/ST/STM32_USB_Device_Library/Core/Src/usbd_core.c ****   * @param  pdev: device instance
1043:Middlewares/ST/STM32_USB_Device_Library/Core/Src/usbd_core.c ****   * @param  index : selected interface number
1044:Middlewares/ST/STM32_USB_Device_Library/Core/Src/usbd_core.c ****   * @retval index of the class using the selected interface number. OxFF if no class found.
1045:Middlewares/ST/STM32_USB_Device_Library/Core/Src/usbd_core.c ****   */
1046:Middlewares/ST/STM32_USB_Device_Library/Core/Src/usbd_core.c **** uint8_t USBD_CoreFindIF(USBD_HandleTypeDef *pdev, uint8_t index)
1047:Middlewares/ST/STM32_USB_Device_Library/Core/Src/usbd_core.c **** {
 1651              		.loc 1 1047 1 is_stmt 1 view -0
 1652              		.cfi_startproc
 1653              		@ args = 0, pretend = 0, frame = 0
 1654              		@ frame_needed = 0, uses_anonymous_args = 0
 1655              		@ link register save eliminated.
1048:Middlewares/ST/STM32_USB_Device_Library/Core/Src/usbd_core.c **** #ifdef USE_USBD_COMPOSITE
ARM GAS  C:\Users\ADMINI~1\AppData\Local\Temp\ccOzU0Ff.s 			page 50


1049:Middlewares/ST/STM32_USB_Device_Library/Core/Src/usbd_core.c ****   /* Parse the table of classes in use */
1050:Middlewares/ST/STM32_USB_Device_Library/Core/Src/usbd_core.c ****   for (uint32_t i = 0U; i < USBD_MAX_SUPPORTED_CLASS; i++)
 1656              		.loc 1 1050 3 view .LVU518
 1657              	.LBB13:
 1658              		.loc 1 1050 8 view .LVU519
 1659              		.loc 1 1050 17 is_stmt 0 view .LVU520
 1660 0000 0023     		movs	r3, #0
 1661              		.loc 1 1050 3 view .LVU521
 1662 0002 1CE0     		b	.L116
 1663              	.LVL128:
 1664              	.L119:
 1665              	.LBB14:
1051:Middlewares/ST/STM32_USB_Device_Library/Core/Src/usbd_core.c ****   {
1052:Middlewares/ST/STM32_USB_Device_Library/Core/Src/usbd_core.c ****     /* Check if current class is in use */
1053:Middlewares/ST/STM32_USB_Device_Library/Core/Src/usbd_core.c ****     if ((pdev->tclasslist[i].Active) == 1U)
1054:Middlewares/ST/STM32_USB_Device_Library/Core/Src/usbd_core.c ****     {
1055:Middlewares/ST/STM32_USB_Device_Library/Core/Src/usbd_core.c ****       /* Parse all interfaces listed in the current class */
1056:Middlewares/ST/STM32_USB_Device_Library/Core/Src/usbd_core.c ****       for (uint32_t j = 0U; j < pdev->tclasslist[i].NumIf; j++)
 1666              		.loc 1 1056 60 is_stmt 1 discriminator 2 view .LVU522
 1667              		.loc 1 1056 61 is_stmt 0 discriminator 2 view .LVU523
 1668 0004 0CF1010C 		add	ip, ip, #1
 1669              	.LVL129:
 1670              	.L117:
 1671              		.loc 1 1056 29 is_stmt 1 discriminator 1 view .LVU524
 1672              		.loc 1 1056 52 is_stmt 0 discriminator 1 view .LVU525
 1673 0008 C3EBC302 		rsb	r2, r3, r3, lsl #3
 1674 000c 00EBC202 		add	r2, r0, r2, lsl #3
 1675 0010 D2F82823 		ldr	r2, [r2, #808]
 1676              		.loc 1 1056 7 discriminator 1 view .LVU526
 1677 0014 6245     		cmp	r2, ip
 1678 0016 11D9     		bls	.L118
1057:Middlewares/ST/STM32_USB_Device_Library/Core/Src/usbd_core.c ****       {
1058:Middlewares/ST/STM32_USB_Device_Library/Core/Src/usbd_core.c ****         /* Check if requested Interface matches the current class interface */
1059:Middlewares/ST/STM32_USB_Device_Library/Core/Src/usbd_core.c ****         if (pdev->tclasslist[i].Ifs[j] == index)
 1679              		.loc 1 1059 9 is_stmt 1 view .LVU527
 1680              		.loc 1 1059 36 is_stmt 0 view .LVU528
 1681 0018 C3EBC302 		rsb	r2, r3, r3, lsl #3
 1682 001c 00EBC202 		add	r2, r0, r2, lsl #3
 1683 0020 6244     		add	r2, r2, ip
 1684 0022 92F82C23 		ldrb	r2, [r2, #812]	@ zero_extendqisi2
 1685              		.loc 1 1059 12 view .LVU529
 1686 0026 8A42     		cmp	r2, r1
 1687 0028 ECD1     		bne	.L119
1060:Middlewares/ST/STM32_USB_Device_Library/Core/Src/usbd_core.c ****         {
1061:Middlewares/ST/STM32_USB_Device_Library/Core/Src/usbd_core.c ****           if (pdev->pClass[i]->Setup != NULL)
 1688              		.loc 1 1061 11 is_stmt 1 view .LVU530
 1689              		.loc 1 1061 27 is_stmt 0 view .LVU531
 1690 002a 03F1AE02 		add	r2, r3, #174
 1691 002e 50F82220 		ldr	r2, [r0, r2, lsl #2]
 1692              		.loc 1 1061 30 view .LVU532
 1693 0032 9268     		ldr	r2, [r2, #8]
 1694              		.loc 1 1061 14 view .LVU533
 1695 0034 002A     		cmp	r2, #0
 1696 0036 E5D0     		beq	.L119
1062:Middlewares/ST/STM32_USB_Device_Library/Core/Src/usbd_core.c ****           {
1063:Middlewares/ST/STM32_USB_Device_Library/Core/Src/usbd_core.c ****             return (uint8_t)i;
 1697              		.loc 1 1063 13 is_stmt 1 view .LVU534
ARM GAS  C:\Users\ADMINI~1\AppData\Local\Temp\ccOzU0Ff.s 			page 51


 1698              		.loc 1 1063 20 is_stmt 0 view .LVU535
 1699 0038 D8B2     		uxtb	r0, r3
 1700              	.LVL130:
 1701              		.loc 1 1063 20 view .LVU536
 1702 003a 7047     		bx	lr
 1703              	.LVL131:
 1704              	.L118:
 1705              		.loc 1 1063 20 view .LVU537
 1706              	.LBE14:
1050:Middlewares/ST/STM32_USB_Device_Library/Core/Src/usbd_core.c ****   {
 1707              		.loc 1 1050 55 is_stmt 1 discriminator 2 view .LVU538
1050:Middlewares/ST/STM32_USB_Device_Library/Core/Src/usbd_core.c ****   {
 1708              		.loc 1 1050 56 is_stmt 0 discriminator 2 view .LVU539
 1709 003c 0133     		adds	r3, r3, #1
 1710              	.LVL132:
 1711              	.L116:
1050:Middlewares/ST/STM32_USB_Device_Library/Core/Src/usbd_core.c ****   {
 1712              		.loc 1 1050 25 is_stmt 1 discriminator 1 view .LVU540
1050:Middlewares/ST/STM32_USB_Device_Library/Core/Src/usbd_core.c ****   {
 1713              		.loc 1 1050 3 is_stmt 0 discriminator 1 view .LVU541
 1714 003e 032B     		cmp	r3, #3
 1715 0040 0AD8     		bhi	.L124
1053:Middlewares/ST/STM32_USB_Device_Library/Core/Src/usbd_core.c ****     {
 1716              		.loc 1 1053 5 is_stmt 1 view .LVU542
1053:Middlewares/ST/STM32_USB_Device_Library/Core/Src/usbd_core.c ****     {
 1717              		.loc 1 1053 29 is_stmt 0 view .LVU543
 1718 0042 C3EBC302 		rsb	r2, r3, r3, lsl #3
 1719 0046 00EBC202 		add	r2, r0, r2, lsl #3
 1720 004a D2F80823 		ldr	r2, [r2, #776]
1053:Middlewares/ST/STM32_USB_Device_Library/Core/Src/usbd_core.c ****     {
 1721              		.loc 1 1053 8 view .LVU544
 1722 004e 012A     		cmp	r2, #1
 1723 0050 F4D1     		bne	.L118
 1724              	.LBB15:
1056:Middlewares/ST/STM32_USB_Device_Library/Core/Src/usbd_core.c ****       {
 1725              		.loc 1 1056 21 view .LVU545
 1726 0052 4FF0000C 		mov	ip, #0
 1727 0056 D7E7     		b	.L117
 1728              	.L124:
1056:Middlewares/ST/STM32_USB_Device_Library/Core/Src/usbd_core.c ****       {
 1729              		.loc 1 1056 21 view .LVU546
 1730              	.LBE15:
 1731              	.LBE13:
1064:Middlewares/ST/STM32_USB_Device_Library/Core/Src/usbd_core.c ****           }
1065:Middlewares/ST/STM32_USB_Device_Library/Core/Src/usbd_core.c ****         }
1066:Middlewares/ST/STM32_USB_Device_Library/Core/Src/usbd_core.c ****       }
1067:Middlewares/ST/STM32_USB_Device_Library/Core/Src/usbd_core.c ****     }
1068:Middlewares/ST/STM32_USB_Device_Library/Core/Src/usbd_core.c ****   }
1069:Middlewares/ST/STM32_USB_Device_Library/Core/Src/usbd_core.c **** 
1070:Middlewares/ST/STM32_USB_Device_Library/Core/Src/usbd_core.c ****   return 0xFFU;
 1732              		.loc 1 1070 10 view .LVU547
 1733 0058 FF20     		movs	r0, #255
 1734              	.LVL133:
1071:Middlewares/ST/STM32_USB_Device_Library/Core/Src/usbd_core.c **** #else
1072:Middlewares/ST/STM32_USB_Device_Library/Core/Src/usbd_core.c ****   UNUSED(pdev);
1073:Middlewares/ST/STM32_USB_Device_Library/Core/Src/usbd_core.c ****   UNUSED(index);
1074:Middlewares/ST/STM32_USB_Device_Library/Core/Src/usbd_core.c **** 
ARM GAS  C:\Users\ADMINI~1\AppData\Local\Temp\ccOzU0Ff.s 			page 52


1075:Middlewares/ST/STM32_USB_Device_Library/Core/Src/usbd_core.c ****   return 0x00U;
1076:Middlewares/ST/STM32_USB_Device_Library/Core/Src/usbd_core.c **** #endif /* USE_USBD_COMPOSITE */
1077:Middlewares/ST/STM32_USB_Device_Library/Core/Src/usbd_core.c **** }
 1735              		.loc 1 1077 1 view .LVU548
 1736 005a 7047     		bx	lr
 1737              		.cfi_endproc
 1738              	.LFE156:
 1740              		.section	.text.USBD_CoreFindEP,"ax",%progbits
 1741              		.align	1
 1742              		.global	USBD_CoreFindEP
 1743              		.syntax unified
 1744              		.thumb
 1745              		.thumb_func
 1747              	USBD_CoreFindEP:
 1748              	.LVL134:
 1749              	.LFB157:
1078:Middlewares/ST/STM32_USB_Device_Library/Core/Src/usbd_core.c **** 
1079:Middlewares/ST/STM32_USB_Device_Library/Core/Src/usbd_core.c **** /**
1080:Middlewares/ST/STM32_USB_Device_Library/Core/Src/usbd_core.c ****   * @brief  USBD_CoreFindEP
1081:Middlewares/ST/STM32_USB_Device_Library/Core/Src/usbd_core.c ****   *         return the class index relative to the selected endpoint
1082:Middlewares/ST/STM32_USB_Device_Library/Core/Src/usbd_core.c ****   * @param  pdev: device instance
1083:Middlewares/ST/STM32_USB_Device_Library/Core/Src/usbd_core.c ****   * @param  index : selected endpoint number
1084:Middlewares/ST/STM32_USB_Device_Library/Core/Src/usbd_core.c ****   * @retval index of the class using the selected endpoint number. 0xFF if no class found.
1085:Middlewares/ST/STM32_USB_Device_Library/Core/Src/usbd_core.c ****   */
1086:Middlewares/ST/STM32_USB_Device_Library/Core/Src/usbd_core.c **** uint8_t USBD_CoreFindEP(USBD_HandleTypeDef *pdev, uint8_t index)
1087:Middlewares/ST/STM32_USB_Device_Library/Core/Src/usbd_core.c **** {
 1750              		.loc 1 1087 1 is_stmt 1 view -0
 1751              		.cfi_startproc
 1752              		@ args = 0, pretend = 0, frame = 0
 1753              		@ frame_needed = 0, uses_anonymous_args = 0
 1754              		@ link register save eliminated.
1088:Middlewares/ST/STM32_USB_Device_Library/Core/Src/usbd_core.c **** #ifdef USE_USBD_COMPOSITE
1089:Middlewares/ST/STM32_USB_Device_Library/Core/Src/usbd_core.c ****   /* Parse the table of classes in use */
1090:Middlewares/ST/STM32_USB_Device_Library/Core/Src/usbd_core.c ****   for (uint32_t i = 0U; i < USBD_MAX_SUPPORTED_CLASS; i++)
 1755              		.loc 1 1090 3 view .LVU550
 1756              	.LBB16:
 1757              		.loc 1 1090 8 view .LVU551
 1758              		.loc 1 1090 17 is_stmt 0 view .LVU552
 1759 0000 0023     		movs	r3, #0
 1760              		.loc 1 1090 3 view .LVU553
 1761 0002 1CE0     		b	.L126
 1762              	.LVL135:
 1763              	.L129:
 1764              	.LBB17:
1091:Middlewares/ST/STM32_USB_Device_Library/Core/Src/usbd_core.c ****   {
1092:Middlewares/ST/STM32_USB_Device_Library/Core/Src/usbd_core.c ****     /* Check if current class is in use */
1093:Middlewares/ST/STM32_USB_Device_Library/Core/Src/usbd_core.c ****     if ((pdev->tclasslist[i].Active) == 1U)
1094:Middlewares/ST/STM32_USB_Device_Library/Core/Src/usbd_core.c ****     {
1095:Middlewares/ST/STM32_USB_Device_Library/Core/Src/usbd_core.c ****       /* Parse all endpoints listed in the current class */
1096:Middlewares/ST/STM32_USB_Device_Library/Core/Src/usbd_core.c ****       for (uint32_t j = 0U; j < pdev->tclasslist[i].NumEps; j++)
 1765              		.loc 1 1096 61 is_stmt 1 discriminator 2 view .LVU554
 1766              		.loc 1 1096 62 is_stmt 0 discriminator 2 view .LVU555
 1767 0004 0CF1010C 		add	ip, ip, #1
 1768              	.LVL136:
 1769              	.L127:
 1770              		.loc 1 1096 29 is_stmt 1 discriminator 1 view .LVU556
 1771              		.loc 1 1096 52 is_stmt 0 discriminator 1 view .LVU557
ARM GAS  C:\Users\ADMINI~1\AppData\Local\Temp\ccOzU0Ff.s 			page 53


 1772 0008 C3EBC302 		rsb	r2, r3, r3, lsl #3
 1773 000c 00EBC202 		add	r2, r0, r2, lsl #3
 1774 0010 D2F80C23 		ldr	r2, [r2, #780]
 1775              		.loc 1 1096 7 discriminator 1 view .LVU558
 1776 0014 6245     		cmp	r2, ip
 1777 0016 11D9     		bls	.L128
1097:Middlewares/ST/STM32_USB_Device_Library/Core/Src/usbd_core.c ****       {
1098:Middlewares/ST/STM32_USB_Device_Library/Core/Src/usbd_core.c ****         /* Check if requested endpoint matches the current class endpoint */
1099:Middlewares/ST/STM32_USB_Device_Library/Core/Src/usbd_core.c ****         if (pdev->tclasslist[i].Eps[j].add == index)
 1778              		.loc 1 1099 9 is_stmt 1 view .LVU559
 1779              		.loc 1 1099 39 is_stmt 0 view .LVU560
 1780 0018 C3EBC302 		rsb	r2, r3, r3, lsl #3
 1781 001c 0CEB4202 		add	r2, ip, r2, lsl #1
 1782 0020 C432     		adds	r2, r2, #196
 1783 0022 10F82220 		ldrb	r2, [r0, r2, lsl #2]	@ zero_extendqisi2
 1784              		.loc 1 1099 12 view .LVU561
 1785 0026 8A42     		cmp	r2, r1
 1786 0028 ECD1     		bne	.L129
1100:Middlewares/ST/STM32_USB_Device_Library/Core/Src/usbd_core.c ****         {
1101:Middlewares/ST/STM32_USB_Device_Library/Core/Src/usbd_core.c ****           if (pdev->pClass[i]->Setup != NULL)
 1787              		.loc 1 1101 11 is_stmt 1 view .LVU562
 1788              		.loc 1 1101 27 is_stmt 0 view .LVU563
 1789 002a 03F1AE02 		add	r2, r3, #174
 1790 002e 50F82220 		ldr	r2, [r0, r2, lsl #2]
 1791              		.loc 1 1101 30 view .LVU564
 1792 0032 9268     		ldr	r2, [r2, #8]
 1793              		.loc 1 1101 14 view .LVU565
 1794 0034 002A     		cmp	r2, #0
 1795 0036 E5D0     		beq	.L129
1102:Middlewares/ST/STM32_USB_Device_Library/Core/Src/usbd_core.c ****           {
1103:Middlewares/ST/STM32_USB_Device_Library/Core/Src/usbd_core.c ****             return (uint8_t)i;
 1796              		.loc 1 1103 13 is_stmt 1 view .LVU566
 1797              		.loc 1 1103 20 is_stmt 0 view .LVU567
 1798 0038 D8B2     		uxtb	r0, r3
 1799              	.LVL137:
 1800              		.loc 1 1103 20 view .LVU568
 1801 003a 7047     		bx	lr
 1802              	.LVL138:
 1803              	.L128:
 1804              		.loc 1 1103 20 view .LVU569
 1805              	.LBE17:
1090:Middlewares/ST/STM32_USB_Device_Library/Core/Src/usbd_core.c ****   {
 1806              		.loc 1 1090 55 is_stmt 1 discriminator 2 view .LVU570
1090:Middlewares/ST/STM32_USB_Device_Library/Core/Src/usbd_core.c ****   {
 1807              		.loc 1 1090 56 is_stmt 0 discriminator 2 view .LVU571
 1808 003c 0133     		adds	r3, r3, #1
 1809              	.LVL139:
 1810              	.L126:
1090:Middlewares/ST/STM32_USB_Device_Library/Core/Src/usbd_core.c ****   {
 1811              		.loc 1 1090 25 is_stmt 1 discriminator 1 view .LVU572
1090:Middlewares/ST/STM32_USB_Device_Library/Core/Src/usbd_core.c ****   {
 1812              		.loc 1 1090 3 is_stmt 0 discriminator 1 view .LVU573
 1813 003e 032B     		cmp	r3, #3
 1814 0040 0AD8     		bhi	.L134
1093:Middlewares/ST/STM32_USB_Device_Library/Core/Src/usbd_core.c ****     {
 1815              		.loc 1 1093 5 is_stmt 1 view .LVU574
1093:Middlewares/ST/STM32_USB_Device_Library/Core/Src/usbd_core.c ****     {
ARM GAS  C:\Users\ADMINI~1\AppData\Local\Temp\ccOzU0Ff.s 			page 54


 1816              		.loc 1 1093 29 is_stmt 0 view .LVU575
 1817 0042 C3EBC302 		rsb	r2, r3, r3, lsl #3
 1818 0046 00EBC202 		add	r2, r0, r2, lsl #3
 1819 004a D2F80823 		ldr	r2, [r2, #776]
1093:Middlewares/ST/STM32_USB_Device_Library/Core/Src/usbd_core.c ****     {
 1820              		.loc 1 1093 8 view .LVU576
 1821 004e 012A     		cmp	r2, #1
 1822 0050 F4D1     		bne	.L128
 1823              	.LBB18:
1096:Middlewares/ST/STM32_USB_Device_Library/Core/Src/usbd_core.c ****       {
 1824              		.loc 1 1096 21 view .LVU577
 1825 0052 4FF0000C 		mov	ip, #0
 1826 0056 D7E7     		b	.L127
 1827              	.L134:
1096:Middlewares/ST/STM32_USB_Device_Library/Core/Src/usbd_core.c ****       {
 1828              		.loc 1 1096 21 view .LVU578
 1829              	.LBE18:
 1830              	.LBE16:
1104:Middlewares/ST/STM32_USB_Device_Library/Core/Src/usbd_core.c ****           }
1105:Middlewares/ST/STM32_USB_Device_Library/Core/Src/usbd_core.c ****         }
1106:Middlewares/ST/STM32_USB_Device_Library/Core/Src/usbd_core.c ****       }
1107:Middlewares/ST/STM32_USB_Device_Library/Core/Src/usbd_core.c ****     }
1108:Middlewares/ST/STM32_USB_Device_Library/Core/Src/usbd_core.c ****   }
1109:Middlewares/ST/STM32_USB_Device_Library/Core/Src/usbd_core.c **** 
1110:Middlewares/ST/STM32_USB_Device_Library/Core/Src/usbd_core.c ****   return 0xFFU;
 1831              		.loc 1 1110 10 view .LVU579
 1832 0058 FF20     		movs	r0, #255
 1833              	.LVL140:
1111:Middlewares/ST/STM32_USB_Device_Library/Core/Src/usbd_core.c **** #else
1112:Middlewares/ST/STM32_USB_Device_Library/Core/Src/usbd_core.c ****   UNUSED(pdev);
1113:Middlewares/ST/STM32_USB_Device_Library/Core/Src/usbd_core.c ****   UNUSED(index);
1114:Middlewares/ST/STM32_USB_Device_Library/Core/Src/usbd_core.c **** 
1115:Middlewares/ST/STM32_USB_Device_Library/Core/Src/usbd_core.c ****   return 0x00U;
1116:Middlewares/ST/STM32_USB_Device_Library/Core/Src/usbd_core.c **** #endif /* USE_USBD_COMPOSITE */
1117:Middlewares/ST/STM32_USB_Device_Library/Core/Src/usbd_core.c **** }
 1834              		.loc 1 1117 1 view .LVU580
 1835 005a 7047     		bx	lr
 1836              		.cfi_endproc
 1837              	.LFE157:
 1839              		.section	.text.USBD_LL_DataOutStage,"ax",%progbits
 1840              		.align	1
 1841              		.global	USBD_LL_DataOutStage
 1842              		.syntax unified
 1843              		.thumb
 1844              		.thumb_func
 1846              	USBD_LL_DataOutStage:
 1847              	.LVL141:
 1848              	.LFB145:
 574:Middlewares/ST/STM32_USB_Device_Library/Core/Src/usbd_core.c ****   USBD_EndpointTypeDef *pep;
 1849              		.loc 1 574 1 is_stmt 1 view -0
 1850              		.cfi_startproc
 1851              		@ args = 0, pretend = 0, frame = 0
 1852              		@ frame_needed = 0, uses_anonymous_args = 0
 574:Middlewares/ST/STM32_USB_Device_Library/Core/Src/usbd_core.c ****   USBD_EndpointTypeDef *pep;
 1853              		.loc 1 574 1 is_stmt 0 view .LVU582
 1854 0000 38B5     		push	{r3, r4, r5, lr}
 1855              	.LCFI22:
ARM GAS  C:\Users\ADMINI~1\AppData\Local\Temp\ccOzU0Ff.s 			page 55


 1856              		.cfi_def_cfa_offset 16
 1857              		.cfi_offset 3, -16
 1858              		.cfi_offset 4, -12
 1859              		.cfi_offset 5, -8
 1860              		.cfi_offset 14, -4
 1861 0002 0446     		mov	r4, r0
 575:Middlewares/ST/STM32_USB_Device_Library/Core/Src/usbd_core.c ****   USBD_StatusTypeDef ret = USBD_OK;
 1862              		.loc 1 575 3 is_stmt 1 view .LVU583
 576:Middlewares/ST/STM32_USB_Device_Library/Core/Src/usbd_core.c ****   uint8_t idx;
 1863              		.loc 1 576 3 view .LVU584
 1864              	.LVL142:
 577:Middlewares/ST/STM32_USB_Device_Library/Core/Src/usbd_core.c **** 
 1865              		.loc 1 577 3 view .LVU585
 579:Middlewares/ST/STM32_USB_Device_Library/Core/Src/usbd_core.c ****   {
 1866              		.loc 1 579 3 view .LVU586
 579:Middlewares/ST/STM32_USB_Device_Library/Core/Src/usbd_core.c ****   {
 1867              		.loc 1 579 6 is_stmt 0 view .LVU587
 1868 0004 0D46     		mov	r5, r1
 1869 0006 0029     		cmp	r1, #0
 1870 0008 43D1     		bne	.L136
 1871 000a 1346     		mov	r3, r2
 581:Middlewares/ST/STM32_USB_Device_Library/Core/Src/usbd_core.c **** 
 1872              		.loc 1 581 5 is_stmt 1 view .LVU588
 1873              	.LVL143:
 583:Middlewares/ST/STM32_USB_Device_Library/Core/Src/usbd_core.c ****     {
 1874              		.loc 1 583 5 view .LVU589
 583:Middlewares/ST/STM32_USB_Device_Library/Core/Src/usbd_core.c ****     {
 1875              		.loc 1 583 13 is_stmt 0 view .LVU590
 1876 000c D0F89422 		ldr	r2, [r0, #660]
 1877              	.LVL144:
 583:Middlewares/ST/STM32_USB_Device_Library/Core/Src/usbd_core.c ****     {
 1878              		.loc 1 583 8 view .LVU591
 1879 0010 032A     		cmp	r2, #3
 1880 0012 01D0     		beq	.L149
 669:Middlewares/ST/STM32_USB_Device_Library/Core/Src/usbd_core.c **** }
 1881              		.loc 1 669 10 view .LVU592
 1882 0014 0846     		mov	r0, r1
 1883              	.LVL145:
 1884              	.L137:
 670:Middlewares/ST/STM32_USB_Device_Library/Core/Src/usbd_core.c **** 
 1885              		.loc 1 670 1 view .LVU593
 1886 0016 38BD     		pop	{r3, r4, r5, pc}
 1887              	.LVL146:
 1888              	.L149:
 585:Middlewares/ST/STM32_USB_Device_Library/Core/Src/usbd_core.c ****       {
 1889              		.loc 1 585 7 is_stmt 1 view .LVU594
 585:Middlewares/ST/STM32_USB_Device_Library/Core/Src/usbd_core.c ****       {
 1890              		.loc 1 585 14 is_stmt 0 view .LVU595
 1891 0018 D0F85C11 		ldr	r1, [r0, #348]
 1892              	.LVL147:
 585:Middlewares/ST/STM32_USB_Device_Library/Core/Src/usbd_core.c ****       {
 1893              		.loc 1 585 32 view .LVU596
 1894 001c D0F86021 		ldr	r2, [r0, #352]
 585:Middlewares/ST/STM32_USB_Device_Library/Core/Src/usbd_core.c ****       {
 1895              		.loc 1 585 10 view .LVU597
 1896 0020 9142     		cmp	r1, r2
 1897 0022 12D8     		bhi	.L150
ARM GAS  C:\Users\ADMINI~1\AppData\Local\Temp\ccOzU0Ff.s 			page 56


 594:Middlewares/ST/STM32_USB_Device_Library/Core/Src/usbd_core.c ****         {
 1898              		.loc 1 594 9 is_stmt 1 view .LVU598
 594:Middlewares/ST/STM32_USB_Device_Library/Core/Src/usbd_core.c ****         {
 1899              		.loc 1 594 30 is_stmt 0 view .LVU599
 1900 0024 90F8AA32 		ldrb	r3, [r0, #682]	@ zero_extendqisi2
 1901              	.LVL148:
 594:Middlewares/ST/STM32_USB_Device_Library/Core/Src/usbd_core.c ****         {
 1902              		.loc 1 594 30 view .LVU600
 1903 0028 03F01F03 		and	r3, r3, #31
 594:Middlewares/ST/STM32_USB_Device_Library/Core/Src/usbd_core.c ****         {
 1904              		.loc 1 594 9 view .LVU601
 1905 002c 012B     		cmp	r3, #1
 1906 002e 17D0     		beq	.L139
 1907 0030 022B     		cmp	r3, #2
 1908 0032 1CD0     		beq	.L140
 1909 0034 2846     		mov	r0, r5
 1910              	.LVL149:
 1911              	.L141:
 619:Middlewares/ST/STM32_USB_Device_Library/Core/Src/usbd_core.c ****           {
 1912              		.loc 1 619 11 is_stmt 1 view .LVU602
 619:Middlewares/ST/STM32_USB_Device_Library/Core/Src/usbd_core.c ****           {
 1913              		.loc 1 619 19 is_stmt 0 view .LVU603
 1914 0036 94F89C32 		ldrb	r3, [r4, #668]	@ zero_extendqisi2
 1915 003a DBB2     		uxtb	r3, r3
 619:Middlewares/ST/STM32_USB_Device_Library/Core/Src/usbd_core.c ****           {
 1916              		.loc 1 619 14 view .LVU604
 1917 003c 032B     		cmp	r3, #3
 1918 003e 1BD0     		beq	.L151
 1919              	.L143:
 629:Middlewares/ST/STM32_USB_Device_Library/Core/Src/usbd_core.c ****       }
 1920              		.loc 1 629 9 is_stmt 1 view .LVU605
 629:Middlewares/ST/STM32_USB_Device_Library/Core/Src/usbd_core.c ****       }
 1921              		.loc 1 629 15 is_stmt 0 view .LVU606
 1922 0040 2046     		mov	r0, r4
 1923 0042 FFF7FEFF 		bl	USBD_CtlSendStatus
 1924              	.LVL150:
 669:Middlewares/ST/STM32_USB_Device_Library/Core/Src/usbd_core.c **** }
 1925              		.loc 1 669 10 view .LVU607
 1926 0046 2846     		mov	r0, r5
 1927 0048 E5E7     		b	.L137
 1928              	.LVL151:
 1929              	.L150:
 587:Middlewares/ST/STM32_USB_Device_Library/Core/Src/usbd_core.c **** 
 1930              		.loc 1 587 9 is_stmt 1 view .LVU608
 587:Middlewares/ST/STM32_USB_Device_Library/Core/Src/usbd_core.c **** 
 1931              		.loc 1 587 25 is_stmt 0 view .LVU609
 1932 004a 891A     		subs	r1, r1, r2
 1933 004c C0F85C11 		str	r1, [r0, #348]
 589:Middlewares/ST/STM32_USB_Device_Library/Core/Src/usbd_core.c ****       }
 1934              		.loc 1 589 9 is_stmt 1 view .LVU610
 589:Middlewares/ST/STM32_USB_Device_Library/Core/Src/usbd_core.c ****       }
 1935              		.loc 1 589 15 is_stmt 0 view .LVU611
 1936 0050 8A42     		cmp	r2, r1
 1937 0052 28BF     		it	cs
 1938 0054 0A46     		movcs	r2, r1
 1939 0056 1946     		mov	r1, r3
 1940 0058 FFF7FEFF 		bl	USBD_CtlContinueRx
ARM GAS  C:\Users\ADMINI~1\AppData\Local\Temp\ccOzU0Ff.s 			page 57


 1941              	.LVL152:
 669:Middlewares/ST/STM32_USB_Device_Library/Core/Src/usbd_core.c **** }
 1942              		.loc 1 669 10 view .LVU612
 1943 005c 2846     		mov	r0, r5
 1944 005e DAE7     		b	.L137
 1945              	.LVL153:
 1946              	.L139:
 603:Middlewares/ST/STM32_USB_Device_Library/Core/Src/usbd_core.c ****             break;
 1947              		.loc 1 603 13 is_stmt 1 view .LVU613
 603:Middlewares/ST/STM32_USB_Device_Library/Core/Src/usbd_core.c ****             break;
 1948              		.loc 1 603 19 is_stmt 0 view .LVU614
 1949 0060 90F8AE12 		ldrb	r1, [r0, #686]	@ zero_extendqisi2
 1950 0064 FFF7FEFF 		bl	USBD_CoreFindIF
 1951              	.LVL154:
 604:Middlewares/ST/STM32_USB_Device_Library/Core/Src/usbd_core.c **** 
 1952              		.loc 1 604 13 is_stmt 1 view .LVU615
 1953              	.L142:
 616:Middlewares/ST/STM32_USB_Device_Library/Core/Src/usbd_core.c ****         {
 1954              		.loc 1 616 9 view .LVU616
 616:Middlewares/ST/STM32_USB_Device_Library/Core/Src/usbd_core.c ****         {
 1955              		.loc 1 616 12 is_stmt 0 view .LVU617
 1956 0068 0328     		cmp	r0, #3
 1957 006a E9D8     		bhi	.L143
 616:Middlewares/ST/STM32_USB_Device_Library/Core/Src/usbd_core.c ****         {
 1958              		.loc 1 616 12 view .LVU618
 1959 006c E3E7     		b	.L141
 1960              	.LVL155:
 1961              	.L140:
 607:Middlewares/ST/STM32_USB_Device_Library/Core/Src/usbd_core.c ****             break;
 1962              		.loc 1 607 13 is_stmt 1 view .LVU619
 607:Middlewares/ST/STM32_USB_Device_Library/Core/Src/usbd_core.c ****             break;
 1963              		.loc 1 607 19 is_stmt 0 view .LVU620
 1964 006e 90F8AE12 		ldrb	r1, [r0, #686]	@ zero_extendqisi2
 1965 0072 FFF7FEFF 		bl	USBD_CoreFindEP
 1966              	.LVL156:
 608:Middlewares/ST/STM32_USB_Device_Library/Core/Src/usbd_core.c **** 
 1967              		.loc 1 608 13 is_stmt 1 view .LVU621
 1968 0076 F7E7     		b	.L142
 1969              	.LVL157:
 1970              	.L151:
 621:Middlewares/ST/STM32_USB_Device_Library/Core/Src/usbd_core.c ****             {
 1971              		.loc 1 621 13 view .LVU622
 621:Middlewares/ST/STM32_USB_Device_Library/Core/Src/usbd_core.c ****             {
 1972              		.loc 1 621 29 is_stmt 0 view .LVU623
 1973 0078 00F1AE03 		add	r3, r0, #174
 1974 007c 54F82330 		ldr	r3, [r4, r3, lsl #2]
 621:Middlewares/ST/STM32_USB_Device_Library/Core/Src/usbd_core.c ****             {
 1975              		.loc 1 621 34 view .LVU624
 1976 0080 1A69     		ldr	r2, [r3, #16]
 621:Middlewares/ST/STM32_USB_Device_Library/Core/Src/usbd_core.c ****             {
 1977              		.loc 1 621 16 view .LVU625
 1978 0082 002A     		cmp	r2, #0
 1979 0084 DCD0     		beq	.L143
 623:Middlewares/ST/STM32_USB_Device_Library/Core/Src/usbd_core.c ****               pdev->pClass[idx]->EP0_RxReady(pdev);
 1980              		.loc 1 623 15 is_stmt 1 view .LVU626
 623:Middlewares/ST/STM32_USB_Device_Library/Core/Src/usbd_core.c ****               pdev->pClass[idx]->EP0_RxReady(pdev);
 1981              		.loc 1 623 29 is_stmt 0 view .LVU627
ARM GAS  C:\Users\ADMINI~1\AppData\Local\Temp\ccOzU0Ff.s 			page 58


 1982 0086 C4F8F802 		str	r0, [r4, #760]
 624:Middlewares/ST/STM32_USB_Device_Library/Core/Src/usbd_core.c ****             }
 1983              		.loc 1 624 15 is_stmt 1 view .LVU628
 624:Middlewares/ST/STM32_USB_Device_Library/Core/Src/usbd_core.c ****             }
 1984              		.loc 1 624 32 is_stmt 0 view .LVU629
 1985 008a 1B69     		ldr	r3, [r3, #16]
 624:Middlewares/ST/STM32_USB_Device_Library/Core/Src/usbd_core.c ****             }
 1986              		.loc 1 624 15 view .LVU630
 1987 008c 2046     		mov	r0, r4
 1988 008e 9847     		blx	r3
 1989              	.LVL158:
 1990 0090 D6E7     		b	.L143
 1991              	.LVL159:
 1992              	.L136:
 649:Middlewares/ST/STM32_USB_Device_Library/Core/Src/usbd_core.c **** 
 1993              		.loc 1 649 5 is_stmt 1 view .LVU631
 649:Middlewares/ST/STM32_USB_Device_Library/Core/Src/usbd_core.c **** 
 1994              		.loc 1 649 11 is_stmt 0 view .LVU632
 1995 0092 01F07F01 		and	r1, r1, #127
 1996              	.LVL160:
 649:Middlewares/ST/STM32_USB_Device_Library/Core/Src/usbd_core.c **** 
 1997              		.loc 1 649 11 view .LVU633
 1998 0096 FFF7FEFF 		bl	USBD_CoreFindEP
 1999              	.LVL161:
 651:Middlewares/ST/STM32_USB_Device_Library/Core/Src/usbd_core.c ****     {
 2000              		.loc 1 651 5 is_stmt 1 view .LVU634
 651:Middlewares/ST/STM32_USB_Device_Library/Core/Src/usbd_core.c ****     {
 2001              		.loc 1 651 8 is_stmt 0 view .LVU635
 2002 009a 0328     		cmp	r0, #3
 2003 009c 13D8     		bhi	.L145
 654:Middlewares/ST/STM32_USB_Device_Library/Core/Src/usbd_core.c ****       {
 2004              		.loc 1 654 7 is_stmt 1 view .LVU636
 654:Middlewares/ST/STM32_USB_Device_Library/Core/Src/usbd_core.c ****       {
 2005              		.loc 1 654 15 is_stmt 0 view .LVU637
 2006 009e 94F89C32 		ldrb	r3, [r4, #668]	@ zero_extendqisi2
 2007 00a2 DBB2     		uxtb	r3, r3
 654:Middlewares/ST/STM32_USB_Device_Library/Core/Src/usbd_core.c ****       {
 2008              		.loc 1 654 10 view .LVU638
 2009 00a4 032B     		cmp	r3, #3
 2010 00a6 01D0     		beq	.L152
 669:Middlewares/ST/STM32_USB_Device_Library/Core/Src/usbd_core.c **** }
 2011              		.loc 1 669 10 view .LVU639
 2012 00a8 0020     		movs	r0, #0
 2013              	.LVL162:
 669:Middlewares/ST/STM32_USB_Device_Library/Core/Src/usbd_core.c **** }
 2014              		.loc 1 669 10 view .LVU640
 2015 00aa B4E7     		b	.L137
 2016              	.LVL163:
 2017              	.L152:
 656:Middlewares/ST/STM32_USB_Device_Library/Core/Src/usbd_core.c ****         {
 2018              		.loc 1 656 9 is_stmt 1 view .LVU641
 656:Middlewares/ST/STM32_USB_Device_Library/Core/Src/usbd_core.c ****         {
 2019              		.loc 1 656 25 is_stmt 0 view .LVU642
 2020 00ac 00F1AE03 		add	r3, r0, #174
 2021 00b0 54F82330 		ldr	r3, [r4, r3, lsl #2]
 656:Middlewares/ST/STM32_USB_Device_Library/Core/Src/usbd_core.c ****         {
 2022              		.loc 1 656 30 view .LVU643
ARM GAS  C:\Users\ADMINI~1\AppData\Local\Temp\ccOzU0Ff.s 			page 59


 2023 00b4 9A69     		ldr	r2, [r3, #24]
 656:Middlewares/ST/STM32_USB_Device_Library/Core/Src/usbd_core.c ****         {
 2024              		.loc 1 656 12 view .LVU644
 2025 00b6 42B1     		cbz	r2, .L147
 658:Middlewares/ST/STM32_USB_Device_Library/Core/Src/usbd_core.c ****           ret = (USBD_StatusTypeDef)pdev->pClass[idx]->DataOut(pdev, epnum);
 2026              		.loc 1 658 11 is_stmt 1 view .LVU645
 658:Middlewares/ST/STM32_USB_Device_Library/Core/Src/usbd_core.c ****           ret = (USBD_StatusTypeDef)pdev->pClass[idx]->DataOut(pdev, epnum);
 2027              		.loc 1 658 25 is_stmt 0 view .LVU646
 2028 00b8 C4F8F802 		str	r0, [r4, #760]
 659:Middlewares/ST/STM32_USB_Device_Library/Core/Src/usbd_core.c ****         }
 2029              		.loc 1 659 11 is_stmt 1 view .LVU647
 659:Middlewares/ST/STM32_USB_Device_Library/Core/Src/usbd_core.c ****         }
 2030              		.loc 1 659 54 is_stmt 0 view .LVU648
 2031 00bc 9B69     		ldr	r3, [r3, #24]
 659:Middlewares/ST/STM32_USB_Device_Library/Core/Src/usbd_core.c ****         }
 2032              		.loc 1 659 37 view .LVU649
 2033 00be 2946     		mov	r1, r5
 2034 00c0 2046     		mov	r0, r4
 2035              	.LVL164:
 659:Middlewares/ST/STM32_USB_Device_Library/Core/Src/usbd_core.c ****         }
 2036              		.loc 1 659 37 view .LVU650
 2037 00c2 9847     		blx	r3
 2038              	.LVL165:
 662:Middlewares/ST/STM32_USB_Device_Library/Core/Src/usbd_core.c ****       {
 2039              		.loc 1 662 7 is_stmt 1 view .LVU651
 2040 00c4 A7E7     		b	.L137
 2041              	.LVL166:
 2042              	.L145:
 669:Middlewares/ST/STM32_USB_Device_Library/Core/Src/usbd_core.c **** }
 2043              		.loc 1 669 10 is_stmt 0 view .LVU652
 2044 00c6 0020     		movs	r0, #0
 2045              	.LVL167:
 669:Middlewares/ST/STM32_USB_Device_Library/Core/Src/usbd_core.c **** }
 2046              		.loc 1 669 10 view .LVU653
 2047 00c8 A5E7     		b	.L137
 2048              	.LVL168:
 2049              	.L147:
 669:Middlewares/ST/STM32_USB_Device_Library/Core/Src/usbd_core.c **** }
 2050              		.loc 1 669 10 view .LVU654
 2051 00ca 0020     		movs	r0, #0
 2052              	.LVL169:
 669:Middlewares/ST/STM32_USB_Device_Library/Core/Src/usbd_core.c **** }
 2053              		.loc 1 669 10 view .LVU655
 2054 00cc A3E7     		b	.L137
 2055              		.cfi_endproc
 2056              	.LFE145:
 2058              		.section	.text.USBD_LL_DataInStage,"ax",%progbits
 2059              		.align	1
 2060              		.global	USBD_LL_DataInStage
 2061              		.syntax unified
 2062              		.thumb
 2063              		.thumb_func
 2065              	USBD_LL_DataInStage:
 2066              	.LVL170:
 2067              	.LFB146:
 681:Middlewares/ST/STM32_USB_Device_Library/Core/Src/usbd_core.c ****   USBD_EndpointTypeDef *pep;
 2068              		.loc 1 681 1 is_stmt 1 view -0
ARM GAS  C:\Users\ADMINI~1\AppData\Local\Temp\ccOzU0Ff.s 			page 60


 2069              		.cfi_startproc
 2070              		@ args = 0, pretend = 0, frame = 0
 2071              		@ frame_needed = 0, uses_anonymous_args = 0
 681:Middlewares/ST/STM32_USB_Device_Library/Core/Src/usbd_core.c ****   USBD_EndpointTypeDef *pep;
 2072              		.loc 1 681 1 is_stmt 0 view .LVU657
 2073 0000 38B5     		push	{r3, r4, r5, lr}
 2074              	.LCFI23:
 2075              		.cfi_def_cfa_offset 16
 2076              		.cfi_offset 3, -16
 2077              		.cfi_offset 4, -12
 2078              		.cfi_offset 5, -8
 2079              		.cfi_offset 14, -4
 2080 0002 0446     		mov	r4, r0
 682:Middlewares/ST/STM32_USB_Device_Library/Core/Src/usbd_core.c ****   USBD_StatusTypeDef ret;
 2081              		.loc 1 682 3 is_stmt 1 view .LVU658
 683:Middlewares/ST/STM32_USB_Device_Library/Core/Src/usbd_core.c ****   uint8_t idx;
 2082              		.loc 1 683 3 view .LVU659
 684:Middlewares/ST/STM32_USB_Device_Library/Core/Src/usbd_core.c **** 
 2083              		.loc 1 684 3 view .LVU660
 686:Middlewares/ST/STM32_USB_Device_Library/Core/Src/usbd_core.c ****   {
 2084              		.loc 1 686 3 view .LVU661
 686:Middlewares/ST/STM32_USB_Device_Library/Core/Src/usbd_core.c ****   {
 2085              		.loc 1 686 6 is_stmt 0 view .LVU662
 2086 0004 0D46     		mov	r5, r1
 2087 0006 0029     		cmp	r1, #0
 2088 0008 4BD1     		bne	.L154
 2089 000a 1346     		mov	r3, r2
 688:Middlewares/ST/STM32_USB_Device_Library/Core/Src/usbd_core.c **** 
 2090              		.loc 1 688 5 is_stmt 1 view .LVU663
 2091              	.LVL171:
 690:Middlewares/ST/STM32_USB_Device_Library/Core/Src/usbd_core.c ****     {
 2092              		.loc 1 690 5 view .LVU664
 690:Middlewares/ST/STM32_USB_Device_Library/Core/Src/usbd_core.c ****     {
 2093              		.loc 1 690 13 is_stmt 0 view .LVU665
 2094 000c D0F89422 		ldr	r2, [r0, #660]
 2095              	.LVL172:
 690:Middlewares/ST/STM32_USB_Device_Library/Core/Src/usbd_core.c ****     {
 2096              		.loc 1 690 8 view .LVU666
 2097 0010 022A     		cmp	r2, #2
 2098 0012 07D0     		beq	.L164
 2099              	.LVL173:
 2100              	.L155:
 738:Middlewares/ST/STM32_USB_Device_Library/Core/Src/usbd_core.c **** 
 2101              		.loc 1 738 5 is_stmt 1 view .LVU667
 740:Middlewares/ST/STM32_USB_Device_Library/Core/Src/usbd_core.c ****     {
 2102              		.loc 1 740 5 view .LVU668
 740:Middlewares/ST/STM32_USB_Device_Library/Core/Src/usbd_core.c ****     {
 2103              		.loc 1 740 13 is_stmt 0 view .LVU669
 2104 0014 94F8A002 		ldrb	r0, [r4, #672]	@ zero_extendqisi2
 740:Middlewares/ST/STM32_USB_Device_Library/Core/Src/usbd_core.c ****     {
 2105              		.loc 1 740 8 view .LVU670
 2106 0018 18B1     		cbz	r0, .L159
 742:Middlewares/ST/STM32_USB_Device_Library/Core/Src/usbd_core.c ****       pdev->dev_test_mode = 0U;
 2107              		.loc 1 742 7 is_stmt 1 view .LVU671
 743:Middlewares/ST/STM32_USB_Device_Library/Core/Src/usbd_core.c ****     }
 2108              		.loc 1 743 7 view .LVU672
 743:Middlewares/ST/STM32_USB_Device_Library/Core/Src/usbd_core.c ****     }
ARM GAS  C:\Users\ADMINI~1\AppData\Local\Temp\ccOzU0Ff.s 			page 61


 2109              		.loc 1 743 27 is_stmt 0 view .LVU673
 2110 001a 0023     		movs	r3, #0
 2111 001c 84F8A032 		strb	r3, [r4, #672]
 770:Middlewares/ST/STM32_USB_Device_Library/Core/Src/usbd_core.c **** }
 2112              		.loc 1 770 10 view .LVU674
 2113 0020 2846     		mov	r0, r5
 2114              	.LVL174:
 2115              	.L159:
 771:Middlewares/ST/STM32_USB_Device_Library/Core/Src/usbd_core.c **** 
 2116              		.loc 1 771 1 view .LVU675
 2117 0022 38BD     		pop	{r3, r4, r5, pc}
 2118              	.LVL175:
 2119              	.L164:
 692:Middlewares/ST/STM32_USB_Device_Library/Core/Src/usbd_core.c ****       {
 2120              		.loc 1 692 7 is_stmt 1 view .LVU676
 692:Middlewares/ST/STM32_USB_Device_Library/Core/Src/usbd_core.c ****       {
 2121              		.loc 1 692 14 is_stmt 0 view .LVU677
 2122 0024 C269     		ldr	r2, [r0, #28]
 692:Middlewares/ST/STM32_USB_Device_Library/Core/Src/usbd_core.c ****       {
 2123              		.loc 1 692 32 view .LVU678
 2124 0026 016A     		ldr	r1, [r0, #32]
 2125              	.LVL176:
 692:Middlewares/ST/STM32_USB_Device_Library/Core/Src/usbd_core.c ****       {
 2126              		.loc 1 692 10 view .LVU679
 2127 0028 8A42     		cmp	r2, r1
 2128 002a 0ED8     		bhi	.L165
 704:Middlewares/ST/STM32_USB_Device_Library/Core/Src/usbd_core.c ****             (pep->total_length >= pep->maxpacket) &&
 2129              		.loc 1 704 9 is_stmt 1 view .LVU680
 704:Middlewares/ST/STM32_USB_Device_Library/Core/Src/usbd_core.c ****             (pep->total_length >= pep->maxpacket) &&
 2130              		.loc 1 704 12 is_stmt 0 view .LVU681
 2131 002c 8A42     		cmp	r2, r1
 2132 002e 18D0     		beq	.L166
 2133              	.LVL177:
 2134              	.L157:
 716:Middlewares/ST/STM32_USB_Device_Library/Core/Src/usbd_core.c ****           {
 2135              		.loc 1 716 11 is_stmt 1 view .LVU682
 716:Middlewares/ST/STM32_USB_Device_Library/Core/Src/usbd_core.c ****           {
 2136              		.loc 1 716 19 is_stmt 0 view .LVU683
 2137 0030 94F89C32 		ldrb	r3, [r4, #668]	@ zero_extendqisi2
 2138 0034 DBB2     		uxtb	r3, r3
 716:Middlewares/ST/STM32_USB_Device_Library/Core/Src/usbd_core.c ****           {
 2139              		.loc 1 716 14 view .LVU684
 2140 0036 032B     		cmp	r3, #3
 2141 0038 27D0     		beq	.L167
 2142              	.LVL178:
 2143              	.L158:
 724:Middlewares/ST/STM32_USB_Device_Library/Core/Src/usbd_core.c ****           (void)USBD_CtlReceiveStatus(pdev);
 2144              		.loc 1 724 11 is_stmt 1 view .LVU685
 724:Middlewares/ST/STM32_USB_Device_Library/Core/Src/usbd_core.c ****           (void)USBD_CtlReceiveStatus(pdev);
 2145              		.loc 1 724 17 is_stmt 0 view .LVU686
 2146 003a 8021     		movs	r1, #128
 2147 003c 2046     		mov	r0, r4
 2148 003e FFF7FEFF 		bl	USBD_LL_StallEP
 2149              	.LVL179:
 725:Middlewares/ST/STM32_USB_Device_Library/Core/Src/usbd_core.c ****         }
 2150              		.loc 1 725 11 is_stmt 1 view .LVU687
 725:Middlewares/ST/STM32_USB_Device_Library/Core/Src/usbd_core.c ****         }
ARM GAS  C:\Users\ADMINI~1\AppData\Local\Temp\ccOzU0Ff.s 			page 62


 2151              		.loc 1 725 17 is_stmt 0 view .LVU688
 2152 0042 2046     		mov	r0, r4
 2153 0044 FFF7FEFF 		bl	USBD_CtlReceiveStatus
 2154              	.LVL180:
 2155 0048 E4E7     		b	.L155
 2156              	.LVL181:
 2157              	.L165:
 694:Middlewares/ST/STM32_USB_Device_Library/Core/Src/usbd_core.c **** 
 2158              		.loc 1 694 9 is_stmt 1 view .LVU689
 694:Middlewares/ST/STM32_USB_Device_Library/Core/Src/usbd_core.c **** 
 2159              		.loc 1 694 25 is_stmt 0 view .LVU690
 2160 004a 521A     		subs	r2, r2, r1
 2161 004c C261     		str	r2, [r0, #28]
 696:Middlewares/ST/STM32_USB_Device_Library/Core/Src/usbd_core.c **** 
 2162              		.loc 1 696 9 is_stmt 1 view .LVU691
 696:Middlewares/ST/STM32_USB_Device_Library/Core/Src/usbd_core.c **** 
 2163              		.loc 1 696 15 is_stmt 0 view .LVU692
 2164 004e 1946     		mov	r1, r3
 2165 0050 FFF7FEFF 		bl	USBD_CtlContinueSendData
 2166              	.LVL182:
 699:Middlewares/ST/STM32_USB_Device_Library/Core/Src/usbd_core.c ****       }
 2167              		.loc 1 699 9 is_stmt 1 view .LVU693
 699:Middlewares/ST/STM32_USB_Device_Library/Core/Src/usbd_core.c ****       }
 2168              		.loc 1 699 15 is_stmt 0 view .LVU694
 2169 0054 0023     		movs	r3, #0
 2170 0056 1A46     		mov	r2, r3
 2171 0058 1946     		mov	r1, r3
 2172 005a 2046     		mov	r0, r4
 2173 005c FFF7FEFF 		bl	USBD_LL_PrepareReceive
 2174              	.LVL183:
 2175 0060 D8E7     		b	.L155
 2176              	.LVL184:
 2177              	.L166:
 705:Middlewares/ST/STM32_USB_Device_Library/Core/Src/usbd_core.c ****             (pep->total_length < pdev->ep0_data_len))
 2178              		.loc 1 705 17 discriminator 1 view .LVU695
 2179 0062 8369     		ldr	r3, [r0, #24]
 2180              	.LVL185:
 704:Middlewares/ST/STM32_USB_Device_Library/Core/Src/usbd_core.c ****             (pep->total_length >= pep->maxpacket) &&
 2181              		.loc 1 704 49 discriminator 1 view .LVU696
 2182 0064 9942     		cmp	r1, r3
 2183 0066 E3D8     		bhi	.L157
 706:Middlewares/ST/STM32_USB_Device_Library/Core/Src/usbd_core.c ****         {
 2184              		.loc 1 706 38 view .LVU697
 2185 0068 D0F89822 		ldr	r2, [r0, #664]
 705:Middlewares/ST/STM32_USB_Device_Library/Core/Src/usbd_core.c ****             (pep->total_length < pdev->ep0_data_len))
 2186              		.loc 1 705 51 view .LVU698
 2187 006c 9342     		cmp	r3, r2
 2188 006e DFD2     		bcs	.L157
 708:Middlewares/ST/STM32_USB_Device_Library/Core/Src/usbd_core.c ****           pdev->ep0_data_len = 0U;
 2189              		.loc 1 708 11 is_stmt 1 view .LVU699
 708:Middlewares/ST/STM32_USB_Device_Library/Core/Src/usbd_core.c ****           pdev->ep0_data_len = 0U;
 2190              		.loc 1 708 17 is_stmt 0 view .LVU700
 2191 0070 0022     		movs	r2, #0
 2192 0072 1146     		mov	r1, r2
 2193 0074 FFF7FEFF 		bl	USBD_CtlContinueSendData
 2194              	.LVL186:
 709:Middlewares/ST/STM32_USB_Device_Library/Core/Src/usbd_core.c **** 
ARM GAS  C:\Users\ADMINI~1\AppData\Local\Temp\ccOzU0Ff.s 			page 63


 2195              		.loc 1 709 11 is_stmt 1 view .LVU701
 709:Middlewares/ST/STM32_USB_Device_Library/Core/Src/usbd_core.c **** 
 2196              		.loc 1 709 30 is_stmt 0 view .LVU702
 2197 0078 0021     		movs	r1, #0
 2198 007a C4F89812 		str	r1, [r4, #664]
 712:Middlewares/ST/STM32_USB_Device_Library/Core/Src/usbd_core.c ****         }
 2199              		.loc 1 712 11 is_stmt 1 view .LVU703
 712:Middlewares/ST/STM32_USB_Device_Library/Core/Src/usbd_core.c ****         }
 2200              		.loc 1 712 17 is_stmt 0 view .LVU704
 2201 007e 0B46     		mov	r3, r1
 2202 0080 0A46     		mov	r2, r1
 2203 0082 2046     		mov	r0, r4
 2204 0084 FFF7FEFF 		bl	USBD_LL_PrepareReceive
 2205              	.LVL187:
 712:Middlewares/ST/STM32_USB_Device_Library/Core/Src/usbd_core.c ****         }
 2206              		.loc 1 712 11 view .LVU705
 2207 0088 C4E7     		b	.L155
 2208              	.LVL188:
 2209              	.L167:
 718:Middlewares/ST/STM32_USB_Device_Library/Core/Src/usbd_core.c ****             {
 2210              		.loc 1 718 13 is_stmt 1 view .LVU706
 718:Middlewares/ST/STM32_USB_Device_Library/Core/Src/usbd_core.c ****             {
 2211              		.loc 1 718 29 is_stmt 0 view .LVU707
 2212 008a D4F8B832 		ldr	r3, [r4, #696]
 718:Middlewares/ST/STM32_USB_Device_Library/Core/Src/usbd_core.c ****             {
 2213              		.loc 1 718 32 view .LVU708
 2214 008e DA68     		ldr	r2, [r3, #12]
 718:Middlewares/ST/STM32_USB_Device_Library/Core/Src/usbd_core.c ****             {
 2215              		.loc 1 718 16 view .LVU709
 2216 0090 002A     		cmp	r2, #0
 2217 0092 D2D0     		beq	.L158
 720:Middlewares/ST/STM32_USB_Device_Library/Core/Src/usbd_core.c ****               pdev->pClass[0]->EP0_TxSent(pdev);
 2218              		.loc 1 720 15 is_stmt 1 view .LVU710
 720:Middlewares/ST/STM32_USB_Device_Library/Core/Src/usbd_core.c ****               pdev->pClass[0]->EP0_TxSent(pdev);
 2219              		.loc 1 720 29 is_stmt 0 view .LVU711
 2220 0094 0022     		movs	r2, #0
 2221 0096 C4F8F822 		str	r2, [r4, #760]
 721:Middlewares/ST/STM32_USB_Device_Library/Core/Src/usbd_core.c ****             }
 2222              		.loc 1 721 15 is_stmt 1 view .LVU712
 721:Middlewares/ST/STM32_USB_Device_Library/Core/Src/usbd_core.c ****             }
 2223              		.loc 1 721 30 is_stmt 0 view .LVU713
 2224 009a DB68     		ldr	r3, [r3, #12]
 721:Middlewares/ST/STM32_USB_Device_Library/Core/Src/usbd_core.c ****             }
 2225              		.loc 1 721 15 view .LVU714
 2226 009c 2046     		mov	r0, r4
 2227              	.LVL189:
 721:Middlewares/ST/STM32_USB_Device_Library/Core/Src/usbd_core.c ****             }
 2228              		.loc 1 721 15 view .LVU715
 2229 009e 9847     		blx	r3
 2230              	.LVL190:
 2231 00a0 CBE7     		b	.L158
 2232              	.LVL191:
 2233              	.L154:
 749:Middlewares/ST/STM32_USB_Device_Library/Core/Src/usbd_core.c **** 
 2234              		.loc 1 749 5 is_stmt 1 view .LVU716
 749:Middlewares/ST/STM32_USB_Device_Library/Core/Src/usbd_core.c **** 
 2235              		.loc 1 749 11 is_stmt 0 view .LVU717
ARM GAS  C:\Users\ADMINI~1\AppData\Local\Temp\ccOzU0Ff.s 			page 64


 2236 00a2 41F08001 		orr	r1, r1, #128
 2237              	.LVL192:
 749:Middlewares/ST/STM32_USB_Device_Library/Core/Src/usbd_core.c **** 
 2238              		.loc 1 749 11 view .LVU718
 2239 00a6 FFF7FEFF 		bl	USBD_CoreFindEP
 2240              	.LVL193:
 751:Middlewares/ST/STM32_USB_Device_Library/Core/Src/usbd_core.c ****     {
 2241              		.loc 1 751 5 is_stmt 1 view .LVU719
 751:Middlewares/ST/STM32_USB_Device_Library/Core/Src/usbd_core.c ****     {
 2242              		.loc 1 751 8 is_stmt 0 view .LVU720
 2243 00aa 0328     		cmp	r0, #3
 2244 00ac 13D8     		bhi	.L160
 754:Middlewares/ST/STM32_USB_Device_Library/Core/Src/usbd_core.c ****       {
 2245              		.loc 1 754 7 is_stmt 1 view .LVU721
 754:Middlewares/ST/STM32_USB_Device_Library/Core/Src/usbd_core.c ****       {
 2246              		.loc 1 754 15 is_stmt 0 view .LVU722
 2247 00ae 94F89C32 		ldrb	r3, [r4, #668]	@ zero_extendqisi2
 2248 00b2 DBB2     		uxtb	r3, r3
 754:Middlewares/ST/STM32_USB_Device_Library/Core/Src/usbd_core.c ****       {
 2249              		.loc 1 754 10 view .LVU723
 2250 00b4 032B     		cmp	r3, #3
 2251 00b6 01D0     		beq	.L168
 770:Middlewares/ST/STM32_USB_Device_Library/Core/Src/usbd_core.c **** }
 2252              		.loc 1 770 10 view .LVU724
 2253 00b8 0020     		movs	r0, #0
 2254              	.LVL194:
 770:Middlewares/ST/STM32_USB_Device_Library/Core/Src/usbd_core.c **** }
 2255              		.loc 1 770 10 view .LVU725
 2256 00ba B2E7     		b	.L159
 2257              	.LVL195:
 2258              	.L168:
 756:Middlewares/ST/STM32_USB_Device_Library/Core/Src/usbd_core.c ****         {
 2259              		.loc 1 756 9 is_stmt 1 view .LVU726
 756:Middlewares/ST/STM32_USB_Device_Library/Core/Src/usbd_core.c ****         {
 2260              		.loc 1 756 25 is_stmt 0 view .LVU727
 2261 00bc 00F1AE03 		add	r3, r0, #174
 2262 00c0 54F82330 		ldr	r3, [r4, r3, lsl #2]
 756:Middlewares/ST/STM32_USB_Device_Library/Core/Src/usbd_core.c ****         {
 2263              		.loc 1 756 30 view .LVU728
 2264 00c4 5A69     		ldr	r2, [r3, #20]
 756:Middlewares/ST/STM32_USB_Device_Library/Core/Src/usbd_core.c ****         {
 2265              		.loc 1 756 12 view .LVU729
 2266 00c6 42B1     		cbz	r2, .L162
 758:Middlewares/ST/STM32_USB_Device_Library/Core/Src/usbd_core.c ****           ret = (USBD_StatusTypeDef)pdev->pClass[idx]->DataIn(pdev, epnum);
 2267              		.loc 1 758 11 is_stmt 1 view .LVU730
 758:Middlewares/ST/STM32_USB_Device_Library/Core/Src/usbd_core.c ****           ret = (USBD_StatusTypeDef)pdev->pClass[idx]->DataIn(pdev, epnum);
 2268              		.loc 1 758 25 is_stmt 0 view .LVU731
 2269 00c8 C4F8F802 		str	r0, [r4, #760]
 759:Middlewares/ST/STM32_USB_Device_Library/Core/Src/usbd_core.c **** 
 2270              		.loc 1 759 11 is_stmt 1 view .LVU732
 759:Middlewares/ST/STM32_USB_Device_Library/Core/Src/usbd_core.c **** 
 2271              		.loc 1 759 54 is_stmt 0 view .LVU733
 2272 00cc 5B69     		ldr	r3, [r3, #20]
 759:Middlewares/ST/STM32_USB_Device_Library/Core/Src/usbd_core.c **** 
 2273              		.loc 1 759 37 view .LVU734
 2274 00ce 2946     		mov	r1, r5
 2275 00d0 2046     		mov	r0, r4
ARM GAS  C:\Users\ADMINI~1\AppData\Local\Temp\ccOzU0Ff.s 			page 65


 2276              	.LVL196:
 759:Middlewares/ST/STM32_USB_Device_Library/Core/Src/usbd_core.c **** 
 2277              		.loc 1 759 37 view .LVU735
 2278 00d2 9847     		blx	r3
 2279              	.LVL197:
 761:Middlewares/ST/STM32_USB_Device_Library/Core/Src/usbd_core.c ****           {
 2280              		.loc 1 761 11 is_stmt 1 view .LVU736
 2281 00d4 A5E7     		b	.L159
 2282              	.LVL198:
 2283              	.L160:
 770:Middlewares/ST/STM32_USB_Device_Library/Core/Src/usbd_core.c **** }
 2284              		.loc 1 770 10 is_stmt 0 view .LVU737
 2285 00d6 0020     		movs	r0, #0
 2286              	.LVL199:
 770:Middlewares/ST/STM32_USB_Device_Library/Core/Src/usbd_core.c **** }
 2287              		.loc 1 770 10 view .LVU738
 2288 00d8 A3E7     		b	.L159
 2289              	.LVL200:
 2290              	.L162:
 770:Middlewares/ST/STM32_USB_Device_Library/Core/Src/usbd_core.c **** }
 2291              		.loc 1 770 10 view .LVU739
 2292 00da 0020     		movs	r0, #0
 2293              	.LVL201:
 770:Middlewares/ST/STM32_USB_Device_Library/Core/Src/usbd_core.c **** }
 2294              		.loc 1 770 10 view .LVU740
 2295 00dc A1E7     		b	.L159
 2296              		.cfi_endproc
 2297              	.LFE146:
 2299              		.section	.text.USBD_CoreGetEPAdd,"ax",%progbits
 2300              		.align	1
 2301              		.global	USBD_CoreGetEPAdd
 2302              		.syntax unified
 2303              		.thumb
 2304              		.thumb_func
 2306              	USBD_CoreGetEPAdd:
 2307              	.LVL202:
 2308              	.LFB158:
1118:Middlewares/ST/STM32_USB_Device_Library/Core/Src/usbd_core.c **** 
1119:Middlewares/ST/STM32_USB_Device_Library/Core/Src/usbd_core.c **** #ifdef USE_USBD_COMPOSITE
1120:Middlewares/ST/STM32_USB_Device_Library/Core/Src/usbd_core.c **** /**
1121:Middlewares/ST/STM32_USB_Device_Library/Core/Src/usbd_core.c ****   * @brief  USBD_CoreGetEPAdd
1122:Middlewares/ST/STM32_USB_Device_Library/Core/Src/usbd_core.c ****   *         Get the endpoint address relative to a selected class
1123:Middlewares/ST/STM32_USB_Device_Library/Core/Src/usbd_core.c ****   * @param  pdev: device instance
1124:Middlewares/ST/STM32_USB_Device_Library/Core/Src/usbd_core.c ****   * @param  ep_dir: USBD_EP_IN or USBD_EP_OUT
1125:Middlewares/ST/STM32_USB_Device_Library/Core/Src/usbd_core.c ****   * @param  ep_type: USBD_EP_TYPE_CTRL, USBD_EP_TYPE_ISOC, USBD_EP_TYPE_BULK or USBD_EP_TYPE_INTR
1126:Middlewares/ST/STM32_USB_Device_Library/Core/Src/usbd_core.c ****   * @retval Address of the selected endpoint or 0xFFU if no endpoint found.
1127:Middlewares/ST/STM32_USB_Device_Library/Core/Src/usbd_core.c ****   */
1128:Middlewares/ST/STM32_USB_Device_Library/Core/Src/usbd_core.c **** uint8_t USBD_CoreGetEPAdd(USBD_HandleTypeDef *pdev, uint8_t ep_dir, uint8_t ep_type)
1129:Middlewares/ST/STM32_USB_Device_Library/Core/Src/usbd_core.c **** {
 2309              		.loc 1 1129 1 is_stmt 1 view -0
 2310              		.cfi_startproc
 2311              		@ args = 0, pretend = 0, frame = 0
 2312              		@ frame_needed = 0, uses_anonymous_args = 0
 2313              		.loc 1 1129 1 is_stmt 0 view .LVU742
 2314 0000 30B5     		push	{r4, r5, lr}
 2315              	.LCFI24:
 2316              		.cfi_def_cfa_offset 12
ARM GAS  C:\Users\ADMINI~1\AppData\Local\Temp\ccOzU0Ff.s 			page 66


 2317              		.cfi_offset 4, -12
 2318              		.cfi_offset 5, -8
 2319              		.cfi_offset 14, -4
 2320 0002 8646     		mov	lr, r0
1130:Middlewares/ST/STM32_USB_Device_Library/Core/Src/usbd_core.c ****   uint8_t idx;
 2321              		.loc 1 1130 3 is_stmt 1 view .LVU743
1131:Middlewares/ST/STM32_USB_Device_Library/Core/Src/usbd_core.c **** 
1132:Middlewares/ST/STM32_USB_Device_Library/Core/Src/usbd_core.c ****   /* Find the EP address in the selected class table */
1133:Middlewares/ST/STM32_USB_Device_Library/Core/Src/usbd_core.c ****   for (idx = 0; idx < pdev->tclasslist[pdev->classId].NumEps; idx++)
 2322              		.loc 1 1133 3 view .LVU744
 2323              	.LVL203:
 2324              		.loc 1 1133 12 is_stmt 0 view .LVU745
 2325 0004 0023     		movs	r3, #0
 2326              		.loc 1 1133 3 view .LVU746
 2327 0006 01E0     		b	.L170
 2328              	.LVL204:
 2329              	.L171:
 2330              		.loc 1 1133 63 is_stmt 1 discriminator 2 view .LVU747
 2331              		.loc 1 1133 66 is_stmt 0 discriminator 2 view .LVU748
 2332 0008 0133     		adds	r3, r3, #1
 2333              	.LVL205:
 2334              		.loc 1 1133 66 discriminator 2 view .LVU749
 2335 000a DBB2     		uxtb	r3, r3
 2336              	.LVL206:
 2337              	.L170:
 2338              		.loc 1 1133 17 is_stmt 1 discriminator 1 view .LVU750
 2339              		.loc 1 1133 44 is_stmt 0 discriminator 1 view .LVU751
 2340 000c DEF8F842 		ldr	r4, [lr, #760]
 2341              		.loc 1 1133 54 discriminator 1 view .LVU752
 2342 0010 C4EBC40C 		rsb	ip, r4, r4, lsl #3
 2343 0014 0EEBCC0C 		add	ip, lr, ip, lsl #3
 2344 0018 DCF80C03 		ldr	r0, [ip, #780]
 2345              		.loc 1 1133 3 discriminator 1 view .LVU753
 2346 001c 8342     		cmp	r3, r0
 2347 001e 22D2     		bcs	.L175
1134:Middlewares/ST/STM32_USB_Device_Library/Core/Src/usbd_core.c ****   {
1135:Middlewares/ST/STM32_USB_Device_Library/Core/Src/usbd_core.c ****     if (((pdev->tclasslist[pdev->classId].Eps[idx].add & USBD_EP_IN) == ep_dir) && \
 2348              		.loc 1 1135 5 is_stmt 1 view .LVU754
 2349              		.loc 1 1135 51 is_stmt 0 view .LVU755
 2350 0020 C4EBC40C 		rsb	ip, r4, r4, lsl #3
 2351 0024 03EB4C0C 		add	ip, r3, ip, lsl #1
 2352 0028 0CF1C40C 		add	ip, ip, #196
 2353 002c 1EF82C00 		ldrb	r0, [lr, ip, lsl #2]	@ zero_extendqisi2
 2354              		.loc 1 1135 8 view .LVU756
 2355 0030 00F0800C 		and	ip, r0, #128
 2356 0034 8C45     		cmp	ip, r1
 2357 0036 E7D1     		bne	.L171
1136:Middlewares/ST/STM32_USB_Device_Library/Core/Src/usbd_core.c ****         (pdev->tclasslist[pdev->classId].Eps[idx].type == ep_type) && \
 2358              		.loc 1 1136 50 discriminator 1 view .LVU757
 2359 0038 C4EBC40C 		rsb	ip, r4, r4, lsl #3
 2360 003c 03EB4C0C 		add	ip, r3, ip, lsl #1
 2361 0040 0CF1C40C 		add	ip, ip, #196
 2362 0044 0EEB8C0C 		add	ip, lr, ip, lsl #2
 2363 0048 9CF801C0 		ldrb	ip, [ip, #1]	@ zero_extendqisi2
1135:Middlewares/ST/STM32_USB_Device_Library/Core/Src/usbd_core.c ****         (pdev->tclasslist[pdev->classId].Eps[idx].type == ep_type) && \
 2364              		.loc 1 1135 81 discriminator 1 view .LVU758
 2365 004c 9445     		cmp	ip, r2
ARM GAS  C:\Users\ADMINI~1\AppData\Local\Temp\ccOzU0Ff.s 			page 67


 2366 004e DBD1     		bne	.L171
1137:Middlewares/ST/STM32_USB_Device_Library/Core/Src/usbd_core.c ****         (pdev->tclasslist[pdev->classId].Eps[idx].is_used != 0U))
 2367              		.loc 1 1137 50 view .LVU759
 2368 0050 C4EBC404 		rsb	r4, r4, r4, lsl #3
 2369 0054 03EB4405 		add	r5, r3, r4, lsl #1
 2370 0058 C435     		adds	r5, r5, #196
 2371 005a 0EEB8505 		add	r5, lr, r5, lsl #2
 2372 005e EC78     		ldrb	r4, [r5, #3]	@ zero_extendqisi2
1136:Middlewares/ST/STM32_USB_Device_Library/Core/Src/usbd_core.c ****         (pdev->tclasslist[pdev->classId].Eps[idx].type == ep_type) && \
 2373              		.loc 1 1136 68 view .LVU760
 2374 0060 002C     		cmp	r4, #0
 2375 0062 D1D0     		beq	.L171
 2376 0064 00E0     		b	.L172
 2377              	.L175:
1138:Middlewares/ST/STM32_USB_Device_Library/Core/Src/usbd_core.c ****     {
1139:Middlewares/ST/STM32_USB_Device_Library/Core/Src/usbd_core.c ****       return (pdev->tclasslist[pdev->classId].Eps[idx].add);
1140:Middlewares/ST/STM32_USB_Device_Library/Core/Src/usbd_core.c ****     }
1141:Middlewares/ST/STM32_USB_Device_Library/Core/Src/usbd_core.c ****   }
1142:Middlewares/ST/STM32_USB_Device_Library/Core/Src/usbd_core.c **** 
1143:Middlewares/ST/STM32_USB_Device_Library/Core/Src/usbd_core.c ****   /* If reaching this point, then no endpoint was found */
1144:Middlewares/ST/STM32_USB_Device_Library/Core/Src/usbd_core.c ****   return 0xFFU;
 2378              		.loc 1 1144 10 view .LVU761
 2379 0066 FF20     		movs	r0, #255
 2380              	.L172:
1145:Middlewares/ST/STM32_USB_Device_Library/Core/Src/usbd_core.c **** }
 2381              		.loc 1 1145 1 view .LVU762
 2382 0068 30BD     		pop	{r4, r5, pc}
 2383              		.cfi_endproc
 2384              	.LFE158:
 2386              		.section	.text.USBD_GetNextDesc,"ax",%progbits
 2387              		.align	1
 2388              		.global	USBD_GetNextDesc
 2389              		.syntax unified
 2390              		.thumb
 2391              		.thumb_func
 2393              	USBD_GetNextDesc:
 2394              	.LVL207:
 2395              	.LFB160:
1146:Middlewares/ST/STM32_USB_Device_Library/Core/Src/usbd_core.c **** #endif /* USE_USBD_COMPOSITE */
1147:Middlewares/ST/STM32_USB_Device_Library/Core/Src/usbd_core.c **** 
1148:Middlewares/ST/STM32_USB_Device_Library/Core/Src/usbd_core.c **** /**
1149:Middlewares/ST/STM32_USB_Device_Library/Core/Src/usbd_core.c ****   * @brief  USBD_GetEpDesc
1150:Middlewares/ST/STM32_USB_Device_Library/Core/Src/usbd_core.c ****   *         This function return the Endpoint descriptor
1151:Middlewares/ST/STM32_USB_Device_Library/Core/Src/usbd_core.c ****   * @param  pdev: device instance
1152:Middlewares/ST/STM32_USB_Device_Library/Core/Src/usbd_core.c ****   * @param  pConfDesc:  pointer to Bos descriptor
1153:Middlewares/ST/STM32_USB_Device_Library/Core/Src/usbd_core.c ****   * @param  EpAddr:  endpoint address
1154:Middlewares/ST/STM32_USB_Device_Library/Core/Src/usbd_core.c ****   * @retval pointer to video endpoint descriptor
1155:Middlewares/ST/STM32_USB_Device_Library/Core/Src/usbd_core.c ****   */
1156:Middlewares/ST/STM32_USB_Device_Library/Core/Src/usbd_core.c **** void *USBD_GetEpDesc(uint8_t *pConfDesc, uint8_t EpAddr)
1157:Middlewares/ST/STM32_USB_Device_Library/Core/Src/usbd_core.c **** {
1158:Middlewares/ST/STM32_USB_Device_Library/Core/Src/usbd_core.c ****   USBD_DescHeaderTypeDef *pdesc = (USBD_DescHeaderTypeDef *)(void *)pConfDesc;
1159:Middlewares/ST/STM32_USB_Device_Library/Core/Src/usbd_core.c ****   USBD_ConfigDescTypeDef *desc = (USBD_ConfigDescTypeDef *)(void *)pConfDesc;
1160:Middlewares/ST/STM32_USB_Device_Library/Core/Src/usbd_core.c ****   USBD_EpDescTypeDef *pEpDesc = NULL;
1161:Middlewares/ST/STM32_USB_Device_Library/Core/Src/usbd_core.c ****   uint16_t ptr;
1162:Middlewares/ST/STM32_USB_Device_Library/Core/Src/usbd_core.c **** 
1163:Middlewares/ST/STM32_USB_Device_Library/Core/Src/usbd_core.c ****   if (desc->wTotalLength > desc->bLength)
1164:Middlewares/ST/STM32_USB_Device_Library/Core/Src/usbd_core.c ****   {
ARM GAS  C:\Users\ADMINI~1\AppData\Local\Temp\ccOzU0Ff.s 			page 68


1165:Middlewares/ST/STM32_USB_Device_Library/Core/Src/usbd_core.c ****     ptr = desc->bLength;
1166:Middlewares/ST/STM32_USB_Device_Library/Core/Src/usbd_core.c **** 
1167:Middlewares/ST/STM32_USB_Device_Library/Core/Src/usbd_core.c ****     while (ptr < desc->wTotalLength)
1168:Middlewares/ST/STM32_USB_Device_Library/Core/Src/usbd_core.c ****     {
1169:Middlewares/ST/STM32_USB_Device_Library/Core/Src/usbd_core.c ****       pdesc = USBD_GetNextDesc((uint8_t *)pdesc, &ptr);
1170:Middlewares/ST/STM32_USB_Device_Library/Core/Src/usbd_core.c **** 
1171:Middlewares/ST/STM32_USB_Device_Library/Core/Src/usbd_core.c ****       if (pdesc->bDescriptorType == USB_DESC_TYPE_ENDPOINT)
1172:Middlewares/ST/STM32_USB_Device_Library/Core/Src/usbd_core.c ****       {
1173:Middlewares/ST/STM32_USB_Device_Library/Core/Src/usbd_core.c ****         pEpDesc = (USBD_EpDescTypeDef *)(void *)pdesc;
1174:Middlewares/ST/STM32_USB_Device_Library/Core/Src/usbd_core.c **** 
1175:Middlewares/ST/STM32_USB_Device_Library/Core/Src/usbd_core.c ****         if (pEpDesc->bEndpointAddress == EpAddr)
1176:Middlewares/ST/STM32_USB_Device_Library/Core/Src/usbd_core.c ****         {
1177:Middlewares/ST/STM32_USB_Device_Library/Core/Src/usbd_core.c ****           break;
1178:Middlewares/ST/STM32_USB_Device_Library/Core/Src/usbd_core.c ****         }
1179:Middlewares/ST/STM32_USB_Device_Library/Core/Src/usbd_core.c ****         else
1180:Middlewares/ST/STM32_USB_Device_Library/Core/Src/usbd_core.c ****         {
1181:Middlewares/ST/STM32_USB_Device_Library/Core/Src/usbd_core.c ****           pEpDesc = NULL;
1182:Middlewares/ST/STM32_USB_Device_Library/Core/Src/usbd_core.c ****         }
1183:Middlewares/ST/STM32_USB_Device_Library/Core/Src/usbd_core.c ****       }
1184:Middlewares/ST/STM32_USB_Device_Library/Core/Src/usbd_core.c ****     }
1185:Middlewares/ST/STM32_USB_Device_Library/Core/Src/usbd_core.c ****   }
1186:Middlewares/ST/STM32_USB_Device_Library/Core/Src/usbd_core.c **** 
1187:Middlewares/ST/STM32_USB_Device_Library/Core/Src/usbd_core.c ****   return (void *)pEpDesc;
1188:Middlewares/ST/STM32_USB_Device_Library/Core/Src/usbd_core.c **** }
1189:Middlewares/ST/STM32_USB_Device_Library/Core/Src/usbd_core.c **** 
1190:Middlewares/ST/STM32_USB_Device_Library/Core/Src/usbd_core.c **** /**
1191:Middlewares/ST/STM32_USB_Device_Library/Core/Src/usbd_core.c ****   * @brief  USBD_GetNextDesc
1192:Middlewares/ST/STM32_USB_Device_Library/Core/Src/usbd_core.c ****   *         This function return the next descriptor header
1193:Middlewares/ST/STM32_USB_Device_Library/Core/Src/usbd_core.c ****   * @param  buf: Buffer where the descriptor is available
1194:Middlewares/ST/STM32_USB_Device_Library/Core/Src/usbd_core.c ****   * @param  ptr: data pointer inside the descriptor
1195:Middlewares/ST/STM32_USB_Device_Library/Core/Src/usbd_core.c ****   * @retval next header
1196:Middlewares/ST/STM32_USB_Device_Library/Core/Src/usbd_core.c ****   */
1197:Middlewares/ST/STM32_USB_Device_Library/Core/Src/usbd_core.c **** USBD_DescHeaderTypeDef *USBD_GetNextDesc(uint8_t *pbuf, uint16_t *ptr)
1198:Middlewares/ST/STM32_USB_Device_Library/Core/Src/usbd_core.c **** {
 2396              		.loc 1 1198 1 is_stmt 1 view -0
 2397              		.cfi_startproc
 2398              		@ args = 0, pretend = 0, frame = 0
 2399              		@ frame_needed = 0, uses_anonymous_args = 0
 2400              		@ link register save eliminated.
1199:Middlewares/ST/STM32_USB_Device_Library/Core/Src/usbd_core.c ****   USBD_DescHeaderTypeDef *pnext = (USBD_DescHeaderTypeDef *)(void *)pbuf;
 2401              		.loc 1 1199 3 view .LVU764
1200:Middlewares/ST/STM32_USB_Device_Library/Core/Src/usbd_core.c **** 
1201:Middlewares/ST/STM32_USB_Device_Library/Core/Src/usbd_core.c ****   *ptr += pnext->bLength;
 2402              		.loc 1 1201 3 view .LVU765
 2403              		.loc 1 1201 16 is_stmt 0 view .LVU766
 2404 0000 0378     		ldrb	r3, [r0]	@ zero_extendqisi2
 2405              		.loc 1 1201 8 view .LVU767
 2406 0002 0A88     		ldrh	r2, [r1]
 2407 0004 1344     		add	r3, r3, r2
 2408 0006 0B80     		strh	r3, [r1]	@ movhi
1202:Middlewares/ST/STM32_USB_Device_Library/Core/Src/usbd_core.c ****   pnext = (USBD_DescHeaderTypeDef *)(void *)(pbuf + pnext->bLength);
 2409              		.loc 1 1202 3 is_stmt 1 view .LVU768
 2410              		.loc 1 1202 58 is_stmt 0 view .LVU769
 2411 0008 0378     		ldrb	r3, [r0]	@ zero_extendqisi2
 2412              	.LVL208:
1203:Middlewares/ST/STM32_USB_Device_Library/Core/Src/usbd_core.c **** 
1204:Middlewares/ST/STM32_USB_Device_Library/Core/Src/usbd_core.c ****   return (pnext);
ARM GAS  C:\Users\ADMINI~1\AppData\Local\Temp\ccOzU0Ff.s 			page 69


 2413              		.loc 1 1204 3 is_stmt 1 view .LVU770
1205:Middlewares/ST/STM32_USB_Device_Library/Core/Src/usbd_core.c **** }
 2414              		.loc 1 1205 1 is_stmt 0 view .LVU771
 2415 000a 1844     		add	r0, r0, r3
 2416              	.LVL209:
 2417              		.loc 1 1205 1 view .LVU772
 2418 000c 7047     		bx	lr
 2419              		.cfi_endproc
 2420              	.LFE160:
 2422              		.section	.text.USBD_GetEpDesc,"ax",%progbits
 2423              		.align	1
 2424              		.global	USBD_GetEpDesc
