ARM GAS  C:\Users\ADMINI~1\AppData\Local\Temp\ccGPkleb.s 			page 1


   1              		.cpu cortex-m4
   2              		.arch armv7e-m
   3              		.fpu fpv4-sp-d16
   4              		.eabi_attribute 27, 1
   5              		.eabi_attribute 28, 1
   6              		.eabi_attribute 20, 1
   7              		.eabi_attribute 21, 1
   8              		.eabi_attribute 23, 3
   9              		.eabi_attribute 24, 1
  10              		.eabi_attribute 25, 1
  11              		.eabi_attribute 26, 1
  12              		.eabi_attribute 30, 1
  13              		.eabi_attribute 34, 1
  14              		.eabi_attribute 18, 4
  15              		.file	"usbd_cdc_if.c"
  16              		.text
  17              	.Ltext0:
  18              		.cfi_sections	.debug_frame
  19              		.section	.text.CDC_DeInit_HS,"ax",%progbits
  20              		.align	1
  21              		.syntax unified
  22              		.thumb
  23              		.thumb_func
  25              	CDC_DeInit_HS:
  26              	.LFB135:
  27              		.file 1 "Src/usbd_cdc_if.c"
   1:Src/usbd_cdc_if.c **** /* USER CODE BEGIN Header */
   2:Src/usbd_cdc_if.c **** /**
   3:Src/usbd_cdc_if.c ****   ******************************************************************************
   4:Src/usbd_cdc_if.c ****   * @file           : usbd_cdc_if.c
   5:Src/usbd_cdc_if.c ****   * @version        : v1.0_Cube
   6:Src/usbd_cdc_if.c ****   * @brief          : Usb device for Virtual Com Port.
   7:Src/usbd_cdc_if.c ****   ******************************************************************************
   8:Src/usbd_cdc_if.c ****   * @attention
   9:Src/usbd_cdc_if.c ****   *
  10:Src/usbd_cdc_if.c ****   * Copyright (c) 2022 STMicroelectronics.
  11:Src/usbd_cdc_if.c ****   * All rights reserved.
  12:Src/usbd_cdc_if.c ****   *
  13:Src/usbd_cdc_if.c ****   * This software is licensed under terms that can be found in the LICENSE file
  14:Src/usbd_cdc_if.c ****   * in the root directory of this software component.
  15:Src/usbd_cdc_if.c ****   * If no LICENSE file comes with this software, it is provided AS-IS.
  16:Src/usbd_cdc_if.c ****   *
  17:Src/usbd_cdc_if.c ****   ******************************************************************************
  18:Src/usbd_cdc_if.c ****   */
  19:Src/usbd_cdc_if.c **** /* USER CODE END Header */
  20:Src/usbd_cdc_if.c **** 
  21:Src/usbd_cdc_if.c **** /* Includes ------------------------------------------------------------------*/
  22:Src/usbd_cdc_if.c **** #include "usbd_cdc_if.h"
  23:Src/usbd_cdc_if.c **** 
  24:Src/usbd_cdc_if.c **** /* USER CODE BEGIN INCLUDE */
  25:Src/usbd_cdc_if.c **** #include <stdio.h>
  26:Src/usbd_cdc_if.c **** /* USER CODE END INCLUDE */
  27:Src/usbd_cdc_if.c **** 
  28:Src/usbd_cdc_if.c **** /* Private typedef -----------------------------------------------------------*/
  29:Src/usbd_cdc_if.c **** /* Private define ------------------------------------------------------------*/
  30:Src/usbd_cdc_if.c **** /* Private macro -------------------------------------------------------------*/
  31:Src/usbd_cdc_if.c **** 
ARM GAS  C:\Users\ADMINI~1\AppData\Local\Temp\ccGPkleb.s 			page 2


  32:Src/usbd_cdc_if.c **** /* USER CODE BEGIN PV */
  33:Src/usbd_cdc_if.c **** /* Private variables ---------------------------------------------------------*/
  34:Src/usbd_cdc_if.c **** 
  35:Src/usbd_cdc_if.c **** /* USER CODE END PV */
  36:Src/usbd_cdc_if.c **** 
  37:Src/usbd_cdc_if.c **** /** @addtogroup STM32_USB_OTG_DEVICE_LIBRARY
  38:Src/usbd_cdc_if.c ****   * @brief Usb device library.
  39:Src/usbd_cdc_if.c ****   * @{
  40:Src/usbd_cdc_if.c ****   */
  41:Src/usbd_cdc_if.c **** 
  42:Src/usbd_cdc_if.c **** /** @addtogroup USBD_CDC_IF
  43:Src/usbd_cdc_if.c ****   * @{
  44:Src/usbd_cdc_if.c ****   */
  45:Src/usbd_cdc_if.c **** 
  46:Src/usbd_cdc_if.c **** /** @defgroup USBD_CDC_IF_Private_TypesDefinitions USBD_CDC_IF_Private_TypesDefinitions
  47:Src/usbd_cdc_if.c ****   * @brief Private types.
  48:Src/usbd_cdc_if.c ****   * @{
  49:Src/usbd_cdc_if.c ****   */
  50:Src/usbd_cdc_if.c **** 
  51:Src/usbd_cdc_if.c **** /* USER CODE BEGIN PRIVATE_TYPES */
  52:Src/usbd_cdc_if.c **** 
  53:Src/usbd_cdc_if.c **** /* USER CODE END PRIVATE_TYPES */
  54:Src/usbd_cdc_if.c **** 
  55:Src/usbd_cdc_if.c **** /**
  56:Src/usbd_cdc_if.c ****   * @}
  57:Src/usbd_cdc_if.c ****   */
  58:Src/usbd_cdc_if.c **** 
  59:Src/usbd_cdc_if.c **** /** @defgroup USBD_CDC_IF_Private_Defines USBD_CDC_IF_Private_Defines
  60:Src/usbd_cdc_if.c ****   * @brief Private defines.
  61:Src/usbd_cdc_if.c ****   * @{
  62:Src/usbd_cdc_if.c ****   */
  63:Src/usbd_cdc_if.c **** 
  64:Src/usbd_cdc_if.c **** /* USER CODE BEGIN PRIVATE_DEFINES */
  65:Src/usbd_cdc_if.c **** /* USER CODE END PRIVATE_DEFINES */
  66:Src/usbd_cdc_if.c **** 
  67:Src/usbd_cdc_if.c **** /**
  68:Src/usbd_cdc_if.c ****   * @}
  69:Src/usbd_cdc_if.c ****   */
  70:Src/usbd_cdc_if.c **** 
  71:Src/usbd_cdc_if.c **** /** @defgroup USBD_CDC_IF_Private_Macros USBD_CDC_IF_Private_Macros
  72:Src/usbd_cdc_if.c ****   * @brief Private macros.
  73:Src/usbd_cdc_if.c ****   * @{
  74:Src/usbd_cdc_if.c ****   */
  75:Src/usbd_cdc_if.c **** 
  76:Src/usbd_cdc_if.c **** /* USER CODE BEGIN PRIVATE_MACRO */
  77:Src/usbd_cdc_if.c **** 
  78:Src/usbd_cdc_if.c **** /* USER CODE END PRIVATE_MACRO */
  79:Src/usbd_cdc_if.c **** 
  80:Src/usbd_cdc_if.c **** /**
  81:Src/usbd_cdc_if.c ****   * @}
  82:Src/usbd_cdc_if.c ****   */
  83:Src/usbd_cdc_if.c **** 
  84:Src/usbd_cdc_if.c **** /** @defgroup USBD_CDC_IF_Private_Variables USBD_CDC_IF_Private_Variables
  85:Src/usbd_cdc_if.c ****   * @brief Private variables.
  86:Src/usbd_cdc_if.c ****   * @{
  87:Src/usbd_cdc_if.c ****   */
  88:Src/usbd_cdc_if.c **** 
ARM GAS  C:\Users\ADMINI~1\AppData\Local\Temp\ccGPkleb.s 			page 3


  89:Src/usbd_cdc_if.c **** /* Create buffer for reception and transmission           */
  90:Src/usbd_cdc_if.c **** /* It's up to user to redefine and/or remove those define */
  91:Src/usbd_cdc_if.c **** /** Received data over USB are stored in this buffer      */
  92:Src/usbd_cdc_if.c **** uint8_t UserRxBufferHS[APP_RX_DATA_SIZE];
  93:Src/usbd_cdc_if.c **** 
  94:Src/usbd_cdc_if.c **** /** Data to send over USB CDC are stored in this buffer   */
  95:Src/usbd_cdc_if.c **** uint8_t UserTxBufferHS[APP_TX_DATA_SIZE];
  96:Src/usbd_cdc_if.c **** 
  97:Src/usbd_cdc_if.c **** /* USER CODE BEGIN PRIVATE_VARIABLES */
  98:Src/usbd_cdc_if.c **** 
  99:Src/usbd_cdc_if.c **** /* USER CODE END PRIVATE_VARIABLES */
 100:Src/usbd_cdc_if.c **** 
 101:Src/usbd_cdc_if.c **** /**
 102:Src/usbd_cdc_if.c ****   * @}
 103:Src/usbd_cdc_if.c ****   */
 104:Src/usbd_cdc_if.c **** 
 105:Src/usbd_cdc_if.c **** /** @defgroup USBD_CDC_IF_Exported_Variables USBD_CDC_IF_Exported_Variables
 106:Src/usbd_cdc_if.c ****   * @brief Public variables.
 107:Src/usbd_cdc_if.c ****   * @{
 108:Src/usbd_cdc_if.c ****   */
 109:Src/usbd_cdc_if.c **** 
 110:Src/usbd_cdc_if.c **** extern USBD_HandleTypeDef hUsbDeviceHS;
 111:Src/usbd_cdc_if.c **** 
 112:Src/usbd_cdc_if.c **** /* USER CODE BEGIN EXPORTED_VARIABLES */
 113:Src/usbd_cdc_if.c **** 
 114:Src/usbd_cdc_if.c **** /* USER CODE END EXPORTED_VARIABLES */
 115:Src/usbd_cdc_if.c **** 
 116:Src/usbd_cdc_if.c **** /**
 117:Src/usbd_cdc_if.c ****   * @}
 118:Src/usbd_cdc_if.c ****   */
 119:Src/usbd_cdc_if.c **** 
 120:Src/usbd_cdc_if.c **** /** @defgroup USBD_CDC_IF_Private_FunctionPrototypes USBD_CDC_IF_Private_FunctionPrototypes
 121:Src/usbd_cdc_if.c ****   * @brief Private functions declaration.
 122:Src/usbd_cdc_if.c ****   * @{
 123:Src/usbd_cdc_if.c ****   */
 124:Src/usbd_cdc_if.c **** 
 125:Src/usbd_cdc_if.c **** static int8_t CDC_Init_HS(void);
 126:Src/usbd_cdc_if.c **** static int8_t CDC_DeInit_HS(void);
 127:Src/usbd_cdc_if.c **** static int8_t CDC_Control_HS(uint8_t cmd, uint8_t* pbuf, uint16_t length);
 128:Src/usbd_cdc_if.c **** static int8_t CDC_Receive_HS(uint8_t* pbuf, uint32_t *Len);
 129:Src/usbd_cdc_if.c **** static int8_t CDC_TransmitCplt_HS(uint8_t *pbuf, uint32_t *Len, uint8_t epnum);
 130:Src/usbd_cdc_if.c **** 
 131:Src/usbd_cdc_if.c **** /* USER CODE BEGIN PRIVATE_FUNCTIONS_DECLARATION */
 132:Src/usbd_cdc_if.c **** 
 133:Src/usbd_cdc_if.c **** /* USER CODE END PRIVATE_FUNCTIONS_DECLARATION */
 134:Src/usbd_cdc_if.c **** 
 135:Src/usbd_cdc_if.c **** /**
 136:Src/usbd_cdc_if.c ****   * @}
 137:Src/usbd_cdc_if.c ****   */
 138:Src/usbd_cdc_if.c **** 
 139:Src/usbd_cdc_if.c **** USBD_CDC_ItfTypeDef USBD_Interface_fops_HS =
 140:Src/usbd_cdc_if.c **** {
 141:Src/usbd_cdc_if.c ****   CDC_Init_HS,
 142:Src/usbd_cdc_if.c ****   CDC_DeInit_HS,
 143:Src/usbd_cdc_if.c ****   CDC_Control_HS,
 144:Src/usbd_cdc_if.c ****   CDC_Receive_HS,
 145:Src/usbd_cdc_if.c ****   CDC_TransmitCplt_HS
ARM GAS  C:\Users\ADMINI~1\AppData\Local\Temp\ccGPkleb.s 			page 4


 146:Src/usbd_cdc_if.c **** };
 147:Src/usbd_cdc_if.c **** 
 148:Src/usbd_cdc_if.c **** /* Private functions ---------------------------------------------------------*/
 149:Src/usbd_cdc_if.c **** 
 150:Src/usbd_cdc_if.c **** /**
 151:Src/usbd_cdc_if.c ****   * @brief  Initializes the CDC media low layer over the USB HS IP
 152:Src/usbd_cdc_if.c ****   * @retval USBD_OK if all operations are OK else USBD_FAIL
 153:Src/usbd_cdc_if.c ****   */
 154:Src/usbd_cdc_if.c **** static int8_t CDC_Init_HS(void)
 155:Src/usbd_cdc_if.c **** {
 156:Src/usbd_cdc_if.c ****   /* USER CODE BEGIN 8 */
 157:Src/usbd_cdc_if.c ****   /* Set Application Buffers */
 158:Src/usbd_cdc_if.c ****   USBD_CDC_SetTxBuffer(&hUsbDeviceHS, UserTxBufferHS, 0);
 159:Src/usbd_cdc_if.c ****   USBD_CDC_SetRxBuffer(&hUsbDeviceHS, UserRxBufferHS);
 160:Src/usbd_cdc_if.c ****   return (USBD_OK);
 161:Src/usbd_cdc_if.c ****   /* USER CODE END 8 */
 162:Src/usbd_cdc_if.c **** }
 163:Src/usbd_cdc_if.c **** 
 164:Src/usbd_cdc_if.c **** /**
 165:Src/usbd_cdc_if.c ****   * @brief  DeInitializes the CDC media low layer
 166:Src/usbd_cdc_if.c ****   * @param  None
 167:Src/usbd_cdc_if.c ****   * @retval USBD_OK if all operations are OK else USBD_FAIL
 168:Src/usbd_cdc_if.c ****   */
 169:Src/usbd_cdc_if.c **** static int8_t CDC_DeInit_HS(void)
 170:Src/usbd_cdc_if.c **** {
  28              		.loc 1 170 1 view -0
  29              		.cfi_startproc
  30              		@ args = 0, pretend = 0, frame = 0
  31              		@ frame_needed = 0, uses_anonymous_args = 0
  32              		@ link register save eliminated.
 171:Src/usbd_cdc_if.c ****   /* USER CODE BEGIN 9 */
 172:Src/usbd_cdc_if.c ****   return (USBD_OK);
  33              		.loc 1 172 3 view .LVU1
 173:Src/usbd_cdc_if.c ****   /* USER CODE END 9 */
 174:Src/usbd_cdc_if.c **** }
  34              		.loc 1 174 1 is_stmt 0 view .LVU2
  35 0000 0020     		movs	r0, #0
  36 0002 7047     		bx	lr
  37              		.cfi_endproc
  38              	.LFE135:
  40              		.section	.text.CDC_Control_HS,"ax",%progbits
  41              		.align	1
  42              		.syntax unified
  43              		.thumb
  44              		.thumb_func
  46              	CDC_Control_HS:
  47              	.LVL0:
  48              	.LFB136:
 175:Src/usbd_cdc_if.c **** 
 176:Src/usbd_cdc_if.c **** /**
 177:Src/usbd_cdc_if.c ****   * @brief  Manage the CDC class requests
 178:Src/usbd_cdc_if.c ****   * @param  cmd: Command code
 179:Src/usbd_cdc_if.c ****   * @param  pbuf: Buffer containing command data (request parameters)
 180:Src/usbd_cdc_if.c ****   * @param  length: Number of data to be sent (in bytes)
 181:Src/usbd_cdc_if.c ****   * @retval Result of the operation: USBD_OK if all operations are OK else USBD_FAIL
 182:Src/usbd_cdc_if.c ****   */
 183:Src/usbd_cdc_if.c **** static int8_t CDC_Control_HS(uint8_t cmd, uint8_t* pbuf, uint16_t length)
ARM GAS  C:\Users\ADMINI~1\AppData\Local\Temp\ccGPkleb.s 			page 5


 184:Src/usbd_cdc_if.c **** {
  49              		.loc 1 184 1 is_stmt 1 view -0
  50              		.cfi_startproc
  51              		@ args = 0, pretend = 0, frame = 0
  52              		@ frame_needed = 0, uses_anonymous_args = 0
  53              		@ link register save eliminated.
 185:Src/usbd_cdc_if.c ****   /* USER CODE BEGIN 10 */
 186:Src/usbd_cdc_if.c ****   switch(cmd)
  54              		.loc 1 186 3 view .LVU4
 187:Src/usbd_cdc_if.c ****   {
 188:Src/usbd_cdc_if.c ****   case CDC_SEND_ENCAPSULATED_COMMAND:
 189:Src/usbd_cdc_if.c **** 
 190:Src/usbd_cdc_if.c ****     break;
 191:Src/usbd_cdc_if.c **** 
 192:Src/usbd_cdc_if.c ****   case CDC_GET_ENCAPSULATED_RESPONSE:
 193:Src/usbd_cdc_if.c **** 
 194:Src/usbd_cdc_if.c ****     break;
 195:Src/usbd_cdc_if.c **** 
 196:Src/usbd_cdc_if.c ****   case CDC_SET_COMM_FEATURE:
 197:Src/usbd_cdc_if.c **** 
 198:Src/usbd_cdc_if.c ****     break;
 199:Src/usbd_cdc_if.c **** 
 200:Src/usbd_cdc_if.c ****   case CDC_GET_COMM_FEATURE:
 201:Src/usbd_cdc_if.c **** 
 202:Src/usbd_cdc_if.c ****     break;
 203:Src/usbd_cdc_if.c **** 
 204:Src/usbd_cdc_if.c ****   case CDC_CLEAR_COMM_FEATURE:
 205:Src/usbd_cdc_if.c **** 
 206:Src/usbd_cdc_if.c ****     break;
 207:Src/usbd_cdc_if.c **** 
 208:Src/usbd_cdc_if.c ****   /*******************************************************************************/
 209:Src/usbd_cdc_if.c ****   /* Line Coding Structure                                                       */
 210:Src/usbd_cdc_if.c ****   /*-----------------------------------------------------------------------------*/
 211:Src/usbd_cdc_if.c ****   /* Offset | Field       | Size | Value  | Description                          */
 212:Src/usbd_cdc_if.c ****   /* 0      | dwDTERate   |   4  | Number |Data terminal rate, in bits per second*/
 213:Src/usbd_cdc_if.c ****   /* 4      | bCharFormat |   1  | Number | Stop bits                            */
 214:Src/usbd_cdc_if.c ****   /*                                        0 - 1 Stop bit                       */
 215:Src/usbd_cdc_if.c ****   /*                                        1 - 1.5 Stop bits                    */
 216:Src/usbd_cdc_if.c ****   /*                                        2 - 2 Stop bits                      */
 217:Src/usbd_cdc_if.c ****   /* 5      | bParityType |  1   | Number | Parity                               */
 218:Src/usbd_cdc_if.c ****   /*                                        0 - None                             */
 219:Src/usbd_cdc_if.c ****   /*                                        1 - Odd                              */
 220:Src/usbd_cdc_if.c ****   /*                                        2 - Even                             */
 221:Src/usbd_cdc_if.c ****   /*                                        3 - Mark                             */
 222:Src/usbd_cdc_if.c ****   /*                                        4 - Space                            */
 223:Src/usbd_cdc_if.c ****   /* 6      | bDataBits  |   1   | Number Data bits (5, 6, 7, 8 or 16).          */
 224:Src/usbd_cdc_if.c ****   /*******************************************************************************/
 225:Src/usbd_cdc_if.c ****   case CDC_SET_LINE_CODING:
 226:Src/usbd_cdc_if.c **** 
 227:Src/usbd_cdc_if.c ****     break;
 228:Src/usbd_cdc_if.c **** 
 229:Src/usbd_cdc_if.c ****   case CDC_GET_LINE_CODING:
 230:Src/usbd_cdc_if.c **** 
 231:Src/usbd_cdc_if.c ****     break;
 232:Src/usbd_cdc_if.c **** 
 233:Src/usbd_cdc_if.c ****   case CDC_SET_CONTROL_LINE_STATE:
 234:Src/usbd_cdc_if.c **** 
ARM GAS  C:\Users\ADMINI~1\AppData\Local\Temp\ccGPkleb.s 			page 6


 235:Src/usbd_cdc_if.c ****     break;
 236:Src/usbd_cdc_if.c **** 
 237:Src/usbd_cdc_if.c ****   case CDC_SEND_BREAK:
 238:Src/usbd_cdc_if.c **** 
 239:Src/usbd_cdc_if.c ****     break;
 240:Src/usbd_cdc_if.c **** 
 241:Src/usbd_cdc_if.c ****   default:
 242:Src/usbd_cdc_if.c ****     break;
 243:Src/usbd_cdc_if.c ****   }
 244:Src/usbd_cdc_if.c **** 
 245:Src/usbd_cdc_if.c ****   return (USBD_OK);
  55              		.loc 1 245 3 view .LVU5
 246:Src/usbd_cdc_if.c ****   /* USER CODE END 10 */
 247:Src/usbd_cdc_if.c **** }
  56              		.loc 1 247 1 is_stmt 0 view .LVU6
  57 0000 0020     		movs	r0, #0
  58              	.LVL1:
  59              		.loc 1 247 1 view .LVU7
  60 0002 7047     		bx	lr
  61              		.cfi_endproc
  62              	.LFE136:
  64              		.section	.text.CDC_TransmitCplt_HS,"ax",%progbits
  65              		.align	1
  66              		.syntax unified
  67              		.thumb
  68              		.thumb_func
  70              	CDC_TransmitCplt_HS:
  71              	.LVL2:
  72              	.LFB139:
 248:Src/usbd_cdc_if.c **** 
 249:Src/usbd_cdc_if.c **** /**
 250:Src/usbd_cdc_if.c ****   * @brief Data received over USB OUT endpoint are sent over CDC interface
 251:Src/usbd_cdc_if.c ****   *         through this function.
 252:Src/usbd_cdc_if.c ****   *
 253:Src/usbd_cdc_if.c ****   *         @note
 254:Src/usbd_cdc_if.c ****   *         This function will issue a NAK packet on any OUT packet received on
 255:Src/usbd_cdc_if.c ****   *         USB endpoint until exiting this function. If you exit this function
 256:Src/usbd_cdc_if.c ****   *         before transfer is complete on CDC interface (ie. using DMA controller)
 257:Src/usbd_cdc_if.c ****   *         it will result in receiving more data while previous ones are still
 258:Src/usbd_cdc_if.c ****   *         not sent.
 259:Src/usbd_cdc_if.c ****   *
 260:Src/usbd_cdc_if.c ****   * @param  Buf: Buffer of data to be received
 261:Src/usbd_cdc_if.c ****   * @param  Len: Number of data received (in bytes)
 262:Src/usbd_cdc_if.c ****   * @retval Result of the operation: USBD_OK if all operations are OK else USBD_FAILL
 263:Src/usbd_cdc_if.c ****   */
 264:Src/usbd_cdc_if.c **** static int8_t CDC_Receive_HS(uint8_t* Buf, uint32_t *Len)
 265:Src/usbd_cdc_if.c **** {
 266:Src/usbd_cdc_if.c ****   /* USER CODE BEGIN 11 */
 267:Src/usbd_cdc_if.c ****    int i;
 268:Src/usbd_cdc_if.c ****   for(i=0 ; i<*Len; i++)
 269:Src/usbd_cdc_if.c ****     printf("%.2x ",Buf[i]);
 270:Src/usbd_cdc_if.c ****   printf("\r\n");
 271:Src/usbd_cdc_if.c ****   printf("len =%ld\r\n",*Len);
 272:Src/usbd_cdc_if.c ****   USBD_CDC_SetRxBuffer(&hUsbDeviceHS, &Buf[0]);
 273:Src/usbd_cdc_if.c ****   USBD_CDC_ReceivePacket(&hUsbDeviceHS);
 274:Src/usbd_cdc_if.c ****   return (USBD_OK);
 275:Src/usbd_cdc_if.c ****   /* USER CODE END 11 */
ARM GAS  C:\Users\ADMINI~1\AppData\Local\Temp\ccGPkleb.s 			page 7


 276:Src/usbd_cdc_if.c **** }
 277:Src/usbd_cdc_if.c **** 
 278:Src/usbd_cdc_if.c **** /**
 279:Src/usbd_cdc_if.c ****   * @brief  Data to send over USB IN endpoint are sent over CDC interface
 280:Src/usbd_cdc_if.c ****   *         through this function.
 281:Src/usbd_cdc_if.c ****   * @param  Buf: Buffer of data to be sent
 282:Src/usbd_cdc_if.c ****   * @param  Len: Number of data to be sent (in bytes)
 283:Src/usbd_cdc_if.c ****   * @retval Result of the operation: USBD_OK if all operations are OK else USBD_FAIL or USBD_BUSY
 284:Src/usbd_cdc_if.c ****   */
 285:Src/usbd_cdc_if.c **** uint8_t CDC_Transmit_HS(uint8_t* Buf, uint16_t Len)
 286:Src/usbd_cdc_if.c **** {
 287:Src/usbd_cdc_if.c ****   uint8_t result = USBD_OK;
 288:Src/usbd_cdc_if.c ****   /* USER CODE BEGIN 12 */
 289:Src/usbd_cdc_if.c ****   USBD_CDC_HandleTypeDef *hcdc = (USBD_CDC_HandleTypeDef*)hUsbDeviceHS.pClassData;
 290:Src/usbd_cdc_if.c ****   if (hcdc->TxState != 0){
 291:Src/usbd_cdc_if.c ****     return USBD_BUSY;
 292:Src/usbd_cdc_if.c ****   }
 293:Src/usbd_cdc_if.c ****   USBD_CDC_SetTxBuffer(&hUsbDeviceHS, Buf, Len);
 294:Src/usbd_cdc_if.c ****   result = USBD_CDC_TransmitPacket(&hUsbDeviceHS);
 295:Src/usbd_cdc_if.c ****   /* USER CODE END 12 */
 296:Src/usbd_cdc_if.c ****   return result;
 297:Src/usbd_cdc_if.c **** }
 298:Src/usbd_cdc_if.c **** 
 299:Src/usbd_cdc_if.c **** /**
 300:Src/usbd_cdc_if.c ****   * @brief  CDC_TransmitCplt_HS
 301:Src/usbd_cdc_if.c ****   *         Data transmitted callback
 302:Src/usbd_cdc_if.c ****   *
 303:Src/usbd_cdc_if.c ****   *         @note
 304:Src/usbd_cdc_if.c ****   *         This function is IN transfer complete callback used to inform user that
 305:Src/usbd_cdc_if.c ****   *         the submitted Data is successfully sent over USB.
 306:Src/usbd_cdc_if.c ****   *
 307:Src/usbd_cdc_if.c ****   * @param  Buf: Buffer of data to be received
 308:Src/usbd_cdc_if.c ****   * @param  Len: Number of data received (in bytes)
 309:Src/usbd_cdc_if.c ****   * @retval Result of the operation: USBD_OK if all operations are OK else USBD_FAIL
 310:Src/usbd_cdc_if.c ****   */
 311:Src/usbd_cdc_if.c **** static int8_t CDC_TransmitCplt_HS(uint8_t *Buf, uint32_t *Len, uint8_t epnum)
 312:Src/usbd_cdc_if.c **** {
  73              		.loc 1 312 1 is_stmt 1 view -0
  74              		.cfi_startproc
  75              		@ args = 0, pretend = 0, frame = 0
  76              		@ frame_needed = 0, uses_anonymous_args = 0
  77              		@ link register save eliminated.
 313:Src/usbd_cdc_if.c ****   uint8_t result = USBD_OK;
  78              		.loc 1 313 3 view .LVU9
 314:Src/usbd_cdc_if.c ****   /* USER CODE BEGIN 14 */
 315:Src/usbd_cdc_if.c ****   UNUSED(Buf);
  79              		.loc 1 315 3 view .LVU10
 316:Src/usbd_cdc_if.c ****   UNUSED(Len);
  80              		.loc 1 316 3 view .LVU11
 317:Src/usbd_cdc_if.c ****   UNUSED(epnum);
  81              		.loc 1 317 3 view .LVU12
 318:Src/usbd_cdc_if.c ****   /* USER CODE END 14 */
 319:Src/usbd_cdc_if.c ****   return result;
  82              		.loc 1 319 3 view .LVU13
 320:Src/usbd_cdc_if.c **** }
  83              		.loc 1 320 1 is_stmt 0 view .LVU14
  84 0000 0020     		movs	r0, #0
ARM GAS  C:\Users\ADMINI~1\AppData\Local\Temp\ccGPkleb.s 			page 8


  85              	.LVL3:
  86              		.loc 1 320 1 view .LVU15
  87 0002 7047     		bx	lr
  88              		.cfi_endproc
  89              	.LFE139:
  91              		.section	.rodata.CDC_Receive_HS.str1.4,"aMS",%progbits,1
  92              		.align	2
  93              	.LC0:
  94 0000 252E3278 		.ascii	"%.2x \000"
  94      2000
  95 0006 0000     		.align	2
  96              	.LC1:
  97 0008 0D00     		.ascii	"\015\000"
  98 000a 0000     		.align	2
  99              	.LC2:
 100 000c 6C656E20 		.ascii	"len =%ld\015\012\000"
 100      3D256C64 
 100      0D0A00
 101              		.section	.text.CDC_Receive_HS,"ax",%progbits
 102              		.align	1
 103              		.syntax unified
 104              		.thumb
 105              		.thumb_func
 107              	CDC_Receive_HS:
 108              	.LVL4:
 109              	.LFB137:
 265:Src/usbd_cdc_if.c ****   /* USER CODE BEGIN 11 */
 110              		.loc 1 265 1 is_stmt 1 view -0
 111              		.cfi_startproc
 112              		@ args = 0, pretend = 0, frame = 0
 113              		@ frame_needed = 0, uses_anonymous_args = 0
 265:Src/usbd_cdc_if.c ****   /* USER CODE BEGIN 11 */
 114              		.loc 1 265 1 is_stmt 0 view .LVU17
 115 0000 70B5     		push	{r4, r5, r6, lr}
 116              	.LCFI0:
 117              		.cfi_def_cfa_offset 16
 118              		.cfi_offset 4, -16
 119              		.cfi_offset 5, -12
 120              		.cfi_offset 6, -8
 121              		.cfi_offset 14, -4
 122 0002 0646     		mov	r6, r0
 123 0004 0D46     		mov	r5, r1
 267:Src/usbd_cdc_if.c ****   for(i=0 ; i<*Len; i++)
 124              		.loc 1 267 4 is_stmt 1 view .LVU18
 268:Src/usbd_cdc_if.c ****     printf("%.2x ",Buf[i]);
 125              		.loc 1 268 3 view .LVU19
 126              	.LVL5:
 268:Src/usbd_cdc_if.c ****     printf("%.2x ",Buf[i]);
 127              		.loc 1 268 8 is_stmt 0 view .LVU20
 128 0006 0024     		movs	r4, #0
 268:Src/usbd_cdc_if.c ****     printf("%.2x ",Buf[i]);
 129              		.loc 1 268 3 view .LVU21
 130 0008 04E0     		b	.L5
 131              	.LVL6:
 132              	.L6:
 269:Src/usbd_cdc_if.c ****   printf("\r\n");
 133              		.loc 1 269 5 is_stmt 1 discriminator 3 view .LVU22
ARM GAS  C:\Users\ADMINI~1\AppData\Local\Temp\ccGPkleb.s 			page 9


 134 000a 315D     		ldrb	r1, [r6, r4]	@ zero_extendqisi2
 135 000c 0B48     		ldr	r0, .L8
 136 000e FFF7FEFF 		bl	printf
 137              	.LVL7:
 268:Src/usbd_cdc_if.c ****     printf("%.2x ",Buf[i]);
 138              		.loc 1 268 21 discriminator 3 view .LVU23
 268:Src/usbd_cdc_if.c ****     printf("%.2x ",Buf[i]);
 139              		.loc 1 268 22 is_stmt 0 discriminator 3 view .LVU24
 140 0012 0134     		adds	r4, r4, #1
 141              	.LVL8:
 142              	.L5:
 268:Src/usbd_cdc_if.c ****     printf("%.2x ",Buf[i]);
 143              		.loc 1 268 13 is_stmt 1 discriminator 1 view .LVU25
 268:Src/usbd_cdc_if.c ****     printf("%.2x ",Buf[i]);
 144              		.loc 1 268 15 is_stmt 0 discriminator 1 view .LVU26
 145 0014 2B68     		ldr	r3, [r5]
 268:Src/usbd_cdc_if.c ****     printf("%.2x ",Buf[i]);
 146              		.loc 1 268 3 discriminator 1 view .LVU27
 147 0016 A342     		cmp	r3, r4
 148 0018 F7D8     		bhi	.L6
 270:Src/usbd_cdc_if.c ****   printf("len =%ld\r\n",*Len);
 149              		.loc 1 270 3 is_stmt 1 view .LVU28
 150 001a 0948     		ldr	r0, .L8+4
 151 001c FFF7FEFF 		bl	puts
 152              	.LVL9:
 271:Src/usbd_cdc_if.c ****   USBD_CDC_SetRxBuffer(&hUsbDeviceHS, &Buf[0]);
 153              		.loc 1 271 3 view .LVU29
 154 0020 2968     		ldr	r1, [r5]
 155 0022 0848     		ldr	r0, .L8+8
 156 0024 FFF7FEFF 		bl	printf
 157              	.LVL10:
 272:Src/usbd_cdc_if.c ****   USBD_CDC_ReceivePacket(&hUsbDeviceHS);
 158              		.loc 1 272 3 view .LVU30
 159 0028 074C     		ldr	r4, .L8+12
 160              	.LVL11:
 272:Src/usbd_cdc_if.c ****   USBD_CDC_ReceivePacket(&hUsbDeviceHS);
 161              		.loc 1 272 3 is_stmt 0 view .LVU31
 162 002a 3146     		mov	r1, r6
 163 002c 2046     		mov	r0, r4
 164 002e FFF7FEFF 		bl	USBD_CDC_SetRxBuffer
 165              	.LVL12:
 273:Src/usbd_cdc_if.c ****   return (USBD_OK);
 166              		.loc 1 273 3 is_stmt 1 view .LVU32
 167 0032 2046     		mov	r0, r4
 168 0034 FFF7FEFF 		bl	USBD_CDC_ReceivePacket
 169              	.LVL13:
 274:Src/usbd_cdc_if.c ****   /* USER CODE END 11 */
 170              		.loc 1 274 3 view .LVU33
 276:Src/usbd_cdc_if.c **** 
 171              		.loc 1 276 1 is_stmt 0 view .LVU34
 172 0038 0020     		movs	r0, #0
 173 003a 70BD     		pop	{r4, r5, r6, pc}
 174              	.LVL14:
 175              	.L9:
 276:Src/usbd_cdc_if.c **** 
 176              		.loc 1 276 1 view .LVU35
 177              		.align	2
ARM GAS  C:\Users\ADMINI~1\AppData\Local\Temp\ccGPkleb.s 			page 10


 178              	.L8:
 179 003c 00000000 		.word	.LC0
 180 0040 08000000 		.word	.LC1
 181 0044 0C000000 		.word	.LC2
 182 0048 00000000 		.word	hUsbDeviceHS
 183              		.cfi_endproc
 184              	.LFE137:
 186              		.section	.text.CDC_Init_HS,"ax",%progbits
 187              		.align	1
 188              		.syntax unified
 189              		.thumb
 190              		.thumb_func
 192              	CDC_Init_HS:
 193              	.LFB134:
 155:Src/usbd_cdc_if.c ****   /* USER CODE BEGIN 8 */
 194              		.loc 1 155 1 is_stmt 1 view -0
 195              		.cfi_startproc
 196              		@ args = 0, pretend = 0, frame = 0
 197              		@ frame_needed = 0, uses_anonymous_args = 0
 198 0000 10B5     		push	{r4, lr}
 199              	.LCFI1:
 200              		.cfi_def_cfa_offset 8
 201              		.cfi_offset 4, -8
 202              		.cfi_offset 14, -4
 158:Src/usbd_cdc_if.c ****   USBD_CDC_SetRxBuffer(&hUsbDeviceHS, UserRxBufferHS);
 203              		.loc 1 158 3 view .LVU37
 204 0002 064C     		ldr	r4, .L12
 205 0004 0022     		movs	r2, #0
 206 0006 0649     		ldr	r1, .L12+4
 207 0008 2046     		mov	r0, r4
 208 000a FFF7FEFF 		bl	USBD_CDC_SetTxBuffer
 209              	.LVL15:
 159:Src/usbd_cdc_if.c ****   return (USBD_OK);
 210              		.loc 1 159 3 view .LVU38
 211 000e 0549     		ldr	r1, .L12+8
 212 0010 2046     		mov	r0, r4
 213 0012 FFF7FEFF 		bl	USBD_CDC_SetRxBuffer
 214              	.LVL16:
 160:Src/usbd_cdc_if.c ****   /* USER CODE END 8 */
 215              		.loc 1 160 3 view .LVU39
 162:Src/usbd_cdc_if.c **** 
 216              		.loc 1 162 1 is_stmt 0 view .LVU40
 217 0016 0020     		movs	r0, #0
 218 0018 10BD     		pop	{r4, pc}
 219              	.L13:
 220 001a 00BF     		.align	2
 221              	.L12:
 222 001c 00000000 		.word	hUsbDeviceHS
 223 0020 00000000 		.word	.LANCHOR0
 224 0024 00000000 		.word	.LANCHOR1
 225              		.cfi_endproc
 226              	.LFE134:
 228              		.section	.text.CDC_Transmit_HS,"ax",%progbits
 229              		.align	1
 230              		.global	CDC_Transmit_HS
 231              		.syntax unified
 232              		.thumb
ARM GAS  C:\Users\ADMINI~1\AppData\Local\Temp\ccGPkleb.s 			page 11


 233              		.thumb_func
 235              	CDC_Transmit_HS:
 236              	.LVL17:
 237              	.LFB138:
 286:Src/usbd_cdc_if.c ****   uint8_t result = USBD_OK;
 238              		.loc 1 286 1 is_stmt 1 view -0
 239              		.cfi_startproc
 240              		@ args = 0, pretend = 0, frame = 0
 241              		@ frame_needed = 0, uses_anonymous_args = 0
 287:Src/usbd_cdc_if.c ****   /* USER CODE BEGIN 12 */
 242              		.loc 1 287 3 view .LVU42
 289:Src/usbd_cdc_if.c ****   if (hcdc->TxState != 0){
 243              		.loc 1 289 3 view .LVU43
 289:Src/usbd_cdc_if.c ****   if (hcdc->TxState != 0){
 244              		.loc 1 289 27 is_stmt 0 view .LVU44
 245 0000 094B     		ldr	r3, .L22
 246 0002 D3F8C832 		ldr	r3, [r3, #712]
 247              	.LVL18:
 290:Src/usbd_cdc_if.c ****     return USBD_BUSY;
 248              		.loc 1 290 3 is_stmt 1 view .LVU45
 290:Src/usbd_cdc_if.c ****     return USBD_BUSY;
 249              		.loc 1 290 11 is_stmt 0 view .LVU46
 250 0006 D3F81432 		ldr	r3, [r3, #532]
 251              	.LVL19:
 290:Src/usbd_cdc_if.c ****     return USBD_BUSY;
 252              		.loc 1 290 6 view .LVU47
 253 000a 0BB1     		cbz	r3, .L21
 291:Src/usbd_cdc_if.c ****   }
 254              		.loc 1 291 12 view .LVU48
 255 000c 0120     		movs	r0, #1
 256              	.LVL20:
 297:Src/usbd_cdc_if.c **** 
 257              		.loc 1 297 1 view .LVU49
 258 000e 7047     		bx	lr
 259              	.LVL21:
 260              	.L21:
 286:Src/usbd_cdc_if.c ****   uint8_t result = USBD_OK;
 261              		.loc 1 286 1 view .LVU50
 262 0010 10B5     		push	{r4, lr}
 263              	.LCFI2:
 264              		.cfi_def_cfa_offset 8
 265              		.cfi_offset 4, -8
 266              		.cfi_offset 14, -4
 293:Src/usbd_cdc_if.c ****   result = USBD_CDC_TransmitPacket(&hUsbDeviceHS);
 267              		.loc 1 293 3 is_stmt 1 view .LVU51
 268 0012 054C     		ldr	r4, .L22
 269              	.LVL22:
 293:Src/usbd_cdc_if.c ****   result = USBD_CDC_TransmitPacket(&hUsbDeviceHS);
 270              		.loc 1 293 3 is_stmt 0 view .LVU52
 271 0014 0A46     		mov	r2, r1
 272 0016 0146     		mov	r1, r0
 273              	.LVL23:
 293:Src/usbd_cdc_if.c ****   result = USBD_CDC_TransmitPacket(&hUsbDeviceHS);
 274              		.loc 1 293 3 view .LVU53
 275 0018 2046     		mov	r0, r4
 276              	.LVL24:
 293:Src/usbd_cdc_if.c ****   result = USBD_CDC_TransmitPacket(&hUsbDeviceHS);
ARM GAS  C:\Users\ADMINI~1\AppData\Local\Temp\ccGPkleb.s 			page 12


 277              		.loc 1 293 3 view .LVU54
 278 001a FFF7FEFF 		bl	USBD_CDC_SetTxBuffer
 279              	.LVL25:
 294:Src/usbd_cdc_if.c ****   /* USER CODE END 12 */
 280              		.loc 1 294 3 is_stmt 1 view .LVU55
 294:Src/usbd_cdc_if.c ****   /* USER CODE END 12 */
 281              		.loc 1 294 12 is_stmt 0 view .LVU56
 282 001e 2046     		mov	r0, r4
 283 0020 FFF7FEFF 		bl	USBD_CDC_TransmitPacket
 284              	.LVL26:
 296:Src/usbd_cdc_if.c **** }
 285              		.loc 1 296 3 is_stmt 1 view .LVU57
 297:Src/usbd_cdc_if.c **** 
 286              		.loc 1 297 1 is_stmt 0 view .LVU58
 287 0024 10BD     		pop	{r4, pc}
 288              	.L23:
 289 0026 00BF     		.align	2
 290              	.L22:
 291 0028 00000000 		.word	hUsbDeviceHS
 292              		.cfi_endproc
 293              	.LFE138:
 295              		.global	USBD_Interface_fops_HS
 296              		.global	UserTxBufferHS
 297              		.global	UserRxBufferHS
 298              		.section	.bss.UserRxBufferHS,"aw",%nobits
 299              		.align	2
 300              		.set	.LANCHOR1,. + 0
 303              	UserRxBufferHS:
 304 0000 00000000 		.space	2048
 304      00000000 
 304      00000000 
 304      00000000 
 304      00000000 
 305              		.section	.bss.UserTxBufferHS,"aw",%nobits
 306              		.align	2
 307              		.set	.LANCHOR0,. + 0
 310              	UserTxBufferHS:
 311 0000 00000000 		.space	2048
 311      00000000 
 311      00000000 
 311      00000000 
 311      00000000 
 312              		.section	.data.USBD_Interface_fops_HS,"aw"
 313              		.align	2
 316              	USBD_Interface_fops_HS:
 317 0000 00000000 		.word	CDC_Init_HS
 318 0004 00000000 		.word	CDC_DeInit_HS
 319 0008 00000000 		.word	CDC_Control_HS
 320 000c 00000000 		.word	CDC_Receive_HS
 321 0010 00000000 		.word	CDC_TransmitCplt_HS
 322              		.text
 323              	.Letext0:
 324              		.file 2 "c:\\program files (x86)\\gnu arm embedded toolchain\\10 2021.10\\arm-none-eabi\\include\\
 325              		.file 3 "c:\\program files (x86)\\gnu arm embedded toolchain\\10 2021.10\\arm-none-eabi\\include\\
 326              		.file 4 "Middlewares/ST/STM32_USB_Device_Library/Core/Inc/usbd_def.h"
 327              		.file 5 "Middlewares/ST/STM32_USB_Device_Library/Class/CDC/Inc/usbd_cdc.h"
 328              		.file 6 "Inc/usbd_cdc_if.h"
ARM GAS  C:\Users\ADMINI~1\AppData\Local\Temp\ccGPkleb.s 			page 13


 329              		.file 7 "c:\\program files (x86)\\gnu arm embedded toolchain\\10 2021.10\\arm-none-eabi\\include\\
 330              		.file 8 "<built-in>"
ARM GAS  C:\Users\ADMINI~1\AppData\Local\Temp\ccGPkleb.s 			page 14

