ARM GAS  C:\Users\ADMINI~1\AppData\Local\Temp\cc0Pcyme.s 			page 1


   1              		.cpu cortex-m4
   2              		.arch armv7e-m
   3              		.fpu fpv4-sp-d16
   4              		.eabi_attribute 27, 1
   5              		.eabi_attribute 28, 1
   6              		.eabi_attribute 20, 1
   7              		.eabi_attribute 21, 1
   8              		.eabi_attribute 23, 3
   9              		.eabi_attribute 24, 1
  10              		.eabi_attribute 25, 1
  11              		.eabi_attribute 26, 1
  12              		.eabi_attribute 30, 1
  13              		.eabi_attribute 34, 1
  14              		.eabi_attribute 18, 4
  15              		.file	"usbd_composite.c"
  16              		.text
  17              	.Ltext0:
  18              		.cfi_sections	.debug_frame
  19              		.section	.text.USBD_CMPSIT_FS_DeviceDescriptor,"ax",%progbits
  20              		.align	1
  21              		.global	USBD_CMPSIT_FS_DeviceDescriptor
  22              		.syntax unified
  23              		.thumb
  24              		.thumb_func
  26              	USBD_CMPSIT_FS_DeviceDescriptor:
  27              	.LVL0:
  28              	.LFB134:
  29              		.file 1 "Src/usbd_composite.c"
   1:Src/usbd_composite.c **** #include "usbd_composite.h"
   2:Src/usbd_composite.c **** #include "usbd_def.h"
   3:Src/usbd_composite.c **** #include "usbd_cdc.h"
   4:Src/usbd_composite.c **** #include "usbd_msc.h"
   5:Src/usbd_composite.c **** 
   6:Src/usbd_composite.c **** #include "usbd_core.h"
   7:Src/usbd_composite.c **** #include "usbd_desc.h"
   8:Src/usbd_composite.c **** #include "usbd_conf.h"
   9:Src/usbd_composite.c **** #include <stdio.h>
  10:Src/usbd_composite.c **** 
  11:Src/usbd_composite.c **** #define USBD_PRODUCT_XSTR(s) USBD_PRODUCT_STR(s)
  12:Src/usbd_composite.c **** #define USBD_PRODUCT_STR(s) #s
  13:Src/usbd_composite.c **** 
  14:Src/usbd_composite.c **** #if 1
  15:Src/usbd_composite.c **** #define USBD_CMPSIT_VID     1155
  16:Src/usbd_composite.c **** #define USBD_CMPSIT_LANGID_STRING     1033
  17:Src/usbd_composite.c **** #define USBD_CMPSIT_MANUFACTURER_STRING     "wenyz@wolfGroup"
  18:Src/usbd_composite.c **** #define USBD_CMPSIT_PID_FS     22336
  19:Src/usbd_composite.c **** #define USBD_CMPSIT_PRODUCT_STRING_FS     "STM32 composite product"
  20:Src/usbd_composite.c **** #define USBD_CMPSIT_CONFIGURATION_STRING_FS     "Composite Config"
  21:Src/usbd_composite.c **** #define USBD_CMPSIT_INTERFACE_STRING_FS     "Composite Interface"
  22:Src/usbd_composite.c **** #else
  23:Src/usbd_composite.c **** #define USBD_CMPSIT_VID     1155
  24:Src/usbd_composite.c **** #define USBD_CMPSIT_LANGID_STRING     1033
  25:Src/usbd_composite.c **** #define USBD_CMPSIT_MANUFACTURER_STRING     "STMicroelectronics"
  26:Src/usbd_composite.c **** #define USBD_CMPSIT_PID_FS     22336
  27:Src/usbd_composite.c **** #define USBD_CMPSIT_PRODUCT_STRING_FS     "STM32 Virtual ComPort"
  28:Src/usbd_composite.c **** #define USBD_CMPSIT_CONFIGURATION_STRING_FS     "CDC Config"
  29:Src/usbd_composite.c **** #define USBD_CMPSIT_INTERFACE_STRING_FS     "CDC Interface"
ARM GAS  C:\Users\ADMINI~1\AppData\Local\Temp\cc0Pcyme.s 			page 2


  30:Src/usbd_composite.c **** #endif
  31:Src/usbd_composite.c **** 
  32:Src/usbd_composite.c **** #define USBD_CDC_CMD_INTERFACE_STRING_FS     "CDC CMD Interface"
  33:Src/usbd_composite.c **** #define USBD_CDC_DATA_INTERFACE_STRING_FS     "CDC DATA Interface"
  34:Src/usbd_composite.c **** #define USBD_MSC_INTERFACE_STRING_FS     "MSC Interface"
  35:Src/usbd_composite.c **** 
  36:Src/usbd_composite.c **** 
  37:Src/usbd_composite.c **** uint8_t * USBD_CMPSIT_FS_DeviceDescriptor(USBD_SpeedTypeDef speed, uint16_t *length);
  38:Src/usbd_composite.c **** uint8_t * USBD_CMPSIT_FS_LangIDStrDescriptor(USBD_SpeedTypeDef speed, uint16_t *length);
  39:Src/usbd_composite.c **** uint8_t * USBD_CMPSIT_FS_ManufacturerStrDescriptor(USBD_SpeedTypeDef speed, uint16_t *length);
  40:Src/usbd_composite.c **** uint8_t * USBD_CMPSIT_FS_ProductStrDescriptor(USBD_SpeedTypeDef speed, uint16_t *length);
  41:Src/usbd_composite.c **** uint8_t * USBD_CMPSIT_FS_SerialStrDescriptor(USBD_SpeedTypeDef speed, uint16_t *length);
  42:Src/usbd_composite.c **** uint8_t * USBD_CMPSIT_FS_ConfigStrDescriptor(USBD_SpeedTypeDef speed, uint16_t *length);
  43:Src/usbd_composite.c **** uint8_t * USBD_CMPSIT_FS_InterfaceStrDescriptor(USBD_SpeedTypeDef speed, uint16_t *length);
  44:Src/usbd_composite.c **** #if (USBD_LPM_ENABLED == 1)
  45:Src/usbd_composite.c **** uint8_t * USBD_CMPSIT_FS_USR_BOSDescriptor(USBD_SpeedTypeDef speed, uint16_t *length);
  46:Src/usbd_composite.c **** #endif /* (USBD_LPM_ENABLED == 1) */
  47:Src/usbd_composite.c **** 
  48:Src/usbd_composite.c **** 
  49:Src/usbd_composite.c **** USBD_DescriptorsTypeDef usbCmpsitFS_Desc =
  50:Src/usbd_composite.c **** {
  51:Src/usbd_composite.c ****   USBD_CMPSIT_FS_DeviceDescriptor
  52:Src/usbd_composite.c **** , USBD_CMPSIT_FS_LangIDStrDescriptor
  53:Src/usbd_composite.c **** , USBD_CMPSIT_FS_ManufacturerStrDescriptor
  54:Src/usbd_composite.c **** , USBD_CMPSIT_FS_ProductStrDescriptor
  55:Src/usbd_composite.c **** , USBD_CMPSIT_FS_SerialStrDescriptor
  56:Src/usbd_composite.c **** , USBD_CMPSIT_FS_ConfigStrDescriptor
  57:Src/usbd_composite.c **** , USBD_CMPSIT_FS_InterfaceStrDescriptor
  58:Src/usbd_composite.c **** #if (USBD_LPM_ENABLED == 1)
  59:Src/usbd_composite.c **** , USBD_CMPSIT_FS_USR_BOSDescriptor
  60:Src/usbd_composite.c **** #endif /* (USBD_LPM_ENABLED == 1) */
  61:Src/usbd_composite.c **** };
  62:Src/usbd_composite.c **** 
  63:Src/usbd_composite.c **** __ALIGN_BEGIN uint8_t USBD_CMPSIT_FS_DeviceDesc[USB_LEN_DEV_DESC] __ALIGN_END =
  64:Src/usbd_composite.c **** {
  65:Src/usbd_composite.c **** 	0x12,						/*bLength */
  66:Src/usbd_composite.c **** 	USB_DESC_TYPE_DEVICE, 	  /*bDescriptorType*/
  67:Src/usbd_composite.c **** #if (USBD_LPM_ENABLED == 1)
  68:Src/usbd_composite.c **** 	0x01, 					  /*bcdUSB */ /* changed to USB version 2.01
  69:Src/usbd_composite.c **** 											 in order to support LPM L1 suspend
  70:Src/usbd_composite.c **** 											 resume test of USBCV3.0*/
  71:Src/usbd_composite.c **** #else
  72:Src/usbd_composite.c **** 	0x00, 					  /*bcdUSB */
  73:Src/usbd_composite.c **** #endif /* (USBD_LPM_ENABLED == 1) */
  74:Src/usbd_composite.c **** 	0x02,
  75:Src/usbd_composite.c **** 	// Notify OS that this is a composite device
  76:Src/usbd_composite.c **** 	0xEF, 					  /*bDeviceClass*/
  77:Src/usbd_composite.c **** 	0x02, 					  /*bDeviceSubClass*/
  78:Src/usbd_composite.c **** 	0x01, 					  /*bDeviceProtocol*/
  79:Src/usbd_composite.c **** 	USB_MAX_EP0_SIZE, 		  /*bMaxPacketSize*/
  80:Src/usbd_composite.c **** 	LOBYTE(USBD_CMPSIT_VID), 		  /*idVendor*/
  81:Src/usbd_composite.c **** 	HIBYTE(USBD_CMPSIT_VID), 		  /*idVendor*/
  82:Src/usbd_composite.c **** 	LOBYTE(USBD_CMPSIT_PID_FS),		  /*idProduct*/
  83:Src/usbd_composite.c **** 	HIBYTE(USBD_CMPSIT_PID_FS),		  /*idProduct*/
  84:Src/usbd_composite.c **** 	0x00, 					  /*bcdDevice rel. 2.00*/
  85:Src/usbd_composite.c **** 	0x02, 					  /* bNumInterfaces */
  86:Src/usbd_composite.c **** 	USBD_IDX_MFC_STR, 		  /*Index of manufacturer  string*/
ARM GAS  C:\Users\ADMINI~1\AppData\Local\Temp\cc0Pcyme.s 			page 3


  87:Src/usbd_composite.c **** 	USBD_IDX_PRODUCT_STR, 	  /*Index of product string*/
  88:Src/usbd_composite.c **** 	USBD_IDX_SERIAL_STR,		  /*Index of serial number string*/
  89:Src/usbd_composite.c **** 	USBD_MAX_NUM_CONFIGURATION  /*bNumConfigurations*/
  90:Src/usbd_composite.c **** 
  91:Src/usbd_composite.c **** };
  92:Src/usbd_composite.c **** 
  93:Src/usbd_composite.c **** #if (USBD_LPM_ENABLED == 1)
  94:Src/usbd_composite.c **** __ALIGN_BEGIN uint8_t USBD_CMPSIT_FS_BOSDesc[USB_SIZ_BOS_DESC] __ALIGN_END =
  95:Src/usbd_composite.c **** {
  96:Src/usbd_composite.c ****   0x5,
  97:Src/usbd_composite.c ****   USB_DESC_TYPE_BOS,
  98:Src/usbd_composite.c ****   0xC,
  99:Src/usbd_composite.c ****   0x0,
 100:Src/usbd_composite.c ****   0x1,  /* 1 device capability*/
 101:Src/usbd_composite.c ****         /* device capability*/
 102:Src/usbd_composite.c ****   0x7,
 103:Src/usbd_composite.c ****   USB_DEVICE_CAPABITY_TYPE,
 104:Src/usbd_composite.c ****   0x2,
 105:Src/usbd_composite.c ****   0x2,  /* LPM capability bit set*/
 106:Src/usbd_composite.c ****   0x0,
 107:Src/usbd_composite.c ****   0x0,
 108:Src/usbd_composite.c ****   0x0
 109:Src/usbd_composite.c **** };
 110:Src/usbd_composite.c **** #endif /* (USBD_LPM_ENABLED == 1) */
 111:Src/usbd_composite.c **** 
 112:Src/usbd_composite.c **** /** USB lang identifier descriptor. */
 113:Src/usbd_composite.c **** __ALIGN_BEGIN uint8_t USBD_CMPSIT_LangIDDesc[USB_LEN_LANGID_STR_DESC] __ALIGN_END =
 114:Src/usbd_composite.c **** {
 115:Src/usbd_composite.c ****      USB_LEN_LANGID_STR_DESC,
 116:Src/usbd_composite.c ****      USB_DESC_TYPE_STRING,
 117:Src/usbd_composite.c ****      LOBYTE(USBD_CMPSIT_LANGID_STRING),
 118:Src/usbd_composite.c ****      HIBYTE(USBD_CMPSIT_LANGID_STRING)
 119:Src/usbd_composite.c **** };
 120:Src/usbd_composite.c **** 
 121:Src/usbd_composite.c **** 
 122:Src/usbd_composite.c **** /* Internal string descriptor. */
 123:Src/usbd_composite.c **** __ALIGN_BEGIN uint8_t USBD_CMPSIT_StrDesc[USBD_MAX_STR_DESC_SIZ] __ALIGN_END;
 124:Src/usbd_composite.c **** 
 125:Src/usbd_composite.c **** 
 126:Src/usbd_composite.c **** __ALIGN_BEGIN uint8_t USBD_CMPSIT_StringSerial[USB_SIZ_STRING_SERIAL] __ALIGN_END = {
 127:Src/usbd_composite.c ****   USB_SIZ_STRING_SERIAL,
 128:Src/usbd_composite.c ****   USB_DESC_TYPE_STRING,
 129:Src/usbd_composite.c **** };
 130:Src/usbd_composite.c ****  
 131:Src/usbd_composite.c **** 
 132:Src/usbd_composite.c **** uint8_t * USBD_CMPSIT_FS_DeviceDescriptor(USBD_SpeedTypeDef speed, uint16_t *length)
 133:Src/usbd_composite.c **** {
  30              		.loc 1 133 1 view -0
  31              		.cfi_startproc
  32              		@ args = 0, pretend = 0, frame = 0
  33              		@ frame_needed = 0, uses_anonymous_args = 0
  34              		@ link register save eliminated.
 134:Src/usbd_composite.c ****   UNUSED(speed);
  35              		.loc 1 134 3 view .LVU1
 135:Src/usbd_composite.c ****   *length = sizeof(USBD_CMPSIT_FS_DeviceDesc);
  36              		.loc 1 135 3 view .LVU2
  37              		.loc 1 135 11 is_stmt 0 view .LVU3
ARM GAS  C:\Users\ADMINI~1\AppData\Local\Temp\cc0Pcyme.s 			page 4


  38 0000 1223     		movs	r3, #18
  39 0002 0B80     		strh	r3, [r1]	@ movhi
 136:Src/usbd_composite.c ****   return USBD_CMPSIT_FS_DeviceDesc;
  40              		.loc 1 136 3 is_stmt 1 view .LVU4
 137:Src/usbd_composite.c **** }
  41              		.loc 1 137 1 is_stmt 0 view .LVU5
  42 0004 0048     		ldr	r0, .L2
  43              	.LVL1:
  44              		.loc 1 137 1 view .LVU6
  45 0006 7047     		bx	lr
  46              	.L3:
  47              		.align	2
  48              	.L2:
  49 0008 00000000 		.word	.LANCHOR0
  50              		.cfi_endproc
  51              	.LFE134:
  53              		.section	.text.USBD_CMPSIT_FS_LangIDStrDescriptor,"ax",%progbits
  54              		.align	1
  55              		.global	USBD_CMPSIT_FS_LangIDStrDescriptor
  56              		.syntax unified
  57              		.thumb
  58              		.thumb_func
  60              	USBD_CMPSIT_FS_LangIDStrDescriptor:
  61              	.LVL2:
  62              	.LFB135:
 138:Src/usbd_composite.c **** 
 139:Src/usbd_composite.c **** uint8_t * USBD_CMPSIT_FS_LangIDStrDescriptor(USBD_SpeedTypeDef speed, uint16_t *length)
 140:Src/usbd_composite.c **** {
  63              		.loc 1 140 1 is_stmt 1 view -0
  64              		.cfi_startproc
  65              		@ args = 0, pretend = 0, frame = 0
  66              		@ frame_needed = 0, uses_anonymous_args = 0
  67              		@ link register save eliminated.
 141:Src/usbd_composite.c ****   UNUSED(speed);
  68              		.loc 1 141 3 view .LVU8
 142:Src/usbd_composite.c ****   *length = sizeof(USBD_CMPSIT_LangIDDesc);
  69              		.loc 1 142 3 view .LVU9
  70              		.loc 1 142 11 is_stmt 0 view .LVU10
  71 0000 0423     		movs	r3, #4
  72 0002 0B80     		strh	r3, [r1]	@ movhi
 143:Src/usbd_composite.c ****   return USBD_CMPSIT_LangIDDesc;
  73              		.loc 1 143 3 is_stmt 1 view .LVU11
 144:Src/usbd_composite.c **** }
  74              		.loc 1 144 1 is_stmt 0 view .LVU12
  75 0004 0048     		ldr	r0, .L5
  76              	.LVL3:
  77              		.loc 1 144 1 view .LVU13
  78 0006 7047     		bx	lr
  79              	.L6:
  80              		.align	2
  81              	.L5:
  82 0008 00000000 		.word	.LANCHOR1
  83              		.cfi_endproc
  84              	.LFE135:
  86              		.section	.text.IntToUnicode,"ax",%progbits
  87              		.align	1
  88              		.syntax unified
ARM GAS  C:\Users\ADMINI~1\AppData\Local\Temp\cc0Pcyme.s 			page 5


  89              		.thumb
  90              		.thumb_func
  92              	IntToUnicode:
  93              	.LVL4:
  94              	.LFB138:
 145:Src/usbd_composite.c **** uint8_t * USBD_CMPSIT_FS_ManufacturerStrDescriptor(USBD_SpeedTypeDef speed, uint16_t *length)
 146:Src/usbd_composite.c **** {
 147:Src/usbd_composite.c ****   UNUSED(speed);
 148:Src/usbd_composite.c ****   USBD_GetString((uint8_t *)USBD_CMPSIT_MANUFACTURER_STRING, USBD_CMPSIT_StrDesc, length);
 149:Src/usbd_composite.c ****   return USBD_CMPSIT_StrDesc;
 150:Src/usbd_composite.c **** }
 151:Src/usbd_composite.c **** 
 152:Src/usbd_composite.c **** uint8_t * USBD_CMPSIT_FS_ProductStrDescriptor(USBD_SpeedTypeDef speed, uint16_t *length)
 153:Src/usbd_composite.c **** {
 154:Src/usbd_composite.c ****   if(speed == 0)
 155:Src/usbd_composite.c ****   {
 156:Src/usbd_composite.c ****     USBD_GetString((uint8_t *)USBD_CMPSIT_PRODUCT_STRING_FS, USBD_CMPSIT_StrDesc, length);
 157:Src/usbd_composite.c ****   }
 158:Src/usbd_composite.c ****   else
 159:Src/usbd_composite.c ****   {
 160:Src/usbd_composite.c ****     USBD_GetString((uint8_t *)USBD_CMPSIT_PRODUCT_STRING_FS, USBD_CMPSIT_StrDesc, length);
 161:Src/usbd_composite.c ****   }
 162:Src/usbd_composite.c ****   return USBD_CMPSIT_StrDesc;
 163:Src/usbd_composite.c **** }
 164:Src/usbd_composite.c **** 
 165:Src/usbd_composite.c **** static void IntToUnicode(uint32_t value, uint8_t * pbuf, uint8_t len)
 166:Src/usbd_composite.c **** {
  95              		.loc 1 166 1 is_stmt 1 view -0
  96              		.cfi_startproc
  97              		@ args = 0, pretend = 0, frame = 0
  98              		@ frame_needed = 0, uses_anonymous_args = 0
 167:Src/usbd_composite.c ****   uint8_t idx = 0;
  99              		.loc 1 167 3 view .LVU15
 168:Src/usbd_composite.c **** 
 169:Src/usbd_composite.c ****   for (idx = 0; idx < len; idx++)
 100              		.loc 1 169 3 view .LVU16
 101              		.loc 1 169 12 is_stmt 0 view .LVU17
 102 0000 0023     		movs	r3, #0
 103              	.LVL5:
 104              		.loc 1 169 17 is_stmt 1 view .LVU18
 105              		.loc 1 169 3 is_stmt 0 view .LVU19
 106 0002 9342     		cmp	r3, r2
 107 0004 1ED2     		bcs	.L15
 166:Src/usbd_composite.c ****   uint8_t idx = 0;
 108              		.loc 1 166 1 view .LVU20
 109 0006 00B5     		push	{lr}
 110              	.LCFI0:
 111              		.cfi_def_cfa_offset 4
 112              		.cfi_offset 14, -4
 113 0008 10E0     		b	.L11
 114              	.L9:
 170:Src/usbd_composite.c ****   {
 171:Src/usbd_composite.c ****     if (((value >> 28)) < 0xA)
 172:Src/usbd_composite.c ****     {
 173:Src/usbd_composite.c ****       pbuf[2 * idx] = (value >> 28) + '0';
 174:Src/usbd_composite.c ****     }
 175:Src/usbd_composite.c ****     else
ARM GAS  C:\Users\ADMINI~1\AppData\Local\Temp\cc0Pcyme.s 			page 6


 176:Src/usbd_composite.c ****     {
 177:Src/usbd_composite.c ****       pbuf[2 * idx] = (value >> 28) + 'A' - 10;
 115              		.loc 1 177 7 is_stmt 1 view .LVU21
 116              		.loc 1 177 43 is_stmt 0 view .LVU22
 117 000a 0CF1370C 		add	ip, ip, #55
 118              		.loc 1 177 21 view .LVU23
 119 000e 01F813C0 		strb	ip, [r1, r3, lsl #1]
 120              	.L10:
 178:Src/usbd_composite.c ****     }
 179:Src/usbd_composite.c **** 
 180:Src/usbd_composite.c ****     value = value << 4;
 121              		.loc 1 180 5 is_stmt 1 discriminator 2 view .LVU24
 122              		.loc 1 180 11 is_stmt 0 discriminator 2 view .LVU25
 123 0012 0001     		lsls	r0, r0, #4
 124              	.LVL6:
 181:Src/usbd_composite.c **** 
 182:Src/usbd_composite.c ****     pbuf[2 * idx + 1] = 0;
 125              		.loc 1 182 5 is_stmt 1 discriminator 2 view .LVU26
 126              		.loc 1 182 12 is_stmt 0 discriminator 2 view .LVU27
 127 0014 4FEA430C 		lsl	ip, r3, #1
 128              		.loc 1 182 9 discriminator 2 view .LVU28
 129 0018 0CF1010C 		add	ip, ip, #1
 130              		.loc 1 182 23 discriminator 2 view .LVU29
 131 001c 4FF0000E 		mov	lr, #0
 132 0020 01F80CE0 		strb	lr, [r1, ip]
 169:Src/usbd_composite.c ****   {
 133              		.loc 1 169 28 is_stmt 1 discriminator 2 view .LVU30
 169:Src/usbd_composite.c ****   {
 134              		.loc 1 169 31 is_stmt 0 discriminator 2 view .LVU31
 135 0024 0133     		adds	r3, r3, #1
 136              	.LVL7:
 169:Src/usbd_composite.c ****   {
 137              		.loc 1 169 31 discriminator 2 view .LVU32
 138 0026 DBB2     		uxtb	r3, r3
 139              	.LVL8:
 169:Src/usbd_composite.c ****   {
 140              		.loc 1 169 17 is_stmt 1 discriminator 2 view .LVU33
 169:Src/usbd_composite.c ****   {
 141              		.loc 1 169 3 is_stmt 0 discriminator 2 view .LVU34
 142 0028 9342     		cmp	r3, r2
 143 002a 09D2     		bcs	.L16
 144              	.L11:
 171:Src/usbd_composite.c ****     {
 145              		.loc 1 171 5 is_stmt 1 view .LVU35
 171:Src/usbd_composite.c ****     {
 146              		.loc 1 171 17 is_stmt 0 view .LVU36
 147 002c 4FEA107C 		lsr	ip, r0, #28
 171:Src/usbd_composite.c ****     {
 148              		.loc 1 171 8 view .LVU37
 149 0030 B0F1204F 		cmp	r0, #-1610612736
 150 0034 E9D2     		bcs	.L9
 173:Src/usbd_composite.c ****     }
 151              		.loc 1 173 7 is_stmt 1 view .LVU38
 173:Src/usbd_composite.c ****     }
 152              		.loc 1 173 37 is_stmt 0 view .LVU39
 153 0036 0CF1300C 		add	ip, ip, #48
 173:Src/usbd_composite.c ****     }
ARM GAS  C:\Users\ADMINI~1\AppData\Local\Temp\cc0Pcyme.s 			page 7


 154              		.loc 1 173 21 view .LVU40
 155 003a 01F813C0 		strb	ip, [r1, r3, lsl #1]
 156 003e E8E7     		b	.L10
 157              	.L16:
 183:Src/usbd_composite.c ****   }
 184:Src/usbd_composite.c **** }
 158              		.loc 1 184 1 view .LVU41
 159 0040 5DF804FB 		ldr	pc, [sp], #4
 160              	.L15:
 161              	.LCFI1:
 162              		.cfi_def_cfa_offset 0
 163              		.cfi_restore 14
 164              		.loc 1 184 1 view .LVU42
 165 0044 7047     		bx	lr
 166              		.cfi_endproc
 167              	.LFE138:
 169              		.section	.text.Get_CMPSIT_SerialNum,"ax",%progbits
 170              		.align	1
 171              		.syntax unified
 172              		.thumb
 173              		.thumb_func
 175              	Get_CMPSIT_SerialNum:
 176              	.LFB139:
 185:Src/usbd_composite.c **** static void Get_CMPSIT_SerialNum(void)
 186:Src/usbd_composite.c **** {
 177              		.loc 1 186 1 is_stmt 1 view -0
 178              		.cfi_startproc
 179              		@ args = 0, pretend = 0, frame = 0
 180              		@ frame_needed = 0, uses_anonymous_args = 0
 181 0000 38B5     		push	{r3, r4, r5, lr}
 182              	.LCFI2:
 183              		.cfi_def_cfa_offset 16
 184              		.cfi_offset 3, -16
 185              		.cfi_offset 4, -12
 186              		.cfi_offset 5, -8
 187              		.cfi_offset 14, -4
 187:Src/usbd_composite.c ****   uint32_t deviceserial0, deviceserial1, deviceserial2;
 188              		.loc 1 187 3 view .LVU44
 188:Src/usbd_composite.c **** 
 189:Src/usbd_composite.c ****   deviceserial0 = *(uint32_t *) DEVICE_ID1;
 189              		.loc 1 189 3 view .LVU45
 190              		.loc 1 189 17 is_stmt 0 view .LVU46
 191 0002 0B4B     		ldr	r3, .L21
 192 0004 D3F8100A 		ldr	r0, [r3, #2576]
 193              	.LVL9:
 190:Src/usbd_composite.c ****   deviceserial1 = *(uint32_t *) DEVICE_ID2;
 194              		.loc 1 190 3 is_stmt 1 view .LVU47
 195              		.loc 1 190 17 is_stmt 0 view .LVU48
 196 0008 D3F8144A 		ldr	r4, [r3, #2580]
 197              	.LVL10:
 191:Src/usbd_composite.c ****   deviceserial2 = *(uint32_t *) DEVICE_ID3;
 198              		.loc 1 191 3 is_stmt 1 view .LVU49
 199              		.loc 1 191 17 is_stmt 0 view .LVU50
 200 000c D3F8183A 		ldr	r3, [r3, #2584]
 201              	.LVL11:
 192:Src/usbd_composite.c **** 
 193:Src/usbd_composite.c ****   deviceserial0 += deviceserial2;
ARM GAS  C:\Users\ADMINI~1\AppData\Local\Temp\cc0Pcyme.s 			page 8


 202              		.loc 1 193 3 is_stmt 1 view .LVU51
 194:Src/usbd_composite.c **** 
 195:Src/usbd_composite.c ****   if (deviceserial0 != 0)
 203              		.loc 1 195 3 view .LVU52
 204              		.loc 1 195 6 is_stmt 0 view .LVU53
 205 0010 C018     		adds	r0, r0, r3
 206              	.LVL12:
 207              		.loc 1 195 6 view .LVU54
 208 0012 00D1     		bne	.L20
 209              	.LVL13:
 210              	.L17:
 196:Src/usbd_composite.c ****   {
 197:Src/usbd_composite.c ****     IntToUnicode(deviceserial0, &USBD_CMPSIT_StringSerial[2], 8);
 198:Src/usbd_composite.c ****     IntToUnicode(deviceserial1, &USBD_CMPSIT_StringSerial[18], 4);
 199:Src/usbd_composite.c ****   }
 200:Src/usbd_composite.c **** }
 211              		.loc 1 200 1 view .LVU55
 212 0014 38BD     		pop	{r3, r4, r5, pc}
 213              	.LVL14:
 214              	.L20:
 197:Src/usbd_composite.c ****     IntToUnicode(deviceserial1, &USBD_CMPSIT_StringSerial[18], 4);
 215              		.loc 1 197 5 is_stmt 1 view .LVU56
 216 0016 074D     		ldr	r5, .L21+4
 217 0018 0822     		movs	r2, #8
 218 001a A91C     		adds	r1, r5, #2
 219 001c FFF7FEFF 		bl	IntToUnicode
 220              	.LVL15:
 198:Src/usbd_composite.c ****   }
 221              		.loc 1 198 5 view .LVU57
 222 0020 0422     		movs	r2, #4
 223 0022 05F11201 		add	r1, r5, #18
 224 0026 2046     		mov	r0, r4
 225 0028 FFF7FEFF 		bl	IntToUnicode
 226              	.LVL16:
 227              		.loc 1 200 1 is_stmt 0 view .LVU58
 228 002c F2E7     		b	.L17
 229              	.L22:
 230 002e 00BF     		.align	2
 231              	.L21:
 232 0030 0070FF1F 		.word	536834048
 233 0034 00000000 		.word	.LANCHOR2
 234              		.cfi_endproc
 235              	.LFE139:
 237              		.section	.text.USBD_CMPSIT_FS_SerialStrDescriptor,"ax",%progbits
 238              		.align	1
 239              		.global	USBD_CMPSIT_FS_SerialStrDescriptor
 240              		.syntax unified
 241              		.thumb
 242              		.thumb_func
 244              	USBD_CMPSIT_FS_SerialStrDescriptor:
 245              	.LVL17:
 246              	.LFB140:
 201:Src/usbd_composite.c **** uint8_t * USBD_CMPSIT_FS_SerialStrDescriptor(USBD_SpeedTypeDef speed, uint16_t *length)
 202:Src/usbd_composite.c **** {
 247              		.loc 1 202 1 is_stmt 1 view -0
 248              		.cfi_startproc
 249              		@ args = 0, pretend = 0, frame = 0
ARM GAS  C:\Users\ADMINI~1\AppData\Local\Temp\cc0Pcyme.s 			page 9


 250              		@ frame_needed = 0, uses_anonymous_args = 0
 251              		.loc 1 202 1 is_stmt 0 view .LVU60
 252 0000 08B5     		push	{r3, lr}
 253              	.LCFI3:
 254              		.cfi_def_cfa_offset 8
 255              		.cfi_offset 3, -8
 256              		.cfi_offset 14, -4
 203:Src/usbd_composite.c ****   UNUSED(speed);
 257              		.loc 1 203 3 is_stmt 1 view .LVU61
 204:Src/usbd_composite.c ****   *length = USB_SIZ_STRING_SERIAL;
 258              		.loc 1 204 3 view .LVU62
 259              		.loc 1 204 11 is_stmt 0 view .LVU63
 260 0002 1A23     		movs	r3, #26
 261 0004 0B80     		strh	r3, [r1]	@ movhi
 205:Src/usbd_composite.c **** 
 206:Src/usbd_composite.c ****   /* Update the serial number string descriptor with the data from the unique
 207:Src/usbd_composite.c ****    * ID */
 208:Src/usbd_composite.c ****   Get_CMPSIT_SerialNum();
 262              		.loc 1 208 3 is_stmt 1 view .LVU64
 263 0006 FFF7FEFF 		bl	Get_CMPSIT_SerialNum
 264              	.LVL18:
 209:Src/usbd_composite.c ****   /* USER CODE BEGIN USBD_FS_SerialStrDescriptor */
 210:Src/usbd_composite.c **** 
 211:Src/usbd_composite.c ****   /* USER CODE END USBD_FS_SerialStrDescriptor */
 212:Src/usbd_composite.c ****   return (uint8_t *) USBD_CMPSIT_StringSerial;
 265              		.loc 1 212 3 view .LVU65
 213:Src/usbd_composite.c **** }
 266              		.loc 1 213 1 is_stmt 0 view .LVU66
 267 000a 0148     		ldr	r0, .L25
 268 000c 08BD     		pop	{r3, pc}
 269              	.L26:
 270 000e 00BF     		.align	2
 271              	.L25:
 272 0010 00000000 		.word	.LANCHOR2
 273              		.cfi_endproc
 274              	.LFE140:
 276              		.section	.text.USBD_CMPSIT_GetDeviceQualifierDescriptor,"ax",%progbits
 277              		.align	1
 278              		.global	USBD_CMPSIT_GetDeviceQualifierDescriptor
 279              		.syntax unified
 280              		.thumb
 281              		.thumb_func
 283              	USBD_CMPSIT_GetDeviceQualifierDescriptor:
 284              	.LVL19:
 285              	.LFB148:
 214:Src/usbd_composite.c **** 
 215:Src/usbd_composite.c **** uint8_t * USBD_CMPSIT_FS_InterfaceStrDescriptor(USBD_SpeedTypeDef speed, uint16_t *length)
 216:Src/usbd_composite.c **** {
 217:Src/usbd_composite.c ****   if(speed == 0)
 218:Src/usbd_composite.c ****   {
 219:Src/usbd_composite.c ****     USBD_GetString((uint8_t *)USBD_CMPSIT_INTERFACE_STRING_FS, USBD_CMPSIT_StrDesc, length);
 220:Src/usbd_composite.c ****   }
 221:Src/usbd_composite.c ****   else
 222:Src/usbd_composite.c ****   {
 223:Src/usbd_composite.c ****     USBD_GetString((uint8_t *)USBD_CMPSIT_INTERFACE_STRING_FS, USBD_CMPSIT_StrDesc, length);
 224:Src/usbd_composite.c ****   }
 225:Src/usbd_composite.c ****   return USBD_CMPSIT_StrDesc;
ARM GAS  C:\Users\ADMINI~1\AppData\Local\Temp\cc0Pcyme.s 			page 10


 226:Src/usbd_composite.c **** }
 227:Src/usbd_composite.c **** 
 228:Src/usbd_composite.c **** 
 229:Src/usbd_composite.c **** uint8_t * USBD_CMPSIT_FS_ConfigStrDescriptor(USBD_SpeedTypeDef speed, uint16_t *length)
 230:Src/usbd_composite.c **** {
 231:Src/usbd_composite.c ****   if(speed == USBD_SPEED_HIGH)
 232:Src/usbd_composite.c ****   {
 233:Src/usbd_composite.c ****     USBD_GetString((uint8_t *)USBD_CMPSIT_CONFIGURATION_STRING_FS, USBD_CMPSIT_StrDesc, length);
 234:Src/usbd_composite.c ****   }
 235:Src/usbd_composite.c ****   else
 236:Src/usbd_composite.c ****   {
 237:Src/usbd_composite.c ****     USBD_GetString((uint8_t *)USBD_CMPSIT_CONFIGURATION_STRING_FS, USBD_CMPSIT_StrDesc, length);
 238:Src/usbd_composite.c ****   }
 239:Src/usbd_composite.c ****   return USBD_CMPSIT_StrDesc;
 240:Src/usbd_composite.c **** }
 241:Src/usbd_composite.c **** 
 242:Src/usbd_composite.c **** 
 243:Src/usbd_composite.c **** #if (USBD_LPM_ENABLED == 1)
 244:Src/usbd_composite.c **** /**
 245:Src/usbd_composite.c ****   * @brief  Return the BOS descriptor
 246:Src/usbd_composite.c ****   * @param  speed : Current device speed
 247:Src/usbd_composite.c ****   * @param  length : Pointer to data length variable
 248:Src/usbd_composite.c ****   * @retval Pointer to descriptor buffer
 249:Src/usbd_composite.c ****   */
 250:Src/usbd_composite.c **** uint8_t * USBD_CMPSIT_FS_USR_BOSDescriptor(USBD_SpeedTypeDef speed, uint16_t *length)
 251:Src/usbd_composite.c **** {
 252:Src/usbd_composite.c ****   UNUSED(speed);
 253:Src/usbd_composite.c ****   *length = sizeof(USBD_CMPSIT_FS_BOSDesc);
 254:Src/usbd_composite.c ****   return (uint8_t*)USBD_CMPSIT_FS_BOSDesc;
 255:Src/usbd_composite.c **** }
 256:Src/usbd_composite.c **** #endif /* (USBD_LPM_ENABLED == 1) */
 257:Src/usbd_composite.c **** 
 258:Src/usbd_composite.c **** 
 259:Src/usbd_composite.c **** __ALIGN_BEGIN static uint8_t USBD_CMPSIT_CfgDesc[USB_CMPSIT_CONFIG_DESC_SIZ] __ALIGN_END =
 260:Src/usbd_composite.c **** {
 261:Src/usbd_composite.c ****   /* Configuration Descriptor */
 262:Src/usbd_composite.c ****   //0
 263:Src/usbd_composite.c ****   0x09,                                       /* bLength: Configuration Descriptor size */
 264:Src/usbd_composite.c ****   USB_DESC_TYPE_CONFIGURATION,                /* bDescriptorType: Configuration */
 265:Src/usbd_composite.c ****   USB_CMPSIT_CONFIG_DESC_SIZ,                    /* wTotalLength */
 266:Src/usbd_composite.c ****   0x00,
 267:Src/usbd_composite.c ****   0x03,                                       /* bNumInterfaces: 2 interfaces */
 268:Src/usbd_composite.c ****   0x01,                                       /* bConfigurationValue: Configuration value */
 269:Src/usbd_composite.c ****   0x00,                                       /* iConfiguration: Index of string descriptor
 270:Src/usbd_composite.c ****                                                  describing the configuration */
 271:Src/usbd_composite.c **** #if (USBD_SELF_POWERED == 1U)
 272:Src/usbd_composite.c ****   0xC0,                                       /* bmAttributes: Bus Powered according to user config
 273:Src/usbd_composite.c **** #else
 274:Src/usbd_composite.c ****   0x80,                                       /* bmAttributes: Bus Powered according to user config
 275:Src/usbd_composite.c **** #endif /* USBD_SELF_POWERED */
 276:Src/usbd_composite.c ****   USBD_MAX_POWER,                             /* MaxPower (mA) */
 277:Src/usbd_composite.c **** 
 278:Src/usbd_composite.c ****   /*---------------------------------------------------------------------------*/
 279:Src/usbd_composite.c ****   //9
 280:Src/usbd_composite.c ****   /* Interface Association Descriptor: CDC device (virtual com port) */
 281:Src/usbd_composite.c ****   0x08,   /* bLength: IAD size */
 282:Src/usbd_composite.c ****   0x0B,   /* bDescriptorType: Interface Association Descriptor */
ARM GAS  C:\Users\ADMINI~1\AppData\Local\Temp\cc0Pcyme.s 			page 11


 283:Src/usbd_composite.c ****   0x00,   /* bFirstInterface */
 284:Src/usbd_composite.c ****   0x02,   /* bInterfaceCount */
 285:Src/usbd_composite.c ****   0x02,   /* bFunctionClass: Communication Interface Class */
 286:Src/usbd_composite.c ****   0x02,   /* bFunctionSubClass: Abstract Control Model */
 287:Src/usbd_composite.c ****   0x01,   /* bFunctionProtocol: Common AT commands */
 288:Src/usbd_composite.c ****   0x06,   /* iFunction */
 289:Src/usbd_composite.c ****   //17
 290:Src/usbd_composite.c ****   /* Interface Descriptor */
 291:Src/usbd_composite.c ****   0x09,                                       /* bLength: Interface Descriptor size */
 292:Src/usbd_composite.c ****   USB_DESC_TYPE_INTERFACE,                    /* bDescriptorType: Interface */
 293:Src/usbd_composite.c ****   /* Interface descriptor type */
 294:Src/usbd_composite.c ****   0x00,                                       /* bInterfaceNumber: Number of Interface */
 295:Src/usbd_composite.c ****   0x00,                                       /* bAlternateSetting: Alternate setting */
 296:Src/usbd_composite.c ****   0x01,                                       /* bNumEndpoints: One endpoint used */
 297:Src/usbd_composite.c ****   0x02,                                       /* bInterfaceClass: Communication Interface Class */
 298:Src/usbd_composite.c ****   0x02,                                       /* bInterfaceSubClass: Abstract Control Model */
 299:Src/usbd_composite.c ****   0x01,                                       /* bInterfaceProtocol: Common AT commands */
 300:Src/usbd_composite.c ****   0x06,                                       /* iInterface */
 301:Src/usbd_composite.c ****   //26
 302:Src/usbd_composite.c ****   /* Header Functional Descriptor */
 303:Src/usbd_composite.c ****   0x05,                                       /* bLength: Endpoint Descriptor size */
 304:Src/usbd_composite.c ****   0x24,                                       /* bDescriptorType: CS_INTERFACE */
 305:Src/usbd_composite.c ****   0x00,                                       /* bDescriptorSubtype: Header Func Desc */
 306:Src/usbd_composite.c ****   0x10,                                       /* bcdCDC: spec release number */
 307:Src/usbd_composite.c ****   0x01,
 308:Src/usbd_composite.c ****   //31
 309:Src/usbd_composite.c ****   /* Call Management Functional Descriptor */
 310:Src/usbd_composite.c ****   0x05,                                       /* bFunctionLength */
 311:Src/usbd_composite.c ****   0x24,                                       /* bDescriptorType: CS_INTERFACE */
 312:Src/usbd_composite.c ****   0x01,                                       /* bDescriptorSubtype: Call Management Func Desc */
 313:Src/usbd_composite.c ****   0x00,                                       /* bmCapabilities: D0+D1 */
 314:Src/usbd_composite.c ****   0x01,                                       /* bDataInterface */
 315:Src/usbd_composite.c ****   //36
 316:Src/usbd_composite.c ****   /* ACM Functional Descriptor */
 317:Src/usbd_composite.c ****   0x04,                                       /* bFunctionLength */
 318:Src/usbd_composite.c ****   0x24,                                       /* bDescriptorType: CS_INTERFACE */
 319:Src/usbd_composite.c ****   0x02,                                       /* bDescriptorSubtype: Abstract Control Management de
 320:Src/usbd_composite.c ****   0x02,                                       /* bmCapabilities */
 321:Src/usbd_composite.c ****   //40
 322:Src/usbd_composite.c ****   /* Union Functional Descriptor */
 323:Src/usbd_composite.c ****   0x05,                                       /* bFunctionLength */
 324:Src/usbd_composite.c ****   0x24,                                       /* bDescriptorType: CS_INTERFACE */
 325:Src/usbd_composite.c ****   0x06,                                       /* bDescriptorSubtype: Union func desc */
 326:Src/usbd_composite.c ****   0x00,                                       /* bMasterInterface: Communication class interface */
 327:Src/usbd_composite.c ****   0x01,                                       /* bSlaveInterface0: Data Class Interface */
 328:Src/usbd_composite.c ****   //45
 329:Src/usbd_composite.c ****   /* Endpoint 2 Descriptor */
 330:Src/usbd_composite.c ****   0x07,                                       /* bLength: Endpoint Descriptor size */
 331:Src/usbd_composite.c ****   USB_DESC_TYPE_ENDPOINT,                     /* bDescriptorType: Endpoint */
 332:Src/usbd_composite.c ****   CDC_CMD_EP,                                 /* bEndpointAddress */
 333:Src/usbd_composite.c ****   0x03,                                       /* bmAttributes: Interrupt */
 334:Src/usbd_composite.c ****   LOBYTE(CDC_CMD_PACKET_SIZE),                /* wMaxPacketSize */
 335:Src/usbd_composite.c ****   HIBYTE(CDC_CMD_PACKET_SIZE),
 336:Src/usbd_composite.c ****   CDC_FS_BINTERVAL,                           /* bInterval */
 337:Src/usbd_composite.c ****   /*---------------------------------------------------------------------------*/
 338:Src/usbd_composite.c ****   //52
 339:Src/usbd_composite.c ****   /* Data class interface descriptor */
ARM GAS  C:\Users\ADMINI~1\AppData\Local\Temp\cc0Pcyme.s 			page 12


 340:Src/usbd_composite.c ****   0x09,                                       /* bLength: Endpoint Descriptor size */
 341:Src/usbd_composite.c ****   USB_DESC_TYPE_INTERFACE,                    /* bDescriptorType: */
 342:Src/usbd_composite.c ****   0x01,                                       /* bInterfaceNumber: Number of Interface */
 343:Src/usbd_composite.c ****   0x00,                                       /* bAlternateSetting: Alternate setting */
 344:Src/usbd_composite.c ****   0x02,                                       /* bNumEndpoints: Two endpoints used */
 345:Src/usbd_composite.c ****   0x0A,                                       /* bInterfaceClass: CDC */
 346:Src/usbd_composite.c ****   0x00,                                       /* bInterfaceSubClass */
 347:Src/usbd_composite.c ****   0x00,                                       /* bInterfaceProtocol */
 348:Src/usbd_composite.c ****   0x06,                                       /* iInterface */
 349:Src/usbd_composite.c ****   //61
 350:Src/usbd_composite.c ****   /* Endpoint OUT Descriptor */
 351:Src/usbd_composite.c ****   0x07,                                       /* bLength: Endpoint Descriptor size */
 352:Src/usbd_composite.c ****   USB_DESC_TYPE_ENDPOINT,                     /* bDescriptorType: Endpoint */
 353:Src/usbd_composite.c ****   CDC_OUT_EP,                                 /* bEndpointAddress */
 354:Src/usbd_composite.c ****   0x02,                                       /* bmAttributes: Bulk */
 355:Src/usbd_composite.c ****   LOBYTE(CDC_DATA_FS_MAX_PACKET_SIZE),        /* wMaxPacketSize */
 356:Src/usbd_composite.c ****   HIBYTE(CDC_DATA_FS_MAX_PACKET_SIZE),
 357:Src/usbd_composite.c ****   0x00,                                       /* bInterval */
 358:Src/usbd_composite.c ****   //68
 359:Src/usbd_composite.c ****   /* Endpoint IN Descriptor */
 360:Src/usbd_composite.c ****   0x07,                                       /* bLength: Endpoint Descriptor size */
 361:Src/usbd_composite.c ****   USB_DESC_TYPE_ENDPOINT,                     /* bDescriptorType: Endpoint */
 362:Src/usbd_composite.c ****   CDC_IN_EP,                                  /* bEndpointAddress */
 363:Src/usbd_composite.c ****   0x02,                                       /* bmAttributes: Bulk */
 364:Src/usbd_composite.c ****   LOBYTE(CDC_DATA_FS_MAX_PACKET_SIZE),        /* wMaxPacketSize */
 365:Src/usbd_composite.c ****   HIBYTE(CDC_DATA_FS_MAX_PACKET_SIZE),
 366:Src/usbd_composite.c ****   0x00,                                        /* bInterval */
 367:Src/usbd_composite.c ****   //75
 368:Src/usbd_composite.c ****   /* Interface Association Descriptor: Mass Storage device */
 369:Src/usbd_composite.c ****   0x08,   /* bLength: IAD size */
 370:Src/usbd_composite.c ****   0x0B,   /* bDescriptorType: Interface Association Descriptor */
 371:Src/usbd_composite.c ****   0x02,   /* bFirstInterface */
 372:Src/usbd_composite.c ****   0x01,   /* bInterfaceCount */
 373:Src/usbd_composite.c ****   0x08,   /* bFunctionClass: */
 374:Src/usbd_composite.c ****   0x06,   /* bFunctionSubClass: */
 375:Src/usbd_composite.c ****   0x50,   /* bFunctionProtocol: */
 376:Src/usbd_composite.c ****   0x08,   /* iFunction */
 377:Src/usbd_composite.c ****   //83
 378:Src/usbd_composite.c ****   /********************  Mass Storage interface ********************/
 379:Src/usbd_composite.c ****   0x09,                                            /* bLength: Interface Descriptor size */
 380:Src/usbd_composite.c ****   0x04,                                            /* bDescriptorType: */
 381:Src/usbd_composite.c ****   0x02,                                            /* bInterfaceNumber: Number of Interface */
 382:Src/usbd_composite.c ****   0x00,                                            /* bAlternateSetting: Alternate setting */
 383:Src/usbd_composite.c ****   0x02,                                            /* bNumEndpoints */
 384:Src/usbd_composite.c ****   0x08,                                            /* bInterfaceClass: MSC Class */
 385:Src/usbd_composite.c ****   0x06,                                            /* bInterfaceSubClass : SCSI transparent*/
 386:Src/usbd_composite.c ****   0x50,                                            /* nInterfaceProtocol */
 387:Src/usbd_composite.c ****   0x08,                                            /* iInterface: */
 388:Src/usbd_composite.c ****   /********************  Mass Storage Endpoints ********************/
 389:Src/usbd_composite.c ****   //92
 390:Src/usbd_composite.c ****   0x07,                                            /* Endpoint descriptor length = 7 */
 391:Src/usbd_composite.c ****   0x05,                                            /* Endpoint descriptor type */
 392:Src/usbd_composite.c ****   MSC_EPIN_ADDR,                                   /* Endpoint address (IN, address 1) */
 393:Src/usbd_composite.c ****   0x02,                                            /* Bulk endpoint type */
 394:Src/usbd_composite.c ****   LOBYTE(MSC_MAX_FS_PACKET),
 395:Src/usbd_composite.c ****   HIBYTE(MSC_MAX_FS_PACKET),
 396:Src/usbd_composite.c ****   0x00,                                            /* Polling interval in milliseconds */
ARM GAS  C:\Users\ADMINI~1\AppData\Local\Temp\cc0Pcyme.s 			page 13


 397:Src/usbd_composite.c ****   //99
 398:Src/usbd_composite.c ****   0x07,                                            /* Endpoint descriptor length = 7 */
 399:Src/usbd_composite.c ****   0x05,                                            /* Endpoint descriptor type */
 400:Src/usbd_composite.c ****   MSC_EPOUT_ADDR,                                  /* Endpoint address (OUT, address 1) */
 401:Src/usbd_composite.c ****   0x02,                                            /* Bulk endpoint type */
 402:Src/usbd_composite.c ****   LOBYTE(MSC_MAX_FS_PACKET),
 403:Src/usbd_composite.c ****   HIBYTE(MSC_MAX_FS_PACKET),
 404:Src/usbd_composite.c ****   0x00                                             /* Polling interval in milliseconds */
 405:Src/usbd_composite.c ****   //106
 406:Src/usbd_composite.c **** };
 407:Src/usbd_composite.c **** __ALIGN_BEGIN static uint8_t USBD_CMPSIT_DeviceQualifierDesc[USB_LEN_DEV_QUALIFIER_DESC] __ALIGN_EN
 408:Src/usbd_composite.c **** {
 409:Src/usbd_composite.c ****   USB_LEN_DEV_QUALIFIER_DESC,
 410:Src/usbd_composite.c ****   USB_DESC_TYPE_DEVICE_QUALIFIER,
 411:Src/usbd_composite.c ****   0x00,
 412:Src/usbd_composite.c ****   0x02,
 413:Src/usbd_composite.c ****   0x00,
 414:Src/usbd_composite.c ****   0x00,
 415:Src/usbd_composite.c ****   0x00,
 416:Src/usbd_composite.c ****   0x40,
 417:Src/usbd_composite.c ****   0x01,
 418:Src/usbd_composite.c ****   0x00,
 419:Src/usbd_composite.c **** };
 420:Src/usbd_composite.c **** 
 421:Src/usbd_composite.c **** static uint8_t *USBD_CMPSIT_GetFSCfgDesc(uint16_t *length);
 422:Src/usbd_composite.c **** static uint8_t *USBD_CMPSIT_GetHSCfgDesc(uint16_t *length);
 423:Src/usbd_composite.c **** static uint8_t *USBD_CMPSIT_GetOtherSpeedCfgDesc(uint16_t *length);
 424:Src/usbd_composite.c **** uint8_t *USBD_CMPSIT_GetDeviceQualifierDescriptor(uint16_t *length);
 425:Src/usbd_composite.c **** 
 426:Src/usbd_composite.c **** 
 427:Src/usbd_composite.c **** 
 428:Src/usbd_composite.c **** USBD_ClassTypeDef USBD_CMPSIT=
 429:Src/usbd_composite.c **** {
 430:Src/usbd_composite.c ****   NULL,
 431:Src/usbd_composite.c ****   NULL,
 432:Src/usbd_composite.c ****   NULL,
 433:Src/usbd_composite.c ****   NULL,                 /* EP0_TxSent */
 434:Src/usbd_composite.c ****   NULL,
 435:Src/usbd_composite.c ****   NULL,
 436:Src/usbd_composite.c ****   NULL,
 437:Src/usbd_composite.c ****   NULL,
 438:Src/usbd_composite.c ****   NULL,
 439:Src/usbd_composite.c ****   NULL,
 440:Src/usbd_composite.c ****   USBD_CMPSIT_GetHSCfgDesc,
 441:Src/usbd_composite.c ****   USBD_CMPSIT_GetFSCfgDesc,  
 442:Src/usbd_composite.c ****   USBD_CMPSIT_GetOtherSpeedCfgDesc,
 443:Src/usbd_composite.c ****   USBD_CMPSIT_GetDeviceQualifierDescriptor  
 444:Src/usbd_composite.c **** };
 445:Src/usbd_composite.c **** 
 446:Src/usbd_composite.c **** #ifdef USE_USBD_COMPOSITE
 447:Src/usbd_composite.c **** void USBD_CMPSIT_AddClass(USBD_HandleTypeDef *pdev, USBD_ClassTypeDef *pclass, USBD_CompositeClassT
 448:Src/usbd_composite.c **** {
 449:Src/usbd_composite.c **** 	//printf("classId=%d  : %d\r\n",pdev->classId,classtype);
 450:Src/usbd_composite.c **** 	switch(classtype)
 451:Src/usbd_composite.c **** 	{
 452:Src/usbd_composite.c **** 		case CLASS_TYPE_CDC:{
 453:Src/usbd_composite.c **** 			pdev->tclasslist[pdev->classId].ClassType = CLASS_TYPE_CDC;
ARM GAS  C:\Users\ADMINI~1\AppData\Local\Temp\cc0Pcyme.s 			page 14


 454:Src/usbd_composite.c **** 			
 455:Src/usbd_composite.c **** 			pdev->tclasslist[pdev->classId].Active = 1U;
 456:Src/usbd_composite.c **** 			pdev->tclasslist[pdev->classId].NumEps = 3;
 457:Src/usbd_composite.c **** 			
 458:Src/usbd_composite.c **** 			pdev->tclasslist[pdev->classId].Eps[0].add = CDC_CMD_EP;
 459:Src/usbd_composite.c **** 			pdev->tclasslist[pdev->classId].Eps[0].type = USBD_EP_TYPE_INTR;
 460:Src/usbd_composite.c **** 			pdev->tclasslist[pdev->classId].Eps[0].size = CDC_CMD_PACKET_SIZE;
 461:Src/usbd_composite.c **** 			pdev->tclasslist[pdev->classId].Eps[0].is_used = 1U;
 462:Src/usbd_composite.c **** 			
 463:Src/usbd_composite.c **** 			pdev->tclasslist[pdev->classId].Eps[1].add = CDC_OUT_EP;
 464:Src/usbd_composite.c **** 			pdev->tclasslist[pdev->classId].Eps[1].type = USBD_EP_TYPE_BULK;
 465:Src/usbd_composite.c **** 			pdev->tclasslist[pdev->classId].Eps[1].size = CDC_DATA_FS_MAX_PACKET_SIZE;
 466:Src/usbd_composite.c **** 			pdev->tclasslist[pdev->classId].Eps[1].is_used = 1U;
 467:Src/usbd_composite.c **** 			
 468:Src/usbd_composite.c **** 			pdev->tclasslist[pdev->classId].Eps[2].add = CDC_IN_EP;
 469:Src/usbd_composite.c **** 			pdev->tclasslist[pdev->classId].Eps[2].type = USBD_EP_TYPE_BULK;
 470:Src/usbd_composite.c **** 			pdev->tclasslist[pdev->classId].Eps[2].size = CDC_DATA_FS_MAX_PACKET_SIZE;
 471:Src/usbd_composite.c **** 			pdev->tclasslist[pdev->classId].Eps[2].is_used = 1U;
 472:Src/usbd_composite.c **** 
 473:Src/usbd_composite.c **** 			pdev->tclasslist[pdev->classId].NumIf = 2;
 474:Src/usbd_composite.c **** 			pdev->tclasslist[pdev->classId].Ifs[0] = 0;
 475:Src/usbd_composite.c **** 			pdev->tclasslist[pdev->classId].Ifs[1] = 1;	
 476:Src/usbd_composite.c **** 			
 477:Src/usbd_composite.c **** 		}break;
 478:Src/usbd_composite.c **** 
 479:Src/usbd_composite.c **** 		case CLASS_TYPE_MSC:{
 480:Src/usbd_composite.c **** 			pdev->tclasslist[pdev->classId].ClassType = CLASS_TYPE_MSC;
 481:Src/usbd_composite.c **** 			
 482:Src/usbd_composite.c **** 			pdev->tclasslist[pdev->classId].Active = 1U;
 483:Src/usbd_composite.c **** 			pdev->tclasslist[pdev->classId].NumEps = 2;
 484:Src/usbd_composite.c **** 			
 485:Src/usbd_composite.c **** 			pdev->tclasslist[pdev->classId].Eps[0].add = MSC_EPIN_ADDR;
 486:Src/usbd_composite.c **** 			pdev->tclasslist[pdev->classId].Eps[0].type = USBD_EP_TYPE_BULK;
 487:Src/usbd_composite.c **** 			pdev->tclasslist[pdev->classId].Eps[0].size = MSC_MAX_FS_PACKET;
 488:Src/usbd_composite.c **** 			pdev->tclasslist[pdev->classId].Eps[0].is_used = 1U;
 489:Src/usbd_composite.c **** 			
 490:Src/usbd_composite.c **** 			pdev->tclasslist[pdev->classId].Eps[1].add = MSC_EPOUT_ADDR;
 491:Src/usbd_composite.c **** 			pdev->tclasslist[pdev->classId].Eps[1].type = USBD_EP_TYPE_BULK;
 492:Src/usbd_composite.c **** 			pdev->tclasslist[pdev->classId].Eps[1].size = MSC_MAX_FS_PACKET;
 493:Src/usbd_composite.c **** 			pdev->tclasslist[pdev->classId].Eps[1].is_used = 1U;
 494:Src/usbd_composite.c **** 			
 495:Src/usbd_composite.c **** 
 496:Src/usbd_composite.c **** 			pdev->tclasslist[pdev->classId].NumIf = 1;
 497:Src/usbd_composite.c **** 			pdev->tclasslist[pdev->classId].Ifs[0] = 2;						
 498:Src/usbd_composite.c **** 			
 499:Src/usbd_composite.c **** 		}break;
 500:Src/usbd_composite.c **** 		default:break;
 501:Src/usbd_composite.c **** 	}
 502:Src/usbd_composite.c **** 	pdev->tclasslist[pdev->classId].CurrPcktSze = 0U;
 503:Src/usbd_composite.c **** 		
 504:Src/usbd_composite.c **** }
 505:Src/usbd_composite.c **** 
 506:Src/usbd_composite.c **** #endif
 507:Src/usbd_composite.c **** 
 508:Src/usbd_composite.c **** uint8_t * USBD_UsrStrDescriptor(struct _USBD_HandleTypeDef *pdev, uint8_t index,  uint16_t *length)
 509:Src/usbd_composite.c **** {
 510:Src/usbd_composite.c ****   *length = 0;
ARM GAS  C:\Users\ADMINI~1\AppData\Local\Temp\cc0Pcyme.s 			page 15


 511:Src/usbd_composite.c ****   //printf("index=%d\r\n",index);
 512:Src/usbd_composite.c ****  /*  if (USBD_IDX_MICROSOFT_DESC_STR == index) {
 513:Src/usbd_composite.c ****     *length = sizeof (USBD_MS_OS_StringDescriptor);
 514:Src/usbd_composite.c ****     return USBD_MS_OS_StringDescriptor;
 515:Src/usbd_composite.c ****   } else if (USBD_IDX_ODRIVE_INTF_STR == index) {
 516:Src/usbd_composite.c ****     USBD_GetString((uint8_t *)USBD_PRODUCT_XSTR(NATIVE_STRING), USBD_StrDesc, length);
 517:Src/usbd_composite.c ****     return USBD_StrDesc;
 518:Src/usbd_composite.c ****   }  */
 519:Src/usbd_composite.c ****   if (USBD_IDX_CDC_CMD_STR == index) {
 520:Src/usbd_composite.c ****     USBD_GetString((uint8_t *)USBD_CDC_CMD_INTERFACE_STRING_FS, USBD_CMPSIT_StrDesc, length);
 521:Src/usbd_composite.c ****     return USBD_CMPSIT_StrDesc;
 522:Src/usbd_composite.c ****   }
 523:Src/usbd_composite.c ****   else if (USBD_IDX_CDC_DATA_STR == index) {    
 524:Src/usbd_composite.c ****     USBD_GetString((uint8_t *)USBD_CDC_DATA_INTERFACE_STRING_FS, USBD_CMPSIT_StrDesc, length);
 525:Src/usbd_composite.c ****     return USBD_CMPSIT_StrDesc;
 526:Src/usbd_composite.c ****   }    
 527:Src/usbd_composite.c ****   else if (USBD_IDX_MSC_INTF_STR == index) {    
 528:Src/usbd_composite.c ****     USBD_GetString((uint8_t *)USBD_MSC_INTERFACE_STRING_FS, USBD_CMPSIT_StrDesc, length);
 529:Src/usbd_composite.c ****     return USBD_CMPSIT_StrDesc;
 530:Src/usbd_composite.c ****   }  
 531:Src/usbd_composite.c ****   return NULL;
 532:Src/usbd_composite.c **** }
 533:Src/usbd_composite.c **** 
 534:Src/usbd_composite.c **** static uint8_t *USBD_CMPSIT_GetFSCfgDesc(uint16_t *length)
 535:Src/usbd_composite.c **** {
 536:Src/usbd_composite.c **** 	USBD_EpDescTypeDef *pMscEpOutDesc = USBD_GetEpDesc(USBD_CMPSIT_CfgDesc, MSC_EPOUT_ADDR);
 537:Src/usbd_composite.c ****   USBD_EpDescTypeDef *pMscEpInDesc = USBD_GetEpDesc(USBD_CMPSIT_CfgDesc, MSC_EPIN_ADDR);  
 538:Src/usbd_composite.c **** 
 539:Src/usbd_composite.c ****   USBD_EpDescTypeDef *pCdcEpCmdDesc = USBD_GetEpDesc(USBD_CMPSIT_CfgDesc, CDC_CMD_EP);
 540:Src/usbd_composite.c ****   USBD_EpDescTypeDef *pCdcEpOutDesc = USBD_GetEpDesc(USBD_CMPSIT_CfgDesc, CDC_OUT_EP);
 541:Src/usbd_composite.c ****   USBD_EpDescTypeDef *pCdcEpInDesc = USBD_GetEpDesc(USBD_CMPSIT_CfgDesc, CDC_IN_EP);
 542:Src/usbd_composite.c **** 
 543:Src/usbd_composite.c ****   if (pCdcEpCmdDesc != NULL)
 544:Src/usbd_composite.c ****   {
 545:Src/usbd_composite.c ****     pCdcEpCmdDesc->bInterval = CDC_FS_BINTERVAL;
 546:Src/usbd_composite.c ****   }
 547:Src/usbd_composite.c **** 
 548:Src/usbd_composite.c ****   if (pCdcEpOutDesc != NULL)
 549:Src/usbd_composite.c ****   {
 550:Src/usbd_composite.c ****     pCdcEpOutDesc->wMaxPacketSize = CDC_DATA_FS_MAX_PACKET_SIZE;
 551:Src/usbd_composite.c ****   }
 552:Src/usbd_composite.c **** 
 553:Src/usbd_composite.c ****   if (pCdcEpInDesc != NULL)
 554:Src/usbd_composite.c ****   {
 555:Src/usbd_composite.c ****     pCdcEpInDesc->wMaxPacketSize = CDC_DATA_FS_MAX_PACKET_SIZE;
 556:Src/usbd_composite.c ****   }
 557:Src/usbd_composite.c **** 
 558:Src/usbd_composite.c ****   if (pMscEpOutDesc != NULL)
 559:Src/usbd_composite.c ****   {
 560:Src/usbd_composite.c ****     pMscEpOutDesc->wMaxPacketSize = MSC_MAX_FS_PACKET;
 561:Src/usbd_composite.c ****   }
 562:Src/usbd_composite.c **** 
 563:Src/usbd_composite.c ****   if (pMscEpInDesc != NULL)
 564:Src/usbd_composite.c ****   {
 565:Src/usbd_composite.c ****     pMscEpInDesc->wMaxPacketSize = MSC_MAX_FS_PACKET;
 566:Src/usbd_composite.c ****   }
 567:Src/usbd_composite.c **** 	
ARM GAS  C:\Users\ADMINI~1\AppData\Local\Temp\cc0Pcyme.s 			page 16


 568:Src/usbd_composite.c **** 	*length = (uint16_t)sizeof(USBD_CMPSIT_CfgDesc);
 569:Src/usbd_composite.c **** 	return USBD_CMPSIT_CfgDesc;
 570:Src/usbd_composite.c **** }
 571:Src/usbd_composite.c **** static uint8_t *USBD_CMPSIT_GetHSCfgDesc(uint16_t *length)
 572:Src/usbd_composite.c **** {
 573:Src/usbd_composite.c ****   USBD_EpDescTypeDef *pMscEpOutDesc = USBD_GetEpDesc(USBD_CMPSIT_CfgDesc, MSC_EPOUT_ADDR);
 574:Src/usbd_composite.c ****   USBD_EpDescTypeDef *pMscEpInDesc = USBD_GetEpDesc(USBD_CMPSIT_CfgDesc, MSC_EPIN_ADDR);  
 575:Src/usbd_composite.c **** 
 576:Src/usbd_composite.c ****   USBD_EpDescTypeDef *pCdcEpCmdDesc = USBD_GetEpDesc(USBD_CMPSIT_CfgDesc, CDC_CMD_EP);
 577:Src/usbd_composite.c ****   USBD_EpDescTypeDef *pCdcEpOutDesc = USBD_GetEpDesc(USBD_CMPSIT_CfgDesc, CDC_OUT_EP);
 578:Src/usbd_composite.c ****   USBD_EpDescTypeDef *pCdcEpInDesc = USBD_GetEpDesc(USBD_CMPSIT_CfgDesc, CDC_IN_EP);
 579:Src/usbd_composite.c **** 
 580:Src/usbd_composite.c ****   if (pCdcEpCmdDesc != NULL)
 581:Src/usbd_composite.c ****   {
 582:Src/usbd_composite.c ****     pCdcEpCmdDesc->bInterval = CDC_FS_BINTERVAL;
 583:Src/usbd_composite.c ****   }
 584:Src/usbd_composite.c **** 
 585:Src/usbd_composite.c ****   if (pCdcEpOutDesc != NULL)
 586:Src/usbd_composite.c ****   {
 587:Src/usbd_composite.c ****     pCdcEpOutDesc->wMaxPacketSize = CDC_DATA_HS_MAX_PACKET_SIZE;
 588:Src/usbd_composite.c ****   }
 589:Src/usbd_composite.c **** 
 590:Src/usbd_composite.c ****   if (pCdcEpInDesc != NULL)
 591:Src/usbd_composite.c ****   {
 592:Src/usbd_composite.c ****     pCdcEpInDesc->wMaxPacketSize = CDC_DATA_HS_MAX_PACKET_SIZE;
 593:Src/usbd_composite.c ****   }
 594:Src/usbd_composite.c **** 
 595:Src/usbd_composite.c ****   if (pMscEpOutDesc != NULL)
 596:Src/usbd_composite.c ****   {
 597:Src/usbd_composite.c ****     pMscEpOutDesc->wMaxPacketSize = MSC_MAX_HS_PACKET;
 598:Src/usbd_composite.c ****   }
 599:Src/usbd_composite.c **** 
 600:Src/usbd_composite.c ****   if (pMscEpInDesc != NULL)
 601:Src/usbd_composite.c ****   {
 602:Src/usbd_composite.c ****     pMscEpInDesc->wMaxPacketSize = MSC_MAX_HS_PACKET;
 603:Src/usbd_composite.c ****   }
 604:Src/usbd_composite.c ****   *length = (uint16_t)sizeof(USBD_CMPSIT_CfgDesc);
 605:Src/usbd_composite.c **** 	return USBD_CMPSIT_CfgDesc;
 606:Src/usbd_composite.c **** }
 607:Src/usbd_composite.c **** static uint8_t *USBD_CMPSIT_GetOtherSpeedCfgDesc(uint16_t *length)
 608:Src/usbd_composite.c **** {
 609:Src/usbd_composite.c ****   USBD_EpDescTypeDef *pMscEpOutDesc = USBD_GetEpDesc(USBD_CMPSIT_CfgDesc, MSC_EPOUT_ADDR);
 610:Src/usbd_composite.c ****   USBD_EpDescTypeDef *pMscEpInDesc = USBD_GetEpDesc(USBD_CMPSIT_CfgDesc, MSC_EPIN_ADDR);  
 611:Src/usbd_composite.c **** 
 612:Src/usbd_composite.c ****   USBD_EpDescTypeDef *pCdcEpCmdDesc = USBD_GetEpDesc(USBD_CMPSIT_CfgDesc, CDC_CMD_EP);
 613:Src/usbd_composite.c ****   USBD_EpDescTypeDef *pCdcEpOutDesc = USBD_GetEpDesc(USBD_CMPSIT_CfgDesc, CDC_OUT_EP);
 614:Src/usbd_composite.c ****   USBD_EpDescTypeDef *pCdcEpInDesc = USBD_GetEpDesc(USBD_CMPSIT_CfgDesc, CDC_IN_EP);
 615:Src/usbd_composite.c **** 
 616:Src/usbd_composite.c ****   if (pCdcEpCmdDesc != NULL)
 617:Src/usbd_composite.c ****   {
 618:Src/usbd_composite.c ****     pCdcEpCmdDesc->bInterval = CDC_FS_BINTERVAL;
 619:Src/usbd_composite.c ****   }
 620:Src/usbd_composite.c **** 
 621:Src/usbd_composite.c ****   if (pCdcEpOutDesc != NULL)
 622:Src/usbd_composite.c ****   {
 623:Src/usbd_composite.c ****     pCdcEpOutDesc->wMaxPacketSize = CDC_DATA_FS_MAX_PACKET_SIZE;
 624:Src/usbd_composite.c ****   }
ARM GAS  C:\Users\ADMINI~1\AppData\Local\Temp\cc0Pcyme.s 			page 17


 625:Src/usbd_composite.c **** 
 626:Src/usbd_composite.c ****   if (pCdcEpInDesc != NULL)
 627:Src/usbd_composite.c ****   {
 628:Src/usbd_composite.c ****     pCdcEpInDesc->wMaxPacketSize = CDC_DATA_FS_MAX_PACKET_SIZE;
 629:Src/usbd_composite.c ****   }
 630:Src/usbd_composite.c **** 
 631:Src/usbd_composite.c ****   if (pMscEpOutDesc != NULL)
 632:Src/usbd_composite.c ****   {
 633:Src/usbd_composite.c ****     pMscEpOutDesc->wMaxPacketSize = MSC_MAX_FS_PACKET;
 634:Src/usbd_composite.c ****   }
 635:Src/usbd_composite.c **** 
 636:Src/usbd_composite.c ****   if (pMscEpInDesc != NULL)
 637:Src/usbd_composite.c ****   {
 638:Src/usbd_composite.c ****     pMscEpInDesc->wMaxPacketSize = MSC_MAX_FS_PACKET;
 639:Src/usbd_composite.c ****   }
 640:Src/usbd_composite.c ****   *length = (uint16_t)sizeof(USBD_CMPSIT_CfgDesc);
 641:Src/usbd_composite.c ****   return USBD_CMPSIT_CfgDesc;
 642:Src/usbd_composite.c **** }
 643:Src/usbd_composite.c **** uint8_t *USBD_CMPSIT_GetDeviceQualifierDescriptor(uint16_t *length)
 644:Src/usbd_composite.c **** {
 286              		.loc 1 644 1 is_stmt 1 view -0
 287              		.cfi_startproc
 288              		@ args = 0, pretend = 0, frame = 0
 289              		@ frame_needed = 0, uses_anonymous_args = 0
 290              		@ link register save eliminated.
 645:Src/usbd_composite.c ****   *length = (uint16_t)sizeof(USBD_CMPSIT_DeviceQualifierDesc);
 291              		.loc 1 645 3 view .LVU68
 292              		.loc 1 645 11 is_stmt 0 view .LVU69
 293 0000 0A23     		movs	r3, #10
 294 0002 0380     		strh	r3, [r0]	@ movhi
 646:Src/usbd_composite.c ****   return USBD_CMPSIT_DeviceQualifierDesc;
 295              		.loc 1 646 3 is_stmt 1 view .LVU70
 647:Src/usbd_composite.c **** }
 296              		.loc 1 647 1 is_stmt 0 view .LVU71
 297 0004 0048     		ldr	r0, .L28
 298              	.LVL20:
 299              		.loc 1 647 1 view .LVU72
 300 0006 7047     		bx	lr
 301              	.L29:
 302              		.align	2
 303              	.L28:
 304 0008 00000000 		.word	.LANCHOR3
 305              		.cfi_endproc
 306              	.LFE148:
 308              		.section	.rodata.USBD_CMPSIT_FS_ManufacturerStrDescriptor.str1.4,"aMS",%progbits,1
 309              		.align	2
 310              	.LC0:
 311 0000 77656E79 		.ascii	"wenyz@wolfGroup\000"
 311      7A40776F 
 311      6C664772 
 311      6F757000 
 312              		.section	.text.USBD_CMPSIT_FS_ManufacturerStrDescriptor,"ax",%progbits
 313              		.align	1
 314              		.global	USBD_CMPSIT_FS_ManufacturerStrDescriptor
 315              		.syntax unified
 316              		.thumb
 317              		.thumb_func
ARM GAS  C:\Users\ADMINI~1\AppData\Local\Temp\cc0Pcyme.s 			page 18


 319              	USBD_CMPSIT_FS_ManufacturerStrDescriptor:
 320              	.LVL21:
 321              	.LFB136:
 146:Src/usbd_composite.c ****   UNUSED(speed);
 322              		.loc 1 146 1 is_stmt 1 view -0
 323              		.cfi_startproc
 324              		@ args = 0, pretend = 0, frame = 0
 325              		@ frame_needed = 0, uses_anonymous_args = 0
 146:Src/usbd_composite.c ****   UNUSED(speed);
 326              		.loc 1 146 1 is_stmt 0 view .LVU74
 327 0000 10B5     		push	{r4, lr}
 328              	.LCFI4:
 329              		.cfi_def_cfa_offset 8
 330              		.cfi_offset 4, -8
 331              		.cfi_offset 14, -4
 332 0002 0A46     		mov	r2, r1
 147:Src/usbd_composite.c ****   USBD_GetString((uint8_t *)USBD_CMPSIT_MANUFACTURER_STRING, USBD_CMPSIT_StrDesc, length);
 333              		.loc 1 147 3 is_stmt 1 view .LVU75
 148:Src/usbd_composite.c ****   return USBD_CMPSIT_StrDesc;
 334              		.loc 1 148 3 view .LVU76
 335 0004 034C     		ldr	r4, .L32
 336 0006 2146     		mov	r1, r4
 337              	.LVL22:
 148:Src/usbd_composite.c ****   return USBD_CMPSIT_StrDesc;
 338              		.loc 1 148 3 is_stmt 0 view .LVU77
 339 0008 0348     		ldr	r0, .L32+4
 340              	.LVL23:
 148:Src/usbd_composite.c ****   return USBD_CMPSIT_StrDesc;
 341              		.loc 1 148 3 view .LVU78
 342 000a FFF7FEFF 		bl	USBD_GetString
 343              	.LVL24:
 149:Src/usbd_composite.c **** }
 344              		.loc 1 149 3 is_stmt 1 view .LVU79
 150:Src/usbd_composite.c **** 
 345              		.loc 1 150 1 is_stmt 0 view .LVU80
 346 000e 2046     		mov	r0, r4
 347 0010 10BD     		pop	{r4, pc}
 348              	.L33:
 349 0012 00BF     		.align	2
 350              	.L32:
 351 0014 00000000 		.word	.LANCHOR4
 352 0018 00000000 		.word	.LC0
 353              		.cfi_endproc
 354              	.LFE136:
 356              		.section	.rodata.USBD_CMPSIT_FS_ProductStrDescriptor.str1.4,"aMS",%progbits,1
 357              		.align	2
 358              	.LC1:
 359 0000 53544D33 		.ascii	"STM32 composite product\000"
 359      3220636F 
 359      6D706F73 
 359      69746520 
 359      70726F64 
 360              		.section	.text.USBD_CMPSIT_FS_ProductStrDescriptor,"ax",%progbits
 361              		.align	1
 362              		.global	USBD_CMPSIT_FS_ProductStrDescriptor
 363              		.syntax unified
 364              		.thumb
ARM GAS  C:\Users\ADMINI~1\AppData\Local\Temp\cc0Pcyme.s 			page 19


 365              		.thumb_func
 367              	USBD_CMPSIT_FS_ProductStrDescriptor:
 368              	.LVL25:
 369              	.LFB137:
 153:Src/usbd_composite.c ****   if(speed == 0)
 370              		.loc 1 153 1 is_stmt 1 view -0
 371              		.cfi_startproc
 372              		@ args = 0, pretend = 0, frame = 0
 373              		@ frame_needed = 0, uses_anonymous_args = 0
 153:Src/usbd_composite.c ****   if(speed == 0)
 374              		.loc 1 153 1 is_stmt 0 view .LVU82
 375 0000 08B5     		push	{r3, lr}
 376              	.LCFI5:
 377              		.cfi_def_cfa_offset 8
 378              		.cfi_offset 3, -8
 379              		.cfi_offset 14, -4
 380 0002 0A46     		mov	r2, r1
 154:Src/usbd_composite.c ****   {
 381              		.loc 1 154 3 is_stmt 1 view .LVU83
 154:Src/usbd_composite.c ****   {
 382              		.loc 1 154 5 is_stmt 0 view .LVU84
 383 0004 28B9     		cbnz	r0, .L35
 156:Src/usbd_composite.c ****   }
 384              		.loc 1 156 5 is_stmt 1 view .LVU85
 385 0006 0549     		ldr	r1, .L38
 386              	.LVL26:
 156:Src/usbd_composite.c ****   }
 387              		.loc 1 156 5 is_stmt 0 view .LVU86
 388 0008 0548     		ldr	r0, .L38+4
 389              	.LVL27:
 156:Src/usbd_composite.c ****   }
 390              		.loc 1 156 5 view .LVU87
 391 000a FFF7FEFF 		bl	USBD_GetString
 392              	.LVL28:
 393              	.L36:
 162:Src/usbd_composite.c **** }
 394              		.loc 1 162 3 is_stmt 1 view .LVU88
 163:Src/usbd_composite.c **** 
 395              		.loc 1 163 1 is_stmt 0 view .LVU89
 396 000e 0348     		ldr	r0, .L38
 397 0010 08BD     		pop	{r3, pc}
 398              	.LVL29:
 399              	.L35:
 160:Src/usbd_composite.c ****   }
 400              		.loc 1 160 5 is_stmt 1 view .LVU90
 401 0012 0249     		ldr	r1, .L38
 402              	.LVL30:
 160:Src/usbd_composite.c ****   }
 403              		.loc 1 160 5 is_stmt 0 view .LVU91
 404 0014 0248     		ldr	r0, .L38+4
 405              	.LVL31:
 160:Src/usbd_composite.c ****   }
 406              		.loc 1 160 5 view .LVU92
 407 0016 FFF7FEFF 		bl	USBD_GetString
 408              	.LVL32:
 160:Src/usbd_composite.c ****   }
 409              		.loc 1 160 5 view .LVU93
ARM GAS  C:\Users\ADMINI~1\AppData\Local\Temp\cc0Pcyme.s 			page 20


 410 001a F8E7     		b	.L36
 411              	.L39:
 412              		.align	2
 413              	.L38:
 414 001c 00000000 		.word	.LANCHOR4
 415 0020 00000000 		.word	.LC1
 416              		.cfi_endproc
 417              	.LFE137:
 419              		.section	.rodata.USBD_CMPSIT_FS_InterfaceStrDescriptor.str1.4,"aMS",%progbits,1
 420              		.align	2
 421              	.LC2:
 422 0000 436F6D70 		.ascii	"Composite Interface\000"
 422      6F736974 
 422      6520496E 
 422      74657266 
 422      61636500 
 423              		.section	.text.USBD_CMPSIT_FS_InterfaceStrDescriptor,"ax",%progbits
 424              		.align	1
 425              		.global	USBD_CMPSIT_FS_InterfaceStrDescriptor
 426              		.syntax unified
 427              		.thumb
 428              		.thumb_func
 430              	USBD_CMPSIT_FS_InterfaceStrDescriptor:
 431              	.LVL33:
 432              	.LFB141:
 216:Src/usbd_composite.c ****   if(speed == 0)
 433              		.loc 1 216 1 is_stmt 1 view -0
 434              		.cfi_startproc
 435              		@ args = 0, pretend = 0, frame = 0
 436              		@ frame_needed = 0, uses_anonymous_args = 0
 216:Src/usbd_composite.c ****   if(speed == 0)
 437              		.loc 1 216 1 is_stmt 0 view .LVU95
 438 0000 08B5     		push	{r3, lr}
 439              	.LCFI6:
 440              		.cfi_def_cfa_offset 8
 441              		.cfi_offset 3, -8
 442              		.cfi_offset 14, -4
 443 0002 0A46     		mov	r2, r1
 217:Src/usbd_composite.c ****   {
 444              		.loc 1 217 3 is_stmt 1 view .LVU96
 217:Src/usbd_composite.c ****   {
 445              		.loc 1 217 5 is_stmt 0 view .LVU97
 446 0004 28B9     		cbnz	r0, .L41
 219:Src/usbd_composite.c ****   }
 447              		.loc 1 219 5 is_stmt 1 view .LVU98
 448 0006 0549     		ldr	r1, .L44
 449              	.LVL34:
 219:Src/usbd_composite.c ****   }
 450              		.loc 1 219 5 is_stmt 0 view .LVU99
 451 0008 0548     		ldr	r0, .L44+4
 452              	.LVL35:
 219:Src/usbd_composite.c ****   }
 453              		.loc 1 219 5 view .LVU100
 454 000a FFF7FEFF 		bl	USBD_GetString
 455              	.LVL36:
 456              	.L42:
 225:Src/usbd_composite.c **** }
ARM GAS  C:\Users\ADMINI~1\AppData\Local\Temp\cc0Pcyme.s 			page 21


 457              		.loc 1 225 3 is_stmt 1 view .LVU101
 226:Src/usbd_composite.c **** 
 458              		.loc 1 226 1 is_stmt 0 view .LVU102
 459 000e 0348     		ldr	r0, .L44
 460 0010 08BD     		pop	{r3, pc}
 461              	.LVL37:
 462              	.L41:
 223:Src/usbd_composite.c ****   }
 463              		.loc 1 223 5 is_stmt 1 view .LVU103
 464 0012 0249     		ldr	r1, .L44
 465              	.LVL38:
 223:Src/usbd_composite.c ****   }
 466              		.loc 1 223 5 is_stmt 0 view .LVU104
 467 0014 0248     		ldr	r0, .L44+4
 468              	.LVL39:
 223:Src/usbd_composite.c ****   }
 469              		.loc 1 223 5 view .LVU105
 470 0016 FFF7FEFF 		bl	USBD_GetString
 471              	.LVL40:
 223:Src/usbd_composite.c ****   }
 472              		.loc 1 223 5 view .LVU106
 473 001a F8E7     		b	.L42
 474              	.L45:
 475              		.align	2
 476              	.L44:
 477 001c 00000000 		.word	.LANCHOR4
 478 0020 00000000 		.word	.LC2
 479              		.cfi_endproc
 480              	.LFE141:
 482              		.section	.rodata.USBD_CMPSIT_FS_ConfigStrDescriptor.str1.4,"aMS",%progbits,1
 483              		.align	2
 484              	.LC3:
 485 0000 436F6D70 		.ascii	"Composite Config\000"
 485      6F736974 
 485      6520436F 
 485      6E666967 
 485      00
 486              		.section	.text.USBD_CMPSIT_FS_ConfigStrDescriptor,"ax",%progbits
 487              		.align	1
 488              		.global	USBD_CMPSIT_FS_ConfigStrDescriptor
 489              		.syntax unified
 490              		.thumb
 491              		.thumb_func
 493              	USBD_CMPSIT_FS_ConfigStrDescriptor:
 494              	.LVL41:
 495              	.LFB142:
 230:Src/usbd_composite.c ****   if(speed == USBD_SPEED_HIGH)
 496              		.loc 1 230 1 is_stmt 1 view -0
 497              		.cfi_startproc
 498              		@ args = 0, pretend = 0, frame = 0
 499              		@ frame_needed = 0, uses_anonymous_args = 0
 230:Src/usbd_composite.c ****   if(speed == USBD_SPEED_HIGH)
 500              		.loc 1 230 1 is_stmt 0 view .LVU108
 501 0000 08B5     		push	{r3, lr}
 502              	.LCFI7:
 503              		.cfi_def_cfa_offset 8
 504              		.cfi_offset 3, -8
ARM GAS  C:\Users\ADMINI~1\AppData\Local\Temp\cc0Pcyme.s 			page 22


 505              		.cfi_offset 14, -4
 506 0002 0A46     		mov	r2, r1
 231:Src/usbd_composite.c ****   {
 507              		.loc 1 231 3 is_stmt 1 view .LVU109
 231:Src/usbd_composite.c ****   {
 508              		.loc 1 231 5 is_stmt 0 view .LVU110
 509 0004 28B9     		cbnz	r0, .L47
 233:Src/usbd_composite.c ****   }
 510              		.loc 1 233 5 is_stmt 1 view .LVU111
 511 0006 0549     		ldr	r1, .L50
 512              	.LVL42:
 233:Src/usbd_composite.c ****   }
 513              		.loc 1 233 5 is_stmt 0 view .LVU112
 514 0008 0548     		ldr	r0, .L50+4
 515              	.LVL43:
 233:Src/usbd_composite.c ****   }
 516              		.loc 1 233 5 view .LVU113
 517 000a FFF7FEFF 		bl	USBD_GetString
 518              	.LVL44:
 519              	.L48:
 239:Src/usbd_composite.c **** }
 520              		.loc 1 239 3 is_stmt 1 view .LVU114
 240:Src/usbd_composite.c **** 
 521              		.loc 1 240 1 is_stmt 0 view .LVU115
 522 000e 0348     		ldr	r0, .L50
 523 0010 08BD     		pop	{r3, pc}
 524              	.LVL45:
 525              	.L47:
 237:Src/usbd_composite.c ****   }
 526              		.loc 1 237 5 is_stmt 1 view .LVU116
 527 0012 0249     		ldr	r1, .L50
 528              	.LVL46:
 237:Src/usbd_composite.c ****   }
 529              		.loc 1 237 5 is_stmt 0 view .LVU117
 530 0014 0248     		ldr	r0, .L50+4
 531              	.LVL47:
 237:Src/usbd_composite.c ****   }
 532              		.loc 1 237 5 view .LVU118
 533 0016 FFF7FEFF 		bl	USBD_GetString
 534              	.LVL48:
 237:Src/usbd_composite.c ****   }
 535              		.loc 1 237 5 view .LVU119
 536 001a F8E7     		b	.L48
 537              	.L51:
 538              		.align	2
 539              	.L50:
 540 001c 00000000 		.word	.LANCHOR4
 541 0020 00000000 		.word	.LC3
 542              		.cfi_endproc
 543              	.LFE142:
 545              		.section	.text.USBD_CMPSIT_GetOtherSpeedCfgDesc,"ax",%progbits
 546              		.align	1
 547              		.syntax unified
 548              		.thumb
 549              		.thumb_func
 551              	USBD_CMPSIT_GetOtherSpeedCfgDesc:
 552              	.LVL49:
ARM GAS  C:\Users\ADMINI~1\AppData\Local\Temp\cc0Pcyme.s 			page 23


 553              	.LFB147:
 608:Src/usbd_composite.c ****   USBD_EpDescTypeDef *pMscEpOutDesc = USBD_GetEpDesc(USBD_CMPSIT_CfgDesc, MSC_EPOUT_ADDR);
 554              		.loc 1 608 1 is_stmt 1 view -0
 555              		.cfi_startproc
 556              		@ args = 0, pretend = 0, frame = 0
 557              		@ frame_needed = 0, uses_anonymous_args = 0
 608:Src/usbd_composite.c ****   USBD_EpDescTypeDef *pMscEpOutDesc = USBD_GetEpDesc(USBD_CMPSIT_CfgDesc, MSC_EPOUT_ADDR);
 558              		.loc 1 608 1 is_stmt 0 view .LVU121
 559 0000 2DE9F843 		push	{r3, r4, r5, r6, r7, r8, r9, lr}
 560              	.LCFI8:
 561              		.cfi_def_cfa_offset 32
 562              		.cfi_offset 3, -32
 563              		.cfi_offset 4, -28
 564              		.cfi_offset 5, -24
 565              		.cfi_offset 6, -20
 566              		.cfi_offset 7, -16
 567              		.cfi_offset 8, -12
 568              		.cfi_offset 9, -8
 569              		.cfi_offset 14, -4
 570 0004 8146     		mov	r9, r0
 609:Src/usbd_composite.c ****   USBD_EpDescTypeDef *pMscEpInDesc = USBD_GetEpDesc(USBD_CMPSIT_CfgDesc, MSC_EPIN_ADDR);  
 571              		.loc 1 609 3 is_stmt 1 view .LVU122
 609:Src/usbd_composite.c ****   USBD_EpDescTypeDef *pMscEpInDesc = USBD_GetEpDesc(USBD_CMPSIT_CfgDesc, MSC_EPIN_ADDR);  
 572              		.loc 1 609 39 is_stmt 0 view .LVU123
 573 0006 1C4C     		ldr	r4, .L59
 574 0008 0321     		movs	r1, #3
 575 000a 2046     		mov	r0, r4
 576              	.LVL50:
 609:Src/usbd_composite.c ****   USBD_EpDescTypeDef *pMscEpInDesc = USBD_GetEpDesc(USBD_CMPSIT_CfgDesc, MSC_EPIN_ADDR);  
 577              		.loc 1 609 39 view .LVU124
 578 000c FFF7FEFF 		bl	USBD_GetEpDesc
 579              	.LVL51:
 580 0010 0646     		mov	r6, r0
 581              	.LVL52:
 610:Src/usbd_composite.c **** 
 582              		.loc 1 610 3 is_stmt 1 view .LVU125
 610:Src/usbd_composite.c **** 
 583              		.loc 1 610 38 is_stmt 0 view .LVU126
 584 0012 8321     		movs	r1, #131
 585 0014 2046     		mov	r0, r4
 586              	.LVL53:
 610:Src/usbd_composite.c **** 
 587              		.loc 1 610 38 view .LVU127
 588 0016 FFF7FEFF 		bl	USBD_GetEpDesc
 589              	.LVL54:
 590 001a 0546     		mov	r5, r0
 591              	.LVL55:
 612:Src/usbd_composite.c ****   USBD_EpDescTypeDef *pCdcEpOutDesc = USBD_GetEpDesc(USBD_CMPSIT_CfgDesc, CDC_OUT_EP);
 592              		.loc 1 612 3 is_stmt 1 view .LVU128
 612:Src/usbd_composite.c ****   USBD_EpDescTypeDef *pCdcEpOutDesc = USBD_GetEpDesc(USBD_CMPSIT_CfgDesc, CDC_OUT_EP);
 593              		.loc 1 612 39 is_stmt 0 view .LVU129
 594 001c 8221     		movs	r1, #130
 595 001e 2046     		mov	r0, r4
 596              	.LVL56:
 612:Src/usbd_composite.c ****   USBD_EpDescTypeDef *pCdcEpOutDesc = USBD_GetEpDesc(USBD_CMPSIT_CfgDesc, CDC_OUT_EP);
 597              		.loc 1 612 39 view .LVU130
 598 0020 FFF7FEFF 		bl	USBD_GetEpDesc
ARM GAS  C:\Users\ADMINI~1\AppData\Local\Temp\cc0Pcyme.s 			page 24


 599              	.LVL57:
 600 0024 8046     		mov	r8, r0
 601              	.LVL58:
 613:Src/usbd_composite.c ****   USBD_EpDescTypeDef *pCdcEpInDesc = USBD_GetEpDesc(USBD_CMPSIT_CfgDesc, CDC_IN_EP);
 602              		.loc 1 613 3 is_stmt 1 view .LVU131
 613:Src/usbd_composite.c ****   USBD_EpDescTypeDef *pCdcEpInDesc = USBD_GetEpDesc(USBD_CMPSIT_CfgDesc, CDC_IN_EP);
 603              		.loc 1 613 39 is_stmt 0 view .LVU132
 604 0026 0121     		movs	r1, #1
 605 0028 2046     		mov	r0, r4
 606              	.LVL59:
 613:Src/usbd_composite.c ****   USBD_EpDescTypeDef *pCdcEpInDesc = USBD_GetEpDesc(USBD_CMPSIT_CfgDesc, CDC_IN_EP);
 607              		.loc 1 613 39 view .LVU133
 608 002a FFF7FEFF 		bl	USBD_GetEpDesc
 609              	.LVL60:
 610 002e 0746     		mov	r7, r0
 611              	.LVL61:
 614:Src/usbd_composite.c **** 
 612              		.loc 1 614 3 is_stmt 1 view .LVU134
 614:Src/usbd_composite.c **** 
 613              		.loc 1 614 38 is_stmt 0 view .LVU135
 614 0030 8121     		movs	r1, #129
 615 0032 2046     		mov	r0, r4
 616              	.LVL62:
 614:Src/usbd_composite.c **** 
 617              		.loc 1 614 38 view .LVU136
 618 0034 FFF7FEFF 		bl	USBD_GetEpDesc
 619              	.LVL63:
 616:Src/usbd_composite.c ****   {
 620              		.loc 1 616 3 is_stmt 1 view .LVU137
 616:Src/usbd_composite.c ****   {
 621              		.loc 1 616 6 is_stmt 0 view .LVU138
 622 0038 B8F1000F 		cmp	r8, #0
 623 003c 02D0     		beq	.L53
 618:Src/usbd_composite.c ****   }
 624              		.loc 1 618 5 is_stmt 1 view .LVU139
 618:Src/usbd_composite.c ****   }
 625              		.loc 1 618 30 is_stmt 0 view .LVU140
 626 003e 1022     		movs	r2, #16
 627 0040 88F80620 		strb	r2, [r8, #6]
 628              	.L53:
 621:Src/usbd_composite.c ****   {
 629              		.loc 1 621 3 is_stmt 1 view .LVU141
 621:Src/usbd_composite.c ****   {
 630              		.loc 1 621 6 is_stmt 0 view .LVU142
 631 0044 1FB1     		cbz	r7, .L54
 623:Src/usbd_composite.c ****   }
 632              		.loc 1 623 5 is_stmt 1 view .LVU143
 623:Src/usbd_composite.c ****   }
 633              		.loc 1 623 35 is_stmt 0 view .LVU144
 634 0046 4022     		movs	r2, #64
 635 0048 3A71     		strb	r2, [r7, #4]
 636 004a 0022     		movs	r2, #0
 637 004c 7A71     		strb	r2, [r7, #5]
 638              	.L54:
 626:Src/usbd_composite.c ****   {
 639              		.loc 1 626 3 is_stmt 1 view .LVU145
 626:Src/usbd_composite.c ****   {
ARM GAS  C:\Users\ADMINI~1\AppData\Local\Temp\cc0Pcyme.s 			page 25


 640              		.loc 1 626 6 is_stmt 0 view .LVU146
 641 004e 18B1     		cbz	r0, .L55
 628:Src/usbd_composite.c ****   }
 642              		.loc 1 628 5 is_stmt 1 view .LVU147
 628:Src/usbd_composite.c ****   }
 643              		.loc 1 628 34 is_stmt 0 view .LVU148
 644 0050 4022     		movs	r2, #64
 645 0052 0271     		strb	r2, [r0, #4]
 646 0054 0022     		movs	r2, #0
 647 0056 4271     		strb	r2, [r0, #5]
 648              	.L55:
 631:Src/usbd_composite.c ****   {
 649              		.loc 1 631 3 is_stmt 1 view .LVU149
 631:Src/usbd_composite.c ****   {
 650              		.loc 1 631 6 is_stmt 0 view .LVU150
 651 0058 1EB1     		cbz	r6, .L56
 633:Src/usbd_composite.c ****   }
 652              		.loc 1 633 5 is_stmt 1 view .LVU151
 633:Src/usbd_composite.c ****   }
 653              		.loc 1 633 35 is_stmt 0 view .LVU152
 654 005a 4023     		movs	r3, #64
 655 005c 3371     		strb	r3, [r6, #4]
 656 005e 0023     		movs	r3, #0
 657 0060 7371     		strb	r3, [r6, #5]
 658              	.L56:
 636:Src/usbd_composite.c ****   {
 659              		.loc 1 636 3 is_stmt 1 view .LVU153
 636:Src/usbd_composite.c ****   {
 660              		.loc 1 636 6 is_stmt 0 view .LVU154
 661 0062 1DB1     		cbz	r5, .L57
 638:Src/usbd_composite.c ****   }
 662              		.loc 1 638 5 is_stmt 1 view .LVU155
 638:Src/usbd_composite.c ****   }
 663              		.loc 1 638 34 is_stmt 0 view .LVU156
 664 0064 4023     		movs	r3, #64
 665 0066 2B71     		strb	r3, [r5, #4]
 666 0068 0023     		movs	r3, #0
 667 006a 6B71     		strb	r3, [r5, #5]
 668              	.L57:
 640:Src/usbd_composite.c ****   return USBD_CMPSIT_CfgDesc;
 669              		.loc 1 640 3 is_stmt 1 view .LVU157
 640:Src/usbd_composite.c ****   return USBD_CMPSIT_CfgDesc;
 670              		.loc 1 640 11 is_stmt 0 view .LVU158
 671 006c 6A23     		movs	r3, #106
 672 006e A9F80030 		strh	r3, [r9]	@ movhi
 641:Src/usbd_composite.c **** }
 673              		.loc 1 641 3 is_stmt 1 view .LVU159
 642:Src/usbd_composite.c **** uint8_t *USBD_CMPSIT_GetDeviceQualifierDescriptor(uint16_t *length)
 674              		.loc 1 642 1 is_stmt 0 view .LVU160
 675 0072 0148     		ldr	r0, .L59
 676              	.LVL64:
 642:Src/usbd_composite.c **** uint8_t *USBD_CMPSIT_GetDeviceQualifierDescriptor(uint16_t *length)
 677              		.loc 1 642 1 view .LVU161
 678 0074 BDE8F883 		pop	{r3, r4, r5, r6, r7, r8, r9, pc}
 679              	.LVL65:
 680              	.L60:
 642:Src/usbd_composite.c **** uint8_t *USBD_CMPSIT_GetDeviceQualifierDescriptor(uint16_t *length)
ARM GAS  C:\Users\ADMINI~1\AppData\Local\Temp\cc0Pcyme.s 			page 26


 681              		.loc 1 642 1 view .LVU162
 682              		.align	2
 683              	.L59:
 684 0078 00000000 		.word	.LANCHOR5
 685              		.cfi_endproc
 686              	.LFE147:
 688              		.section	.text.USBD_CMPSIT_GetFSCfgDesc,"ax",%progbits
 689              		.align	1
 690              		.syntax unified
 691              		.thumb
 692              		.thumb_func
 694              	USBD_CMPSIT_GetFSCfgDesc:
 695              	.LVL66:
 696              	.LFB145:
 535:Src/usbd_composite.c **** 	USBD_EpDescTypeDef *pMscEpOutDesc = USBD_GetEpDesc(USBD_CMPSIT_CfgDesc, MSC_EPOUT_ADDR);
 697              		.loc 1 535 1 is_stmt 1 view -0
 698              		.cfi_startproc
 699              		@ args = 0, pretend = 0, frame = 0
 700              		@ frame_needed = 0, uses_anonymous_args = 0
 535:Src/usbd_composite.c **** 	USBD_EpDescTypeDef *pMscEpOutDesc = USBD_GetEpDesc(USBD_CMPSIT_CfgDesc, MSC_EPOUT_ADDR);
 701              		.loc 1 535 1 is_stmt 0 view .LVU164
 702 0000 2DE9F843 		push	{r3, r4, r5, r6, r7, r8, r9, lr}
 703              	.LCFI9:
 704              		.cfi_def_cfa_offset 32
 705              		.cfi_offset 3, -32
 706              		.cfi_offset 4, -28
 707              		.cfi_offset 5, -24
 708              		.cfi_offset 6, -20
 709              		.cfi_offset 7, -16
 710              		.cfi_offset 8, -12
 711              		.cfi_offset 9, -8
 712              		.cfi_offset 14, -4
 713 0004 8146     		mov	r9, r0
 536:Src/usbd_composite.c ****   USBD_EpDescTypeDef *pMscEpInDesc = USBD_GetEpDesc(USBD_CMPSIT_CfgDesc, MSC_EPIN_ADDR);  
 714              		.loc 1 536 2 is_stmt 1 view .LVU165
 536:Src/usbd_composite.c ****   USBD_EpDescTypeDef *pMscEpInDesc = USBD_GetEpDesc(USBD_CMPSIT_CfgDesc, MSC_EPIN_ADDR);  
 715              		.loc 1 536 38 is_stmt 0 view .LVU166
 716 0006 1C4C     		ldr	r4, .L68
 717 0008 0321     		movs	r1, #3
 718 000a 2046     		mov	r0, r4
 719              	.LVL67:
 536:Src/usbd_composite.c ****   USBD_EpDescTypeDef *pMscEpInDesc = USBD_GetEpDesc(USBD_CMPSIT_CfgDesc, MSC_EPIN_ADDR);  
 720              		.loc 1 536 38 view .LVU167
 721 000c FFF7FEFF 		bl	USBD_GetEpDesc
 722              	.LVL68:
 723 0010 0646     		mov	r6, r0
 724              	.LVL69:
 537:Src/usbd_composite.c **** 
 725              		.loc 1 537 3 is_stmt 1 view .LVU168
 537:Src/usbd_composite.c **** 
 726              		.loc 1 537 38 is_stmt 0 view .LVU169
 727 0012 8321     		movs	r1, #131
 728 0014 2046     		mov	r0, r4
 729              	.LVL70:
 537:Src/usbd_composite.c **** 
 730              		.loc 1 537 38 view .LVU170
 731 0016 FFF7FEFF 		bl	USBD_GetEpDesc
ARM GAS  C:\Users\ADMINI~1\AppData\Local\Temp\cc0Pcyme.s 			page 27


 732              	.LVL71:
 733 001a 0546     		mov	r5, r0
 734              	.LVL72:
 539:Src/usbd_composite.c ****   USBD_EpDescTypeDef *pCdcEpOutDesc = USBD_GetEpDesc(USBD_CMPSIT_CfgDesc, CDC_OUT_EP);
 735              		.loc 1 539 3 is_stmt 1 view .LVU171
 539:Src/usbd_composite.c ****   USBD_EpDescTypeDef *pCdcEpOutDesc = USBD_GetEpDesc(USBD_CMPSIT_CfgDesc, CDC_OUT_EP);
 736              		.loc 1 539 39 is_stmt 0 view .LVU172
 737 001c 8221     		movs	r1, #130
 738 001e 2046     		mov	r0, r4
 739              	.LVL73:
 539:Src/usbd_composite.c ****   USBD_EpDescTypeDef *pCdcEpOutDesc = USBD_GetEpDesc(USBD_CMPSIT_CfgDesc, CDC_OUT_EP);
 740              		.loc 1 539 39 view .LVU173
 741 0020 FFF7FEFF 		bl	USBD_GetEpDesc
 742              	.LVL74:
 743 0024 8046     		mov	r8, r0
 744              	.LVL75:
 540:Src/usbd_composite.c ****   USBD_EpDescTypeDef *pCdcEpInDesc = USBD_GetEpDesc(USBD_CMPSIT_CfgDesc, CDC_IN_EP);
 745              		.loc 1 540 3 is_stmt 1 view .LVU174
 540:Src/usbd_composite.c ****   USBD_EpDescTypeDef *pCdcEpInDesc = USBD_GetEpDesc(USBD_CMPSIT_CfgDesc, CDC_IN_EP);
 746              		.loc 1 540 39 is_stmt 0 view .LVU175
 747 0026 0121     		movs	r1, #1
 748 0028 2046     		mov	r0, r4
 749              	.LVL76:
 540:Src/usbd_composite.c ****   USBD_EpDescTypeDef *pCdcEpInDesc = USBD_GetEpDesc(USBD_CMPSIT_CfgDesc, CDC_IN_EP);
 750              		.loc 1 540 39 view .LVU176
 751 002a FFF7FEFF 		bl	USBD_GetEpDesc
 752              	.LVL77:
 753 002e 0746     		mov	r7, r0
 754              	.LVL78:
 541:Src/usbd_composite.c **** 
 755              		.loc 1 541 3 is_stmt 1 view .LVU177
 541:Src/usbd_composite.c **** 
 756              		.loc 1 541 38 is_stmt 0 view .LVU178
 757 0030 8121     		movs	r1, #129
 758 0032 2046     		mov	r0, r4
 759              	.LVL79:
 541:Src/usbd_composite.c **** 
 760              		.loc 1 541 38 view .LVU179
 761 0034 FFF7FEFF 		bl	USBD_GetEpDesc
 762              	.LVL80:
 543:Src/usbd_composite.c ****   {
 763              		.loc 1 543 3 is_stmt 1 view .LVU180
 543:Src/usbd_composite.c ****   {
 764              		.loc 1 543 6 is_stmt 0 view .LVU181
 765 0038 B8F1000F 		cmp	r8, #0
 766 003c 02D0     		beq	.L62
 545:Src/usbd_composite.c ****   }
 767              		.loc 1 545 5 is_stmt 1 view .LVU182
 545:Src/usbd_composite.c ****   }
 768              		.loc 1 545 30 is_stmt 0 view .LVU183
 769 003e 1022     		movs	r2, #16
 770 0040 88F80620 		strb	r2, [r8, #6]
 771              	.L62:
 548:Src/usbd_composite.c ****   {
 772              		.loc 1 548 3 is_stmt 1 view .LVU184
 548:Src/usbd_composite.c ****   {
 773              		.loc 1 548 6 is_stmt 0 view .LVU185
ARM GAS  C:\Users\ADMINI~1\AppData\Local\Temp\cc0Pcyme.s 			page 28


 774 0044 1FB1     		cbz	r7, .L63
 550:Src/usbd_composite.c ****   }
 775              		.loc 1 550 5 is_stmt 1 view .LVU186
 550:Src/usbd_composite.c ****   }
 776              		.loc 1 550 35 is_stmt 0 view .LVU187
 777 0046 4022     		movs	r2, #64
 778 0048 3A71     		strb	r2, [r7, #4]
 779 004a 0022     		movs	r2, #0
 780 004c 7A71     		strb	r2, [r7, #5]
 781              	.L63:
 553:Src/usbd_composite.c ****   {
 782              		.loc 1 553 3 is_stmt 1 view .LVU188
 553:Src/usbd_composite.c ****   {
 783              		.loc 1 553 6 is_stmt 0 view .LVU189
 784 004e 18B1     		cbz	r0, .L64
 555:Src/usbd_composite.c ****   }
 785              		.loc 1 555 5 is_stmt 1 view .LVU190
 555:Src/usbd_composite.c ****   }
 786              		.loc 1 555 34 is_stmt 0 view .LVU191
 787 0050 4022     		movs	r2, #64
 788 0052 0271     		strb	r2, [r0, #4]
 789 0054 0022     		movs	r2, #0
 790 0056 4271     		strb	r2, [r0, #5]
 791              	.L64:
 558:Src/usbd_composite.c ****   {
 792              		.loc 1 558 3 is_stmt 1 view .LVU192
 558:Src/usbd_composite.c ****   {
 793              		.loc 1 558 6 is_stmt 0 view .LVU193
 794 0058 1EB1     		cbz	r6, .L65
 560:Src/usbd_composite.c ****   }
 795              		.loc 1 560 5 is_stmt 1 view .LVU194
 560:Src/usbd_composite.c ****   }
 796              		.loc 1 560 35 is_stmt 0 view .LVU195
 797 005a 4023     		movs	r3, #64
 798 005c 3371     		strb	r3, [r6, #4]
 799 005e 0023     		movs	r3, #0
 800 0060 7371     		strb	r3, [r6, #5]
 801              	.L65:
 563:Src/usbd_composite.c ****   {
 802              		.loc 1 563 3 is_stmt 1 view .LVU196
 563:Src/usbd_composite.c ****   {
 803              		.loc 1 563 6 is_stmt 0 view .LVU197
 804 0062 1DB1     		cbz	r5, .L66
 565:Src/usbd_composite.c ****   }
 805              		.loc 1 565 5 is_stmt 1 view .LVU198
 565:Src/usbd_composite.c ****   }
 806              		.loc 1 565 34 is_stmt 0 view .LVU199
 807 0064 4023     		movs	r3, #64
 808 0066 2B71     		strb	r3, [r5, #4]
 809 0068 0023     		movs	r3, #0
 810 006a 6B71     		strb	r3, [r5, #5]
 811              	.L66:
 568:Src/usbd_composite.c **** 	return USBD_CMPSIT_CfgDesc;
 812              		.loc 1 568 2 is_stmt 1 view .LVU200
 568:Src/usbd_composite.c **** 	return USBD_CMPSIT_CfgDesc;
 813              		.loc 1 568 10 is_stmt 0 view .LVU201
 814 006c 6A23     		movs	r3, #106
ARM GAS  C:\Users\ADMINI~1\AppData\Local\Temp\cc0Pcyme.s 			page 29


 815 006e A9F80030 		strh	r3, [r9]	@ movhi
 569:Src/usbd_composite.c **** }
 816              		.loc 1 569 2 is_stmt 1 view .LVU202
 570:Src/usbd_composite.c **** static uint8_t *USBD_CMPSIT_GetHSCfgDesc(uint16_t *length)
 817              		.loc 1 570 1 is_stmt 0 view .LVU203
 818 0072 0148     		ldr	r0, .L68
 819              	.LVL81:
 570:Src/usbd_composite.c **** static uint8_t *USBD_CMPSIT_GetHSCfgDesc(uint16_t *length)
 820              		.loc 1 570 1 view .LVU204
 821 0074 BDE8F883 		pop	{r3, r4, r5, r6, r7, r8, r9, pc}
 822              	.LVL82:
 823              	.L69:
 570:Src/usbd_composite.c **** static uint8_t *USBD_CMPSIT_GetHSCfgDesc(uint16_t *length)
 824              		.loc 1 570 1 view .LVU205
 825              		.align	2
 826              	.L68:
 827 0078 00000000 		.word	.LANCHOR5
 828              		.cfi_endproc
 829              	.LFE145:
 831              		.section	.text.USBD_CMPSIT_GetHSCfgDesc,"ax",%progbits
 832              		.align	1
 833              		.syntax unified
 834              		.thumb
 835              		.thumb_func
 837              	USBD_CMPSIT_GetHSCfgDesc:
 838              	.LVL83:
 839              	.LFB146:
 572:Src/usbd_composite.c ****   USBD_EpDescTypeDef *pMscEpOutDesc = USBD_GetEpDesc(USBD_CMPSIT_CfgDesc, MSC_EPOUT_ADDR);
 840              		.loc 1 572 1 is_stmt 1 view -0
 841              		.cfi_startproc
 842              		@ args = 0, pretend = 0, frame = 0
 843              		@ frame_needed = 0, uses_anonymous_args = 0
 572:Src/usbd_composite.c ****   USBD_EpDescTypeDef *pMscEpOutDesc = USBD_GetEpDesc(USBD_CMPSIT_CfgDesc, MSC_EPOUT_ADDR);
 844              		.loc 1 572 1 is_stmt 0 view .LVU207
 845 0000 2DE9F843 		push	{r3, r4, r5, r6, r7, r8, r9, lr}
 846              	.LCFI10:
 847              		.cfi_def_cfa_offset 32
 848              		.cfi_offset 3, -32
 849              		.cfi_offset 4, -28
 850              		.cfi_offset 5, -24
 851              		.cfi_offset 6, -20
 852              		.cfi_offset 7, -16
 853              		.cfi_offset 8, -12
 854              		.cfi_offset 9, -8
 855              		.cfi_offset 14, -4
 856 0004 8146     		mov	r9, r0
 573:Src/usbd_composite.c ****   USBD_EpDescTypeDef *pMscEpInDesc = USBD_GetEpDesc(USBD_CMPSIT_CfgDesc, MSC_EPIN_ADDR);  
 857              		.loc 1 573 3 is_stmt 1 view .LVU208
 573:Src/usbd_composite.c ****   USBD_EpDescTypeDef *pMscEpInDesc = USBD_GetEpDesc(USBD_CMPSIT_CfgDesc, MSC_EPIN_ADDR);  
 858              		.loc 1 573 39 is_stmt 0 view .LVU209
 859 0006 1C4C     		ldr	r4, .L77
 860 0008 0321     		movs	r1, #3
 861 000a 2046     		mov	r0, r4
 862              	.LVL84:
 573:Src/usbd_composite.c ****   USBD_EpDescTypeDef *pMscEpInDesc = USBD_GetEpDesc(USBD_CMPSIT_CfgDesc, MSC_EPIN_ADDR);  
 863              		.loc 1 573 39 view .LVU210
 864 000c FFF7FEFF 		bl	USBD_GetEpDesc
ARM GAS  C:\Users\ADMINI~1\AppData\Local\Temp\cc0Pcyme.s 			page 30


 865              	.LVL85:
 866 0010 0646     		mov	r6, r0
 867              	.LVL86:
 574:Src/usbd_composite.c **** 
 868              		.loc 1 574 3 is_stmt 1 view .LVU211
 574:Src/usbd_composite.c **** 
 869              		.loc 1 574 38 is_stmt 0 view .LVU212
 870 0012 8321     		movs	r1, #131
 871 0014 2046     		mov	r0, r4
 872              	.LVL87:
 574:Src/usbd_composite.c **** 
 873              		.loc 1 574 38 view .LVU213
 874 0016 FFF7FEFF 		bl	USBD_GetEpDesc
 875              	.LVL88:
 876 001a 0546     		mov	r5, r0
 877              	.LVL89:
 576:Src/usbd_composite.c ****   USBD_EpDescTypeDef *pCdcEpOutDesc = USBD_GetEpDesc(USBD_CMPSIT_CfgDesc, CDC_OUT_EP);
 878              		.loc 1 576 3 is_stmt 1 view .LVU214
 576:Src/usbd_composite.c ****   USBD_EpDescTypeDef *pCdcEpOutDesc = USBD_GetEpDesc(USBD_CMPSIT_CfgDesc, CDC_OUT_EP);
 879              		.loc 1 576 39 is_stmt 0 view .LVU215
 880 001c 8221     		movs	r1, #130
 881 001e 2046     		mov	r0, r4
 882              	.LVL90:
 576:Src/usbd_composite.c ****   USBD_EpDescTypeDef *pCdcEpOutDesc = USBD_GetEpDesc(USBD_CMPSIT_CfgDesc, CDC_OUT_EP);
 883              		.loc 1 576 39 view .LVU216
 884 0020 FFF7FEFF 		bl	USBD_GetEpDesc
 885              	.LVL91:
 886 0024 8046     		mov	r8, r0
 887              	.LVL92:
 577:Src/usbd_composite.c ****   USBD_EpDescTypeDef *pCdcEpInDesc = USBD_GetEpDesc(USBD_CMPSIT_CfgDesc, CDC_IN_EP);
 888              		.loc 1 577 3 is_stmt 1 view .LVU217
 577:Src/usbd_composite.c ****   USBD_EpDescTypeDef *pCdcEpInDesc = USBD_GetEpDesc(USBD_CMPSIT_CfgDesc, CDC_IN_EP);
 889              		.loc 1 577 39 is_stmt 0 view .LVU218
 890 0026 0121     		movs	r1, #1
 891 0028 2046     		mov	r0, r4
 892              	.LVL93:
 577:Src/usbd_composite.c ****   USBD_EpDescTypeDef *pCdcEpInDesc = USBD_GetEpDesc(USBD_CMPSIT_CfgDesc, CDC_IN_EP);
 893              		.loc 1 577 39 view .LVU219
 894 002a FFF7FEFF 		bl	USBD_GetEpDesc
 895              	.LVL94:
 896 002e 0746     		mov	r7, r0
 897              	.LVL95:
 578:Src/usbd_composite.c **** 
 898              		.loc 1 578 3 is_stmt 1 view .LVU220
 578:Src/usbd_composite.c **** 
 899              		.loc 1 578 38 is_stmt 0 view .LVU221
 900 0030 8121     		movs	r1, #129
 901 0032 2046     		mov	r0, r4
 902              	.LVL96:
 578:Src/usbd_composite.c **** 
 903              		.loc 1 578 38 view .LVU222
 904 0034 FFF7FEFF 		bl	USBD_GetEpDesc
 905              	.LVL97:
 580:Src/usbd_composite.c ****   {
 906              		.loc 1 580 3 is_stmt 1 view .LVU223
 580:Src/usbd_composite.c ****   {
 907              		.loc 1 580 6 is_stmt 0 view .LVU224
ARM GAS  C:\Users\ADMINI~1\AppData\Local\Temp\cc0Pcyme.s 			page 31


 908 0038 B8F1000F 		cmp	r8, #0
 909 003c 02D0     		beq	.L71
 582:Src/usbd_composite.c ****   }
 910              		.loc 1 582 5 is_stmt 1 view .LVU225
 582:Src/usbd_composite.c ****   }
 911              		.loc 1 582 30 is_stmt 0 view .LVU226
 912 003e 1022     		movs	r2, #16
 913 0040 88F80620 		strb	r2, [r8, #6]
 914              	.L71:
 585:Src/usbd_composite.c ****   {
 915              		.loc 1 585 3 is_stmt 1 view .LVU227
 585:Src/usbd_composite.c ****   {
 916              		.loc 1 585 6 is_stmt 0 view .LVU228
 917 0044 1FB1     		cbz	r7, .L72
 587:Src/usbd_composite.c ****   }
 918              		.loc 1 587 5 is_stmt 1 view .LVU229
 587:Src/usbd_composite.c ****   }
 919              		.loc 1 587 35 is_stmt 0 view .LVU230
 920 0046 0022     		movs	r2, #0
 921 0048 3A71     		strb	r2, [r7, #4]
 922 004a 0222     		movs	r2, #2
 923 004c 7A71     		strb	r2, [r7, #5]
 924              	.L72:
 590:Src/usbd_composite.c ****   {
 925              		.loc 1 590 3 is_stmt 1 view .LVU231
 590:Src/usbd_composite.c ****   {
 926              		.loc 1 590 6 is_stmt 0 view .LVU232
 927 004e 18B1     		cbz	r0, .L73
 592:Src/usbd_composite.c ****   }
 928              		.loc 1 592 5 is_stmt 1 view .LVU233
 592:Src/usbd_composite.c ****   }
 929              		.loc 1 592 34 is_stmt 0 view .LVU234
 930 0050 0022     		movs	r2, #0
 931 0052 0271     		strb	r2, [r0, #4]
 932 0054 0222     		movs	r2, #2
 933 0056 4271     		strb	r2, [r0, #5]
 934              	.L73:
 595:Src/usbd_composite.c ****   {
 935              		.loc 1 595 3 is_stmt 1 view .LVU235
 595:Src/usbd_composite.c ****   {
 936              		.loc 1 595 6 is_stmt 0 view .LVU236
 937 0058 1EB1     		cbz	r6, .L74
 597:Src/usbd_composite.c ****   }
 938              		.loc 1 597 5 is_stmt 1 view .LVU237
 597:Src/usbd_composite.c ****   }
 939              		.loc 1 597 35 is_stmt 0 view .LVU238
 940 005a 0023     		movs	r3, #0
 941 005c 3371     		strb	r3, [r6, #4]
 942 005e 0223     		movs	r3, #2
 943 0060 7371     		strb	r3, [r6, #5]
 944              	.L74:
 600:Src/usbd_composite.c ****   {
 945              		.loc 1 600 3 is_stmt 1 view .LVU239
 600:Src/usbd_composite.c ****   {
 946              		.loc 1 600 6 is_stmt 0 view .LVU240
 947 0062 1DB1     		cbz	r5, .L75
 602:Src/usbd_composite.c ****   }
ARM GAS  C:\Users\ADMINI~1\AppData\Local\Temp\cc0Pcyme.s 			page 32


 948              		.loc 1 602 5 is_stmt 1 view .LVU241
 602:Src/usbd_composite.c ****   }
 949              		.loc 1 602 34 is_stmt 0 view .LVU242
 950 0064 0023     		movs	r3, #0
 951 0066 2B71     		strb	r3, [r5, #4]
 952 0068 0223     		movs	r3, #2
 953 006a 6B71     		strb	r3, [r5, #5]
 954              	.L75:
 604:Src/usbd_composite.c **** 	return USBD_CMPSIT_CfgDesc;
 955              		.loc 1 604 3 is_stmt 1 view .LVU243
 604:Src/usbd_composite.c **** 	return USBD_CMPSIT_CfgDesc;
 956              		.loc 1 604 11 is_stmt 0 view .LVU244
 957 006c 6A23     		movs	r3, #106
 958 006e A9F80030 		strh	r3, [r9]	@ movhi
 605:Src/usbd_composite.c **** }
 959              		.loc 1 605 2 is_stmt 1 view .LVU245
 606:Src/usbd_composite.c **** static uint8_t *USBD_CMPSIT_GetOtherSpeedCfgDesc(uint16_t *length)
 960              		.loc 1 606 1 is_stmt 0 view .LVU246
 961 0072 0148     		ldr	r0, .L77
 962              	.LVL98:
 606:Src/usbd_composite.c **** static uint8_t *USBD_CMPSIT_GetOtherSpeedCfgDesc(uint16_t *length)
 963              		.loc 1 606 1 view .LVU247
 964 0074 BDE8F883 		pop	{r3, r4, r5, r6, r7, r8, r9, pc}
 965              	.LVL99:
 966              	.L78:
 606:Src/usbd_composite.c **** static uint8_t *USBD_CMPSIT_GetOtherSpeedCfgDesc(uint16_t *length)
 967              		.loc 1 606 1 view .LVU248
 968              		.align	2
 969              	.L77:
 970 0078 00000000 		.word	.LANCHOR5
 971              		.cfi_endproc
 972              	.LFE146:
 974              		.section	.text.USBD_CMPSIT_AddClass,"ax",%progbits
 975              		.align	1
 976              		.global	USBD_CMPSIT_AddClass
 977              		.syntax unified
 978              		.thumb
 979              		.thumb_func
 981              	USBD_CMPSIT_AddClass:
 982              	.LVL100:
 983              	.LFB143:
 448:Src/usbd_composite.c **** 	//printf("classId=%d  : %d\r\n",pdev->classId,classtype);
 984              		.loc 1 448 1 is_stmt 1 view -0
 985              		.cfi_startproc
 986              		@ args = 0, pretend = 0, frame = 0
 987              		@ frame_needed = 0, uses_anonymous_args = 0
 448:Src/usbd_composite.c **** 	//printf("classId=%d  : %d\r\n",pdev->classId,classtype);
 988              		.loc 1 448 1 is_stmt 0 view .LVU250
 989 0000 30B5     		push	{r4, r5, lr}
 990              	.LCFI11:
 991              		.cfi_def_cfa_offset 12
 992              		.cfi_offset 4, -12
 993              		.cfi_offset 5, -8
 994              		.cfi_offset 14, -4
 450:Src/usbd_composite.c **** 	{
 995              		.loc 1 450 2 is_stmt 1 view .LVU251
 996 0002 022A     		cmp	r2, #2
ARM GAS  C:\Users\ADMINI~1\AppData\Local\Temp\cc0Pcyme.s 			page 33


 997 0004 0BD0     		beq	.L80
 998 0006 032A     		cmp	r2, #3
 999 0008 3ED0     		beq	.L81
 1000              	.LVL101:
 1001              	.L82:
 502:Src/usbd_composite.c **** 		
 1002              		.loc 1 502 2 view .LVU252
 502:Src/usbd_composite.c **** 		
 1003              		.loc 1 502 23 is_stmt 0 view .LVU253
 1004 000a D0F8F832 		ldr	r3, [r0, #760]
 502:Src/usbd_composite.c **** 		
 1005              		.loc 1 502 46 view .LVU254
 1006 000e C3EBC303 		rsb	r3, r3, r3, lsl #3
 1007 0012 00EBC300 		add	r0, r0, r3, lsl #3
 1008              	.LVL102:
 502:Src/usbd_composite.c **** 		
 1009              		.loc 1 502 46 view .LVU255
 1010 0016 0023     		movs	r3, #0
 1011 0018 C0F83433 		str	r3, [r0, #820]
 504:Src/usbd_composite.c **** 
 1012              		.loc 1 504 1 view .LVU256
 1013 001c 30BD     		pop	{r4, r5, pc}
 1014              	.LVL103:
 1015              	.L80:
 453:Src/usbd_composite.c **** 			
 1016              		.loc 1 453 4 is_stmt 1 view .LVU257
 453:Src/usbd_composite.c **** 			
 1017              		.loc 1 453 25 is_stmt 0 view .LVU258
 1018 001e D0F8F822 		ldr	r2, [r0, #760]
 1019              	.LVL104:
 453:Src/usbd_composite.c **** 			
 1020              		.loc 1 453 46 view .LVU259
 1021 0022 C2EBC203 		rsb	r3, r2, r2, lsl #3
 1022              	.LVL105:
 453:Src/usbd_composite.c **** 			
 1023              		.loc 1 453 46 view .LVU260
 1024 0026 00EBC303 		add	r3, r0, r3, lsl #3
 1025 002a 0224     		movs	r4, #2
 1026 002c 83F80043 		strb	r4, [r3, #768]
 455:Src/usbd_composite.c **** 			pdev->tclasslist[pdev->classId].NumEps = 3;
 1027              		.loc 1 455 4 is_stmt 1 view .LVU261
 455:Src/usbd_composite.c **** 			pdev->tclasslist[pdev->classId].NumEps = 3;
 1028              		.loc 1 455 43 is_stmt 0 view .LVU262
 1029 0030 0121     		movs	r1, #1
 1030              	.LVL106:
 455:Src/usbd_composite.c **** 			pdev->tclasslist[pdev->classId].NumEps = 3;
 1031              		.loc 1 455 43 view .LVU263
 1032 0032 C3F80813 		str	r1, [r3, #776]
 456:Src/usbd_composite.c **** 			
 1033              		.loc 1 456 4 is_stmt 1 view .LVU264
 456:Src/usbd_composite.c **** 			
 1034              		.loc 1 456 43 is_stmt 0 view .LVU265
 1035 0036 0325     		movs	r5, #3
 1036 0038 C3F80C53 		str	r5, [r3, #780]
 458:Src/usbd_composite.c **** 			pdev->tclasslist[pdev->classId].Eps[0].type = USBD_EP_TYPE_INTR;
 1037              		.loc 1 458 4 is_stmt 1 view .LVU266
 458:Src/usbd_composite.c **** 			pdev->tclasslist[pdev->classId].Eps[0].type = USBD_EP_TYPE_INTR;
ARM GAS  C:\Users\ADMINI~1\AppData\Local\Temp\cc0Pcyme.s 			page 34


 1038              		.loc 1 458 47 is_stmt 0 view .LVU267
 1039 003c 4FF0820C 		mov	ip, #130
 1040 0040 83F810C3 		strb	ip, [r3, #784]
 459:Src/usbd_composite.c **** 			pdev->tclasslist[pdev->classId].Eps[0].size = CDC_CMD_PACKET_SIZE;
 1041              		.loc 1 459 4 is_stmt 1 view .LVU268
 459:Src/usbd_composite.c **** 			pdev->tclasslist[pdev->classId].Eps[0].size = CDC_CMD_PACKET_SIZE;
 1042              		.loc 1 459 48 is_stmt 0 view .LVU269
 1043 0044 83F81153 		strb	r5, [r3, #785]
 460:Src/usbd_composite.c **** 			pdev->tclasslist[pdev->classId].Eps[0].is_used = 1U;
 1044              		.loc 1 460 4 is_stmt 1 view .LVU270
 460:Src/usbd_composite.c **** 			pdev->tclasslist[pdev->classId].Eps[0].is_used = 1U;
 1045              		.loc 1 460 48 is_stmt 0 view .LVU271
 1046 0048 0825     		movs	r5, #8
 1047 004a 83F81253 		strb	r5, [r3, #786]
 461:Src/usbd_composite.c **** 			
 1048              		.loc 1 461 4 is_stmt 1 view .LVU272
 461:Src/usbd_composite.c **** 			
 1049              		.loc 1 461 51 is_stmt 0 view .LVU273
 1050 004e 83F81313 		strb	r1, [r3, #787]
 463:Src/usbd_composite.c **** 			pdev->tclasslist[pdev->classId].Eps[1].type = USBD_EP_TYPE_BULK;
 1051              		.loc 1 463 4 is_stmt 1 view .LVU274
 463:Src/usbd_composite.c **** 			pdev->tclasslist[pdev->classId].Eps[1].type = USBD_EP_TYPE_BULK;
 1052              		.loc 1 463 47 is_stmt 0 view .LVU275
 1053 0052 83F81413 		strb	r1, [r3, #788]
 464:Src/usbd_composite.c **** 			pdev->tclasslist[pdev->classId].Eps[1].size = CDC_DATA_FS_MAX_PACKET_SIZE;
 1054              		.loc 1 464 4 is_stmt 1 view .LVU276
 464:Src/usbd_composite.c **** 			pdev->tclasslist[pdev->classId].Eps[1].size = CDC_DATA_FS_MAX_PACKET_SIZE;
 1055              		.loc 1 464 48 is_stmt 0 view .LVU277
 1056 0056 83F81543 		strb	r4, [r3, #789]
 465:Src/usbd_composite.c **** 			pdev->tclasslist[pdev->classId].Eps[1].is_used = 1U;
 1057              		.loc 1 465 4 is_stmt 1 view .LVU278
 465:Src/usbd_composite.c **** 			pdev->tclasslist[pdev->classId].Eps[1].is_used = 1U;
 1058              		.loc 1 465 48 is_stmt 0 view .LVU279
 1059 005a 4FF0400C 		mov	ip, #64
 1060 005e 83F816C3 		strb	ip, [r3, #790]
 466:Src/usbd_composite.c **** 			
 1061              		.loc 1 466 4 is_stmt 1 view .LVU280
 466:Src/usbd_composite.c **** 			
 1062              		.loc 1 466 51 is_stmt 0 view .LVU281
 1063 0062 83F81713 		strb	r1, [r3, #791]
 468:Src/usbd_composite.c **** 			pdev->tclasslist[pdev->classId].Eps[2].type = USBD_EP_TYPE_BULK;
 1064              		.loc 1 468 4 is_stmt 1 view .LVU282
 468:Src/usbd_composite.c **** 			pdev->tclasslist[pdev->classId].Eps[2].type = USBD_EP_TYPE_BULK;
 1065              		.loc 1 468 47 is_stmt 0 view .LVU283
 1066 0066 8125     		movs	r5, #129
 1067 0068 83F81853 		strb	r5, [r3, #792]
 469:Src/usbd_composite.c **** 			pdev->tclasslist[pdev->classId].Eps[2].size = CDC_DATA_FS_MAX_PACKET_SIZE;
 1068              		.loc 1 469 4 is_stmt 1 view .LVU284
 469:Src/usbd_composite.c **** 			pdev->tclasslist[pdev->classId].Eps[2].size = CDC_DATA_FS_MAX_PACKET_SIZE;
 1069              		.loc 1 469 48 is_stmt 0 view .LVU285
 1070 006c 83F81943 		strb	r4, [r3, #793]
 470:Src/usbd_composite.c **** 			pdev->tclasslist[pdev->classId].Eps[2].is_used = 1U;
 1071              		.loc 1 470 4 is_stmt 1 view .LVU286
 470:Src/usbd_composite.c **** 			pdev->tclasslist[pdev->classId].Eps[2].is_used = 1U;
 1072              		.loc 1 470 48 is_stmt 0 view .LVU287
 1073 0070 83F81AC3 		strb	ip, [r3, #794]
 471:Src/usbd_composite.c **** 
ARM GAS  C:\Users\ADMINI~1\AppData\Local\Temp\cc0Pcyme.s 			page 35


 1074              		.loc 1 471 4 is_stmt 1 view .LVU288
 471:Src/usbd_composite.c **** 
 1075              		.loc 1 471 51 is_stmt 0 view .LVU289
 1076 0074 83F81B13 		strb	r1, [r3, #795]
 473:Src/usbd_composite.c **** 			pdev->tclasslist[pdev->classId].Ifs[0] = 0;
 1077              		.loc 1 473 4 is_stmt 1 view .LVU290
 473:Src/usbd_composite.c **** 			pdev->tclasslist[pdev->classId].Ifs[0] = 0;
 1078              		.loc 1 473 42 is_stmt 0 view .LVU291
 1079 0078 C3F82843 		str	r4, [r3, #808]
 474:Src/usbd_composite.c **** 			pdev->tclasslist[pdev->classId].Ifs[1] = 1;	
 1080              		.loc 1 474 4 is_stmt 1 view .LVU292
 474:Src/usbd_composite.c **** 			pdev->tclasslist[pdev->classId].Ifs[1] = 1;	
 1081              		.loc 1 474 43 is_stmt 0 view .LVU293
 1082 007c 0024     		movs	r4, #0
 1083 007e 83F82C43 		strb	r4, [r3, #812]
 475:Src/usbd_composite.c **** 			
 1084              		.loc 1 475 4 is_stmt 1 view .LVU294
 475:Src/usbd_composite.c **** 			
 1085              		.loc 1 475 43 is_stmt 0 view .LVU295
 1086 0082 83F82D13 		strb	r1, [r3, #813]
 477:Src/usbd_composite.c **** 
 1087              		.loc 1 477 4 is_stmt 1 view .LVU296
 477:Src/usbd_composite.c **** 
 1088              		.loc 1 477 3 is_stmt 0 view .LVU297
 1089 0086 C0E7     		b	.L82
 1090              	.LVL107:
 1091              	.L81:
 480:Src/usbd_composite.c **** 			
 1092              		.loc 1 480 4 is_stmt 1 view .LVU298
 480:Src/usbd_composite.c **** 			
 1093              		.loc 1 480 25 is_stmt 0 view .LVU299
 1094 0088 D0F8F822 		ldr	r2, [r0, #760]
 1095              	.LVL108:
 480:Src/usbd_composite.c **** 			
 1096              		.loc 1 480 46 view .LVU300
 1097 008c C2EBC203 		rsb	r3, r2, r2, lsl #3
 1098              	.LVL109:
 480:Src/usbd_composite.c **** 			
 1099              		.loc 1 480 46 view .LVU301
 1100 0090 00EBC303 		add	r3, r0, r3, lsl #3
 1101 0094 4FF0030E 		mov	lr, #3
 1102 0098 83F800E3 		strb	lr, [r3, #768]
 482:Src/usbd_composite.c **** 			pdev->tclasslist[pdev->classId].NumEps = 2;
 1103              		.loc 1 482 4 is_stmt 1 view .LVU302
 482:Src/usbd_composite.c **** 			pdev->tclasslist[pdev->classId].NumEps = 2;
 1104              		.loc 1 482 43 is_stmt 0 view .LVU303
 1105 009c 0124     		movs	r4, #1
 1106 009e C3F80843 		str	r4, [r3, #776]
 483:Src/usbd_composite.c **** 			
 1107              		.loc 1 483 4 is_stmt 1 view .LVU304
 483:Src/usbd_composite.c **** 			
 1108              		.loc 1 483 43 is_stmt 0 view .LVU305
 1109 00a2 0221     		movs	r1, #2
 1110              	.LVL110:
 483:Src/usbd_composite.c **** 			
 1111              		.loc 1 483 43 view .LVU306
 1112 00a4 C3F80C13 		str	r1, [r3, #780]
ARM GAS  C:\Users\ADMINI~1\AppData\Local\Temp\cc0Pcyme.s 			page 36


 485:Src/usbd_composite.c **** 			pdev->tclasslist[pdev->classId].Eps[0].type = USBD_EP_TYPE_BULK;
 1113              		.loc 1 485 4 is_stmt 1 view .LVU307
 485:Src/usbd_composite.c **** 			pdev->tclasslist[pdev->classId].Eps[0].type = USBD_EP_TYPE_BULK;
 1114              		.loc 1 485 47 is_stmt 0 view .LVU308
 1115 00a8 8325     		movs	r5, #131
 1116 00aa 83F81053 		strb	r5, [r3, #784]
 486:Src/usbd_composite.c **** 			pdev->tclasslist[pdev->classId].Eps[0].size = MSC_MAX_FS_PACKET;
 1117              		.loc 1 486 4 is_stmt 1 view .LVU309
 486:Src/usbd_composite.c **** 			pdev->tclasslist[pdev->classId].Eps[0].size = MSC_MAX_FS_PACKET;
 1118              		.loc 1 486 48 is_stmt 0 view .LVU310
 1119 00ae 83F81113 		strb	r1, [r3, #785]
 487:Src/usbd_composite.c **** 			pdev->tclasslist[pdev->classId].Eps[0].is_used = 1U;
 1120              		.loc 1 487 4 is_stmt 1 view .LVU311
 487:Src/usbd_composite.c **** 			pdev->tclasslist[pdev->classId].Eps[0].is_used = 1U;
 1121              		.loc 1 487 48 is_stmt 0 view .LVU312
 1122 00b2 4FF0400C 		mov	ip, #64
 1123 00b6 83F812C3 		strb	ip, [r3, #786]
 488:Src/usbd_composite.c **** 			
 1124              		.loc 1 488 4 is_stmt 1 view .LVU313
 488:Src/usbd_composite.c **** 			
 1125              		.loc 1 488 51 is_stmt 0 view .LVU314
 1126 00ba 83F81343 		strb	r4, [r3, #787]
 490:Src/usbd_composite.c **** 			pdev->tclasslist[pdev->classId].Eps[1].type = USBD_EP_TYPE_BULK;
 1127              		.loc 1 490 4 is_stmt 1 view .LVU315
 490:Src/usbd_composite.c **** 			pdev->tclasslist[pdev->classId].Eps[1].type = USBD_EP_TYPE_BULK;
 1128              		.loc 1 490 47 is_stmt 0 view .LVU316
 1129 00be 83F814E3 		strb	lr, [r3, #788]
 491:Src/usbd_composite.c **** 			pdev->tclasslist[pdev->classId].Eps[1].size = MSC_MAX_FS_PACKET;
 1130              		.loc 1 491 4 is_stmt 1 view .LVU317
 491:Src/usbd_composite.c **** 			pdev->tclasslist[pdev->classId].Eps[1].size = MSC_MAX_FS_PACKET;
 1131              		.loc 1 491 48 is_stmt 0 view .LVU318
 1132 00c2 83F81513 		strb	r1, [r3, #789]
 492:Src/usbd_composite.c **** 			pdev->tclasslist[pdev->classId].Eps[1].is_used = 1U;
 1133              		.loc 1 492 4 is_stmt 1 view .LVU319
 492:Src/usbd_composite.c **** 			pdev->tclasslist[pdev->classId].Eps[1].is_used = 1U;
 1134              		.loc 1 492 48 is_stmt 0 view .LVU320
 1135 00c6 83F816C3 		strb	ip, [r3, #790]
 493:Src/usbd_composite.c **** 			
 1136              		.loc 1 493 4 is_stmt 1 view .LVU321
 493:Src/usbd_composite.c **** 			
 1137              		.loc 1 493 51 is_stmt 0 view .LVU322
 1138 00ca 83F81743 		strb	r4, [r3, #791]
 496:Src/usbd_composite.c **** 			pdev->tclasslist[pdev->classId].Ifs[0] = 2;						
 1139              		.loc 1 496 4 is_stmt 1 view .LVU323
 496:Src/usbd_composite.c **** 			pdev->tclasslist[pdev->classId].Ifs[0] = 2;						
 1140              		.loc 1 496 42 is_stmt 0 view .LVU324
 1141 00ce C3F82843 		str	r4, [r3, #808]
 497:Src/usbd_composite.c **** 			
 1142              		.loc 1 497 4 is_stmt 1 view .LVU325
 497:Src/usbd_composite.c **** 			
 1143              		.loc 1 497 43 is_stmt 0 view .LVU326
 1144 00d2 83F82C13 		strb	r1, [r3, #812]
 499:Src/usbd_composite.c **** 		default:break;
 1145              		.loc 1 499 4 is_stmt 1 view .LVU327
 499:Src/usbd_composite.c **** 		default:break;
 1146              		.loc 1 499 3 is_stmt 0 view .LVU328
 1147 00d6 98E7     		b	.L82
ARM GAS  C:\Users\ADMINI~1\AppData\Local\Temp\cc0Pcyme.s 			page 37


 1148              		.cfi_endproc
 1149              	.LFE143:
 1151              		.section	.rodata.USBD_UsrStrDescriptor.str1.4,"aMS",%progbits,1
 1152              		.align	2
 1153              	.LC4:
 1154 0000 43444320 		.ascii	"CDC CMD Interface\000"
 1154      434D4420 
 1154      496E7465 
 1154      72666163 
 1154      6500
 1155 0012 0000     		.align	2
 1156              	.LC5:
 1157 0014 43444320 		.ascii	"CDC DATA Interface\000"
 1157      44415441 
 1157      20496E74 
 1157      65726661 
 1157      636500
 1158 0027 00       		.align	2
 1159              	.LC6:
 1160 0028 4D534320 		.ascii	"MSC Interface\000"
 1160      496E7465 
 1160      72666163 
 1160      6500
 1161              		.section	.text.USBD_UsrStrDescriptor,"ax",%progbits
 1162              		.align	1
 1163              		.global	USBD_UsrStrDescriptor
 1164              		.syntax unified
 1165              		.thumb
 1166              		.thumb_func
 1168              	USBD_UsrStrDescriptor:
 1169              	.LVL111:
 1170              	.LFB144:
 509:Src/usbd_composite.c ****   *length = 0;
 1171              		.loc 1 509 1 is_stmt 1 view -0
 1172              		.cfi_startproc
 1173              		@ args = 0, pretend = 0, frame = 0
 1174              		@ frame_needed = 0, uses_anonymous_args = 0
 509:Src/usbd_composite.c ****   *length = 0;
 1175              		.loc 1 509 1 is_stmt 0 view .LVU330
 1176 0000 10B5     		push	{r4, lr}
 1177              	.LCFI12:
 1178              		.cfi_def_cfa_offset 8
 1179              		.cfi_offset 4, -8
 1180              		.cfi_offset 14, -4
 510:Src/usbd_composite.c ****   //printf("index=%d\r\n",index);
 1181              		.loc 1 510 3 is_stmt 1 view .LVU331
 510:Src/usbd_composite.c ****   //printf("index=%d\r\n",index);
 1182              		.loc 1 510 11 is_stmt 0 view .LVU332
 1183 0002 0023     		movs	r3, #0
 1184 0004 1380     		strh	r3, [r2]	@ movhi
 519:Src/usbd_composite.c ****     USBD_GetString((uint8_t *)USBD_CDC_CMD_INTERFACE_STRING_FS, USBD_CMPSIT_StrDesc, length);
 1185              		.loc 1 519 3 is_stmt 1 view .LVU333
 519:Src/usbd_composite.c ****     USBD_GetString((uint8_t *)USBD_CDC_CMD_INTERFACE_STRING_FS, USBD_CMPSIT_StrDesc, length);
 1186              		.loc 1 519 6 is_stmt 0 view .LVU334
 1187 0006 0629     		cmp	r1, #6
 1188 0008 05D0     		beq	.L90
 523:Src/usbd_composite.c ****     USBD_GetString((uint8_t *)USBD_CDC_DATA_INTERFACE_STRING_FS, USBD_CMPSIT_StrDesc, length);
ARM GAS  C:\Users\ADMINI~1\AppData\Local\Temp\cc0Pcyme.s 			page 38


 1189              		.loc 1 523 8 is_stmt 1 view .LVU335
 523:Src/usbd_composite.c ****     USBD_GetString((uint8_t *)USBD_CDC_DATA_INTERFACE_STRING_FS, USBD_CMPSIT_StrDesc, length);
 1190              		.loc 1 523 11 is_stmt 0 view .LVU336
 1191 000a 0729     		cmp	r1, #7
 1192 000c 0AD0     		beq	.L91
 527:Src/usbd_composite.c ****     USBD_GetString((uint8_t *)USBD_MSC_INTERFACE_STRING_FS, USBD_CMPSIT_StrDesc, length);
 1193              		.loc 1 527 8 is_stmt 1 view .LVU337
 527:Src/usbd_composite.c ****     USBD_GetString((uint8_t *)USBD_MSC_INTERFACE_STRING_FS, USBD_CMPSIT_StrDesc, length);
 1194              		.loc 1 527 11 is_stmt 0 view .LVU338
 1195 000e 0829     		cmp	r1, #8
 1196 0010 0FD0     		beq	.L92
 531:Src/usbd_composite.c **** }
 1197              		.loc 1 531 10 view .LVU339
 1198 0012 0020     		movs	r0, #0
 1199              	.LVL112:
 1200              	.L84:
 532:Src/usbd_composite.c **** 
 1201              		.loc 1 532 1 view .LVU340
 1202 0014 10BD     		pop	{r4, pc}
 1203              	.LVL113:
 1204              	.L90:
 520:Src/usbd_composite.c ****     return USBD_CMPSIT_StrDesc;
 1205              		.loc 1 520 5 is_stmt 1 view .LVU341
 1206 0016 0A4C     		ldr	r4, .L93
 1207 0018 2146     		mov	r1, r4
 1208              	.LVL114:
 520:Src/usbd_composite.c ****     return USBD_CMPSIT_StrDesc;
 1209              		.loc 1 520 5 is_stmt 0 view .LVU342
 1210 001a 0A48     		ldr	r0, .L93+4
 1211              	.LVL115:
 520:Src/usbd_composite.c ****     return USBD_CMPSIT_StrDesc;
 1212              		.loc 1 520 5 view .LVU343
 1213 001c FFF7FEFF 		bl	USBD_GetString
 1214              	.LVL116:
 521:Src/usbd_composite.c ****   }
 1215              		.loc 1 521 5 is_stmt 1 view .LVU344
 521:Src/usbd_composite.c ****   }
 1216              		.loc 1 521 12 is_stmt 0 view .LVU345
 1217 0020 2046     		mov	r0, r4
 1218 0022 F7E7     		b	.L84
 1219              	.LVL117:
 1220              	.L91:
 524:Src/usbd_composite.c ****     return USBD_CMPSIT_StrDesc;
 1221              		.loc 1 524 5 is_stmt 1 view .LVU346
 1222 0024 064C     		ldr	r4, .L93
 1223 0026 2146     		mov	r1, r4
 1224              	.LVL118:
 524:Src/usbd_composite.c ****     return USBD_CMPSIT_StrDesc;
 1225              		.loc 1 524 5 is_stmt 0 view .LVU347
 1226 0028 0748     		ldr	r0, .L93+8
 1227              	.LVL119:
 524:Src/usbd_composite.c ****     return USBD_CMPSIT_StrDesc;
 1228              		.loc 1 524 5 view .LVU348
 1229 002a FFF7FEFF 		bl	USBD_GetString
 1230              	.LVL120:
 525:Src/usbd_composite.c ****   }    
 1231              		.loc 1 525 5 is_stmt 1 view .LVU349
ARM GAS  C:\Users\ADMINI~1\AppData\Local\Temp\cc0Pcyme.s 			page 39


 525:Src/usbd_composite.c ****   }    
 1232              		.loc 1 525 12 is_stmt 0 view .LVU350
 1233 002e 2046     		mov	r0, r4
 1234 0030 F0E7     		b	.L84
 1235              	.LVL121:
 1236              	.L92:
 528:Src/usbd_composite.c ****     return USBD_CMPSIT_StrDesc;
 1237              		.loc 1 528 5 is_stmt 1 view .LVU351
 1238 0032 034C     		ldr	r4, .L93
 1239 0034 2146     		mov	r1, r4
 1240              	.LVL122:
 528:Src/usbd_composite.c ****     return USBD_CMPSIT_StrDesc;
 1241              		.loc 1 528 5 is_stmt 0 view .LVU352
 1242 0036 0548     		ldr	r0, .L93+12
 1243              	.LVL123:
 528:Src/usbd_composite.c ****     return USBD_CMPSIT_StrDesc;
 1244              		.loc 1 528 5 view .LVU353
 1245 0038 FFF7FEFF 		bl	USBD_GetString
 1246              	.LVL124:
 529:Src/usbd_composite.c ****   }  
 1247              		.loc 1 529 5 is_stmt 1 view .LVU354
 529:Src/usbd_composite.c ****   }  
 1248              		.loc 1 529 12 is_stmt 0 view .LVU355
 1249 003c 2046     		mov	r0, r4
 1250 003e E9E7     		b	.L84
 1251              	.L94:
 1252              		.align	2
 1253              	.L93:
 1254 0040 00000000 		.word	.LANCHOR4
 1255 0044 00000000 		.word	.LC4
 1256 0048 14000000 		.word	.LC5
 1257 004c 28000000 		.word	.LC6
 1258              		.cfi_endproc
 1259              	.LFE144:
 1261              		.global	USBD_CMPSIT
 1262              		.global	USBD_CMPSIT_StringSerial
 1263              		.global	USBD_CMPSIT_StrDesc
 1264              		.global	USBD_CMPSIT_LangIDDesc
 1265              		.global	USBD_CMPSIT_FS_DeviceDesc
 1266              		.global	usbCmpsitFS_Desc
 1267              		.section	.bss.USBD_CMPSIT_StrDesc,"aw",%nobits
 1268              		.align	2
 1269              		.set	.LANCHOR4,. + 0
 1272              	USBD_CMPSIT_StrDesc:
 1273 0000 00000000 		.space	512
 1273      00000000 
 1273      00000000 
 1273      00000000 
 1273      00000000 
 1274              		.section	.data.USBD_CMPSIT,"aw"
 1275              		.align	2
 1278              	USBD_CMPSIT:
 1279 0000 00000000 		.word	0
 1280 0004 00000000 		.word	0
 1281 0008 00000000 		.word	0
 1282 000c 00000000 		.word	0
 1283 0010 00000000 		.word	0
ARM GAS  C:\Users\ADMINI~1\AppData\Local\Temp\cc0Pcyme.s 			page 40


 1284 0014 00000000 		.word	0
 1285 0018 00000000 		.word	0
 1286 001c 00000000 		.word	0
 1287 0020 00000000 		.word	0
 1288 0024 00000000 		.word	0
 1289 0028 00000000 		.word	USBD_CMPSIT_GetHSCfgDesc
 1290 002c 00000000 		.word	USBD_CMPSIT_GetFSCfgDesc
 1291 0030 00000000 		.word	USBD_CMPSIT_GetOtherSpeedCfgDesc
 1292 0034 00000000 		.word	USBD_CMPSIT_GetDeviceQualifierDescriptor
 1293 0038 00000000 		.space	4
 1294              		.section	.data.USBD_CMPSIT_CfgDesc,"aw"
 1295              		.align	2
 1296              		.set	.LANCHOR5,. + 0
 1299              	USBD_CMPSIT_CfgDesc:
 1300 0000 09026A00 		.ascii	"\011\002j\000\003\001\000\3002\010\013\000\002\002\002"
 1300      030100C0 
 1300      32080B00 
 1300      020202
 1301 000f 01060904 		.ascii	"\001\006\011\004\000\000\001\002\002\001\006\005$\000"
 1301      00000102 
 1301      02010605 
 1301      2400
 1302 001d 10010524 		.ascii	"\020\001\005$\001\000\001\004$\002\002\005$\006\000"
 1302      01000104 
 1302      24020205 
 1302      240600
 1303 002c 01070582 		.ascii	"\001\007\005\202\003\010\000\020\011\004\001\000\002"
 1303      03080010 
 1303      09040100 
 1303      02
 1304 0039 0A000006 		.ascii	"\012\000\000\006\007\005\001\002@\000\000\007\005\201"
 1304      07050102 
 1304      40000007 
 1304      0581
 1305 0047 02400000 		.ascii	"\002@\000\000\010\013\002\001\010\006P\010\011\004\002"
 1305      080B0201 
 1305      08065008 
 1305      090402
 1306 0056 00020806 		.ascii	"\000\002\010\006P\010\007\005\203\002@\000\000\007\005"
 1306      50080705 
 1306      83024000 
 1306      000705
 1307 0065 03024000 		.ascii	"\003\002@\000\000"
 1307      00
 1308              		.section	.data.USBD_CMPSIT_DeviceQualifierDesc,"aw"
 1309              		.align	2
 1310              		.set	.LANCHOR3,. + 0
 1313              	USBD_CMPSIT_DeviceQualifierDesc:
 1314 0000 0A060002 		.ascii	"\012\006\000\002\000\000\000@\001\000"
 1314      00000040 
 1314      0100
 1315              		.section	.data.USBD_CMPSIT_FS_DeviceDesc,"aw"
 1316              		.align	2
 1317              		.set	.LANCHOR0,. + 0
 1320              	USBD_CMPSIT_FS_DeviceDesc:
 1321 0000 12010002 		.ascii	"\022\001\000\002\357\002\001@\203\004@W\000\002\001"
 1321      EF020140 
ARM GAS  C:\Users\ADMINI~1\AppData\Local\Temp\cc0Pcyme.s 			page 41


 1321      83044057 
 1321      000201
 1322 000f 020301   		.ascii	"\002\003\001"
 1323              		.section	.data.USBD_CMPSIT_LangIDDesc,"aw"
 1324              		.align	2
 1325              		.set	.LANCHOR1,. + 0
 1328              	USBD_CMPSIT_LangIDDesc:
 1329 0000 04030904 		.ascii	"\004\003\011\004"
 1330              		.section	.data.USBD_CMPSIT_StringSerial,"aw"
 1331              		.align	2
 1332              		.set	.LANCHOR2,. + 0
 1335              	USBD_CMPSIT_StringSerial:
 1336 0000 1A0300   		.ascii	"\032\003\000"
 1337 0003 00000000 		.space	23
 1337      00000000 
 1337      00000000 
 1337      00000000 
 1337      00000000 
 1338              		.section	.data.usbCmpsitFS_Desc,"aw"
 1339              		.align	2
 1342              	usbCmpsitFS_Desc:
 1343 0000 00000000 		.word	USBD_CMPSIT_FS_DeviceDescriptor
 1344 0004 00000000 		.word	USBD_CMPSIT_FS_LangIDStrDescriptor
 1345 0008 00000000 		.word	USBD_CMPSIT_FS_ManufacturerStrDescriptor
 1346 000c 00000000 		.word	USBD_CMPSIT_FS_ProductStrDescriptor
 1347 0010 00000000 		.word	USBD_CMPSIT_FS_SerialStrDescriptor
 1348 0014 00000000 		.word	USBD_CMPSIT_FS_ConfigStrDescriptor
 1349 0018 00000000 		.word	USBD_CMPSIT_FS_InterfaceStrDescriptor
 1350              		.text
 1351              	.Letext0:
 1352              		.file 2 "e:\\program files (x86)\\gnu arm embedded toolchain\\10 2021.10\\arm-none-eabi\\include\\
 1353              		.file 3 "e:\\program files (x86)\\gnu arm embedded toolchain\\10 2021.10\\arm-none-eabi\\include\\
 1354              		.file 4 "Middlewares/ST/STM32_USB_Device_Library/Core/Inc/usbd_def.h"
 1355              		.file 5 "Inc/usbd_composite.h"
 1356              		.file 6 "Middlewares/ST/STM32_USB_Device_Library/Core/Inc/usbd_core.h"
 1357              		.file 7 "Middlewares/ST/STM32_USB_Device_Library/Core/Inc/usbd_ctlreq.h"
ARM GAS  C:\Users\ADMINI~1\AppData\Local\Temp\cc0Pcyme.s 			page 42

