ARM GAS  C:\Users\ADMINI~1\AppData\Local\Temp\ccGPw5KX.s 			page 1


   1              		.cpu cortex-m4
   2              		.arch armv7e-m
   3              		.fpu fpv4-sp-d16
   4              		.eabi_attribute 27, 1
   5              		.eabi_attribute 28, 1
   6              		.eabi_attribute 20, 1
   7              		.eabi_attribute 21, 1
   8              		.eabi_attribute 23, 3
   9              		.eabi_attribute 24, 1
  10              		.eabi_attribute 25, 1
  11              		.eabi_attribute 26, 1
  12              		.eabi_attribute 30, 1
  13              		.eabi_attribute 34, 1
  14              		.eabi_attribute 18, 4
  15              		.file	"spi.c"
  16              		.text
  17              	.Ltext0:
  18              		.cfi_sections	.debug_frame
  19              		.section	.text.MX_SPI1_Init,"ax",%progbits
  20              		.align	1
  21              		.global	MX_SPI1_Init
  22              		.syntax unified
  23              		.thumb
  24              		.thumb_func
  26              	MX_SPI1_Init:
  27              	.LFB235:
  28              		.file 1 "Core/Src/spi.c"
   1:Core/Src/spi.c **** /**
   2:Core/Src/spi.c ****   ******************************************************************************
   3:Core/Src/spi.c ****   * @file    spi.c
   4:Core/Src/spi.c ****   * @brief   This file provides code for the configuration
   5:Core/Src/spi.c ****   *          of the SPI instances.
   6:Core/Src/spi.c ****   ******************************************************************************
   7:Core/Src/spi.c ****   * @attention
   8:Core/Src/spi.c ****   *
   9:Core/Src/spi.c ****   * <h2><center>&copy; Copyright (c) 2022 STMicroelectronics.
  10:Core/Src/spi.c ****   * All rights reserved.</center></h2>
  11:Core/Src/spi.c ****   *
  12:Core/Src/spi.c ****   * This software component is licensed by ST under Ultimate Liberty license
  13:Core/Src/spi.c ****   * SLA0044, the "License"; You may not use this file except in compliance with
  14:Core/Src/spi.c ****   * the License. You may obtain a copy of the License at:
  15:Core/Src/spi.c ****   *                             www.st.com/SLA0044
  16:Core/Src/spi.c ****   *
  17:Core/Src/spi.c ****   ******************************************************************************
  18:Core/Src/spi.c ****   */
  19:Core/Src/spi.c **** 
  20:Core/Src/spi.c **** /* Includes ------------------------------------------------------------------*/
  21:Core/Src/spi.c **** #include "spi.h"
  22:Core/Src/spi.c **** 
  23:Core/Src/spi.c **** /* USER CODE BEGIN 0 */
  24:Core/Src/spi.c **** 
  25:Core/Src/spi.c **** /* USER CODE END 0 */
  26:Core/Src/spi.c **** 
  27:Core/Src/spi.c **** SPI_HandleTypeDef hspi1;
  28:Core/Src/spi.c **** DMA_HandleTypeDef hdma_spi1_tx;
  29:Core/Src/spi.c **** 
  30:Core/Src/spi.c **** /* SPI1 init function */
ARM GAS  C:\Users\ADMINI~1\AppData\Local\Temp\ccGPw5KX.s 			page 2


  31:Core/Src/spi.c **** void MX_SPI1_Init(void)
  32:Core/Src/spi.c **** {
  29              		.loc 1 32 1 view -0
  30              		.cfi_startproc
  31              		@ args = 0, pretend = 0, frame = 0
  32              		@ frame_needed = 0, uses_anonymous_args = 0
  33 0000 08B5     		push	{r3, lr}
  34              	.LCFI0:
  35              		.cfi_def_cfa_offset 8
  36              		.cfi_offset 3, -8
  37              		.cfi_offset 14, -4
  33:Core/Src/spi.c **** 
  34:Core/Src/spi.c ****   /* USER CODE BEGIN SPI1_Init 0 */
  35:Core/Src/spi.c **** 
  36:Core/Src/spi.c ****   /* USER CODE END SPI1_Init 0 */
  37:Core/Src/spi.c **** 
  38:Core/Src/spi.c ****   /* USER CODE BEGIN SPI1_Init 1 */
  39:Core/Src/spi.c **** 
  40:Core/Src/spi.c ****   /* USER CODE END SPI1_Init 1 */
  41:Core/Src/spi.c ****   hspi1.Instance = SPI1;
  38              		.loc 1 41 3 view .LVU1
  39              		.loc 1 41 18 is_stmt 0 view .LVU2
  40 0002 0D48     		ldr	r0, .L5
  41 0004 0D4B     		ldr	r3, .L5+4
  42 0006 0360     		str	r3, [r0]
  42:Core/Src/spi.c ****   hspi1.Init.Mode = SPI_MODE_MASTER;
  43              		.loc 1 42 3 is_stmt 1 view .LVU3
  44              		.loc 1 42 19 is_stmt 0 view .LVU4
  45 0008 4FF48273 		mov	r3, #260
  46 000c 4360     		str	r3, [r0, #4]
  43:Core/Src/spi.c ****   hspi1.Init.Direction = SPI_DIRECTION_2LINES;
  47              		.loc 1 43 3 is_stmt 1 view .LVU5
  48              		.loc 1 43 24 is_stmt 0 view .LVU6
  49 000e 0023     		movs	r3, #0
  50 0010 8360     		str	r3, [r0, #8]
  44:Core/Src/spi.c ****   hspi1.Init.DataSize = SPI_DATASIZE_8BIT;
  51              		.loc 1 44 3 is_stmt 1 view .LVU7
  52              		.loc 1 44 23 is_stmt 0 view .LVU8
  53 0012 C360     		str	r3, [r0, #12]
  45:Core/Src/spi.c ****   hspi1.Init.CLKPolarity = SPI_POLARITY_LOW;
  54              		.loc 1 45 3 is_stmt 1 view .LVU9
  55              		.loc 1 45 26 is_stmt 0 view .LVU10
  56 0014 0361     		str	r3, [r0, #16]
  46:Core/Src/spi.c ****   hspi1.Init.CLKPhase = SPI_PHASE_1EDGE;
  57              		.loc 1 46 3 is_stmt 1 view .LVU11
  58              		.loc 1 46 23 is_stmt 0 view .LVU12
  59 0016 4361     		str	r3, [r0, #20]
  47:Core/Src/spi.c ****   hspi1.Init.NSS = SPI_NSS_SOFT;
  60              		.loc 1 47 3 is_stmt 1 view .LVU13
  61              		.loc 1 47 18 is_stmt 0 view .LVU14
  62 0018 4FF40072 		mov	r2, #512
  63 001c 8261     		str	r2, [r0, #24]
  48:Core/Src/spi.c ****   hspi1.Init.BaudRatePrescaler = SPI_BAUDRATEPRESCALER_2;
  64              		.loc 1 48 3 is_stmt 1 view .LVU15
  65              		.loc 1 48 32 is_stmt 0 view .LVU16
  66 001e C361     		str	r3, [r0, #28]
  49:Core/Src/spi.c ****   hspi1.Init.FirstBit = SPI_FIRSTBIT_MSB;
ARM GAS  C:\Users\ADMINI~1\AppData\Local\Temp\ccGPw5KX.s 			page 3


  67              		.loc 1 49 3 is_stmt 1 view .LVU17
  68              		.loc 1 49 23 is_stmt 0 view .LVU18
  69 0020 0362     		str	r3, [r0, #32]
  50:Core/Src/spi.c ****   hspi1.Init.TIMode = SPI_TIMODE_DISABLE;
  70              		.loc 1 50 3 is_stmt 1 view .LVU19
  71              		.loc 1 50 21 is_stmt 0 view .LVU20
  72 0022 4362     		str	r3, [r0, #36]
  51:Core/Src/spi.c ****   hspi1.Init.CRCCalculation = SPI_CRCCALCULATION_DISABLE;
  73              		.loc 1 51 3 is_stmt 1 view .LVU21
  74              		.loc 1 51 29 is_stmt 0 view .LVU22
  75 0024 8362     		str	r3, [r0, #40]
  52:Core/Src/spi.c ****   hspi1.Init.CRCPolynomial = 10;
  76              		.loc 1 52 3 is_stmt 1 view .LVU23
  77              		.loc 1 52 28 is_stmt 0 view .LVU24
  78 0026 0A23     		movs	r3, #10
  79 0028 C362     		str	r3, [r0, #44]
  53:Core/Src/spi.c ****   if (HAL_SPI_Init(&hspi1) != HAL_OK)
  80              		.loc 1 53 3 is_stmt 1 view .LVU25
  81              		.loc 1 53 7 is_stmt 0 view .LVU26
  82 002a FFF7FEFF 		bl	HAL_SPI_Init
  83              	.LVL0:
  84              		.loc 1 53 6 view .LVU27
  85 002e 00B9     		cbnz	r0, .L4
  86              	.L1:
  54:Core/Src/spi.c ****   {
  55:Core/Src/spi.c ****     Error_Handler();
  56:Core/Src/spi.c ****   }
  57:Core/Src/spi.c ****   /* USER CODE BEGIN SPI1_Init 2 */
  58:Core/Src/spi.c **** 
  59:Core/Src/spi.c ****   /* USER CODE END SPI1_Init 2 */
  60:Core/Src/spi.c **** 
  61:Core/Src/spi.c **** }
  87              		.loc 1 61 1 view .LVU28
  88 0030 08BD     		pop	{r3, pc}
  89              	.L4:
  55:Core/Src/spi.c ****   }
  90              		.loc 1 55 5 is_stmt 1 view .LVU29
  91 0032 FFF7FEFF 		bl	Error_Handler
  92              	.LVL1:
  93              		.loc 1 61 1 is_stmt 0 view .LVU30
  94 0036 FBE7     		b	.L1
  95              	.L6:
  96              		.align	2
  97              	.L5:
  98 0038 00000000 		.word	.LANCHOR0
  99 003c 00300140 		.word	1073819648
 100              		.cfi_endproc
 101              	.LFE235:
 103              		.section	.text.HAL_SPI_MspInit,"ax",%progbits
 104              		.align	1
 105              		.global	HAL_SPI_MspInit
 106              		.syntax unified
 107              		.thumb
 108              		.thumb_func
 110              	HAL_SPI_MspInit:
 111              	.LVL2:
 112              	.LFB236:
ARM GAS  C:\Users\ADMINI~1\AppData\Local\Temp\ccGPw5KX.s 			page 4


  62:Core/Src/spi.c **** 
  63:Core/Src/spi.c **** void HAL_SPI_MspInit(SPI_HandleTypeDef* spiHandle)
  64:Core/Src/spi.c **** {
 113              		.loc 1 64 1 is_stmt 1 view -0
 114              		.cfi_startproc
 115              		@ args = 0, pretend = 0, frame = 32
 116              		@ frame_needed = 0, uses_anonymous_args = 0
 117              		.loc 1 64 1 is_stmt 0 view .LVU32
 118 0000 2DE9F041 		push	{r4, r5, r6, r7, r8, lr}
 119              	.LCFI1:
 120              		.cfi_def_cfa_offset 24
 121              		.cfi_offset 4, -24
 122              		.cfi_offset 5, -20
 123              		.cfi_offset 6, -16
 124              		.cfi_offset 7, -12
 125              		.cfi_offset 8, -8
 126              		.cfi_offset 14, -4
 127 0004 88B0     		sub	sp, sp, #32
 128              	.LCFI2:
 129              		.cfi_def_cfa_offset 56
  65:Core/Src/spi.c **** 
  66:Core/Src/spi.c ****   GPIO_InitTypeDef GPIO_InitStruct = {0};
 130              		.loc 1 66 3 is_stmt 1 view .LVU33
 131              		.loc 1 66 20 is_stmt 0 view .LVU34
 132 0006 0023     		movs	r3, #0
 133 0008 0393     		str	r3, [sp, #12]
 134 000a 0493     		str	r3, [sp, #16]
 135 000c 0593     		str	r3, [sp, #20]
 136 000e 0693     		str	r3, [sp, #24]
 137 0010 0793     		str	r3, [sp, #28]
  67:Core/Src/spi.c ****   if(spiHandle->Instance==SPI1)
 138              		.loc 1 67 3 is_stmt 1 view .LVU35
 139              		.loc 1 67 15 is_stmt 0 view .LVU36
 140 0012 0268     		ldr	r2, [r0]
 141              		.loc 1 67 5 view .LVU37
 142 0014 314B     		ldr	r3, .L13
 143 0016 9A42     		cmp	r2, r3
 144 0018 02D0     		beq	.L11
 145              	.LVL3:
 146              	.L7:
  68:Core/Src/spi.c ****   {
  69:Core/Src/spi.c ****   /* USER CODE BEGIN SPI1_MspInit 0 */
  70:Core/Src/spi.c **** 
  71:Core/Src/spi.c ****   /* USER CODE END SPI1_MspInit 0 */
  72:Core/Src/spi.c ****     /* SPI1 clock enable */
  73:Core/Src/spi.c ****     __HAL_RCC_SPI1_CLK_ENABLE();
  74:Core/Src/spi.c **** 
  75:Core/Src/spi.c ****     __HAL_RCC_GPIOA_CLK_ENABLE();
  76:Core/Src/spi.c ****     __HAL_RCC_GPIOB_CLK_ENABLE();
  77:Core/Src/spi.c ****     /**SPI1 GPIO Configuration
  78:Core/Src/spi.c ****     PA7     ------> SPI1_MOSI
  79:Core/Src/spi.c ****     PB3     ------> SPI1_SCK
  80:Core/Src/spi.c ****     */
  81:Core/Src/spi.c ****     GPIO_InitStruct.Pin = LCD_SDA_Pin;
  82:Core/Src/spi.c ****     GPIO_InitStruct.Mode = GPIO_MODE_AF_PP;
  83:Core/Src/spi.c ****     GPIO_InitStruct.Pull = GPIO_NOPULL;
  84:Core/Src/spi.c ****     GPIO_InitStruct.Speed = GPIO_SPEED_FREQ_VERY_HIGH;
ARM GAS  C:\Users\ADMINI~1\AppData\Local\Temp\ccGPw5KX.s 			page 5


  85:Core/Src/spi.c ****     GPIO_InitStruct.Alternate = GPIO_AF5_SPI1;
  86:Core/Src/spi.c ****     HAL_GPIO_Init(LCD_SDA_GPIO_Port, &GPIO_InitStruct);
  87:Core/Src/spi.c **** 
  88:Core/Src/spi.c ****     GPIO_InitStruct.Pin = LCD_SCL_Pin;
  89:Core/Src/spi.c ****     GPIO_InitStruct.Mode = GPIO_MODE_AF_PP;
  90:Core/Src/spi.c ****     GPIO_InitStruct.Pull = GPIO_NOPULL;
  91:Core/Src/spi.c ****     GPIO_InitStruct.Speed = GPIO_SPEED_FREQ_VERY_HIGH;
  92:Core/Src/spi.c ****     GPIO_InitStruct.Alternate = GPIO_AF5_SPI1;
  93:Core/Src/spi.c ****     HAL_GPIO_Init(LCD_SCL_GPIO_Port, &GPIO_InitStruct);
  94:Core/Src/spi.c **** 
  95:Core/Src/spi.c ****     /* SPI1 DMA Init */
  96:Core/Src/spi.c ****     /* SPI1_TX Init */
  97:Core/Src/spi.c ****     hdma_spi1_tx.Instance = DMA2_Stream3;
  98:Core/Src/spi.c ****     hdma_spi1_tx.Init.Channel = DMA_CHANNEL_3;
  99:Core/Src/spi.c ****     hdma_spi1_tx.Init.Direction = DMA_MEMORY_TO_PERIPH;
 100:Core/Src/spi.c ****     hdma_spi1_tx.Init.PeriphInc = DMA_PINC_DISABLE;
 101:Core/Src/spi.c ****     hdma_spi1_tx.Init.MemInc = DMA_MINC_ENABLE;
 102:Core/Src/spi.c ****     hdma_spi1_tx.Init.PeriphDataAlignment = DMA_PDATAALIGN_BYTE;
 103:Core/Src/spi.c ****     hdma_spi1_tx.Init.MemDataAlignment = DMA_MDATAALIGN_BYTE;
 104:Core/Src/spi.c ****     hdma_spi1_tx.Init.Mode = DMA_NORMAL;
 105:Core/Src/spi.c ****     hdma_spi1_tx.Init.Priority = DMA_PRIORITY_LOW;
 106:Core/Src/spi.c ****     hdma_spi1_tx.Init.FIFOMode = DMA_FIFOMODE_DISABLE;
 107:Core/Src/spi.c ****     if (HAL_DMA_Init(&hdma_spi1_tx) != HAL_OK)
 108:Core/Src/spi.c ****     {
 109:Core/Src/spi.c ****       Error_Handler();
 110:Core/Src/spi.c ****     }
 111:Core/Src/spi.c **** 
 112:Core/Src/spi.c ****     __HAL_LINKDMA(spiHandle,hdmatx,hdma_spi1_tx);
 113:Core/Src/spi.c **** 
 114:Core/Src/spi.c ****     /* SPI1 interrupt Init */
 115:Core/Src/spi.c ****     HAL_NVIC_SetPriority(SPI1_IRQn, 5, 0);
 116:Core/Src/spi.c ****     HAL_NVIC_EnableIRQ(SPI1_IRQn);
 117:Core/Src/spi.c ****   /* USER CODE BEGIN SPI1_MspInit 1 */
 118:Core/Src/spi.c **** 
 119:Core/Src/spi.c ****   /* USER CODE END SPI1_MspInit 1 */
 120:Core/Src/spi.c ****   }
 121:Core/Src/spi.c **** }
 147              		.loc 1 121 1 view .LVU38
 148 001a 08B0     		add	sp, sp, #32
 149              	.LCFI3:
 150              		.cfi_remember_state
 151              		.cfi_def_cfa_offset 24
 152              		@ sp needed
 153 001c BDE8F081 		pop	{r4, r5, r6, r7, r8, pc}
 154              	.LVL4:
 155              	.L11:
 156              	.LCFI4:
 157              		.cfi_restore_state
 158              		.loc 1 121 1 view .LVU39
 159 0020 0446     		mov	r4, r0
  73:Core/Src/spi.c **** 
 160              		.loc 1 73 5 is_stmt 1 view .LVU40
 161              	.LBB2:
  73:Core/Src/spi.c **** 
 162              		.loc 1 73 5 view .LVU41
 163 0022 0025     		movs	r5, #0
 164 0024 0095     		str	r5, [sp]
ARM GAS  C:\Users\ADMINI~1\AppData\Local\Temp\ccGPw5KX.s 			page 6


  73:Core/Src/spi.c **** 
 165              		.loc 1 73 5 view .LVU42
 166 0026 03F58433 		add	r3, r3, #67584
 167 002a 5A6C     		ldr	r2, [r3, #68]
 168 002c 42F48052 		orr	r2, r2, #4096
 169 0030 5A64     		str	r2, [r3, #68]
  73:Core/Src/spi.c **** 
 170              		.loc 1 73 5 view .LVU43
 171 0032 5A6C     		ldr	r2, [r3, #68]
 172 0034 02F48052 		and	r2, r2, #4096
 173 0038 0092     		str	r2, [sp]
  73:Core/Src/spi.c **** 
 174              		.loc 1 73 5 view .LVU44
 175 003a 009A     		ldr	r2, [sp]
 176              	.LBE2:
  73:Core/Src/spi.c **** 
 177              		.loc 1 73 5 view .LVU45
  75:Core/Src/spi.c ****     __HAL_RCC_GPIOB_CLK_ENABLE();
 178              		.loc 1 75 5 view .LVU46
 179              	.LBB3:
  75:Core/Src/spi.c ****     __HAL_RCC_GPIOB_CLK_ENABLE();
 180              		.loc 1 75 5 view .LVU47
 181 003c 0195     		str	r5, [sp, #4]
  75:Core/Src/spi.c ****     __HAL_RCC_GPIOB_CLK_ENABLE();
 182              		.loc 1 75 5 view .LVU48
 183 003e 1A6B     		ldr	r2, [r3, #48]
 184 0040 42F00102 		orr	r2, r2, #1
 185 0044 1A63     		str	r2, [r3, #48]
  75:Core/Src/spi.c ****     __HAL_RCC_GPIOB_CLK_ENABLE();
 186              		.loc 1 75 5 view .LVU49
 187 0046 1A6B     		ldr	r2, [r3, #48]
 188 0048 02F00102 		and	r2, r2, #1
 189 004c 0192     		str	r2, [sp, #4]
  75:Core/Src/spi.c ****     __HAL_RCC_GPIOB_CLK_ENABLE();
 190              		.loc 1 75 5 view .LVU50
 191 004e 019A     		ldr	r2, [sp, #4]
 192              	.LBE3:
  75:Core/Src/spi.c ****     __HAL_RCC_GPIOB_CLK_ENABLE();
 193              		.loc 1 75 5 view .LVU51
  76:Core/Src/spi.c ****     /**SPI1 GPIO Configuration
 194              		.loc 1 76 5 view .LVU52
 195              	.LBB4:
  76:Core/Src/spi.c ****     /**SPI1 GPIO Configuration
 196              		.loc 1 76 5 view .LVU53
 197 0050 0295     		str	r5, [sp, #8]
  76:Core/Src/spi.c ****     /**SPI1 GPIO Configuration
 198              		.loc 1 76 5 view .LVU54
 199 0052 1A6B     		ldr	r2, [r3, #48]
 200 0054 42F00202 		orr	r2, r2, #2
 201 0058 1A63     		str	r2, [r3, #48]
  76:Core/Src/spi.c ****     /**SPI1 GPIO Configuration
 202              		.loc 1 76 5 view .LVU55
 203 005a 1B6B     		ldr	r3, [r3, #48]
 204 005c 03F00203 		and	r3, r3, #2
 205 0060 0293     		str	r3, [sp, #8]
  76:Core/Src/spi.c ****     /**SPI1 GPIO Configuration
 206              		.loc 1 76 5 view .LVU56
ARM GAS  C:\Users\ADMINI~1\AppData\Local\Temp\ccGPw5KX.s 			page 7


 207 0062 029B     		ldr	r3, [sp, #8]
 208              	.LBE4:
  76:Core/Src/spi.c ****     /**SPI1 GPIO Configuration
 209              		.loc 1 76 5 view .LVU57
  81:Core/Src/spi.c ****     GPIO_InitStruct.Mode = GPIO_MODE_AF_PP;
 210              		.loc 1 81 5 view .LVU58
  81:Core/Src/spi.c ****     GPIO_InitStruct.Mode = GPIO_MODE_AF_PP;
 211              		.loc 1 81 25 is_stmt 0 view .LVU59
 212 0064 8023     		movs	r3, #128
 213 0066 0393     		str	r3, [sp, #12]
  82:Core/Src/spi.c ****     GPIO_InitStruct.Pull = GPIO_NOPULL;
 214              		.loc 1 82 5 is_stmt 1 view .LVU60
  82:Core/Src/spi.c ****     GPIO_InitStruct.Pull = GPIO_NOPULL;
 215              		.loc 1 82 26 is_stmt 0 view .LVU61
 216 0068 4FF00208 		mov	r8, #2
 217 006c CDF81080 		str	r8, [sp, #16]
  83:Core/Src/spi.c ****     GPIO_InitStruct.Speed = GPIO_SPEED_FREQ_VERY_HIGH;
 218              		.loc 1 83 5 is_stmt 1 view .LVU62
  84:Core/Src/spi.c ****     GPIO_InitStruct.Alternate = GPIO_AF5_SPI1;
 219              		.loc 1 84 5 view .LVU63
  84:Core/Src/spi.c ****     GPIO_InitStruct.Alternate = GPIO_AF5_SPI1;
 220              		.loc 1 84 27 is_stmt 0 view .LVU64
 221 0070 0327     		movs	r7, #3
 222 0072 0697     		str	r7, [sp, #24]
  85:Core/Src/spi.c ****     HAL_GPIO_Init(LCD_SDA_GPIO_Port, &GPIO_InitStruct);
 223              		.loc 1 85 5 is_stmt 1 view .LVU65
  85:Core/Src/spi.c ****     HAL_GPIO_Init(LCD_SDA_GPIO_Port, &GPIO_InitStruct);
 224              		.loc 1 85 31 is_stmt 0 view .LVU66
 225 0074 0526     		movs	r6, #5
 226 0076 0796     		str	r6, [sp, #28]
  86:Core/Src/spi.c **** 
 227              		.loc 1 86 5 is_stmt 1 view .LVU67
 228 0078 03A9     		add	r1, sp, #12
 229 007a 1948     		ldr	r0, .L13+4
 230              	.LVL5:
  86:Core/Src/spi.c **** 
 231              		.loc 1 86 5 is_stmt 0 view .LVU68
 232 007c FFF7FEFF 		bl	HAL_GPIO_Init
 233              	.LVL6:
  88:Core/Src/spi.c ****     GPIO_InitStruct.Mode = GPIO_MODE_AF_PP;
 234              		.loc 1 88 5 is_stmt 1 view .LVU69
  88:Core/Src/spi.c ****     GPIO_InitStruct.Mode = GPIO_MODE_AF_PP;
 235              		.loc 1 88 25 is_stmt 0 view .LVU70
 236 0080 0823     		movs	r3, #8
 237 0082 0393     		str	r3, [sp, #12]
  89:Core/Src/spi.c ****     GPIO_InitStruct.Pull = GPIO_NOPULL;
 238              		.loc 1 89 5 is_stmt 1 view .LVU71
  89:Core/Src/spi.c ****     GPIO_InitStruct.Pull = GPIO_NOPULL;
 239              		.loc 1 89 26 is_stmt 0 view .LVU72
 240 0084 CDF81080 		str	r8, [sp, #16]
  90:Core/Src/spi.c ****     GPIO_InitStruct.Speed = GPIO_SPEED_FREQ_VERY_HIGH;
 241              		.loc 1 90 5 is_stmt 1 view .LVU73
  90:Core/Src/spi.c ****     GPIO_InitStruct.Speed = GPIO_SPEED_FREQ_VERY_HIGH;
 242              		.loc 1 90 26 is_stmt 0 view .LVU74
 243 0088 0595     		str	r5, [sp, #20]
  91:Core/Src/spi.c ****     GPIO_InitStruct.Alternate = GPIO_AF5_SPI1;
 244              		.loc 1 91 5 is_stmt 1 view .LVU75
ARM GAS  C:\Users\ADMINI~1\AppData\Local\Temp\ccGPw5KX.s 			page 8


  91:Core/Src/spi.c ****     GPIO_InitStruct.Alternate = GPIO_AF5_SPI1;
 245              		.loc 1 91 27 is_stmt 0 view .LVU76
 246 008a 0697     		str	r7, [sp, #24]
  92:Core/Src/spi.c ****     HAL_GPIO_Init(LCD_SCL_GPIO_Port, &GPIO_InitStruct);
 247              		.loc 1 92 5 is_stmt 1 view .LVU77
  92:Core/Src/spi.c ****     HAL_GPIO_Init(LCD_SCL_GPIO_Port, &GPIO_InitStruct);
 248              		.loc 1 92 31 is_stmt 0 view .LVU78
 249 008c 0796     		str	r6, [sp, #28]
  93:Core/Src/spi.c **** 
 250              		.loc 1 93 5 is_stmt 1 view .LVU79
 251 008e 03A9     		add	r1, sp, #12
 252 0090 1448     		ldr	r0, .L13+8
 253 0092 FFF7FEFF 		bl	HAL_GPIO_Init
 254              	.LVL7:
  97:Core/Src/spi.c ****     hdma_spi1_tx.Init.Channel = DMA_CHANNEL_3;
 255              		.loc 1 97 5 view .LVU80
  97:Core/Src/spi.c ****     hdma_spi1_tx.Init.Channel = DMA_CHANNEL_3;
 256              		.loc 1 97 27 is_stmt 0 view .LVU81
 257 0096 1448     		ldr	r0, .L13+12
 258 0098 144B     		ldr	r3, .L13+16
 259 009a 0360     		str	r3, [r0]
  98:Core/Src/spi.c ****     hdma_spi1_tx.Init.Direction = DMA_MEMORY_TO_PERIPH;
 260              		.loc 1 98 5 is_stmt 1 view .LVU82
  98:Core/Src/spi.c ****     hdma_spi1_tx.Init.Direction = DMA_MEMORY_TO_PERIPH;
 261              		.loc 1 98 31 is_stmt 0 view .LVU83
 262 009c 4FF0C063 		mov	r3, #100663296
 263 00a0 4360     		str	r3, [r0, #4]
  99:Core/Src/spi.c ****     hdma_spi1_tx.Init.PeriphInc = DMA_PINC_DISABLE;
 264              		.loc 1 99 5 is_stmt 1 view .LVU84
  99:Core/Src/spi.c ****     hdma_spi1_tx.Init.PeriphInc = DMA_PINC_DISABLE;
 265              		.loc 1 99 33 is_stmt 0 view .LVU85
 266 00a2 4023     		movs	r3, #64
 267 00a4 8360     		str	r3, [r0, #8]
 100:Core/Src/spi.c ****     hdma_spi1_tx.Init.MemInc = DMA_MINC_ENABLE;
 268              		.loc 1 100 5 is_stmt 1 view .LVU86
 100:Core/Src/spi.c ****     hdma_spi1_tx.Init.MemInc = DMA_MINC_ENABLE;
 269              		.loc 1 100 33 is_stmt 0 view .LVU87
 270 00a6 C560     		str	r5, [r0, #12]
 101:Core/Src/spi.c ****     hdma_spi1_tx.Init.PeriphDataAlignment = DMA_PDATAALIGN_BYTE;
 271              		.loc 1 101 5 is_stmt 1 view .LVU88
 101:Core/Src/spi.c ****     hdma_spi1_tx.Init.PeriphDataAlignment = DMA_PDATAALIGN_BYTE;
 272              		.loc 1 101 30 is_stmt 0 view .LVU89
 273 00a8 4FF48063 		mov	r3, #1024
 274 00ac 0361     		str	r3, [r0, #16]
 102:Core/Src/spi.c ****     hdma_spi1_tx.Init.MemDataAlignment = DMA_MDATAALIGN_BYTE;
 275              		.loc 1 102 5 is_stmt 1 view .LVU90
 102:Core/Src/spi.c ****     hdma_spi1_tx.Init.MemDataAlignment = DMA_MDATAALIGN_BYTE;
 276              		.loc 1 102 43 is_stmt 0 view .LVU91
 277 00ae 4561     		str	r5, [r0, #20]
 103:Core/Src/spi.c ****     hdma_spi1_tx.Init.Mode = DMA_NORMAL;
 278              		.loc 1 103 5 is_stmt 1 view .LVU92
 103:Core/Src/spi.c ****     hdma_spi1_tx.Init.Mode = DMA_NORMAL;
 279              		.loc 1 103 40 is_stmt 0 view .LVU93
 280 00b0 8561     		str	r5, [r0, #24]
 104:Core/Src/spi.c ****     hdma_spi1_tx.Init.Priority = DMA_PRIORITY_LOW;
 281              		.loc 1 104 5 is_stmt 1 view .LVU94
 104:Core/Src/spi.c ****     hdma_spi1_tx.Init.Priority = DMA_PRIORITY_LOW;
ARM GAS  C:\Users\ADMINI~1\AppData\Local\Temp\ccGPw5KX.s 			page 9


 282              		.loc 1 104 28 is_stmt 0 view .LVU95
 283 00b2 C561     		str	r5, [r0, #28]
 105:Core/Src/spi.c ****     hdma_spi1_tx.Init.FIFOMode = DMA_FIFOMODE_DISABLE;
 284              		.loc 1 105 5 is_stmt 1 view .LVU96
 105:Core/Src/spi.c ****     hdma_spi1_tx.Init.FIFOMode = DMA_FIFOMODE_DISABLE;
 285              		.loc 1 105 32 is_stmt 0 view .LVU97
 286 00b4 0562     		str	r5, [r0, #32]
 106:Core/Src/spi.c ****     if (HAL_DMA_Init(&hdma_spi1_tx) != HAL_OK)
 287              		.loc 1 106 5 is_stmt 1 view .LVU98
 106:Core/Src/spi.c ****     if (HAL_DMA_Init(&hdma_spi1_tx) != HAL_OK)
 288              		.loc 1 106 32 is_stmt 0 view .LVU99
 289 00b6 4562     		str	r5, [r0, #36]
 107:Core/Src/spi.c ****     {
 290              		.loc 1 107 5 is_stmt 1 view .LVU100
 107:Core/Src/spi.c ****     {
 291              		.loc 1 107 9 is_stmt 0 view .LVU101
 292 00b8 FFF7FEFF 		bl	HAL_DMA_Init
 293              	.LVL8:
 107:Core/Src/spi.c ****     {
 294              		.loc 1 107 8 view .LVU102
 295 00bc 58B9     		cbnz	r0, .L12
 296              	.L9:
 112:Core/Src/spi.c **** 
 297              		.loc 1 112 5 is_stmt 1 view .LVU103
 112:Core/Src/spi.c **** 
 298              		.loc 1 112 5 view .LVU104
 299 00be 0A4B     		ldr	r3, .L13+12
 300 00c0 A364     		str	r3, [r4, #72]
 112:Core/Src/spi.c **** 
 301              		.loc 1 112 5 view .LVU105
 302 00c2 9C63     		str	r4, [r3, #56]
 112:Core/Src/spi.c **** 
 303              		.loc 1 112 5 view .LVU106
 115:Core/Src/spi.c ****     HAL_NVIC_EnableIRQ(SPI1_IRQn);
 304              		.loc 1 115 5 view .LVU107
 305 00c4 0022     		movs	r2, #0
 306 00c6 0521     		movs	r1, #5
 307 00c8 2320     		movs	r0, #35
 308 00ca FFF7FEFF 		bl	HAL_NVIC_SetPriority
 309              	.LVL9:
 116:Core/Src/spi.c ****   /* USER CODE BEGIN SPI1_MspInit 1 */
 310              		.loc 1 116 5 view .LVU108
 311 00ce 2320     		movs	r0, #35
 312 00d0 FFF7FEFF 		bl	HAL_NVIC_EnableIRQ
 313              	.LVL10:
 314              		.loc 1 121 1 is_stmt 0 view .LVU109
 315 00d4 A1E7     		b	.L7
 316              	.L12:
 109:Core/Src/spi.c ****     }
 317              		.loc 1 109 7 is_stmt 1 view .LVU110
 318 00d6 FFF7FEFF 		bl	Error_Handler
 319              	.LVL11:
 320 00da F0E7     		b	.L9
 321              	.L14:
 322              		.align	2
 323              	.L13:
 324 00dc 00300140 		.word	1073819648
ARM GAS  C:\Users\ADMINI~1\AppData\Local\Temp\ccGPw5KX.s 			page 10


 325 00e0 00000240 		.word	1073872896
 326 00e4 00040240 		.word	1073873920
 327 00e8 00000000 		.word	.LANCHOR1
 328 00ec 58640240 		.word	1073898584
 329              		.cfi_endproc
 330              	.LFE236:
 332              		.section	.text.HAL_SPI_MspDeInit,"ax",%progbits
 333              		.align	1
 334              		.global	HAL_SPI_MspDeInit
 335              		.syntax unified
 336              		.thumb
 337              		.thumb_func
 339              	HAL_SPI_MspDeInit:
 340              	.LVL12:
 341              	.LFB237:
 122:Core/Src/spi.c **** 
 123:Core/Src/spi.c **** void HAL_SPI_MspDeInit(SPI_HandleTypeDef* spiHandle)
 124:Core/Src/spi.c **** {
 342              		.loc 1 124 1 view -0
 343              		.cfi_startproc
 344              		@ args = 0, pretend = 0, frame = 0
 345              		@ frame_needed = 0, uses_anonymous_args = 0
 125:Core/Src/spi.c **** 
 126:Core/Src/spi.c ****   if(spiHandle->Instance==SPI1)
 346              		.loc 1 126 3 view .LVU112
 347              		.loc 1 126 15 is_stmt 0 view .LVU113
 348 0000 0268     		ldr	r2, [r0]
 349              		.loc 1 126 5 view .LVU114
 350 0002 0D4B     		ldr	r3, .L22
 351 0004 9A42     		cmp	r2, r3
 352 0006 00D0     		beq	.L21
 353 0008 7047     		bx	lr
 354              	.L21:
 124:Core/Src/spi.c **** 
 355              		.loc 1 124 1 view .LVU115
 356 000a 10B5     		push	{r4, lr}
 357              	.LCFI5:
 358              		.cfi_def_cfa_offset 8
 359              		.cfi_offset 4, -8
 360              		.cfi_offset 14, -4
 361 000c 0446     		mov	r4, r0
 127:Core/Src/spi.c ****   {
 128:Core/Src/spi.c ****   /* USER CODE BEGIN SPI1_MspDeInit 0 */
 129:Core/Src/spi.c **** 
 130:Core/Src/spi.c ****   /* USER CODE END SPI1_MspDeInit 0 */
 131:Core/Src/spi.c ****     /* Peripheral clock disable */
 132:Core/Src/spi.c ****     __HAL_RCC_SPI1_CLK_DISABLE();
 362              		.loc 1 132 5 is_stmt 1 view .LVU116
 363 000e 0B4A     		ldr	r2, .L22+4
 364 0010 536C     		ldr	r3, [r2, #68]
 365 0012 23F48053 		bic	r3, r3, #4096
 366 0016 5364     		str	r3, [r2, #68]
 133:Core/Src/spi.c **** 
 134:Core/Src/spi.c ****     /**SPI1 GPIO Configuration
 135:Core/Src/spi.c ****     PA7     ------> SPI1_MOSI
 136:Core/Src/spi.c ****     PB3     ------> SPI1_SCK
 137:Core/Src/spi.c ****     */
ARM GAS  C:\Users\ADMINI~1\AppData\Local\Temp\ccGPw5KX.s 			page 11


 138:Core/Src/spi.c ****     HAL_GPIO_DeInit(LCD_SDA_GPIO_Port, LCD_SDA_Pin);
 367              		.loc 1 138 5 view .LVU117
 368 0018 8021     		movs	r1, #128
 369 001a 0948     		ldr	r0, .L22+8
 370              	.LVL13:
 371              		.loc 1 138 5 is_stmt 0 view .LVU118
 372 001c FFF7FEFF 		bl	HAL_GPIO_DeInit
 373              	.LVL14:
 139:Core/Src/spi.c **** 
 140:Core/Src/spi.c ****     HAL_GPIO_DeInit(LCD_SCL_GPIO_Port, LCD_SCL_Pin);
 374              		.loc 1 140 5 is_stmt 1 view .LVU119
 375 0020 0821     		movs	r1, #8
 376 0022 0848     		ldr	r0, .L22+12
 377 0024 FFF7FEFF 		bl	HAL_GPIO_DeInit
 378              	.LVL15:
 141:Core/Src/spi.c **** 
 142:Core/Src/spi.c ****     /* SPI1 DMA DeInit */
 143:Core/Src/spi.c ****     HAL_DMA_DeInit(spiHandle->hdmatx);
 379              		.loc 1 143 5 view .LVU120
 380 0028 A06C     		ldr	r0, [r4, #72]
 381 002a FFF7FEFF 		bl	HAL_DMA_DeInit
 382              	.LVL16:
 144:Core/Src/spi.c **** 
 145:Core/Src/spi.c ****     /* SPI1 interrupt Deinit */
 146:Core/Src/spi.c ****     HAL_NVIC_DisableIRQ(SPI1_IRQn);
 383              		.loc 1 146 5 view .LVU121
 384 002e 2320     		movs	r0, #35
 385 0030 FFF7FEFF 		bl	HAL_NVIC_DisableIRQ
 386              	.LVL17:
 147:Core/Src/spi.c ****   /* USER CODE BEGIN SPI1_MspDeInit 1 */
 148:Core/Src/spi.c **** 
 149:Core/Src/spi.c ****   /* USER CODE END SPI1_MspDeInit 1 */
 150:Core/Src/spi.c ****   }
 151:Core/Src/spi.c **** }
 387              		.loc 1 151 1 is_stmt 0 view .LVU122
 388 0034 10BD     		pop	{r4, pc}
 389              	.LVL18:
 390              	.L23:
 391              		.loc 1 151 1 view .LVU123
 392 0036 00BF     		.align	2
 393              	.L22:
 394 0038 00300140 		.word	1073819648
 395 003c 00380240 		.word	1073887232
 396 0040 00000240 		.word	1073872896
 397 0044 00040240 		.word	1073873920
 398              		.cfi_endproc
 399              	.LFE237:
 401              		.section	.text.GC9A01_spi_tx,"ax",%progbits
 402              		.align	1
 403              		.global	GC9A01_spi_tx
 404              		.syntax unified
 405              		.thumb
 406              		.thumb_func
 408              	GC9A01_spi_tx:
 409              	.LVL19:
 410              	.LFB238:
 152:Core/Src/spi.c **** 
ARM GAS  C:\Users\ADMINI~1\AppData\Local\Temp\ccGPw5KX.s 			page 12


 153:Core/Src/spi.c **** /* USER CODE BEGIN 1 */
 154:Core/Src/spi.c **** void GC9A01_spi_tx(uint8_t* data, size_t len)
 155:Core/Src/spi.c **** {
 411              		.loc 1 155 1 is_stmt 1 view -0
 412              		.cfi_startproc
 413              		@ args = 0, pretend = 0, frame = 0
 414              		@ frame_needed = 0, uses_anonymous_args = 0
 415              		.loc 1 155 1 is_stmt 0 view .LVU125
 416 0000 08B5     		push	{r3, lr}
 417              	.LCFI6:
 418              		.cfi_def_cfa_offset 8
 419              		.cfi_offset 3, -8
 420              		.cfi_offset 14, -4
 156:Core/Src/spi.c ****     HAL_SPI_Transmit(&hspi1, data, len, 100);
 421              		.loc 1 156 5 is_stmt 1 view .LVU126
 422 0002 6423     		movs	r3, #100
 423 0004 8AB2     		uxth	r2, r1
 424 0006 0146     		mov	r1, r0
 425              	.LVL20:
 426              		.loc 1 156 5 is_stmt 0 view .LVU127
 427 0008 0148     		ldr	r0, .L26
 428              	.LVL21:
 429              		.loc 1 156 5 view .LVU128
 430 000a FFF7FEFF 		bl	HAL_SPI_Transmit
 431              	.LVL22:
 157:Core/Src/spi.c **** }
 432              		.loc 1 157 1 view .LVU129
 433 000e 08BD     		pop	{r3, pc}
 434              	.L27:
 435              		.align	2
 436              	.L26:
 437 0010 00000000 		.word	.LANCHOR0
 438              		.cfi_endproc
 439              	.LFE238:
 441              		.section	.text.GC9A01_spi_tx_dma,"ax",%progbits
 442              		.align	1
 443              		.global	GC9A01_spi_tx_dma
 444              		.syntax unified
 445              		.thumb
 446              		.thumb_func
 448              	GC9A01_spi_tx_dma:
 449              	.LVL23:
 450              	.LFB239:
 158:Core/Src/spi.c **** 
 159:Core/Src/spi.c **** void GC9A01_spi_tx_dma(uint8_t* data, size_t len)
 160:Core/Src/spi.c **** {
 451              		.loc 1 160 1 is_stmt 1 view -0
 452              		.cfi_startproc
 453              		@ args = 0, pretend = 0, frame = 0
 454              		@ frame_needed = 0, uses_anonymous_args = 0
 455              		.loc 1 160 1 is_stmt 0 view .LVU131
 456 0000 08B5     		push	{r3, lr}
 457              	.LCFI7:
 458              		.cfi_def_cfa_offset 8
 459              		.cfi_offset 3, -8
 460              		.cfi_offset 14, -4
 161:Core/Src/spi.c ****     HAL_SPI_Transmit_DMA(&hspi1, data, len);
ARM GAS  C:\Users\ADMINI~1\AppData\Local\Temp\ccGPw5KX.s 			page 13


 461              		.loc 1 161 5 is_stmt 1 view .LVU132
 462 0002 8AB2     		uxth	r2, r1
 463 0004 0146     		mov	r1, r0
 464              	.LVL24:
 465              		.loc 1 161 5 is_stmt 0 view .LVU133
 466 0006 0248     		ldr	r0, .L30
 467              	.LVL25:
 468              		.loc 1 161 5 view .LVU134
 469 0008 FFF7FEFF 		bl	HAL_SPI_Transmit_DMA
 470              	.LVL26:
 162:Core/Src/spi.c **** }
 471              		.loc 1 162 1 view .LVU135
 472 000c 08BD     		pop	{r3, pc}
 473              	.L31:
 474 000e 00BF     		.align	2
 475              	.L30:
 476 0010 00000000 		.word	.LANCHOR0
 477              		.cfi_endproc
 478              	.LFE239:
 480              		.global	hdma_spi1_tx
 481              		.global	hspi1
 482              		.section	.bss.hdma_spi1_tx,"aw",%nobits
 483              		.align	2
 484              		.set	.LANCHOR1,. + 0
 487              	hdma_spi1_tx:
 488 0000 00000000 		.space	96
 488      00000000 
 488      00000000 
 488      00000000 
 488      00000000 
 489              		.section	.bss.hspi1,"aw",%nobits
 490              		.align	2
 491              		.set	.LANCHOR0,. + 0
 494              	hspi1:
 495 0000 00000000 		.space	88
 495      00000000 
 495      00000000 
 495      00000000 
 495      00000000 
 496              		.text
 497              	.Letext0:
 498              		.file 2 "c:\\program files (x86)\\gnu arm embedded toolchain\\10 2021.10\\arm-none-eabi\\include\\
 499              		.file 3 "c:\\program files (x86)\\gnu arm embedded toolchain\\10 2021.10\\arm-none-eabi\\include\\
 500              		.file 4 "Drivers/CMSIS/Device/ST/STM32F4xx/Include/stm32f405xx.h"
 501              		.file 5 "c:\\program files (x86)\\gnu arm embedded toolchain\\10 2021.10\\lib\\gcc\\arm-none-eabi\
 502              		.file 6 "Drivers/STM32F4xx_HAL_Driver/Inc/stm32f4xx_hal_def.h"
 503              		.file 7 "Drivers/STM32F4xx_HAL_Driver/Inc/stm32f4xx_hal_gpio.h"
 504              		.file 8 "Drivers/STM32F4xx_HAL_Driver/Inc/stm32f4xx_hal_dma.h"
 505              		.file 9 "Drivers/STM32F4xx_HAL_Driver/Inc/stm32f4xx_hal_spi.h"
 506              		.file 10 "Core/Inc/spi.h"
 507              		.file 11 "Drivers/STM32F4xx_HAL_Driver/Inc/stm32f4xx_hal_cortex.h"
 508              		.file 12 "Core/Inc/main.h"
ARM GAS  C:\Users\ADMINI~1\AppData\Local\Temp\ccGPw5KX.s 			page 14

