ARM GAS  C:\Users\ADMINI~1\AppData\Local\Temp\ccJu2hw5.s 			page 1


   1              		.cpu cortex-m4
   2              		.arch armv7e-m
   3              		.fpu fpv4-sp-d16
   4              		.eabi_attribute 27, 1
   5              		.eabi_attribute 28, 1
   6              		.eabi_attribute 20, 1
   7              		.eabi_attribute 21, 1
   8              		.eabi_attribute 23, 3
   9              		.eabi_attribute 24, 1
  10              		.eabi_attribute 25, 1
  11              		.eabi_attribute 26, 1
  12              		.eabi_attribute 30, 1
  13              		.eabi_attribute 34, 1
  14              		.eabi_attribute 18, 4
  15              		.file	"usbd_cdc_if.cpp"
  16              		.text
  17              	.Ltext0:
  18              		.cfi_sections	.debug_frame
  19              		.section	.text._ZL13CDC_DeInit_HSv,"ax",%progbits
  20              		.align	1
  21              		.syntax unified
  22              		.thumb
  23              		.thumb_func
  25              	_ZL13CDC_DeInit_HSv:
  26              		.fnstart
  27              	.LFB257:
  28              		.file 1 "UserApp/usbd_cdc_if.cpp"
   1:UserApp/usbd_cdc_if.cpp **** #include "usbd_cdc_if.h"
   2:UserApp/usbd_cdc_if.cpp **** #include "robot.h"
   3:UserApp/usbd_cdc_if.cpp **** 
   4:UserApp/usbd_cdc_if.cpp **** extern Robot electron;
   5:UserApp/usbd_cdc_if.cpp **** extern USBD_HandleTypeDef hUsbDeviceHS;
   6:UserApp/usbd_cdc_if.cpp **** 
   7:UserApp/usbd_cdc_if.cpp **** 
   8:UserApp/usbd_cdc_if.cpp **** static int8_t CDC_Init_HS();
   9:UserApp/usbd_cdc_if.cpp **** static int8_t CDC_DeInit_HS();
  10:UserApp/usbd_cdc_if.cpp **** static int8_t CDC_Control_HS(uint8_t cmd, uint8_t* pbuf, uint16_t length);
  11:UserApp/usbd_cdc_if.cpp **** static int8_t CDC_Receive_HS(uint8_t* pbuf, uint32_t* Len);
  12:UserApp/usbd_cdc_if.cpp **** static int8_t CDC_TransmitCplt_HS(uint8_t* pbuf, uint32_t* Len, uint8_t epnum);
  13:UserApp/usbd_cdc_if.cpp **** 
  14:UserApp/usbd_cdc_if.cpp **** 
  15:UserApp/usbd_cdc_if.cpp **** USBD_CDC_ItfTypeDef USBD_Interface_fops_HS =
  16:UserApp/usbd_cdc_if.cpp ****     {
  17:UserApp/usbd_cdc_if.cpp ****         CDC_Init_HS,
  18:UserApp/usbd_cdc_if.cpp ****         CDC_DeInit_HS,
  19:UserApp/usbd_cdc_if.cpp ****         CDC_Control_HS,
  20:UserApp/usbd_cdc_if.cpp ****         CDC_Receive_HS,
  21:UserApp/usbd_cdc_if.cpp ****         CDC_TransmitCplt_HS
  22:UserApp/usbd_cdc_if.cpp ****     };
  23:UserApp/usbd_cdc_if.cpp **** 
  24:UserApp/usbd_cdc_if.cpp **** 
  25:UserApp/usbd_cdc_if.cpp **** static int8_t CDC_Init_HS()
  26:UserApp/usbd_cdc_if.cpp **** {
  27:UserApp/usbd_cdc_if.cpp ****     USBD_CDC_SetTxBuffer(&hUsbDeviceHS, electron.usbBuffer.extraDataTx, 0);
  28:UserApp/usbd_cdc_if.cpp ****     USBD_CDC_SetRxBuffer(&hUsbDeviceHS, electron.usbBuffer.rxData[electron.usbBuffer.pingPongIndex]
  29:UserApp/usbd_cdc_if.cpp ****     return (USBD_OK);
  30:UserApp/usbd_cdc_if.cpp **** }
ARM GAS  C:\Users\ADMINI~1\AppData\Local\Temp\ccJu2hw5.s 			page 2


  31:UserApp/usbd_cdc_if.cpp **** 
  32:UserApp/usbd_cdc_if.cpp **** 
  33:UserApp/usbd_cdc_if.cpp **** static int8_t CDC_DeInit_HS()
  34:UserApp/usbd_cdc_if.cpp **** {
  29              		.loc 1 34 1 view -0
  30              		.cfi_startproc
  31              		@ args = 0, pretend = 0, frame = 0
  32              		@ frame_needed = 0, uses_anonymous_args = 0
  33              		@ link register save eliminated.
  35:UserApp/usbd_cdc_if.cpp ****     return (USBD_OK);
  34              		.loc 1 35 5 view .LVU1
  36:UserApp/usbd_cdc_if.cpp **** }
  35              		.loc 1 36 1 is_stmt 0 view .LVU2
  36 0000 0020     		movs	r0, #0
  37 0002 7047     		bx	lr
  38              		.cfi_endproc
  39              	.LFE257:
  40              		.cantunwind
  41              		.fnend
  43              		.section	.text._ZL14CDC_Control_HShPht,"ax",%progbits
  44              		.align	1
  45              		.syntax unified
  46              		.thumb
  47              		.thumb_func
  49              	_ZL14CDC_Control_HShPht:
  50              		.fnstart
  51              	.LVL0:
  52              	.LFB258:
  37:UserApp/usbd_cdc_if.cpp **** 
  38:UserApp/usbd_cdc_if.cpp **** 
  39:UserApp/usbd_cdc_if.cpp **** static int8_t CDC_Control_HS(uint8_t cmd, uint8_t* pbuf, uint16_t length)
  40:UserApp/usbd_cdc_if.cpp **** {
  53              		.loc 1 40 1 is_stmt 1 view -0
  54              		.cfi_startproc
  55              		@ args = 0, pretend = 0, frame = 0
  56              		@ frame_needed = 0, uses_anonymous_args = 0
  57              		@ link register save eliminated.
  41:UserApp/usbd_cdc_if.cpp ****     switch (cmd)
  58              		.loc 1 41 5 view .LVU4
  42:UserApp/usbd_cdc_if.cpp ****     {
  43:UserApp/usbd_cdc_if.cpp ****         case CDC_SEND_ENCAPSULATED_COMMAND:
  44:UserApp/usbd_cdc_if.cpp **** 
  45:UserApp/usbd_cdc_if.cpp ****             break;
  46:UserApp/usbd_cdc_if.cpp **** 
  47:UserApp/usbd_cdc_if.cpp ****         case CDC_GET_ENCAPSULATED_RESPONSE:
  48:UserApp/usbd_cdc_if.cpp **** 
  49:UserApp/usbd_cdc_if.cpp ****             break;
  50:UserApp/usbd_cdc_if.cpp **** 
  51:UserApp/usbd_cdc_if.cpp ****         case CDC_SET_COMM_FEATURE:
  52:UserApp/usbd_cdc_if.cpp **** 
  53:UserApp/usbd_cdc_if.cpp ****             break;
  54:UserApp/usbd_cdc_if.cpp **** 
  55:UserApp/usbd_cdc_if.cpp ****         case CDC_GET_COMM_FEATURE:
  56:UserApp/usbd_cdc_if.cpp **** 
  57:UserApp/usbd_cdc_if.cpp ****             break;
  58:UserApp/usbd_cdc_if.cpp **** 
  59:UserApp/usbd_cdc_if.cpp ****         case CDC_CLEAR_COMM_FEATURE:
ARM GAS  C:\Users\ADMINI~1\AppData\Local\Temp\ccJu2hw5.s 			page 3


  60:UserApp/usbd_cdc_if.cpp **** 
  61:UserApp/usbd_cdc_if.cpp ****             break;
  62:UserApp/usbd_cdc_if.cpp **** 
  63:UserApp/usbd_cdc_if.cpp ****             /*******************************************************************************/
  64:UserApp/usbd_cdc_if.cpp ****             /* Line Coding Structure                                                       */
  65:UserApp/usbd_cdc_if.cpp ****             /*-----------------------------------------------------------------------------*/
  66:UserApp/usbd_cdc_if.cpp ****             /* Offset | Field       | Size | Value  | Description                          */
  67:UserApp/usbd_cdc_if.cpp ****             /* 0      | dwDTERate   |   4  | Number |Data terminal rate, in bits per second*/
  68:UserApp/usbd_cdc_if.cpp ****             /* 4      | bCharFormat |   1  | Number | Stop bits                            */
  69:UserApp/usbd_cdc_if.cpp ****             /*                                        0 - 1 Stop bit                       */
  70:UserApp/usbd_cdc_if.cpp ****             /*                                        1 - 1.5 Stop bits                    */
  71:UserApp/usbd_cdc_if.cpp ****             /*                                        2 - 2 Stop bits                      */
  72:UserApp/usbd_cdc_if.cpp ****             /* 5      | bParityType |  1   | Number | Parity                               */
  73:UserApp/usbd_cdc_if.cpp ****             /*                                        0 - None                             */
  74:UserApp/usbd_cdc_if.cpp ****             /*                                        1 - Odd                              */
  75:UserApp/usbd_cdc_if.cpp ****             /*                                        2 - Even                             */
  76:UserApp/usbd_cdc_if.cpp ****             /*                                        3 - Mark                             */
  77:UserApp/usbd_cdc_if.cpp ****             /*                                        4 - Space                            */
  78:UserApp/usbd_cdc_if.cpp ****             /* 6      | bDataBits  |   1   | Number Data bits (5, 6, 7, 8 or 16).          */
  79:UserApp/usbd_cdc_if.cpp ****             /*******************************************************************************/
  80:UserApp/usbd_cdc_if.cpp ****         case CDC_SET_LINE_CODING:
  81:UserApp/usbd_cdc_if.cpp **** 
  82:UserApp/usbd_cdc_if.cpp ****             break;
  83:UserApp/usbd_cdc_if.cpp **** 
  84:UserApp/usbd_cdc_if.cpp ****         case CDC_GET_LINE_CODING:
  85:UserApp/usbd_cdc_if.cpp **** 
  86:UserApp/usbd_cdc_if.cpp ****             break;
  87:UserApp/usbd_cdc_if.cpp **** 
  88:UserApp/usbd_cdc_if.cpp ****         case CDC_SET_CONTROL_LINE_STATE:
  89:UserApp/usbd_cdc_if.cpp **** 
  90:UserApp/usbd_cdc_if.cpp ****             break;
  91:UserApp/usbd_cdc_if.cpp **** 
  92:UserApp/usbd_cdc_if.cpp ****         case CDC_SEND_BREAK:
  93:UserApp/usbd_cdc_if.cpp **** 
  94:UserApp/usbd_cdc_if.cpp ****             break;
  95:UserApp/usbd_cdc_if.cpp **** 
  96:UserApp/usbd_cdc_if.cpp ****         default:
  97:UserApp/usbd_cdc_if.cpp ****             break;
  98:UserApp/usbd_cdc_if.cpp ****     }
  99:UserApp/usbd_cdc_if.cpp **** 
 100:UserApp/usbd_cdc_if.cpp ****     return (USBD_OK);
  59              		.loc 1 100 5 view .LVU5
 101:UserApp/usbd_cdc_if.cpp **** }
  60              		.loc 1 101 1 is_stmt 0 view .LVU6
  61 0000 0020     		movs	r0, #0
  62              	.LVL1:
  63              		.loc 1 101 1 view .LVU7
  64 0002 7047     		bx	lr
  65              		.cfi_endproc
  66              	.LFE258:
  67              		.cantunwind
  68              		.fnend
  70              		.section	.text._ZL19CDC_TransmitCplt_HSPhPmh,"ax",%progbits
  71              		.align	1
  72              		.syntax unified
  73              		.thumb
  74              		.thumb_func
ARM GAS  C:\Users\ADMINI~1\AppData\Local\Temp\ccJu2hw5.s 			page 4


  76              	_ZL19CDC_TransmitCplt_HSPhPmh:
  77              		.fnstart
  78              	.LVL2:
  79              	.LFB261:
 102:UserApp/usbd_cdc_if.cpp **** 
 103:UserApp/usbd_cdc_if.cpp **** 
 104:UserApp/usbd_cdc_if.cpp **** static int8_t CDC_Receive_HS(uint8_t* Buf, uint32_t* Len)
 105:UserApp/usbd_cdc_if.cpp **** {
 106:UserApp/usbd_cdc_if.cpp ****     // USBD_CDC_SetRxBuffer(&hUsbDeviceHS, frameBuffer[1]);
 107:UserApp/usbd_cdc_if.cpp ****     // USBD_CDC_ReceivePacket(&hUsbDeviceHS);
 108:UserApp/usbd_cdc_if.cpp ****     // Use LL version code instead
 109:UserApp/usbd_cdc_if.cpp **** 
 110:UserApp/usbd_cdc_if.cpp ****     // Got data length
 111:UserApp/usbd_cdc_if.cpp ****     electron.usbBuffer.receivedPacketLen = *Len;
 112:UserApp/usbd_cdc_if.cpp ****     if (electron.usbBuffer.receivedPacketLen == 224)
 113:UserApp/usbd_cdc_if.cpp ****         electron.SwitchPingPongBuffer();
 114:UserApp/usbd_cdc_if.cpp **** 
 115:UserApp/usbd_cdc_if.cpp ****     // Prepare next receive
 116:UserApp/usbd_cdc_if.cpp ****     USBD_CDC_HandleTypeDef* hcdc = (USBD_CDC_HandleTypeDef*) (hUsbDeviceHS.pClassData);
 117:UserApp/usbd_cdc_if.cpp **** 
 118:UserApp/usbd_cdc_if.cpp ****     // Set receive buffer
 119:UserApp/usbd_cdc_if.cpp ****     hcdc->RxBuffer = electron.GetPingPongBufferPtr();
 120:UserApp/usbd_cdc_if.cpp ****     if (electron.usbBuffer.receivedPacketLen == 512)
 121:UserApp/usbd_cdc_if.cpp ****     {
 122:UserApp/usbd_cdc_if.cpp ****         electron.usbBuffer.rxDataOffset += 512;
 123:UserApp/usbd_cdc_if.cpp ****     }
 124:UserApp/usbd_cdc_if.cpp **** 
 125:UserApp/usbd_cdc_if.cpp ****     return USBD_LL_PrepareReceive(&hUsbDeviceHS, CDC_OUT_EP, hcdc->RxBuffer, CDC_DATA_HS_OUT_PACKET
 126:UserApp/usbd_cdc_if.cpp **** 
 127:UserApp/usbd_cdc_if.cpp **** }
 128:UserApp/usbd_cdc_if.cpp **** 
 129:UserApp/usbd_cdc_if.cpp **** 
 130:UserApp/usbd_cdc_if.cpp **** uint8_t CDC_Transmit_HS(uint8_t* Buf, uint16_t Len)
 131:UserApp/usbd_cdc_if.cpp **** {
 132:UserApp/usbd_cdc_if.cpp ****     uint8_t result = USBD_OK;
 133:UserApp/usbd_cdc_if.cpp ****     USBD_CDC_HandleTypeDef* hcdc = (USBD_CDC_HandleTypeDef*) hUsbDeviceHS.pClassData;
 134:UserApp/usbd_cdc_if.cpp ****     if (hcdc->TxState != 0)
 135:UserApp/usbd_cdc_if.cpp ****     {
 136:UserApp/usbd_cdc_if.cpp ****         return USBD_BUSY;
 137:UserApp/usbd_cdc_if.cpp ****     }
 138:UserApp/usbd_cdc_if.cpp ****     USBD_CDC_SetTxBuffer(&hUsbDeviceHS, Buf, Len);
 139:UserApp/usbd_cdc_if.cpp ****     result = USBD_CDC_TransmitPacket(&hUsbDeviceHS);
 140:UserApp/usbd_cdc_if.cpp ****     return result;
 141:UserApp/usbd_cdc_if.cpp **** }
 142:UserApp/usbd_cdc_if.cpp **** 
 143:UserApp/usbd_cdc_if.cpp **** 
 144:UserApp/usbd_cdc_if.cpp **** static int8_t CDC_TransmitCplt_HS(uint8_t* Buf, uint32_t* Len, uint8_t epnum)
 145:UserApp/usbd_cdc_if.cpp **** {
  80              		.loc 1 145 1 is_stmt 1 view -0
  81              		.cfi_startproc
  82              		@ args = 0, pretend = 0, frame = 0
  83              		@ frame_needed = 0, uses_anonymous_args = 0
  84              		@ link register save eliminated.
 146:UserApp/usbd_cdc_if.cpp ****     uint8_t result = USBD_OK;
  85              		.loc 1 146 5 view .LVU9
 147:UserApp/usbd_cdc_if.cpp ****     UNUSED(Buf);
  86              		.loc 1 147 5 view .LVU10
ARM GAS  C:\Users\ADMINI~1\AppData\Local\Temp\ccJu2hw5.s 			page 5


 148:UserApp/usbd_cdc_if.cpp ****     UNUSED(Len);
  87              		.loc 1 148 5 view .LVU11
 149:UserApp/usbd_cdc_if.cpp ****     UNUSED(epnum);
  88              		.loc 1 149 5 view .LVU12
 150:UserApp/usbd_cdc_if.cpp ****     return result;
  89              		.loc 1 150 5 view .LVU13
 151:UserApp/usbd_cdc_if.cpp **** }
  90              		.loc 1 151 1 is_stmt 0 view .LVU14
  91 0000 0020     		movs	r0, #0
  92              	.LVL3:
  93              		.loc 1 151 1 view .LVU15
  94 0002 7047     		bx	lr
  95              		.cfi_endproc
  96              	.LFE261:
  97              		.cantunwind
  98              		.fnend
 100              		.section	.text._ZL14CDC_Receive_HSPhPm,"ax",%progbits
 101              		.align	1
 102              		.syntax unified
 103              		.thumb
 104              		.thumb_func
 106              	_ZL14CDC_Receive_HSPhPm:
 107              		.fnstart
 108              	.LVL4:
 109              	.LFB259:
 105:UserApp/usbd_cdc_if.cpp ****     // USBD_CDC_SetRxBuffer(&hUsbDeviceHS, frameBuffer[1]);
 110              		.loc 1 105 1 is_stmt 1 view -0
 111              		.cfi_startproc
 112              		@ args = 0, pretend = 0, frame = 0
 113              		@ frame_needed = 0, uses_anonymous_args = 0
 105:UserApp/usbd_cdc_if.cpp ****     // USBD_CDC_SetRxBuffer(&hUsbDeviceHS, frameBuffer[1]);
 114              		.loc 1 105 1 is_stmt 0 view .LVU17
 115 0000 38B5     		push	{r3, r4, r5, lr}
 116              		.save {r3, r4, r5, lr}
 117              	.LCFI0:
 118              		.cfi_def_cfa_offset 16
 119              		.cfi_offset 3, -16
 120              		.cfi_offset 4, -12
 121              		.cfi_offset 5, -8
 122              		.cfi_offset 14, -4
 111:UserApp/usbd_cdc_if.cpp ****     if (electron.usbBuffer.receivedPacketLen == 224)
 123              		.loc 1 111 5 is_stmt 1 view .LVU18
 111:UserApp/usbd_cdc_if.cpp ****     if (electron.usbBuffer.receivedPacketLen == 224)
 124              		.loc 1 111 42 is_stmt 0 view .LVU19
 125 0002 0A88     		ldrh	r2, [r1]
 126 0004 164B     		ldr	r3, .L10
 127 0006 A3F8E021 		strh	r2, [r3, #480]	@ movhi
 112:UserApp/usbd_cdc_if.cpp ****         electron.SwitchPingPongBuffer();
 128              		.loc 1 112 5 is_stmt 1 view .LVU20
 112:UserApp/usbd_cdc_if.cpp ****         electron.SwitchPingPongBuffer();
 129              		.loc 1 112 28 is_stmt 0 view .LVU21
 130 000a B3F8E031 		ldrh	r3, [r3, #480]
 131 000e 9BB2     		uxth	r3, r3
 112:UserApp/usbd_cdc_if.cpp ****         electron.SwitchPingPongBuffer();
 132              		.loc 1 112 5 view .LVU22
 133 0010 E02B     		cmp	r3, #224
 134 0012 1AD0     		beq	.L8
ARM GAS  C:\Users\ADMINI~1\AppData\Local\Temp\ccJu2hw5.s 			page 6


 135              	.LVL5:
 136              	.L5:
 116:UserApp/usbd_cdc_if.cpp **** 
 137              		.loc 1 116 5 is_stmt 1 view .LVU23
 116:UserApp/usbd_cdc_if.cpp **** 
 138              		.loc 1 116 29 is_stmt 0 view .LVU24
 139 0014 134B     		ldr	r3, .L10+4
 140 0016 D3F8BC52 		ldr	r5, [r3, #700]
 141              	.LVL6:
 119:UserApp/usbd_cdc_if.cpp ****     if (electron.usbBuffer.receivedPacketLen == 512)
 142              		.loc 1 119 5 is_stmt 1 view .LVU25
 119:UserApp/usbd_cdc_if.cpp ****     if (electron.usbBuffer.receivedPacketLen == 512)
 143              		.loc 1 119 51 is_stmt 0 view .LVU26
 144 001a 134C     		ldr	r4, .L10+8
 145 001c 2046     		mov	r0, r4
 146 001e FFF7FEFF 		bl	_ZN5Robot20GetPingPongBufferPtrEv
 147              	.LVL7:
 119:UserApp/usbd_cdc_if.cpp ****     if (electron.usbBuffer.receivedPacketLen == 512)
 148              		.loc 1 119 20 view .LVU27
 149 0022 C5F80402 		str	r0, [r5, #516]
 120:UserApp/usbd_cdc_if.cpp ****     {
 150              		.loc 1 120 5 is_stmt 1 view .LVU28
 120:UserApp/usbd_cdc_if.cpp ****     {
 151              		.loc 1 120 28 is_stmt 0 view .LVU29
 152 0026 04F5A834 		add	r4, r4, #86016
 153 002a B4F8E031 		ldrh	r3, [r4, #480]
 154 002e 9BB2     		uxth	r3, r3
 120:UserApp/usbd_cdc_if.cpp ****     {
 155              		.loc 1 120 5 view .LVU30
 156 0030 B3F5007F 		cmp	r3, #512
 157 0034 0DD0     		beq	.L9
 158              	.L6:
 125:UserApp/usbd_cdc_if.cpp **** 
 159              		.loc 1 125 5 is_stmt 1 view .LVU31
 125:UserApp/usbd_cdc_if.cpp **** 
 160              		.loc 1 125 34 is_stmt 0 view .LVU32
 161 0036 4FF40073 		mov	r3, #512
 162 003a D5F80422 		ldr	r2, [r5, #516]
 163 003e 0121     		movs	r1, #1
 164 0040 0848     		ldr	r0, .L10+4
 165 0042 FFF7FEFF 		bl	USBD_LL_PrepareReceive
 166              	.LVL8:
 127:UserApp/usbd_cdc_if.cpp **** 
 167              		.loc 1 127 1 view .LVU33
 168 0046 40B2     		sxtb	r0, r0
 169 0048 38BD     		pop	{r3, r4, r5, pc}
 170              	.LVL9:
 171              	.L8:
 113:UserApp/usbd_cdc_if.cpp **** 
 172              		.loc 1 113 9 is_stmt 1 view .LVU34
 113:UserApp/usbd_cdc_if.cpp **** 
 173              		.loc 1 113 38 is_stmt 0 view .LVU35
 174 004a 0748     		ldr	r0, .L10+8
 175              	.LVL10:
 113:UserApp/usbd_cdc_if.cpp **** 
 176              		.loc 1 113 38 view .LVU36
 177 004c FFF7FEFF 		bl	_ZN5Robot20SwitchPingPongBufferEv
ARM GAS  C:\Users\ADMINI~1\AppData\Local\Temp\ccJu2hw5.s 			page 7


 178              	.LVL11:
 113:UserApp/usbd_cdc_if.cpp **** 
 179              		.loc 1 113 38 view .LVU37
 180 0050 E0E7     		b	.L5
 181              	.LVL12:
 182              	.L9:
 122:UserApp/usbd_cdc_if.cpp ****     }
 183              		.loc 1 122 9 is_stmt 1 view .LVU38
 122:UserApp/usbd_cdc_if.cpp ****     }
 184              		.loc 1 122 41 is_stmt 0 view .LVU39
 185 0052 D4F8E431 		ldr	r3, [r4, #484]
 186 0056 03F50073 		add	r3, r3, #512
 187 005a C4F8E431 		str	r3, [r4, #484]
 188 005e EAE7     		b	.L6
 189              	.L11:
 190              		.align	2
 191              	.L10:
 192 0060 00500100 		.word	electron+86016
 193 0064 00000000 		.word	hUsbDeviceHS
 194 0068 00000000 		.word	electron
 195              		.cfi_endproc
 196              	.LFE259:
 197              		.fnend
 199              		.section	.text._ZL11CDC_Init_HSv,"ax",%progbits
 200              		.align	1
 201              		.syntax unified
 202              		.thumb
 203              		.thumb_func
 205              	_ZL11CDC_Init_HSv:
 206              		.fnstart
 207              	.LFB256:
  26:UserApp/usbd_cdc_if.cpp ****     USBD_CDC_SetTxBuffer(&hUsbDeviceHS, electron.usbBuffer.extraDataTx, 0);
 208              		.loc 1 26 1 is_stmt 1 view -0
 209              		.cfi_startproc
 210              		@ args = 0, pretend = 0, frame = 0
 211              		@ frame_needed = 0, uses_anonymous_args = 0
 212 0000 38B5     		push	{r3, r4, r5, lr}
 213              		.save {r3, r4, r5, lr}
 214              	.LCFI1:
 215              		.cfi_def_cfa_offset 16
 216              		.cfi_offset 3, -16
 217              		.cfi_offset 4, -12
 218              		.cfi_offset 5, -8
 219              		.cfi_offset 14, -4
  27:UserApp/usbd_cdc_if.cpp ****     USBD_CDC_SetRxBuffer(&hUsbDeviceHS, electron.usbBuffer.rxData[electron.usbBuffer.pingPongIndex]
 220              		.loc 1 27 5 view .LVU41
  27:UserApp/usbd_cdc_if.cpp ****     USBD_CDC_SetRxBuffer(&hUsbDeviceHS, electron.usbBuffer.rxData[electron.usbBuffer.pingPongIndex]
 221              		.loc 1 27 25 is_stmt 0 view .LVU42
 222 0002 0B4C     		ldr	r4, .L14
 223 0004 0B4D     		ldr	r5, .L14+4
 224 0006 0022     		movs	r2, #0
 225 0008 2146     		mov	r1, r4
 226 000a 2846     		mov	r0, r5
 227 000c FFF7FEFF 		bl	USBD_CDC_SetTxBuffer
 228              	.LVL13:
  28:UserApp/usbd_cdc_if.cpp ****     return (USBD_OK);
 229              		.loc 1 28 5 is_stmt 1 view .LVU43
ARM GAS  C:\Users\ADMINI~1\AppData\Local\Temp\ccJu2hw5.s 			page 8


  28:UserApp/usbd_cdc_if.cpp ****     return (USBD_OK);
 230              		.loc 1 28 86 is_stmt 0 view .LVU44
 231 0010 04F5A833 		add	r3, r4, #86016
 232 0014 93F8E231 		ldrb	r3, [r3, #482]	@ zero_extendqisi2
  28:UserApp/usbd_cdc_if.cpp ****     return (USBD_OK);
 233              		.loc 1 28 99 view .LVU45
 234 0018 4AF6E001 		movw	r1, #43232
 235 001c 03FB01F1 		mul	r1, r3, r1
 236 0020 2031     		adds	r1, r1, #32
  28:UserApp/usbd_cdc_if.cpp ****     return (USBD_OK);
 237              		.loc 1 28 25 view .LVU46
 238 0022 2144     		add	r1, r1, r4
 239 0024 2846     		mov	r0, r5
 240 0026 FFF7FEFF 		bl	USBD_CDC_SetRxBuffer
 241              	.LVL14:
  29:UserApp/usbd_cdc_if.cpp **** }
 242              		.loc 1 29 5 is_stmt 1 view .LVU47
  30:UserApp/usbd_cdc_if.cpp **** 
 243              		.loc 1 30 1 is_stmt 0 view .LVU48
 244 002a 0020     		movs	r0, #0
 245 002c 38BD     		pop	{r3, r4, r5, pc}
 246              	.L15:
 247 002e 00BF     		.align	2
 248              	.L14:
 249 0030 00000000 		.word	electron
 250 0034 00000000 		.word	hUsbDeviceHS
 251              		.cfi_endproc
 252              	.LFE256:
 253              		.fnend
 255              		.section	.text._Z15CDC_Transmit_HSPht,"ax",%progbits
 256              		.align	1
 257              		.global	_Z15CDC_Transmit_HSPht
 258              		.syntax unified
 259              		.thumb
 260              		.thumb_func
 262              	_Z15CDC_Transmit_HSPht:
 263              		.fnstart
 264              	.LVL15:
 265              	.LFB260:
 131:UserApp/usbd_cdc_if.cpp ****     uint8_t result = USBD_OK;
 266              		.loc 1 131 1 is_stmt 1 view -0
 267              		.cfi_startproc
 268              		@ args = 0, pretend = 0, frame = 0
 269              		@ frame_needed = 0, uses_anonymous_args = 0
 132:UserApp/usbd_cdc_if.cpp ****     USBD_CDC_HandleTypeDef* hcdc = (USBD_CDC_HandleTypeDef*) hUsbDeviceHS.pClassData;
 270              		.loc 1 132 5 view .LVU50
 133:UserApp/usbd_cdc_if.cpp ****     if (hcdc->TxState != 0)
 271              		.loc 1 133 5 view .LVU51
 133:UserApp/usbd_cdc_if.cpp ****     if (hcdc->TxState != 0)
 272              		.loc 1 133 29 is_stmt 0 view .LVU52
 273 0000 094B     		ldr	r3, .L24
 274 0002 D3F8BC32 		ldr	r3, [r3, #700]
 275              	.LVL16:
 134:UserApp/usbd_cdc_if.cpp ****     {
 276              		.loc 1 134 5 is_stmt 1 view .LVU53
 134:UserApp/usbd_cdc_if.cpp ****     {
 277              		.loc 1 134 15 is_stmt 0 view .LVU54
ARM GAS  C:\Users\ADMINI~1\AppData\Local\Temp\ccJu2hw5.s 			page 9


 278 0006 D3F81432 		ldr	r3, [r3, #532]
 279              	.LVL17:
 134:UserApp/usbd_cdc_if.cpp ****     {
 280              		.loc 1 134 5 view .LVU55
 281 000a 0BB1     		cbz	r3, .L23
 136:UserApp/usbd_cdc_if.cpp ****     }
 282              		.loc 1 136 16 view .LVU56
 283 000c 0120     		movs	r0, #1
 284              	.LVL18:
 141:UserApp/usbd_cdc_if.cpp **** 
 285              		.loc 1 141 1 view .LVU57
 286 000e 7047     		bx	lr
 287              	.LVL19:
 288              	.L23:
 131:UserApp/usbd_cdc_if.cpp ****     uint8_t result = USBD_OK;
 289              		.loc 1 131 1 view .LVU58
 290 0010 10B5     		push	{r4, lr}
 291              		.save {r4, lr}
 292              	.LCFI2:
 293              		.cfi_def_cfa_offset 8
 294              		.cfi_offset 4, -8
 295              		.cfi_offset 14, -4
 138:UserApp/usbd_cdc_if.cpp ****     result = USBD_CDC_TransmitPacket(&hUsbDeviceHS);
 296              		.loc 1 138 5 is_stmt 1 view .LVU59
 138:UserApp/usbd_cdc_if.cpp ****     result = USBD_CDC_TransmitPacket(&hUsbDeviceHS);
 297              		.loc 1 138 25 is_stmt 0 view .LVU60
 298 0012 054C     		ldr	r4, .L24
 299              	.LVL20:
 138:UserApp/usbd_cdc_if.cpp ****     result = USBD_CDC_TransmitPacket(&hUsbDeviceHS);
 300              		.loc 1 138 25 view .LVU61
 301 0014 0A46     		mov	r2, r1
 302 0016 0146     		mov	r1, r0
 303              	.LVL21:
 138:UserApp/usbd_cdc_if.cpp ****     result = USBD_CDC_TransmitPacket(&hUsbDeviceHS);
 304              		.loc 1 138 25 view .LVU62
 305 0018 2046     		mov	r0, r4
 306              	.LVL22:
 138:UserApp/usbd_cdc_if.cpp ****     result = USBD_CDC_TransmitPacket(&hUsbDeviceHS);
 307              		.loc 1 138 25 view .LVU63
 308 001a FFF7FEFF 		bl	USBD_CDC_SetTxBuffer
 309              	.LVL23:
 139:UserApp/usbd_cdc_if.cpp ****     return result;
 310              		.loc 1 139 5 is_stmt 1 view .LVU64
 139:UserApp/usbd_cdc_if.cpp ****     return result;
 311              		.loc 1 139 37 is_stmt 0 view .LVU65
 312 001e 2046     		mov	r0, r4
 313 0020 FFF7FEFF 		bl	USBD_CDC_TransmitPacket
 314              	.LVL24:
 140:UserApp/usbd_cdc_if.cpp **** }
 315              		.loc 1 140 5 is_stmt 1 view .LVU66
 141:UserApp/usbd_cdc_if.cpp **** 
 316              		.loc 1 141 1 is_stmt 0 view .LVU67
 317 0024 10BD     		pop	{r4, pc}
 318              	.L25:
 319 0026 00BF     		.align	2
 320              	.L24:
 321 0028 00000000 		.word	hUsbDeviceHS
ARM GAS  C:\Users\ADMINI~1\AppData\Local\Temp\ccJu2hw5.s 			page 10


 322              		.cfi_endproc
 323              	.LFE260:
 324              		.fnend
 326              		.global	USBD_Interface_fops_HS
 327              		.section	.data.USBD_Interface_fops_HS,"aw"
 328              		.align	2
 331              	USBD_Interface_fops_HS:
 332 0000 00000000 		.word	_ZL11CDC_Init_HSv
 333 0004 00000000 		.word	_ZL13CDC_DeInit_HSv
 334 0008 00000000 		.word	_ZL14CDC_Control_HShPht
 335 000c 00000000 		.word	_ZL14CDC_Receive_HSPhPm
 336 0010 00000000 		.word	_ZL19CDC_TransmitCplt_HSPhPmh
 337              		.text
 338              	.Letext0:
 339              		.file 2 "c:\\program files (x86)\\gnu arm embedded toolchain\\10 2021.10\\arm-none-eabi\\include\\
 340              		.file 3 "c:\\program files (x86)\\gnu arm embedded toolchain\\10 2021.10\\lib\\gcc\\arm-none-eabi\
 341              		.file 4 "c:\\program files (x86)\\gnu arm embedded toolchain\\10 2021.10\\arm-none-eabi\\include\\
 342              		.file 5 "c:\\program files (x86)\\gnu arm embedded toolchain\\10 2021.10\\arm-none-eabi\\include\\
 343              		.file 6 "c:\\program files (x86)\\gnu arm embedded toolchain\\10 2021.10\\arm-none-eabi\\include\\
 344              		.file 7 "c:\\program files (x86)\\gnu arm embedded toolchain\\10 2021.10\\arm-none-eabi\\include\\
 345              		.file 8 "c:\\program files (x86)\\gnu arm embedded toolchain\\10 2021.10\\arm-none-eabi\\include\\
 346              		.file 9 "c:\\program files (x86)\\gnu arm embedded toolchain\\10 2021.10\\arm-none-eabi\\include\\
 347              		.file 10 "Drivers/CMSIS/Device/ST/STM32F4xx/Include/stm32f405xx.h"
 348              		.file 11 "Drivers/CMSIS/Device/ST/STM32F4xx/Include/stm32f4xx.h"
 349              		.file 12 "Drivers/STM32F4xx_HAL_Driver/Inc/stm32f4xx_hal_def.h"
 350              		.file 13 "Drivers/STM32F4xx_HAL_Driver/Inc/stm32f4xx_hal_dma.h"
 351              		.file 14 "Drivers/STM32F4xx_HAL_Driver/Inc/stm32f4xx_hal_i2c.h"
 352              		.file 15 "Drivers/STM32F4xx_HAL_Driver/Inc/stm32f4xx_hal_spi.h"
 353              		.file 16 "Drivers/STM32F4xx_HAL_Driver/Inc/stm32f4xx_hal.h"
 354              		.file 17 "Middlewares/ST/STM32_USB_Device_Library/Core/Inc/usbd_def.h"
 355              		.file 18 "Middlewares/ST/STM32_USB_Device_Library/Class/CDC/Inc/usbd_cdc.h"
 356              		.file 19 "Bsp/screen.h"
 357              		.file 20 "Bsp/robot.h"
 358              		.file 21 "UserApp/usbd_cdc_if.h"
 359              		.file 22 "Middlewares/ST/STM32_USB_Device_Library/Core/Inc/usbd_core.h"
 360              		.file 23 "<built-in>"
ARM GAS  C:\Users\ADMINI~1\AppData\Local\Temp\ccJu2hw5.s 			page 11

