ARM GAS  C:\Users\ADMINI~1\AppData\Local\Temp\ccG3JzGS.s 			page 1


   1              		.cpu cortex-m4
   2              		.arch armv7e-m
   3              		.fpu fpv4-sp-d16
   4              		.eabi_attribute 27, 1
   5              		.eabi_attribute 28, 1
   6              		.eabi_attribute 20, 1
   7              		.eabi_attribute 21, 1
   8              		.eabi_attribute 23, 3
   9              		.eabi_attribute 24, 1
  10              		.eabi_attribute 25, 1
  11              		.eabi_attribute 26, 1
  12              		.eabi_attribute 30, 1
  13              		.eabi_attribute 34, 1
  14              		.eabi_attribute 18, 4
  15              		.file	"main.c"
  16              		.text
  17              	.Ltext0:
  18              		.cfi_sections	.debug_frame
  19              		.section	.rodata.TransmitAndReceiveI2cPacket.str1.4,"aMS",%progbits,1
  20              		.align	2
  21              	.LC0:
  22 0000 74747474 		.ascii	"tttttt\000"
  22      747400
  23              		.section	.text.TransmitAndReceiveI2cPacket,"ax",%progbits
  24              		.align	1
  25              		.global	TransmitAndReceiveI2cPacket
  26              		.syntax unified
  27              		.thumb
  28              		.thumb_func
  30              	TransmitAndReceiveI2cPacket:
  31              	.LVL0:
  32              	.LFB138:
  33              		.file 1 "Src/main.c"
   1:Src/main.c    **** /* USER CODE BEGIN Header */
   2:Src/main.c    **** /**
   3:Src/main.c    ****   ******************************************************************************
   4:Src/main.c    ****   * @file           : main.c
   5:Src/main.c    ****   * @brief          : Main program body
   6:Src/main.c    ****   ******************************************************************************
   7:Src/main.c    ****   * @attention
   8:Src/main.c    ****   *
   9:Src/main.c    ****   * Copyright (c) 2022 STMicroelectronics.
  10:Src/main.c    ****   * All rights reserved.
  11:Src/main.c    ****   *
  12:Src/main.c    ****   * This software is licensed under terms that can be found in the LICENSE file
  13:Src/main.c    ****   * in the root directory of this software component.
  14:Src/main.c    ****   * If no LICENSE file comes with this software, it is provided AS-IS.
  15:Src/main.c    ****   *
  16:Src/main.c    ****   ******************************************************************************
  17:Src/main.c    ****   */
  18:Src/main.c    **** /* USER CODE END Header */
  19:Src/main.c    **** /* Includes ------------------------------------------------------------------*/
  20:Src/main.c    **** #include "main.h"
  21:Src/main.c    **** #include "cmsis_os.h"
  22:Src/main.c    **** #include "dma.h"
  23:Src/main.c    **** #include "i2c.h"
  24:Src/main.c    **** #include "spi.h"
ARM GAS  C:\Users\ADMINI~1\AppData\Local\Temp\ccG3JzGS.s 			page 2


  25:Src/main.c    **** #include "usart.h"
  26:Src/main.c    **** #include "usb_device.h"
  27:Src/main.c    **** #include "gpio.h"
  28:Src/main.c    **** 
  29:Src/main.c    **** /* Private includes ----------------------------------------------------------*/
  30:Src/main.c    **** /* USER CODE BEGIN Includes */
  31:Src/main.c    **** #include <stdio.h>
  32:Src/main.c    **** #include "w25q32.h"
  33:Src/main.c    **** /* USER CODE END Includes */
  34:Src/main.c    **** 
  35:Src/main.c    **** /* Private typedef -----------------------------------------------------------*/
  36:Src/main.c    **** /* USER CODE BEGIN PTD */
  37:Src/main.c    **** 
  38:Src/main.c    **** /* USER CODE END PTD */
  39:Src/main.c    **** 
  40:Src/main.c    **** /* Private define ------------------------------------------------------------*/
  41:Src/main.c    **** /* USER CODE BEGIN PD */
  42:Src/main.c    **** /* USER CODE END PD */
  43:Src/main.c    **** 
  44:Src/main.c    **** /* Private macro -------------------------------------------------------------*/
  45:Src/main.c    **** /* USER CODE BEGIN PM */
  46:Src/main.c    **** 
  47:Src/main.c    **** /* USER CODE END PM */
  48:Src/main.c    **** 
  49:Src/main.c    **** /* Private variables ---------------------------------------------------------*/
  50:Src/main.c    **** 
  51:Src/main.c    **** /* USER CODE BEGIN PV */
  52:Src/main.c    **** uint8_t i2cRxData[8];
  53:Src/main.c    **** uint8_t i2cTxData[8];
  54:Src/main.c    **** /* USER CODE END PV */
  55:Src/main.c    **** 
  56:Src/main.c    **** /* Private function prototypes -----------------------------------------------*/
  57:Src/main.c    **** void SystemClock_Config(void);
  58:Src/main.c    **** void MX_FREERTOS_Init(void);
  59:Src/main.c    **** /* USER CODE BEGIN PFP */
  60:Src/main.c    **** 
  61:Src/main.c    **** /* USER CODE END PFP */
  62:Src/main.c    **** 
  63:Src/main.c    **** /* Private user code ---------------------------------------------------------*/
  64:Src/main.c    **** /* USER CODE BEGIN 0 */
  65:Src/main.c    **** void TransmitAndReceiveI2cPacket(uint8_t _id)
  66:Src/main.c    **** {
  34              		.loc 1 66 1 view -0
  35              		.cfi_startproc
  36              		@ args = 0, pretend = 0, frame = 0
  37              		@ frame_needed = 0, uses_anonymous_args = 0
  38              		.loc 1 66 1 is_stmt 0 view .LVU1
  39 0000 30B5     		push	{r4, r5, lr}
  40              	.LCFI0:
  41              		.cfi_def_cfa_offset 12
  42              		.cfi_offset 4, -12
  43              		.cfi_offset 5, -8
  44              		.cfi_offset 14, -4
  45 0002 83B0     		sub	sp, sp, #12
  46              	.LCFI1:
  47              		.cfi_def_cfa_offset 24
  48 0004 0546     		mov	r5, r0
ARM GAS  C:\Users\ADMINI~1\AppData\Local\Temp\ccG3JzGS.s 			page 3


  67:Src/main.c    ****     HAL_StatusTypeDef state = HAL_ERROR;
  49              		.loc 1 67 5 is_stmt 1 view .LVU2
  50              	.LVL1:
  51              	.L2:
  68:Src/main.c    ****     do
  52              		.loc 1 68 5 discriminator 1 view .LVU3
  69:Src/main.c    ****     {   printf("tttttt");
  53              		.loc 1 69 9 discriminator 1 view .LVU4
  54 0006 0D48     		ldr	r0, .L5
  55 0008 FFF7FEFF 		bl	printf
  56              	.LVL2:
  70:Src/main.c    ****         state = HAL_I2C_Master_Transmit(&hi2c1, _id, i2cTxData, 5, 50);
  57              		.loc 1 70 9 discriminator 1 view .LVU5
  58              		.loc 1 70 17 is_stmt 0 discriminator 1 view .LVU6
  59 000c ACB2     		uxth	r4, r5
  60 000e 3223     		movs	r3, #50
  61 0010 0093     		str	r3, [sp]
  62 0012 0523     		movs	r3, #5
  63 0014 0A4A     		ldr	r2, .L5+4
  64 0016 2146     		mov	r1, r4
  65 0018 0A48     		ldr	r0, .L5+8
  66 001a FFF7FEFF 		bl	HAL_I2C_Master_Transmit
  67              	.LVL3:
  71:Src/main.c    ****     } while (state != HAL_OK);
  68              		.loc 1 71 13 is_stmt 1 discriminator 1 view .LVU7
  69              		.loc 1 71 5 is_stmt 0 discriminator 1 view .LVU8
  70 001e 0028     		cmp	r0, #0
  71 0020 F1D1     		bne	.L2
  72              	.L3:
  72:Src/main.c    ****     do
  73              		.loc 1 72 5 is_stmt 1 discriminator 1 view .LVU9
  73:Src/main.c    ****     {      
  74:Src/main.c    ****         state = HAL_I2C_Master_Receive(&hi2c1, _id, i2cRxData, 5, 50);
  74              		.loc 1 74 9 discriminator 1 view .LVU10
  75              		.loc 1 74 17 is_stmt 0 discriminator 1 view .LVU11
  76 0022 3223     		movs	r3, #50
  77 0024 0093     		str	r3, [sp]
  78 0026 0523     		movs	r3, #5
  79 0028 074A     		ldr	r2, .L5+12
  80 002a 2146     		mov	r1, r4
  81 002c 0548     		ldr	r0, .L5+8
  82              	.LVL4:
  83              		.loc 1 74 17 discriminator 1 view .LVU12
  84 002e FFF7FEFF 		bl	HAL_I2C_Master_Receive
  85              	.LVL5:
  75:Src/main.c    ****     } while (state != HAL_OK);
  86              		.loc 1 75 13 is_stmt 1 discriminator 1 view .LVU13
  87              		.loc 1 75 5 is_stmt 0 discriminator 1 view .LVU14
  88 0032 0028     		cmp	r0, #0
  89 0034 F5D1     		bne	.L3
  76:Src/main.c    **** }
  90              		.loc 1 76 1 view .LVU15
  91 0036 03B0     		add	sp, sp, #12
  92              	.LCFI2:
  93              		.cfi_def_cfa_offset 12
  94              		@ sp needed
  95 0038 30BD     		pop	{r4, r5, pc}
ARM GAS  C:\Users\ADMINI~1\AppData\Local\Temp\ccG3JzGS.s 			page 4


  96              	.L6:
  97 003a 00BF     		.align	2
  98              	.L5:
  99 003c 00000000 		.word	.LC0
 100 0040 00000000 		.word	.LANCHOR0
 101 0044 00000000 		.word	hi2c1
 102 0048 00000000 		.word	.LANCHOR1
 103              		.cfi_endproc
 104              	.LFE138:
 106              		.section	.text.HAL_TIM_PeriodElapsedCallback,"ax",%progbits
 107              		.align	1
 108              		.global	HAL_TIM_PeriodElapsedCallback
 109              		.syntax unified
 110              		.thumb
 111              		.thumb_func
 113              	HAL_TIM_PeriodElapsedCallback:
 114              	.LVL6:
 115              	.LFB141:
  77:Src/main.c    **** 
  78:Src/main.c    **** /* int _write(int fd, char *ch, int len)
  79:Src/main.c    **** {
  80:Src/main.c    ****   // int i;  
  81:Src/main.c    ****   HAL_UART_Transmit(&huart1, (uint8_t*)ch, len, 0xFFFF);
  82:Src/main.c    ****   
  83:Src/main.c    ****   return len;
  84:Src/main.c    **** } */
  85:Src/main.c    **** /* USER CODE END 0 */
  86:Src/main.c    **** 
  87:Src/main.c    **** /**
  88:Src/main.c    ****   * @brief  The application entry point.
  89:Src/main.c    ****   * @retval int
  90:Src/main.c    ****   */
  91:Src/main.c    **** int main(void)
  92:Src/main.c    **** {
  93:Src/main.c    ****   /* USER CODE BEGIN 1 */
  94:Src/main.c    ****   int i;
  95:Src/main.c    ****   /* USER CODE END 1 */
  96:Src/main.c    **** 
  97:Src/main.c    ****   /* MCU Configuration--------------------------------------------------------*/
  98:Src/main.c    **** 
  99:Src/main.c    ****   /* Reset of all peripherals, Initializes the Flash interface and the Systick. */
 100:Src/main.c    ****   HAL_Init();
 101:Src/main.c    **** 
 102:Src/main.c    ****   /* USER CODE BEGIN Init */
 103:Src/main.c    **** 
 104:Src/main.c    ****   /* USER CODE END Init */
 105:Src/main.c    **** 
 106:Src/main.c    ****   /* Configure the system clock */
 107:Src/main.c    ****   SystemClock_Config();
 108:Src/main.c    **** 
 109:Src/main.c    ****   /* USER CODE BEGIN SysInit */
 110:Src/main.c    **** 
 111:Src/main.c    ****   /* USER CODE END SysInit */
 112:Src/main.c    **** 
 113:Src/main.c    ****   /* Initialize all configured peripherals */
 114:Src/main.c    ****   MX_GPIO_Init();
 115:Src/main.c    ****   MX_DMA_Init();
ARM GAS  C:\Users\ADMINI~1\AppData\Local\Temp\ccG3JzGS.s 			page 5


 116:Src/main.c    ****   MX_I2C1_Init();
 117:Src/main.c    ****   MX_USART1_UART_Init();
 118:Src/main.c    ****   MX_SPI1_Init();
 119:Src/main.c    ****   /* USER CODE BEGIN 2 */
 120:Src/main.c    ****   
 121:Src/main.c    ****   /* // while(HAL_DMA_GetState(&hdma_usart1_tx)==HAL_DMA_STATE_BUSY)
 122:Src/main.c    ****   HAL_Delay(1000);
 123:Src/main.c    ****   HAL_UART_Transmit_DMA(&huart1, "tx_buffer", 9);
 124:Src/main.c    ****   // while(HAL_DMA_GetState(&hdma_usart1_tx)==HAL_DMA_STATE_BUSY)
 125:Src/main.c    ****   HAL_Delay(1000);
 126:Src/main.c    ****   HAL_UART_Transmit_DMA(&huart1, "rx_buffer", 9);
 127:Src/main.c    ****   // while(HAL_DMA_GetState(&hdma_usart1_tx)==HAL_DMA_STATE_BUSY)
 128:Src/main.c    ****   HAL_Delay(1000);
 129:Src/main.c    ****   HAL_UART_Transmit_DMA(&huart1, "ex_buffer", 9);
 130:Src/main.c    ****   HAL_Delay(1000);
 131:Src/main.c    ****   printf("ennnnn...\r\n"); */
 132:Src/main.c    ****   SpiFlash_Init(); 
 133:Src/main.c    ****   printf("hello electronbot coming...\r\n");
 134:Src/main.c    ****  /*  i2cTxData[0]=0x01;
 135:Src/main.c    ****   *(float*)&i2cTxData[1]=30.0f;
 136:Src/main.c    ****   TransmitAndReceiveI2cPacket(12);
 137:Src/main.c    ****   printf("tttt\r\n");
 138:Src/main.c    ****   for(i =0;i<5;i++)
 139:Src/main.c    ****         printf("%.2x ",i2cRxData[i]);
 140:Src/main.c    ****     printf("\r\n");
 141:Src/main.c    ****     while(1); */
 142:Src/main.c    ****   /* USER CODE END 2
 143:Src/main.c    **** 
 144:Src/main.c    ****   /* Init scheduler */
 145:Src/main.c    ****   osKernelInitialize();  /* Call init function for freertos objects (in freertos.c) */
 146:Src/main.c    ****   MX_FREERTOS_Init();
 147:Src/main.c    **** 
 148:Src/main.c    ****   /* Start scheduler */
 149:Src/main.c    ****   osKernelStart();
 150:Src/main.c    **** 
 151:Src/main.c    ****   /* We should never get here as control is now taken by the scheduler */
 152:Src/main.c    ****   /* Infinite loop */
 153:Src/main.c    ****   /* USER CODE BEGIN WHILE */
 154:Src/main.c    ****   while (1)
 155:Src/main.c    ****   {
 156:Src/main.c    ****      /*  HAL_StatusTypeDef sta=HAL_UART_Receive(&huart1, i2cTxData, 6, 0xffffffff);
 157:Src/main.c    ****     if(sta == HAL_OK)
 158:Src/main.c    ****     {
 159:Src/main.c    ****        for(i =0;i<6;i++)
 160:Src/main.c    ****          printf("%.2x ",i2cTxData[i]);
 161:Src/main.c    ****        printf("\r\n");
 162:Src/main.c    ****        TransmitAndReceiveI2cPacket(i2cTxData[5]);
 163:Src/main.c    ****        for(i =0;i<5;i++)
 164:Src/main.c    ****         printf("%.2x ",i2cRxData[i]);
 165:Src/main.c    ****       printf("\r\n");
 166:Src/main.c    **** 
 167:Src/main.c    ****     } */
 168:Src/main.c    ****     /* USER CODE END WHILE */
 169:Src/main.c    **** 
 170:Src/main.c    ****     /* USER CODE BEGIN 3 */
 171:Src/main.c    ****   }
 172:Src/main.c    ****   /* USER CODE END 3 */
ARM GAS  C:\Users\ADMINI~1\AppData\Local\Temp\ccG3JzGS.s 			page 6


 173:Src/main.c    **** }
 174:Src/main.c    **** 
 175:Src/main.c    **** /**
 176:Src/main.c    ****   * @brief System Clock Configuration
 177:Src/main.c    ****   * @retval None
 178:Src/main.c    ****   */
 179:Src/main.c    **** void SystemClock_Config(void)
 180:Src/main.c    **** {
 181:Src/main.c    ****   RCC_OscInitTypeDef RCC_OscInitStruct = {0};
 182:Src/main.c    ****   RCC_ClkInitTypeDef RCC_ClkInitStruct = {0};
 183:Src/main.c    **** 
 184:Src/main.c    ****   /** Configure the main internal regulator output voltage
 185:Src/main.c    ****   */
 186:Src/main.c    ****   __HAL_RCC_PWR_CLK_ENABLE();
 187:Src/main.c    ****   __HAL_PWR_VOLTAGESCALING_CONFIG(PWR_REGULATOR_VOLTAGE_SCALE1);
 188:Src/main.c    **** 
 189:Src/main.c    ****   /** Initializes the RCC Oscillators according to the specified parameters
 190:Src/main.c    ****   * in the RCC_OscInitTypeDef structure.
 191:Src/main.c    ****   */
 192:Src/main.c    ****   RCC_OscInitStruct.OscillatorType = RCC_OSCILLATORTYPE_HSE;
 193:Src/main.c    ****   RCC_OscInitStruct.HSEState = RCC_HSE_ON;
 194:Src/main.c    ****   RCC_OscInitStruct.PLL.PLLState = RCC_PLL_ON;
 195:Src/main.c    ****   RCC_OscInitStruct.PLL.PLLSource = RCC_PLLSOURCE_HSE;
 196:Src/main.c    ****   RCC_OscInitStruct.PLL.PLLM = 4;
 197:Src/main.c    ****   RCC_OscInitStruct.PLL.PLLN = 168;
 198:Src/main.c    ****   RCC_OscInitStruct.PLL.PLLP = RCC_PLLP_DIV2;
 199:Src/main.c    ****   RCC_OscInitStruct.PLL.PLLQ = 4;
 200:Src/main.c    ****   if (HAL_RCC_OscConfig(&RCC_OscInitStruct) != HAL_OK)
 201:Src/main.c    ****   {
 202:Src/main.c    ****     Error_Handler();
 203:Src/main.c    ****   }
 204:Src/main.c    **** 
 205:Src/main.c    ****   /** Initializes the CPU, AHB and APB buses clocks
 206:Src/main.c    ****   */
 207:Src/main.c    ****   RCC_ClkInitStruct.ClockType = RCC_CLOCKTYPE_HCLK|RCC_CLOCKTYPE_SYSCLK
 208:Src/main.c    ****                               |RCC_CLOCKTYPE_PCLK1|RCC_CLOCKTYPE_PCLK2;
 209:Src/main.c    ****   RCC_ClkInitStruct.SYSCLKSource = RCC_SYSCLKSOURCE_PLLCLK;
 210:Src/main.c    ****   RCC_ClkInitStruct.AHBCLKDivider = RCC_SYSCLK_DIV1;
 211:Src/main.c    ****   RCC_ClkInitStruct.APB1CLKDivider = RCC_HCLK_DIV4;
 212:Src/main.c    ****   RCC_ClkInitStruct.APB2CLKDivider = RCC_HCLK_DIV2;
 213:Src/main.c    **** 
 214:Src/main.c    ****   if (HAL_RCC_ClockConfig(&RCC_ClkInitStruct, FLASH_LATENCY_5) != HAL_OK)
 215:Src/main.c    ****   {
 216:Src/main.c    ****     Error_Handler();
 217:Src/main.c    ****   }
 218:Src/main.c    **** }
 219:Src/main.c    **** 
 220:Src/main.c    **** /* USER CODE BEGIN 4 */
 221:Src/main.c    **** 
 222:Src/main.c    **** /* USER CODE END 4 */
 223:Src/main.c    **** 
 224:Src/main.c    **** /**
 225:Src/main.c    ****   * @brief  Period elapsed callback in non blocking mode
 226:Src/main.c    ****   * @note   This function is called  when TIM14 interrupt took place, inside
 227:Src/main.c    ****   * HAL_TIM_IRQHandler(). It makes a direct call to HAL_IncTick() to increment
 228:Src/main.c    ****   * a global variable "uwTick" used as application time base.
 229:Src/main.c    ****   * @param  htim : TIM handle
ARM GAS  C:\Users\ADMINI~1\AppData\Local\Temp\ccG3JzGS.s 			page 7


 230:Src/main.c    ****   * @retval None
 231:Src/main.c    ****   */
 232:Src/main.c    **** void HAL_TIM_PeriodElapsedCallback(TIM_HandleTypeDef *htim)
 233:Src/main.c    **** {
 116              		.loc 1 233 1 is_stmt 1 view -0
 117              		.cfi_startproc
 118              		@ args = 0, pretend = 0, frame = 0
 119              		@ frame_needed = 0, uses_anonymous_args = 0
 120              		.loc 1 233 1 is_stmt 0 view .LVU17
 121 0000 08B5     		push	{r3, lr}
 122              	.LCFI3:
 123              		.cfi_def_cfa_offset 8
 124              		.cfi_offset 3, -8
 125              		.cfi_offset 14, -4
 234:Src/main.c    ****   /* USER CODE BEGIN Callback 0 */
 235:Src/main.c    **** 
 236:Src/main.c    ****   /* USER CODE END Callback 0 */
 237:Src/main.c    ****   if (htim->Instance == TIM14) {
 126              		.loc 1 237 3 is_stmt 1 view .LVU18
 127              		.loc 1 237 11 is_stmt 0 view .LVU19
 128 0002 0268     		ldr	r2, [r0]
 129              		.loc 1 237 6 view .LVU20
 130 0004 034B     		ldr	r3, .L11
 131 0006 9A42     		cmp	r2, r3
 132 0008 00D0     		beq	.L10
 133              	.LVL7:
 134              	.L7:
 238:Src/main.c    ****     HAL_IncTick();
 239:Src/main.c    ****   }
 240:Src/main.c    ****   /* USER CODE BEGIN Callback 1 */
 241:Src/main.c    **** 
 242:Src/main.c    ****   /* USER CODE END Callback 1 */
 243:Src/main.c    **** }
 135              		.loc 1 243 1 view .LVU21
 136 000a 08BD     		pop	{r3, pc}
 137              	.LVL8:
 138              	.L10:
 238:Src/main.c    ****     HAL_IncTick();
 139              		.loc 1 238 5 is_stmt 1 view .LVU22
 140 000c FFF7FEFF 		bl	HAL_IncTick
 141              	.LVL9:
 142              		.loc 1 243 1 is_stmt 0 view .LVU23
 143 0010 FBE7     		b	.L7
 144              	.L12:
 145 0012 00BF     		.align	2
 146              	.L11:
 147 0014 00200040 		.word	1073750016
 148              		.cfi_endproc
 149              	.LFE141:
 151              		.section	.text.Error_Handler,"ax",%progbits
 152              		.align	1
 153              		.global	Error_Handler
 154              		.syntax unified
 155              		.thumb
 156              		.thumb_func
 158              	Error_Handler:
 159              	.LFB142:
ARM GAS  C:\Users\ADMINI~1\AppData\Local\Temp\ccG3JzGS.s 			page 8


 244:Src/main.c    **** 
 245:Src/main.c    **** /**
 246:Src/main.c    ****   * @brief  This function is executed in case of error occurrence.
 247:Src/main.c    ****   * @retval None
 248:Src/main.c    ****   */
 249:Src/main.c    **** void Error_Handler(void)
 250:Src/main.c    **** {
 160              		.loc 1 250 1 is_stmt 1 view -0
 161              		.cfi_startproc
 162              		@ Volatile: function does not return.
 163              		@ args = 0, pretend = 0, frame = 0
 164              		@ frame_needed = 0, uses_anonymous_args = 0
 165              		@ link register save eliminated.
 251:Src/main.c    ****   /* USER CODE BEGIN Error_Handler_Debug */
 252:Src/main.c    ****   /* User can add his own implementation to report the HAL error return state */
 253:Src/main.c    ****   __disable_irq();
 166              		.loc 1 253 3 view .LVU25
 167              	.LBB4:
 168              	.LBI4:
 169              		.file 2 "Drivers/CMSIS/Include/cmsis_gcc.h"
   1:Drivers/CMSIS/Include/cmsis_gcc.h **** /**************************************************************************//**
   2:Drivers/CMSIS/Include/cmsis_gcc.h ****  * @file     cmsis_gcc.h
   3:Drivers/CMSIS/Include/cmsis_gcc.h ****  * @brief    CMSIS compiler GCC header file
   4:Drivers/CMSIS/Include/cmsis_gcc.h ****  * @version  V5.0.4
   5:Drivers/CMSIS/Include/cmsis_gcc.h ****  * @date     09. April 2018
   6:Drivers/CMSIS/Include/cmsis_gcc.h ****  ******************************************************************************/
   7:Drivers/CMSIS/Include/cmsis_gcc.h **** /*
   8:Drivers/CMSIS/Include/cmsis_gcc.h ****  * Copyright (c) 2009-2018 Arm Limited. All rights reserved.
   9:Drivers/CMSIS/Include/cmsis_gcc.h ****  *
  10:Drivers/CMSIS/Include/cmsis_gcc.h ****  * SPDX-License-Identifier: Apache-2.0
  11:Drivers/CMSIS/Include/cmsis_gcc.h ****  *
  12:Drivers/CMSIS/Include/cmsis_gcc.h ****  * Licensed under the Apache License, Version 2.0 (the License); you may
  13:Drivers/CMSIS/Include/cmsis_gcc.h ****  * not use this file except in compliance with the License.
  14:Drivers/CMSIS/Include/cmsis_gcc.h ****  * You may obtain a copy of the License at
  15:Drivers/CMSIS/Include/cmsis_gcc.h ****  *
  16:Drivers/CMSIS/Include/cmsis_gcc.h ****  * www.apache.org/licenses/LICENSE-2.0
  17:Drivers/CMSIS/Include/cmsis_gcc.h ****  *
  18:Drivers/CMSIS/Include/cmsis_gcc.h ****  * Unless required by applicable law or agreed to in writing, software
  19:Drivers/CMSIS/Include/cmsis_gcc.h ****  * distributed under the License is distributed on an AS IS BASIS, WITHOUT
  20:Drivers/CMSIS/Include/cmsis_gcc.h ****  * WARRANTIES OR CONDITIONS OF ANY KIND, either express or implied.
  21:Drivers/CMSIS/Include/cmsis_gcc.h ****  * See the License for the specific language governing permissions and
  22:Drivers/CMSIS/Include/cmsis_gcc.h ****  * limitations under the License.
  23:Drivers/CMSIS/Include/cmsis_gcc.h ****  */
  24:Drivers/CMSIS/Include/cmsis_gcc.h **** 
  25:Drivers/CMSIS/Include/cmsis_gcc.h **** #ifndef __CMSIS_GCC_H
  26:Drivers/CMSIS/Include/cmsis_gcc.h **** #define __CMSIS_GCC_H
  27:Drivers/CMSIS/Include/cmsis_gcc.h **** 
  28:Drivers/CMSIS/Include/cmsis_gcc.h **** /* ignore some GCC warnings */
  29:Drivers/CMSIS/Include/cmsis_gcc.h **** #pragma GCC diagnostic push
  30:Drivers/CMSIS/Include/cmsis_gcc.h **** #pragma GCC diagnostic ignored "-Wsign-conversion"
  31:Drivers/CMSIS/Include/cmsis_gcc.h **** #pragma GCC diagnostic ignored "-Wconversion"
  32:Drivers/CMSIS/Include/cmsis_gcc.h **** #pragma GCC diagnostic ignored "-Wunused-parameter"
  33:Drivers/CMSIS/Include/cmsis_gcc.h **** 
  34:Drivers/CMSIS/Include/cmsis_gcc.h **** /* Fallback for __has_builtin */
  35:Drivers/CMSIS/Include/cmsis_gcc.h **** #ifndef __has_builtin
  36:Drivers/CMSIS/Include/cmsis_gcc.h ****   #define __has_builtin(x) (0)
  37:Drivers/CMSIS/Include/cmsis_gcc.h **** #endif
ARM GAS  C:\Users\ADMINI~1\AppData\Local\Temp\ccG3JzGS.s 			page 9


  38:Drivers/CMSIS/Include/cmsis_gcc.h **** 
  39:Drivers/CMSIS/Include/cmsis_gcc.h **** /* CMSIS compiler specific defines */
  40:Drivers/CMSIS/Include/cmsis_gcc.h **** #ifndef   __ASM
  41:Drivers/CMSIS/Include/cmsis_gcc.h ****   #define __ASM                                  __asm
  42:Drivers/CMSIS/Include/cmsis_gcc.h **** #endif
  43:Drivers/CMSIS/Include/cmsis_gcc.h **** #ifndef   __INLINE
  44:Drivers/CMSIS/Include/cmsis_gcc.h ****   #define __INLINE                               inline
  45:Drivers/CMSIS/Include/cmsis_gcc.h **** #endif
  46:Drivers/CMSIS/Include/cmsis_gcc.h **** #ifndef   __STATIC_INLINE
  47:Drivers/CMSIS/Include/cmsis_gcc.h ****   #define __STATIC_INLINE                        static inline
  48:Drivers/CMSIS/Include/cmsis_gcc.h **** #endif
  49:Drivers/CMSIS/Include/cmsis_gcc.h **** #ifndef   __STATIC_FORCEINLINE                 
  50:Drivers/CMSIS/Include/cmsis_gcc.h ****   #define __STATIC_FORCEINLINE                   __attribute__((always_inline)) static inline
  51:Drivers/CMSIS/Include/cmsis_gcc.h **** #endif                                           
  52:Drivers/CMSIS/Include/cmsis_gcc.h **** #ifndef   __NO_RETURN
  53:Drivers/CMSIS/Include/cmsis_gcc.h ****   #define __NO_RETURN                            __attribute__((__noreturn__))
  54:Drivers/CMSIS/Include/cmsis_gcc.h **** #endif
  55:Drivers/CMSIS/Include/cmsis_gcc.h **** #ifndef   __USED
  56:Drivers/CMSIS/Include/cmsis_gcc.h ****   #define __USED                                 __attribute__((used))
  57:Drivers/CMSIS/Include/cmsis_gcc.h **** #endif
  58:Drivers/CMSIS/Include/cmsis_gcc.h **** #ifndef   __WEAK
  59:Drivers/CMSIS/Include/cmsis_gcc.h ****   #define __WEAK                                 __attribute__((weak))
  60:Drivers/CMSIS/Include/cmsis_gcc.h **** #endif
  61:Drivers/CMSIS/Include/cmsis_gcc.h **** #ifndef   __PACKED
  62:Drivers/CMSIS/Include/cmsis_gcc.h ****   #define __PACKED                               __attribute__((packed, aligned(1)))
  63:Drivers/CMSIS/Include/cmsis_gcc.h **** #endif
  64:Drivers/CMSIS/Include/cmsis_gcc.h **** #ifndef   __PACKED_STRUCT
  65:Drivers/CMSIS/Include/cmsis_gcc.h ****   #define __PACKED_STRUCT                        struct __attribute__((packed, aligned(1)))
  66:Drivers/CMSIS/Include/cmsis_gcc.h **** #endif
  67:Drivers/CMSIS/Include/cmsis_gcc.h **** #ifndef   __PACKED_UNION
  68:Drivers/CMSIS/Include/cmsis_gcc.h ****   #define __PACKED_UNION                         union __attribute__((packed, aligned(1)))
  69:Drivers/CMSIS/Include/cmsis_gcc.h **** #endif
  70:Drivers/CMSIS/Include/cmsis_gcc.h **** #ifndef   __UNALIGNED_UINT32        /* deprecated */
  71:Drivers/CMSIS/Include/cmsis_gcc.h ****   #pragma GCC diagnostic push
  72:Drivers/CMSIS/Include/cmsis_gcc.h ****   #pragma GCC diagnostic ignored "-Wpacked"
  73:Drivers/CMSIS/Include/cmsis_gcc.h ****   #pragma GCC diagnostic ignored "-Wattributes"
  74:Drivers/CMSIS/Include/cmsis_gcc.h ****   struct __attribute__((packed)) T_UINT32 { uint32_t v; };
  75:Drivers/CMSIS/Include/cmsis_gcc.h ****   #pragma GCC diagnostic pop
  76:Drivers/CMSIS/Include/cmsis_gcc.h ****   #define __UNALIGNED_UINT32(x)                  (((struct T_UINT32 *)(x))->v)
  77:Drivers/CMSIS/Include/cmsis_gcc.h **** #endif
  78:Drivers/CMSIS/Include/cmsis_gcc.h **** #ifndef   __UNALIGNED_UINT16_WRITE
  79:Drivers/CMSIS/Include/cmsis_gcc.h ****   #pragma GCC diagnostic push
  80:Drivers/CMSIS/Include/cmsis_gcc.h ****   #pragma GCC diagnostic ignored "-Wpacked"
  81:Drivers/CMSIS/Include/cmsis_gcc.h ****   #pragma GCC diagnostic ignored "-Wattributes"
  82:Drivers/CMSIS/Include/cmsis_gcc.h ****   __PACKED_STRUCT T_UINT16_WRITE { uint16_t v; };
  83:Drivers/CMSIS/Include/cmsis_gcc.h ****   #pragma GCC diagnostic pop
  84:Drivers/CMSIS/Include/cmsis_gcc.h ****   #define __UNALIGNED_UINT16_WRITE(addr, val)    (void)((((struct T_UINT16_WRITE *)(void *)(addr))-
  85:Drivers/CMSIS/Include/cmsis_gcc.h **** #endif
  86:Drivers/CMSIS/Include/cmsis_gcc.h **** #ifndef   __UNALIGNED_UINT16_READ
  87:Drivers/CMSIS/Include/cmsis_gcc.h ****   #pragma GCC diagnostic push
  88:Drivers/CMSIS/Include/cmsis_gcc.h ****   #pragma GCC diagnostic ignored "-Wpacked"
  89:Drivers/CMSIS/Include/cmsis_gcc.h ****   #pragma GCC diagnostic ignored "-Wattributes"
  90:Drivers/CMSIS/Include/cmsis_gcc.h ****   __PACKED_STRUCT T_UINT16_READ { uint16_t v; };
  91:Drivers/CMSIS/Include/cmsis_gcc.h ****   #pragma GCC diagnostic pop
  92:Drivers/CMSIS/Include/cmsis_gcc.h ****   #define __UNALIGNED_UINT16_READ(addr)          (((const struct T_UINT16_READ *)(const void *)(add
  93:Drivers/CMSIS/Include/cmsis_gcc.h **** #endif
  94:Drivers/CMSIS/Include/cmsis_gcc.h **** #ifndef   __UNALIGNED_UINT32_WRITE
ARM GAS  C:\Users\ADMINI~1\AppData\Local\Temp\ccG3JzGS.s 			page 10


  95:Drivers/CMSIS/Include/cmsis_gcc.h ****   #pragma GCC diagnostic push
  96:Drivers/CMSIS/Include/cmsis_gcc.h ****   #pragma GCC diagnostic ignored "-Wpacked"
  97:Drivers/CMSIS/Include/cmsis_gcc.h ****   #pragma GCC diagnostic ignored "-Wattributes"
  98:Drivers/CMSIS/Include/cmsis_gcc.h ****   __PACKED_STRUCT T_UINT32_WRITE { uint32_t v; };
  99:Drivers/CMSIS/Include/cmsis_gcc.h ****   #pragma GCC diagnostic pop
 100:Drivers/CMSIS/Include/cmsis_gcc.h ****   #define __UNALIGNED_UINT32_WRITE(addr, val)    (void)((((struct T_UINT32_WRITE *)(void *)(addr))-
 101:Drivers/CMSIS/Include/cmsis_gcc.h **** #endif
 102:Drivers/CMSIS/Include/cmsis_gcc.h **** #ifndef   __UNALIGNED_UINT32_READ
 103:Drivers/CMSIS/Include/cmsis_gcc.h ****   #pragma GCC diagnostic push
 104:Drivers/CMSIS/Include/cmsis_gcc.h ****   #pragma GCC diagnostic ignored "-Wpacked"
 105:Drivers/CMSIS/Include/cmsis_gcc.h ****   #pragma GCC diagnostic ignored "-Wattributes"
 106:Drivers/CMSIS/Include/cmsis_gcc.h ****   __PACKED_STRUCT T_UINT32_READ { uint32_t v; };
 107:Drivers/CMSIS/Include/cmsis_gcc.h ****   #pragma GCC diagnostic pop
 108:Drivers/CMSIS/Include/cmsis_gcc.h ****   #define __UNALIGNED_UINT32_READ(addr)          (((const struct T_UINT32_READ *)(const void *)(add
 109:Drivers/CMSIS/Include/cmsis_gcc.h **** #endif
 110:Drivers/CMSIS/Include/cmsis_gcc.h **** #ifndef   __ALIGNED
 111:Drivers/CMSIS/Include/cmsis_gcc.h ****   #define __ALIGNED(x)                           __attribute__((aligned(x)))
 112:Drivers/CMSIS/Include/cmsis_gcc.h **** #endif
 113:Drivers/CMSIS/Include/cmsis_gcc.h **** #ifndef   __RESTRICT
 114:Drivers/CMSIS/Include/cmsis_gcc.h ****   #define __RESTRICT                             __restrict
 115:Drivers/CMSIS/Include/cmsis_gcc.h **** #endif
 116:Drivers/CMSIS/Include/cmsis_gcc.h **** 
 117:Drivers/CMSIS/Include/cmsis_gcc.h **** 
 118:Drivers/CMSIS/Include/cmsis_gcc.h **** /* ###########################  Core Function Access  ########################### */
 119:Drivers/CMSIS/Include/cmsis_gcc.h **** /** \ingroup  CMSIS_Core_FunctionInterface
 120:Drivers/CMSIS/Include/cmsis_gcc.h ****     \defgroup CMSIS_Core_RegAccFunctions CMSIS Core Register Access Functions
 121:Drivers/CMSIS/Include/cmsis_gcc.h ****   @{
 122:Drivers/CMSIS/Include/cmsis_gcc.h ****  */
 123:Drivers/CMSIS/Include/cmsis_gcc.h **** 
 124:Drivers/CMSIS/Include/cmsis_gcc.h **** /**
 125:Drivers/CMSIS/Include/cmsis_gcc.h ****   \brief   Enable IRQ Interrupts
 126:Drivers/CMSIS/Include/cmsis_gcc.h ****   \details Enables IRQ interrupts by clearing the I-bit in the CPSR.
 127:Drivers/CMSIS/Include/cmsis_gcc.h ****            Can only be executed in Privileged modes.
 128:Drivers/CMSIS/Include/cmsis_gcc.h ****  */
 129:Drivers/CMSIS/Include/cmsis_gcc.h **** __STATIC_FORCEINLINE void __enable_irq(void)
 130:Drivers/CMSIS/Include/cmsis_gcc.h **** {
 131:Drivers/CMSIS/Include/cmsis_gcc.h ****   __ASM volatile ("cpsie i" : : : "memory");
 132:Drivers/CMSIS/Include/cmsis_gcc.h **** }
 133:Drivers/CMSIS/Include/cmsis_gcc.h **** 
 134:Drivers/CMSIS/Include/cmsis_gcc.h **** 
 135:Drivers/CMSIS/Include/cmsis_gcc.h **** /**
 136:Drivers/CMSIS/Include/cmsis_gcc.h ****   \brief   Disable IRQ Interrupts
 137:Drivers/CMSIS/Include/cmsis_gcc.h ****   \details Disables IRQ interrupts by setting the I-bit in the CPSR.
 138:Drivers/CMSIS/Include/cmsis_gcc.h ****            Can only be executed in Privileged modes.
 139:Drivers/CMSIS/Include/cmsis_gcc.h ****  */
 140:Drivers/CMSIS/Include/cmsis_gcc.h **** __STATIC_FORCEINLINE void __disable_irq(void)
 170              		.loc 2 140 27 view .LVU26
 171              	.LBB5:
 141:Drivers/CMSIS/Include/cmsis_gcc.h **** {
 142:Drivers/CMSIS/Include/cmsis_gcc.h ****   __ASM volatile ("cpsid i" : : : "memory");
 172              		.loc 2 142 3 view .LVU27
 173              		.syntax unified
 174              	@ 142 "Drivers/CMSIS/Include/cmsis_gcc.h" 1
 175 0000 72B6     		cpsid i
 176              	@ 0 "" 2
 177              		.thumb
 178              		.syntax unified
ARM GAS  C:\Users\ADMINI~1\AppData\Local\Temp\ccG3JzGS.s 			page 11


 179              	.L14:
 180              	.LBE5:
 181              	.LBE4:
 254:Src/main.c    ****   while (1)
 182              		.loc 1 254 3 discriminator 1 view .LVU28
 255:Src/main.c    ****   {
 256:Src/main.c    ****   }
 183              		.loc 1 256 3 discriminator 1 view .LVU29
 254:Src/main.c    ****   while (1)
 184              		.loc 1 254 9 discriminator 1 view .LVU30
 185 0002 FEE7     		b	.L14
 186              		.cfi_endproc
 187              	.LFE142:
 189              		.section	.text.SystemClock_Config,"ax",%progbits
 190              		.align	1
 191              		.global	SystemClock_Config
 192              		.syntax unified
 193              		.thumb
 194              		.thumb_func
 196              	SystemClock_Config:
 197              	.LFB140:
 180:Src/main.c    ****   RCC_OscInitTypeDef RCC_OscInitStruct = {0};
 198              		.loc 1 180 1 view -0
 199              		.cfi_startproc
 200              		@ args = 0, pretend = 0, frame = 80
 201              		@ frame_needed = 0, uses_anonymous_args = 0
 202 0000 00B5     		push	{lr}
 203              	.LCFI4:
 204              		.cfi_def_cfa_offset 4
 205              		.cfi_offset 14, -4
 206 0002 95B0     		sub	sp, sp, #84
 207              	.LCFI5:
 208              		.cfi_def_cfa_offset 88
 181:Src/main.c    ****   RCC_ClkInitTypeDef RCC_ClkInitStruct = {0};
 209              		.loc 1 181 3 view .LVU32
 181:Src/main.c    ****   RCC_ClkInitTypeDef RCC_ClkInitStruct = {0};
 210              		.loc 1 181 22 is_stmt 0 view .LVU33
 211 0004 3022     		movs	r2, #48
 212 0006 0021     		movs	r1, #0
 213 0008 08A8     		add	r0, sp, #32
 214 000a FFF7FEFF 		bl	memset
 215              	.LVL10:
 182:Src/main.c    **** 
 216              		.loc 1 182 3 is_stmt 1 view .LVU34
 182:Src/main.c    **** 
 217              		.loc 1 182 22 is_stmt 0 view .LVU35
 218 000e 0023     		movs	r3, #0
 219 0010 0393     		str	r3, [sp, #12]
 220 0012 0493     		str	r3, [sp, #16]
 221 0014 0593     		str	r3, [sp, #20]
 222 0016 0693     		str	r3, [sp, #24]
 223 0018 0793     		str	r3, [sp, #28]
 186:Src/main.c    ****   __HAL_PWR_VOLTAGESCALING_CONFIG(PWR_REGULATOR_VOLTAGE_SCALE1);
 224              		.loc 1 186 3 is_stmt 1 view .LVU36
 225              	.LBB6:
 186:Src/main.c    ****   __HAL_PWR_VOLTAGESCALING_CONFIG(PWR_REGULATOR_VOLTAGE_SCALE1);
 226              		.loc 1 186 3 view .LVU37
ARM GAS  C:\Users\ADMINI~1\AppData\Local\Temp\ccG3JzGS.s 			page 12


 227 001a 0193     		str	r3, [sp, #4]
 186:Src/main.c    ****   __HAL_PWR_VOLTAGESCALING_CONFIG(PWR_REGULATOR_VOLTAGE_SCALE1);
 228              		.loc 1 186 3 view .LVU38
 229 001c 204A     		ldr	r2, .L21
 230 001e 116C     		ldr	r1, [r2, #64]
 231 0020 41F08051 		orr	r1, r1, #268435456
 232 0024 1164     		str	r1, [r2, #64]
 186:Src/main.c    ****   __HAL_PWR_VOLTAGESCALING_CONFIG(PWR_REGULATOR_VOLTAGE_SCALE1);
 233              		.loc 1 186 3 view .LVU39
 234 0026 126C     		ldr	r2, [r2, #64]
 235 0028 02F08052 		and	r2, r2, #268435456
 236 002c 0192     		str	r2, [sp, #4]
 186:Src/main.c    ****   __HAL_PWR_VOLTAGESCALING_CONFIG(PWR_REGULATOR_VOLTAGE_SCALE1);
 237              		.loc 1 186 3 view .LVU40
 238 002e 019A     		ldr	r2, [sp, #4]
 239              	.LBE6:
 186:Src/main.c    ****   __HAL_PWR_VOLTAGESCALING_CONFIG(PWR_REGULATOR_VOLTAGE_SCALE1);
 240              		.loc 1 186 3 view .LVU41
 187:Src/main.c    **** 
 241              		.loc 1 187 3 view .LVU42
 242              	.LBB7:
 187:Src/main.c    **** 
 243              		.loc 1 187 3 view .LVU43
 244 0030 0293     		str	r3, [sp, #8]
 187:Src/main.c    **** 
 245              		.loc 1 187 3 view .LVU44
 246 0032 1C4B     		ldr	r3, .L21+4
 247 0034 1A68     		ldr	r2, [r3]
 248 0036 42F48042 		orr	r2, r2, #16384
 249 003a 1A60     		str	r2, [r3]
 187:Src/main.c    **** 
 250              		.loc 1 187 3 view .LVU45
 251 003c 1B68     		ldr	r3, [r3]
 252 003e 03F48043 		and	r3, r3, #16384
 253 0042 0293     		str	r3, [sp, #8]
 187:Src/main.c    **** 
 254              		.loc 1 187 3 view .LVU46
 255 0044 029B     		ldr	r3, [sp, #8]
 256              	.LBE7:
 187:Src/main.c    **** 
 257              		.loc 1 187 3 view .LVU47
 192:Src/main.c    ****   RCC_OscInitStruct.HSEState = RCC_HSE_ON;
 258              		.loc 1 192 3 view .LVU48
 192:Src/main.c    ****   RCC_OscInitStruct.HSEState = RCC_HSE_ON;
 259              		.loc 1 192 36 is_stmt 0 view .LVU49
 260 0046 0123     		movs	r3, #1
 261 0048 0893     		str	r3, [sp, #32]
 193:Src/main.c    ****   RCC_OscInitStruct.PLL.PLLState = RCC_PLL_ON;
 262              		.loc 1 193 3 is_stmt 1 view .LVU50
 193:Src/main.c    ****   RCC_OscInitStruct.PLL.PLLState = RCC_PLL_ON;
 263              		.loc 1 193 30 is_stmt 0 view .LVU51
 264 004a 4FF48033 		mov	r3, #65536
 265 004e 0993     		str	r3, [sp, #36]
 194:Src/main.c    ****   RCC_OscInitStruct.PLL.PLLSource = RCC_PLLSOURCE_HSE;
 266              		.loc 1 194 3 is_stmt 1 view .LVU52
 194:Src/main.c    ****   RCC_OscInitStruct.PLL.PLLSource = RCC_PLLSOURCE_HSE;
 267              		.loc 1 194 34 is_stmt 0 view .LVU53
ARM GAS  C:\Users\ADMINI~1\AppData\Local\Temp\ccG3JzGS.s 			page 13


 268 0050 0222     		movs	r2, #2
 269 0052 0E92     		str	r2, [sp, #56]
 195:Src/main.c    ****   RCC_OscInitStruct.PLL.PLLM = 4;
 270              		.loc 1 195 3 is_stmt 1 view .LVU54
 195:Src/main.c    ****   RCC_OscInitStruct.PLL.PLLM = 4;
 271              		.loc 1 195 35 is_stmt 0 view .LVU55
 272 0054 4FF48003 		mov	r3, #4194304
 273 0058 0F93     		str	r3, [sp, #60]
 196:Src/main.c    ****   RCC_OscInitStruct.PLL.PLLN = 168;
 274              		.loc 1 196 3 is_stmt 1 view .LVU56
 196:Src/main.c    ****   RCC_OscInitStruct.PLL.PLLN = 168;
 275              		.loc 1 196 30 is_stmt 0 view .LVU57
 276 005a 0423     		movs	r3, #4
 277 005c 1093     		str	r3, [sp, #64]
 197:Src/main.c    ****   RCC_OscInitStruct.PLL.PLLP = RCC_PLLP_DIV2;
 278              		.loc 1 197 3 is_stmt 1 view .LVU58
 197:Src/main.c    ****   RCC_OscInitStruct.PLL.PLLP = RCC_PLLP_DIV2;
 279              		.loc 1 197 30 is_stmt 0 view .LVU59
 280 005e A821     		movs	r1, #168
 281 0060 1191     		str	r1, [sp, #68]
 198:Src/main.c    ****   RCC_OscInitStruct.PLL.PLLQ = 4;
 282              		.loc 1 198 3 is_stmt 1 view .LVU60
 198:Src/main.c    ****   RCC_OscInitStruct.PLL.PLLQ = 4;
 283              		.loc 1 198 30 is_stmt 0 view .LVU61
 284 0062 1292     		str	r2, [sp, #72]
 199:Src/main.c    ****   if (HAL_RCC_OscConfig(&RCC_OscInitStruct) != HAL_OK)
 285              		.loc 1 199 3 is_stmt 1 view .LVU62
 199:Src/main.c    ****   if (HAL_RCC_OscConfig(&RCC_OscInitStruct) != HAL_OK)
 286              		.loc 1 199 30 is_stmt 0 view .LVU63
 287 0064 1393     		str	r3, [sp, #76]
 200:Src/main.c    ****   {
 288              		.loc 1 200 3 is_stmt 1 view .LVU64
 200:Src/main.c    ****   {
 289              		.loc 1 200 7 is_stmt 0 view .LVU65
 290 0066 08A8     		add	r0, sp, #32
 291 0068 FFF7FEFF 		bl	HAL_RCC_OscConfig
 292              	.LVL11:
 200:Src/main.c    ****   {
 293              		.loc 1 200 6 view .LVU66
 294 006c 98B9     		cbnz	r0, .L19
 207:Src/main.c    ****                               |RCC_CLOCKTYPE_PCLK1|RCC_CLOCKTYPE_PCLK2;
 295              		.loc 1 207 3 is_stmt 1 view .LVU67
 207:Src/main.c    ****                               |RCC_CLOCKTYPE_PCLK1|RCC_CLOCKTYPE_PCLK2;
 296              		.loc 1 207 31 is_stmt 0 view .LVU68
 297 006e 0F23     		movs	r3, #15
 298 0070 0393     		str	r3, [sp, #12]
 209:Src/main.c    ****   RCC_ClkInitStruct.AHBCLKDivider = RCC_SYSCLK_DIV1;
 299              		.loc 1 209 3 is_stmt 1 view .LVU69
 209:Src/main.c    ****   RCC_ClkInitStruct.AHBCLKDivider = RCC_SYSCLK_DIV1;
 300              		.loc 1 209 34 is_stmt 0 view .LVU70
 301 0072 0223     		movs	r3, #2
 302 0074 0493     		str	r3, [sp, #16]
 210:Src/main.c    ****   RCC_ClkInitStruct.APB1CLKDivider = RCC_HCLK_DIV4;
 303              		.loc 1 210 3 is_stmt 1 view .LVU71
 210:Src/main.c    ****   RCC_ClkInitStruct.APB1CLKDivider = RCC_HCLK_DIV4;
 304              		.loc 1 210 35 is_stmt 0 view .LVU72
 305 0076 0023     		movs	r3, #0
ARM GAS  C:\Users\ADMINI~1\AppData\Local\Temp\ccG3JzGS.s 			page 14


 306 0078 0593     		str	r3, [sp, #20]
 211:Src/main.c    ****   RCC_ClkInitStruct.APB2CLKDivider = RCC_HCLK_DIV2;
 307              		.loc 1 211 3 is_stmt 1 view .LVU73
 211:Src/main.c    ****   RCC_ClkInitStruct.APB2CLKDivider = RCC_HCLK_DIV2;
 308              		.loc 1 211 36 is_stmt 0 view .LVU74
 309 007a 4FF4A053 		mov	r3, #5120
 310 007e 0693     		str	r3, [sp, #24]
 212:Src/main.c    **** 
 311              		.loc 1 212 3 is_stmt 1 view .LVU75
 212:Src/main.c    **** 
 312              		.loc 1 212 36 is_stmt 0 view .LVU76
 313 0080 4FF48053 		mov	r3, #4096
 314 0084 0793     		str	r3, [sp, #28]
 214:Src/main.c    ****   {
 315              		.loc 1 214 3 is_stmt 1 view .LVU77
 214:Src/main.c    ****   {
 316              		.loc 1 214 7 is_stmt 0 view .LVU78
 317 0086 0521     		movs	r1, #5
 318 0088 03A8     		add	r0, sp, #12
 319 008a FFF7FEFF 		bl	HAL_RCC_ClockConfig
 320              	.LVL12:
 214:Src/main.c    ****   {
 321              		.loc 1 214 6 view .LVU79
 322 008e 20B9     		cbnz	r0, .L20
 218:Src/main.c    **** 
 323              		.loc 1 218 1 view .LVU80
 324 0090 15B0     		add	sp, sp, #84
 325              	.LCFI6:
 326              		.cfi_remember_state
 327              		.cfi_def_cfa_offset 4
 328              		@ sp needed
 329 0092 5DF804FB 		ldr	pc, [sp], #4
 330              	.L19:
 331              	.LCFI7:
 332              		.cfi_restore_state
 202:Src/main.c    ****   }
 333              		.loc 1 202 5 is_stmt 1 view .LVU81
 334 0096 FFF7FEFF 		bl	Error_Handler
 335              	.LVL13:
 336              	.L20:
 216:Src/main.c    ****   }
 337              		.loc 1 216 5 view .LVU82
 338 009a FFF7FEFF 		bl	Error_Handler
 339              	.LVL14:
 340              	.L22:
 341 009e 00BF     		.align	2
 342              	.L21:
 343 00a0 00380240 		.word	1073887232
 344 00a4 00700040 		.word	1073770496
 345              		.cfi_endproc
 346              	.LFE140:
 348              		.section	.rodata.main.str1.4,"aMS",%progbits,1
 349              		.align	2
 350              	.LC1:
 351 0000 68656C6C 		.ascii	"hello electronbot coming...\015\000"
 351      6F20656C 
 351      65637472 
ARM GAS  C:\Users\ADMINI~1\AppData\Local\Temp\ccG3JzGS.s 			page 15


 351      6F6E626F 
 351      7420636F 
 352              		.section	.text.main,"ax",%progbits
 353              		.align	1
 354              		.global	main
 355              		.syntax unified
 356              		.thumb
 357              		.thumb_func
 359              	main:
 360              	.LFB139:
  92:Src/main.c    ****   /* USER CODE BEGIN 1 */
 361              		.loc 1 92 1 view -0
 362              		.cfi_startproc
 363              		@ Volatile: function does not return.
 364              		@ args = 0, pretend = 0, frame = 0
 365              		@ frame_needed = 0, uses_anonymous_args = 0
 366 0000 08B5     		push	{r3, lr}
 367              	.LCFI8:
 368              		.cfi_def_cfa_offset 8
 369              		.cfi_offset 3, -8
 370              		.cfi_offset 14, -4
  94:Src/main.c    ****   /* USER CODE END 1 */
 371              		.loc 1 94 3 view .LVU84
 100:Src/main.c    **** 
 372              		.loc 1 100 3 view .LVU85
 373 0002 FFF7FEFF 		bl	HAL_Init
 374              	.LVL15:
 107:Src/main.c    **** 
 375              		.loc 1 107 3 view .LVU86
 376 0006 FFF7FEFF 		bl	SystemClock_Config
 377              	.LVL16:
 114:Src/main.c    ****   MX_DMA_Init();
 378              		.loc 1 114 3 view .LVU87
 379 000a FFF7FEFF 		bl	MX_GPIO_Init
 380              	.LVL17:
 115:Src/main.c    ****   MX_I2C1_Init();
 381              		.loc 1 115 3 view .LVU88
 382 000e FFF7FEFF 		bl	MX_DMA_Init
 383              	.LVL18:
 116:Src/main.c    ****   MX_USART1_UART_Init();
 384              		.loc 1 116 3 view .LVU89
 385 0012 FFF7FEFF 		bl	MX_I2C1_Init
 386              	.LVL19:
 117:Src/main.c    ****   MX_SPI1_Init();
 387              		.loc 1 117 3 view .LVU90
 388 0016 FFF7FEFF 		bl	MX_USART1_UART_Init
 389              	.LVL20:
 118:Src/main.c    ****   /* USER CODE BEGIN 2 */
 390              		.loc 1 118 3 view .LVU91
 391 001a FFF7FEFF 		bl	MX_SPI1_Init
 392              	.LVL21:
 132:Src/main.c    ****   printf("hello electronbot coming...\r\n");
 393              		.loc 1 132 3 view .LVU92
 394 001e FFF7FEFF 		bl	SpiFlash_Init
 395              	.LVL22:
 133:Src/main.c    ****  /*  i2cTxData[0]=0x01;
 396              		.loc 1 133 3 view .LVU93
ARM GAS  C:\Users\ADMINI~1\AppData\Local\Temp\ccG3JzGS.s 			page 16


 397 0022 0548     		ldr	r0, .L26
 398 0024 FFF7FEFF 		bl	puts
 399              	.LVL23:
 145:Src/main.c    ****   MX_FREERTOS_Init();
 400              		.loc 1 145 3 view .LVU94
 401 0028 FFF7FEFF 		bl	osKernelInitialize
 402              	.LVL24:
 146:Src/main.c    **** 
 403              		.loc 1 146 3 view .LVU95
 404 002c FFF7FEFF 		bl	MX_FREERTOS_Init
 405              	.LVL25:
 149:Src/main.c    **** 
 406              		.loc 1 149 3 view .LVU96
 407 0030 FFF7FEFF 		bl	osKernelStart
 408              	.LVL26:
 409              	.L24:
 154:Src/main.c    ****   {
 410              		.loc 1 154 3 discriminator 1 view .LVU97
 171:Src/main.c    ****   /* USER CODE END 3 */
 411              		.loc 1 171 3 discriminator 1 view .LVU98
 154:Src/main.c    ****   {
 412              		.loc 1 154 9 discriminator 1 view .LVU99
 413 0034 FEE7     		b	.L24
 414              	.L27:
 415 0036 00BF     		.align	2
 416              	.L26:
 417 0038 00000000 		.word	.LC1
 418              		.cfi_endproc
 419              	.LFE139:
 421              		.global	i2cTxData
 422              		.global	i2cRxData
 423              		.section	.bss.i2cRxData,"aw",%nobits
 424              		.align	2
 425              		.set	.LANCHOR1,. + 0
 428              	i2cRxData:
 429 0000 00000000 		.space	8
 429      00000000 
 430              		.section	.bss.i2cTxData,"aw",%nobits
 431              		.align	2
 432              		.set	.LANCHOR0,. + 0
 435              	i2cTxData:
 436 0000 00000000 		.space	8
 436      00000000 
 437              		.text
 438              	.Letext0:
 439              		.file 3 "c:\\program files (x86)\\gnu arm embedded toolchain\\10 2021.10\\arm-none-eabi\\include\\
 440              		.file 4 "c:\\program files (x86)\\gnu arm embedded toolchain\\10 2021.10\\arm-none-eabi\\include\\
 441              		.file 5 "Drivers/CMSIS/Device/ST/STM32F4xx/Include/stm32f405xx.h"
 442              		.file 6 "Drivers/STM32F4xx_HAL_Driver/Inc/stm32f4xx_hal_def.h"
 443              		.file 7 "Drivers/STM32F4xx_HAL_Driver/Inc/stm32f4xx_hal_rcc_ex.h"
 444              		.file 8 "Drivers/STM32F4xx_HAL_Driver/Inc/stm32f4xx_hal_rcc.h"
 445              		.file 9 "Drivers/STM32F4xx_HAL_Driver/Inc/stm32f4xx_hal_dma.h"
 446              		.file 10 "Drivers/STM32F4xx_HAL_Driver/Inc/stm32f4xx_hal_i2c.h"
 447              		.file 11 "Drivers/STM32F4xx_HAL_Driver/Inc/stm32f4xx_hal_tim.h"
 448              		.file 12 "Inc/i2c.h"
 449              		.file 13 "Drivers/STM32F4xx_HAL_Driver/Inc/stm32f4xx_hal.h"
 450              		.file 14 "Inc/gpio.h"
ARM GAS  C:\Users\ADMINI~1\AppData\Local\Temp\ccG3JzGS.s 			page 17


 451              		.file 15 "Inc/dma.h"
 452              		.file 16 "Inc/usart.h"
 453              		.file 17 "Inc/spi.h"
 454              		.file 18 "user/w25q32.h"
 455              		.file 19 "<built-in>"
 456              		.file 20 "Middlewares/Third_Party/FreeRTOS/Source/CMSIS_RTOS_V2/cmsis_os2.h"
 457              		.file 21 "c:\\program files (x86)\\gnu arm embedded toolchain\\10 2021.10\\arm-none-eabi\\include\
ARM GAS  C:\Users\ADMINI~1\AppData\Local\Temp\ccG3JzGS.s 			page 18

