ARM GAS  C:\Users\ADMINI~1\AppData\Local\Temp\ccuOIsec.s 			page 1


   1              		.cpu cortex-m4
   2              		.arch armv7e-m
   3              		.fpu fpv4-sp-d16
   4              		.eabi_attribute 27, 1
   5              		.eabi_attribute 28, 1
   6              		.eabi_attribute 20, 1
   7              		.eabi_attribute 21, 1
   8              		.eabi_attribute 23, 3
   9              		.eabi_attribute 24, 1
  10              		.eabi_attribute 25, 1
  11              		.eabi_attribute 26, 1
  12              		.eabi_attribute 30, 1
  13              		.eabi_attribute 34, 1
  14              		.eabi_attribute 18, 4
  15              		.file	"robot.cpp"
  16              		.text
  17              	.Ltext0:
  18              		.cfi_sections	.debug_frame
  19              		.section	.text._ZN5Robot20GetPingPongBufferPtrEv,"ax",%progbits
  20              		.align	1
  21              		.global	_ZN5Robot20GetPingPongBufferPtrEv
  22              		.syntax unified
  23              		.thumb
  24              		.thumb_func
  26              	_ZN5Robot20GetPingPongBufferPtrEv:
  27              		.fnstart
  28              	.LVL0:
  29              	.LFB152:
  30              		.file 1 "user/robot.cpp"
   1:user/robot.cpp **** #include "robot.h"
   2:user/robot.cpp **** // #include "usbd_cdc_if.h"
   3:user/robot.cpp **** #include "usbd_winUsb.h"
   4:user/robot.cpp **** 
   5:user/robot.cpp **** uint8_t* Robot::GetPingPongBufferPtr()
   6:user/robot.cpp **** {
  31              		.loc 1 6 1 view -0
  32              		.cfi_startproc
  33              		@ args = 0, pretend = 0, frame = 0
  34              		@ frame_needed = 0, uses_anonymous_args = 0
  35              		@ link register save eliminated.
   7:user/robot.cpp ****     return &(usbBuffer.rxData[usbBuffer.pingPongIndex][usbBuffer.rxDataOffset]);
  36              		.loc 1 7 5 view .LVU1
  37              		.loc 1 7 41 is_stmt 0 view .LVU2
  38 0000 0648     		ldr	r0, .L2
  39              	.LVL1:
  40              		.loc 1 7 41 view .LVU3
  41 0002 00F5A832 		add	r2, r0, #86016
  42 0006 92F8E211 		ldrb	r1, [r2, #482]	@ zero_extendqisi2
  43              		.loc 1 7 66 view .LVU4
  44 000a D2F8E431 		ldr	r3, [r2, #484]
  45              		.loc 1 7 79 view .LVU5
  46 000e 4AF6E002 		movw	r2, #43232
  47 0012 01FB0233 		mla	r3, r1, r2, r3
  48 0016 2033     		adds	r3, r3, #32
   8:user/robot.cpp **** }
  49              		.loc 1 8 1 view .LVU6
  50 0018 1844     		add	r0, r0, r3
ARM GAS  C:\Users\ADMINI~1\AppData\Local\Temp\ccuOIsec.s 			page 2


  51 001a 7047     		bx	lr
  52              	.L3:
  53              		.align	2
  54              	.L2:
  55 001c 00000000 		.word	usbBuffer
  56              		.cfi_endproc
  57              	.LFE152:
  58              		.cantunwind
  59              		.fnend
  61              		.section	.text._ZN5Robot13SendUsbPacketEPhm,"ax",%progbits
  62              		.align	1
  63              		.global	_ZN5Robot13SendUsbPacketEPhm
  64              		.syntax unified
  65              		.thumb
  66              		.thumb_func
  68              	_ZN5Robot13SendUsbPacketEPhm:
  69              		.fnstart
  70              	.LVL2:
  71              	.LFB153:
   9:user/robot.cpp **** 
  10:user/robot.cpp **** 
  11:user/robot.cpp **** void Robot::SendUsbPacket(uint8_t* _data, uint32_t _len)
  12:user/robot.cpp **** {
  72              		.loc 1 12 1 is_stmt 1 view -0
  73              		.cfi_startproc
  74              		@ args = 0, pretend = 0, frame = 0
  75              		@ frame_needed = 0, uses_anonymous_args = 0
  76              		.loc 1 12 1 is_stmt 0 view .LVU8
  77 0000 38B5     		push	{r3, r4, r5, lr}
  78              		.save {r3, r4, r5, lr}
  79              	.LCFI0:
  80              		.cfi_def_cfa_offset 16
  81              		.cfi_offset 3, -16
  82              		.cfi_offset 4, -12
  83              		.cfi_offset 5, -8
  84              		.cfi_offset 14, -4
  85 0002 0D46     		mov	r5, r1
  86 0004 1446     		mov	r4, r2
  87              	.LVL3:
  88              	.L5:
  13:user/robot.cpp ****     uint8_t ret;
  89              		.loc 1 13 5 is_stmt 1 view .LVU9
  14:user/robot.cpp ****     do
  90              		.loc 1 14 5 view .LVU10
  15:user/robot.cpp ****     {
  16:user/robot.cpp ****         // ret = CDC_Transmit_HS(_data, _len);
  17:user/robot.cpp ****         ret = WinUsb_Transmit_FS(_data, _len);
  91              		.loc 1 17 9 view .LVU11
  92              		.loc 1 17 33 is_stmt 0 view .LVU12
  93 0006 A1B2     		uxth	r1, r4
  94 0008 2846     		mov	r0, r5
  95 000a FFF7FEFF 		bl	WinUsb_Transmit_FS
  96              	.LVL4:
  18:user/robot.cpp ****     } while (ret != USBD_OK);
  97              		.loc 1 18 18 is_stmt 1 view .LVU13
  98 000e 0028     		cmp	r0, #0
  99 0010 F9D1     		bne	.L5
ARM GAS  C:\Users\ADMINI~1\AppData\Local\Temp\ccuOIsec.s 			page 3


  19:user/robot.cpp **** }
 100              		.loc 1 19 1 is_stmt 0 view .LVU14
 101 0012 38BD     		pop	{r3, r4, r5, pc}
 102              		.loc 1 19 1 view .LVU15
 103              		.cfi_endproc
 104              	.LFE153:
 105              		.fnend
 107              		.section	.text._ZN5Robot20SwitchPingPongBufferEv,"ax",%progbits
 108              		.align	1
 109              		.global	_ZN5Robot20SwitchPingPongBufferEv
 110              		.syntax unified
 111              		.thumb
 112              		.thumb_func
 114              	_ZN5Robot20SwitchPingPongBufferEv:
 115              		.fnstart
 116              	.LVL5:
 117              	.LFB154:
  20:user/robot.cpp **** 
  21:user/robot.cpp **** 
  22:user/robot.cpp **** void Robot::SwitchPingPongBuffer()
  23:user/robot.cpp **** {
 118              		.loc 1 23 1 is_stmt 1 view -0
 119              		.cfi_startproc
 120              		@ args = 0, pretend = 0, frame = 0
 121              		@ frame_needed = 0, uses_anonymous_args = 0
 122              		@ link register save eliminated.
  24:user/robot.cpp ****     usbBuffer.pingPongIndex = (usbBuffer.pingPongIndex == 0 ? 1 : 0);
 123              		.loc 1 24 5 view .LVU17
 124              		.loc 1 24 42 is_stmt 0 view .LVU18
 125 0000 064B     		ldr	r3, .L10
 126 0002 93F8E231 		ldrb	r3, [r3, #482]	@ zero_extendqisi2
 127              		.loc 1 24 29 view .LVU19
 128 0006 3BB9     		cbnz	r3, .L9
 129 0008 0122     		movs	r2, #1
 130              	.L8:
 131              		.loc 1 24 29 discriminator 4 view .LVU20
 132 000a 044B     		ldr	r3, .L10
 133 000c 83F8E221 		strb	r2, [r3, #482]
  25:user/robot.cpp ****     usbBuffer.rxDataOffset = 0;
 134              		.loc 1 25 5 is_stmt 1 discriminator 4 view .LVU21
 135              		.loc 1 25 28 is_stmt 0 discriminator 4 view .LVU22
 136 0010 0022     		movs	r2, #0
 137 0012 C3F8E421 		str	r2, [r3, #484]
  26:user/robot.cpp **** }
 138              		.loc 1 26 1 discriminator 4 view .LVU23
 139 0016 7047     		bx	lr
 140              	.L9:
  24:user/robot.cpp ****     usbBuffer.pingPongIndex = (usbBuffer.pingPongIndex == 0 ? 1 : 0);
 141              		.loc 1 24 29 view .LVU24
 142 0018 0022     		movs	r2, #0
 143 001a F6E7     		b	.L8
 144              	.L11:
 145              		.align	2
 146              	.L10:
 147 001c 00500100 		.word	usbBuffer+86016
 148              		.cfi_endproc
 149              	.LFE154:
ARM GAS  C:\Users\ADMINI~1\AppData\Local\Temp\ccuOIsec.s 			page 4


 150              		.cantunwind
 151              		.fnend
 153              		.section	.text._ZN5Robot15GetLcdBufferPtrEv,"ax",%progbits
 154              		.align	1
 155              		.global	_ZN5Robot15GetLcdBufferPtrEv
 156              		.syntax unified
 157              		.thumb
 158              		.thumb_func
 160              	_ZN5Robot15GetLcdBufferPtrEv:
 161              		.fnstart
 162              	.LVL6:
 163              	.LFB155:
  27:user/robot.cpp **** 
  28:user/robot.cpp **** 
  29:user/robot.cpp **** uint8_t* Robot::GetLcdBufferPtr()
  30:user/robot.cpp **** {
 164              		.loc 1 30 1 is_stmt 1 view -0
 165              		.cfi_startproc
 166              		@ args = 0, pretend = 0, frame = 0
 167              		@ frame_needed = 0, uses_anonymous_args = 0
 168              		@ link register save eliminated.
  31:user/robot.cpp ****     return usbBuffer.rxData[usbBuffer.pingPongIndex == 0 ? 1 : 0];
 169              		.loc 1 31 5 view .LVU26
 170              		.loc 1 31 39 is_stmt 0 view .LVU27
 171 0000 074B     		ldr	r3, .L15
 172 0002 93F8E231 		ldrb	r3, [r3, #482]	@ zero_extendqisi2
 173              		.loc 1 31 58 view .LVU28
 174 0006 43B9     		cbnz	r3, .L14
 175 0008 0123     		movs	r3, #1
 176              	.L13:
 177              		.loc 1 31 65 discriminator 4 view .LVU29
 178 000a 4AF6E000 		movw	r0, #43232
 179              	.LVL7:
 180              		.loc 1 31 65 discriminator 4 view .LVU30
 181 000e 00FB03F3 		mul	r3, r0, r3
 182 0012 2033     		adds	r3, r3, #32
  32:user/robot.cpp **** }
 183              		.loc 1 32 1 discriminator 4 view .LVU31
 184 0014 0348     		ldr	r0, .L15+4
 185 0016 1844     		add	r0, r0, r3
 186 0018 7047     		bx	lr
 187              	.LVL8:
 188              	.L14:
  31:user/robot.cpp ****     return usbBuffer.rxData[usbBuffer.pingPongIndex == 0 ? 1 : 0];
 189              		.loc 1 31 58 view .LVU32
 190 001a 0023     		movs	r3, #0
 191 001c F5E7     		b	.L13
 192              	.L16:
 193 001e 00BF     		.align	2
 194              	.L15:
 195 0020 00500100 		.word	usbBuffer+86016
 196 0024 00000000 		.word	usbBuffer
 197              		.cfi_endproc
 198              	.LFE155:
 199              		.cantunwind
 200              		.fnend
 202              		.section	.text._ZN5Robot27ReceiveUsbPacketUntilSizeIsEm,"ax",%progbits
ARM GAS  C:\Users\ADMINI~1\AppData\Local\Temp\ccuOIsec.s 			page 5


 203              		.align	1
 204              		.global	_ZN5Robot27ReceiveUsbPacketUntilSizeIsEm
 205              		.syntax unified
 206              		.thumb
 207              		.thumb_func
 209              	_ZN5Robot27ReceiveUsbPacketUntilSizeIsEm:
 210              		.fnstart
 211              	.LFB156:
  33:user/robot.cpp **** 
  34:user/robot.cpp **** 
  35:user/robot.cpp **** void Robot::ReceiveUsbPacketUntilSizeIs(uint32_t _count)
  36:user/robot.cpp **** {
 212              		.loc 1 36 1 is_stmt 1 view -0
 213              		.cfi_startproc
 214              		@ args = 0, pretend = 0, frame = 0
 215              		@ frame_needed = 0, uses_anonymous_args = 0
 216              		@ link register save eliminated.
 217              	.LVL9:
 218              	.L18:
  37:user/robot.cpp ****     while (usbBuffer.receivedPacketLen != _count);
 219              		.loc 1 37 5 view .LVU34
 220              		.loc 1 37 40 view .LVU35
 221              		.loc 1 37 22 is_stmt 0 view .LVU36
 222 0000 054B     		ldr	r3, .L19
 223 0002 B3F8E031 		ldrh	r3, [r3, #480]
 224 0006 9BB2     		uxth	r3, r3
 225              		.loc 1 37 40 view .LVU37
 226 0008 8B42     		cmp	r3, r1
 227 000a F9D1     		bne	.L18
  38:user/robot.cpp ****     usbBuffer.receivedPacketLen = 0;
 228              		.loc 1 38 5 is_stmt 1 view .LVU38
 229              		.loc 1 38 33 is_stmt 0 view .LVU39
 230 000c 024B     		ldr	r3, .L19
 231 000e 0022     		movs	r2, #0
 232 0010 A3F8E021 		strh	r2, [r3, #480]	@ movhi
  39:user/robot.cpp **** }
 233              		.loc 1 39 1 view .LVU40
 234 0014 7047     		bx	lr
 235              	.L20:
 236 0016 00BF     		.align	2
 237              	.L19:
 238 0018 00500100 		.word	usbBuffer+86016
 239              		.cfi_endproc
 240              	.LFE156:
 241              		.cantunwind
 242              		.fnend
 244              		.section	.text._ZN5Robot27TransmitAndReceiveI2cPacketEh,"ax",%progbits
 245              		.align	1
 246              		.global	_ZN5Robot27TransmitAndReceiveI2cPacketEh
 247              		.syntax unified
 248              		.thumb
 249              		.thumb_func
 251              	_ZN5Robot27TransmitAndReceiveI2cPacketEh:
 252              		.fnstart
 253              	.LVL10:
 254              	.LFB160:
  40:user/robot.cpp **** 
ARM GAS  C:\Users\ADMINI~1\AppData\Local\Temp\ccuOIsec.s 			page 6


  41:user/robot.cpp **** 
  42:user/robot.cpp **** void Robot::UpdateServoAngle(Robot::JointStatus_t &_joint, float _angleSetPoint)
  43:user/robot.cpp **** {
  44:user/robot.cpp ****     //if (_angleSetPoint >= _joint.angleMin && _angleSetPoint <= _joint.angleMax)
  45:user/robot.cpp ****     {
  46:user/robot.cpp ****         auto* b = (unsigned char*) (&_angleSetPoint);
  47:user/robot.cpp **** 
  48:user/robot.cpp ****         i2cTxData[0] = 0x01;
  49:user/robot.cpp ****         for (int i = 0; i < 4; i++)
  50:user/robot.cpp ****         {
  51:user/robot.cpp ****             i2cTxData[i + 1] = *(b + i);            
  52:user/robot.cpp ****         }
  53:user/robot.cpp ****         
  54:user/robot.cpp ****         TransmitAndReceiveI2cPacket(_joint.id);
  55:user/robot.cpp **** 
  56:user/robot.cpp ****         _joint.angle = *(float*) (i2cRxData + 1);
  57:user/robot.cpp ****     }
  58:user/robot.cpp **** }
  59:user/robot.cpp **** 
  60:user/robot.cpp **** 
  61:user/robot.cpp **** void Robot::UpdateServoAngle(Robot::JointStatus_t &_joint)
  62:user/robot.cpp **** {
  63:user/robot.cpp ****     auto* b = (unsigned char*) &(_joint.angle);
  64:user/robot.cpp **** 
  65:user/robot.cpp ****     i2cTxData[0] = 0x11;
  66:user/robot.cpp **** 
  67:user/robot.cpp ****     TransmitAndReceiveI2cPacket(_joint.id);
  68:user/robot.cpp **** 
  69:user/robot.cpp ****     _joint.angle = *(float*) (i2cRxData + 1);
  70:user/robot.cpp **** }
  71:user/robot.cpp **** 
  72:user/robot.cpp **** 
  73:user/robot.cpp **** void Robot::SetJointEnable(Robot::JointStatus_t &_joint, bool _enable)
  74:user/robot.cpp **** {
  75:user/robot.cpp ****     i2cTxData[0] = 0xff;
  76:user/robot.cpp ****     i2cTxData[1] = _enable ? 1 : 0;
  77:user/robot.cpp **** 
  78:user/robot.cpp ****     TransmitAndReceiveI2cPacket(_joint.id);
  79:user/robot.cpp **** 
  80:user/robot.cpp ****     _joint.angle = *(float*) (i2cRxData + 1);
  81:user/robot.cpp **** }
  82:user/robot.cpp **** 
  83:user/robot.cpp **** 
  84:user/robot.cpp **** void Robot::TransmitAndReceiveI2cPacket(uint8_t _id)
  85:user/robot.cpp **** {
 255              		.loc 1 85 1 is_stmt 1 view -0
 256              		.cfi_startproc
 257              		@ args = 0, pretend = 0, frame = 0
 258              		@ frame_needed = 0, uses_anonymous_args = 0
 259              		.loc 1 85 1 is_stmt 0 view .LVU42
 260 0000 70B5     		push	{r4, r5, r6, lr}
 261              		.save {r4, r5, r6, lr}
 262              	.LCFI1:
 263              		.cfi_def_cfa_offset 16
 264              		.cfi_offset 4, -16
 265              		.cfi_offset 5, -12
 266              		.cfi_offset 6, -8
ARM GAS  C:\Users\ADMINI~1\AppData\Local\Temp\ccuOIsec.s 			page 7


 267              		.cfi_offset 14, -4
 268              		.pad #8
 269 0002 82B0     		sub	sp, sp, #8
 270              	.LCFI2:
 271              		.cfi_def_cfa_offset 24
 272 0004 0446     		mov	r4, r0
 273 0006 0E46     		mov	r6, r1
  86:user/robot.cpp ****     HAL_StatusTypeDef state = HAL_ERROR;
 274              		.loc 1 86 5 is_stmt 1 view .LVU43
 275              	.LVL11:
 276              	.L22:
  87:user/robot.cpp ****     // int retry = 0;
  88:user/robot.cpp ****     do
 277              		.loc 1 88 5 view .LVU44
  89:user/robot.cpp ****     {         
  90:user/robot.cpp ****         // if(retry++ > 5)
  91:user/robot.cpp ****             // break;
  92:user/robot.cpp ****         state = HAL_I2C_Master_Transmit(motorI2c, _id, i2cTxData, 5, 5);
 278              		.loc 1 92 9 view .LVU45
 279              		.loc 1 92 40 is_stmt 0 view .LVU46
 280 0008 B5B2     		uxth	r5, r6
 281 000a 0523     		movs	r3, #5
 282 000c 0093     		str	r3, [sp]
 283 000e 04F1DC02 		add	r2, r4, #220
 284 0012 2946     		mov	r1, r5
 285 0014 D4F8D000 		ldr	r0, [r4, #208]
 286 0018 FFF7FEFF 		bl	HAL_I2C_Master_Transmit
 287              	.LVL12:
  93:user/robot.cpp ****     } while (state != HAL_OK);
 288              		.loc 1 93 20 is_stmt 1 view .LVU47
 289 001c 0028     		cmp	r0, #0
 290 001e F3D1     		bne	.L22
 291              	.L23:
  94:user/robot.cpp ****     // retry = 0;
  95:user/robot.cpp ****     do
 292              		.loc 1 95 5 view .LVU48
  96:user/robot.cpp ****     {   
  97:user/robot.cpp ****         // if(retry++ > 5)
  98:user/robot.cpp ****             // break;
  99:user/robot.cpp ****         state = HAL_I2C_Master_Receive(motorI2c, _id, i2cRxData, 5, 5);
 293              		.loc 1 99 9 view .LVU49
 294              		.loc 1 99 39 is_stmt 0 view .LVU50
 295 0020 0523     		movs	r3, #5
 296 0022 0093     		str	r3, [sp]
 297 0024 04F1D402 		add	r2, r4, #212
 298 0028 2946     		mov	r1, r5
 299 002a D4F8D000 		ldr	r0, [r4, #208]
 300              	.LVL13:
 301              		.loc 1 99 39 view .LVU51
 302 002e FFF7FEFF 		bl	HAL_I2C_Master_Receive
 303              	.LVL14:
 100:user/robot.cpp ****     } while (state != HAL_OK);
 304              		.loc 1 100 20 is_stmt 1 view .LVU52
 305 0032 0028     		cmp	r0, #0
 306 0034 F4D1     		bne	.L23
 101:user/robot.cpp ****     
 102:user/robot.cpp **** }
ARM GAS  C:\Users\ADMINI~1\AppData\Local\Temp\ccuOIsec.s 			page 8


 307              		.loc 1 102 1 is_stmt 0 view .LVU53
 308 0036 02B0     		add	sp, sp, #8
 309              	.LCFI3:
 310              		.cfi_def_cfa_offset 16
 311              		@ sp needed
 312 0038 70BD     		pop	{r4, r5, r6, pc}
 313              		.loc 1 102 1 view .LVU54
 314              		.cfi_endproc
 315              	.LFE160:
 316              		.fnend
 318              		.section	.text._ZN5Robot16UpdateServoAngleERNS_13JointStatus_tEf,"ax",%progbits
 319              		.align	1
 320              		.global	_ZN5Robot16UpdateServoAngleERNS_13JointStatus_tEf
 321              		.syntax unified
 322              		.thumb
 323              		.thumb_func
 325              	_ZN5Robot16UpdateServoAngleERNS_13JointStatus_tEf:
 326              		.fnstart
 327              	.LVL15:
 328              	.LFB157:
  43:user/robot.cpp ****     //if (_angleSetPoint >= _joint.angleMin && _angleSetPoint <= _joint.angleMax)
 329              		.loc 1 43 1 is_stmt 1 view -0
 330              		.cfi_startproc
 331              		@ args = 0, pretend = 0, frame = 8
 332              		@ frame_needed = 0, uses_anonymous_args = 0
  43:user/robot.cpp ****     //if (_angleSetPoint >= _joint.angleMin && _angleSetPoint <= _joint.angleMax)
 333              		.loc 1 43 1 is_stmt 0 view .LVU56
 334 0000 30B5     		push	{r4, r5, lr}
 335              		.save {r4, r5, lr}
 336              	.LCFI4:
 337              		.cfi_def_cfa_offset 12
 338              		.cfi_offset 4, -12
 339              		.cfi_offset 5, -8
 340              		.cfi_offset 14, -4
 341              		.pad #12
 342 0002 83B0     		sub	sp, sp, #12
 343              	.LCFI5:
 344              		.cfi_def_cfa_offset 24
 345 0004 0446     		mov	r4, r0
 346 0006 0D46     		mov	r5, r1
 347 0008 8DED010A 		vstr.32	s0, [sp, #4]
  45:user/robot.cpp ****         auto* b = (unsigned char*) (&_angleSetPoint);
 348              		.loc 1 45 5 is_stmt 1 view .LVU57
 349              	.LBB2:
  46:user/robot.cpp **** 
 350              		.loc 1 46 9 view .LVU58
 351              	.LVL16:
  48:user/robot.cpp ****         for (int i = 0; i < 4; i++)
 352              		.loc 1 48 9 view .LVU59
  48:user/robot.cpp ****         for (int i = 0; i < 4; i++)
 353              		.loc 1 48 22 is_stmt 0 view .LVU60
 354 000c 0123     		movs	r3, #1
 355 000e 80F8DC30 		strb	r3, [r0, #220]
  49:user/robot.cpp ****         {
 356              		.loc 1 49 9 is_stmt 1 view .LVU61
 357              	.LVL17:
 358              	.LBB3:
ARM GAS  C:\Users\ADMINI~1\AppData\Local\Temp\ccuOIsec.s 			page 9


  49:user/robot.cpp ****         {
 359              		.loc 1 49 18 is_stmt 0 view .LVU62
 360 0012 0023     		movs	r3, #0
 361 0014 06E0     		b	.L27
 362              	.LVL18:
 363              	.L29:
  51:user/robot.cpp ****         }
 364              		.loc 1 51 13 is_stmt 1 discriminator 2 view .LVU63
  51:user/robot.cpp ****         }
 365              		.loc 1 51 36 is_stmt 0 discriminator 2 view .LVU64
 366 0016 01AA     		add	r2, sp, #4
 367              	.LVL19:
  51:user/robot.cpp ****         }
 368              		.loc 1 51 36 discriminator 2 view .LVU65
 369 0018 1A44     		add	r2, r2, r3
 370              	.LVL20:
  51:user/robot.cpp ****         }
 371              		.loc 1 51 25 discriminator 2 view .LVU66
 372 001a 0133     		adds	r3, r3, #1
 373              	.LVL21:
  51:user/robot.cpp ****         }
 374              		.loc 1 51 32 discriminator 2 view .LVU67
 375 001c 1078     		ldrb	r0, [r2]	@ zero_extendqisi2
  51:user/robot.cpp ****         }
 376              		.loc 1 51 30 discriminator 2 view .LVU68
 377 001e E218     		adds	r2, r4, r3
 378 0020 82F8DC00 		strb	r0, [r2, #220]
  49:user/robot.cpp ****         {
 379              		.loc 1 49 9 is_stmt 1 discriminator 2 view .LVU69
 380              	.LVL22:
 381              	.L27:
  49:user/robot.cpp ****         {
 382              		.loc 1 49 27 discriminator 3 view .LVU70
 383 0024 032B     		cmp	r3, #3
 384 0026 F6DD     		ble	.L29
 385              	.LBE3:
  54:user/robot.cpp **** 
 386              		.loc 1 54 9 view .LVU71
  54:user/robot.cpp **** 
 387              		.loc 1 54 36 is_stmt 0 view .LVU72
 388 0028 2978     		ldrb	r1, [r5]	@ zero_extendqisi2
 389              	.LVL23:
  54:user/robot.cpp **** 
 390              		.loc 1 54 36 view .LVU73
 391 002a 2046     		mov	r0, r4
 392 002c FFF7FEFF 		bl	_ZN5Robot27TransmitAndReceiveI2cPacketEh
 393              	.LVL24:
  56:user/robot.cpp ****     }
 394              		.loc 1 56 9 is_stmt 1 view .LVU74
  56:user/robot.cpp ****     }
 395              		.loc 1 56 24 is_stmt 0 view .LVU75
 396 0030 D534     		adds	r4, r4, #213
 397              	.LVL25:
  56:user/robot.cpp ****     }
 398              		.loc 1 56 24 view .LVU76
 399 0032 2368     		ldr	r3, [r4]	@ float
  56:user/robot.cpp ****     }
ARM GAS  C:\Users\ADMINI~1\AppData\Local\Temp\ccuOIsec.s 			page 10


 400              		.loc 1 56 22 view .LVU77
 401 0034 EB60     		str	r3, [r5, #12]	@ float
 402              	.LBE2:
  58:user/robot.cpp **** 
 403              		.loc 1 58 1 view .LVU78
 404 0036 03B0     		add	sp, sp, #12
 405              	.LCFI6:
 406              		.cfi_def_cfa_offset 12
 407              		@ sp needed
 408 0038 30BD     		pop	{r4, r5, pc}
  58:user/robot.cpp **** 
 409              		.loc 1 58 1 view .LVU79
 410              		.cfi_endproc
 411              	.LFE157:
 412              		.fnend
 414              		.section	.text._ZN5Robot16UpdateServoAngleERNS_13JointStatus_tE,"ax",%progbits
 415              		.align	1
 416              		.global	_ZN5Robot16UpdateServoAngleERNS_13JointStatus_tE
 417              		.syntax unified
 418              		.thumb
 419              		.thumb_func
 421              	_ZN5Robot16UpdateServoAngleERNS_13JointStatus_tE:
 422              		.fnstart
 423              	.LVL26:
 424              	.LFB158:
  62:user/robot.cpp ****     auto* b = (unsigned char*) &(_joint.angle);
 425              		.loc 1 62 1 is_stmt 1 view -0
 426              		.cfi_startproc
 427              		@ args = 0, pretend = 0, frame = 0
 428              		@ frame_needed = 0, uses_anonymous_args = 0
  62:user/robot.cpp ****     auto* b = (unsigned char*) &(_joint.angle);
 429              		.loc 1 62 1 is_stmt 0 view .LVU81
 430 0000 38B5     		push	{r3, r4, r5, lr}
 431              		.save {r3, r4, r5, lr}
 432              	.LCFI7:
 433              		.cfi_def_cfa_offset 16
 434              		.cfi_offset 3, -16
 435              		.cfi_offset 4, -12
 436              		.cfi_offset 5, -8
 437              		.cfi_offset 14, -4
 438 0002 0446     		mov	r4, r0
 439 0004 0D46     		mov	r5, r1
  63:user/robot.cpp **** 
 440              		.loc 1 63 5 is_stmt 1 view .LVU82
 441              	.LVL27:
  65:user/robot.cpp **** 
 442              		.loc 1 65 5 view .LVU83
  65:user/robot.cpp **** 
 443              		.loc 1 65 18 is_stmt 0 view .LVU84
 444 0006 1123     		movs	r3, #17
 445 0008 80F8DC30 		strb	r3, [r0, #220]
  67:user/robot.cpp **** 
 446              		.loc 1 67 5 is_stmt 1 view .LVU85
  67:user/robot.cpp **** 
 447              		.loc 1 67 32 is_stmt 0 view .LVU86
 448 000c 0978     		ldrb	r1, [r1]	@ zero_extendqisi2
 449              	.LVL28:
ARM GAS  C:\Users\ADMINI~1\AppData\Local\Temp\ccuOIsec.s 			page 11


  67:user/robot.cpp **** 
 450              		.loc 1 67 32 view .LVU87
 451 000e FFF7FEFF 		bl	_ZN5Robot27TransmitAndReceiveI2cPacketEh
 452              	.LVL29:
  69:user/robot.cpp **** }
 453              		.loc 1 69 5 is_stmt 1 view .LVU88
  69:user/robot.cpp **** }
 454              		.loc 1 69 20 is_stmt 0 view .LVU89
 455 0012 D534     		adds	r4, r4, #213
 456              	.LVL30:
  69:user/robot.cpp **** }
 457              		.loc 1 69 20 view .LVU90
 458 0014 2368     		ldr	r3, [r4]	@ float
  69:user/robot.cpp **** }
 459              		.loc 1 69 18 view .LVU91
 460 0016 EB60     		str	r3, [r5, #12]	@ float
  70:user/robot.cpp **** 
 461              		.loc 1 70 1 view .LVU92
 462 0018 38BD     		pop	{r3, r4, r5, pc}
  70:user/robot.cpp **** 
 463              		.loc 1 70 1 view .LVU93
 464              		.cfi_endproc
 465              	.LFE158:
 466              		.fnend
 468              		.section	.text._ZN5Robot14SetJointEnableERNS_13JointStatus_tEb,"ax",%progbits
 469              		.align	1
 470              		.global	_ZN5Robot14SetJointEnableERNS_13JointStatus_tEb
 471              		.syntax unified
 472              		.thumb
 473              		.thumb_func
 475              	_ZN5Robot14SetJointEnableERNS_13JointStatus_tEb:
 476              		.fnstart
 477              	.LVL31:
 478              	.LFB159:
  74:user/robot.cpp ****     i2cTxData[0] = 0xff;
 479              		.loc 1 74 1 is_stmt 1 view -0
 480              		.cfi_startproc
 481              		@ args = 0, pretend = 0, frame = 0
 482              		@ frame_needed = 0, uses_anonymous_args = 0
  74:user/robot.cpp ****     i2cTxData[0] = 0xff;
 483              		.loc 1 74 1 is_stmt 0 view .LVU95
 484 0000 38B5     		push	{r3, r4, r5, lr}
 485              		.save {r3, r4, r5, lr}
 486              	.LCFI8:
 487              		.cfi_def_cfa_offset 16
 488              		.cfi_offset 3, -16
 489              		.cfi_offset 4, -12
 490              		.cfi_offset 5, -8
 491              		.cfi_offset 14, -4
 492 0002 0446     		mov	r4, r0
 493 0004 0D46     		mov	r5, r1
  75:user/robot.cpp ****     i2cTxData[1] = _enable ? 1 : 0;
 494              		.loc 1 75 5 is_stmt 1 view .LVU96
  75:user/robot.cpp ****     i2cTxData[1] = _enable ? 1 : 0;
 495              		.loc 1 75 18 is_stmt 0 view .LVU97
 496 0006 FF23     		movs	r3, #255
 497 0008 80F8DC30 		strb	r3, [r0, #220]
ARM GAS  C:\Users\ADMINI~1\AppData\Local\Temp\ccuOIsec.s 			page 12


  76:user/robot.cpp **** 
 498              		.loc 1 76 5 is_stmt 1 view .LVU98
  76:user/robot.cpp **** 
 499              		.loc 1 76 18 is_stmt 0 view .LVU99
 500 000c 52B1     		cbz	r2, .L34
 501 000e 0123     		movs	r3, #1
 502              	.L33:
  76:user/robot.cpp **** 
 503              		.loc 1 76 18 discriminator 4 view .LVU100
 504 0010 84F8DD30 		strb	r3, [r4, #221]
  78:user/robot.cpp **** 
 505              		.loc 1 78 5 is_stmt 1 discriminator 4 view .LVU101
  78:user/robot.cpp **** 
 506              		.loc 1 78 32 is_stmt 0 discriminator 4 view .LVU102
 507 0014 2978     		ldrb	r1, [r5]	@ zero_extendqisi2
 508              	.LVL32:
  78:user/robot.cpp **** 
 509              		.loc 1 78 32 discriminator 4 view .LVU103
 510 0016 2046     		mov	r0, r4
 511              	.LVL33:
  78:user/robot.cpp **** 
 512              		.loc 1 78 32 discriminator 4 view .LVU104
 513 0018 FFF7FEFF 		bl	_ZN5Robot27TransmitAndReceiveI2cPacketEh
 514              	.LVL34:
  80:user/robot.cpp **** }
 515              		.loc 1 80 5 is_stmt 1 discriminator 4 view .LVU105
  80:user/robot.cpp **** }
 516              		.loc 1 80 20 is_stmt 0 discriminator 4 view .LVU106
 517 001c D534     		adds	r4, r4, #213
 518              	.LVL35:
  80:user/robot.cpp **** }
 519              		.loc 1 80 20 discriminator 4 view .LVU107
 520 001e 2368     		ldr	r3, [r4]	@ float
  80:user/robot.cpp **** }
 521              		.loc 1 80 18 discriminator 4 view .LVU108
 522 0020 EB60     		str	r3, [r5, #12]	@ float
  81:user/robot.cpp **** 
 523              		.loc 1 81 1 discriminator 4 view .LVU109
 524 0022 38BD     		pop	{r3, r4, r5, pc}
 525              	.LVL36:
 526              	.L34:
  76:user/robot.cpp **** 
 527              		.loc 1 76 18 view .LVU110
 528 0024 0023     		movs	r3, #0
 529 0026 F3E7     		b	.L33
 530              		.cfi_endproc
 531              	.LFE159:
 532              		.fnend
 534              		.section	.text._ZN5Robot19SetJointTorqueLimitERNS_13JointStatus_tEf,"ax",%progbits
 535              		.align	1
 536              		.global	_ZN5Robot19SetJointTorqueLimitERNS_13JointStatus_tEf
 537              		.syntax unified
 538              		.thumb
 539              		.thumb_func
 541              	_ZN5Robot19SetJointTorqueLimitERNS_13JointStatus_tEf:
 542              		.fnstart
 543              	.LVL37:
ARM GAS  C:\Users\ADMINI~1\AppData\Local\Temp\ccuOIsec.s 			page 13


 544              	.LFB161:
 103:user/robot.cpp **** 
 104:user/robot.cpp **** 
 105:user/robot.cpp **** void Robot::SetJointTorqueLimit(Robot::JointStatus_t &_joint, float _percent)
 106:user/robot.cpp **** {
 545              		.loc 1 106 1 is_stmt 1 view -0
 546              		.cfi_startproc
 547              		@ args = 0, pretend = 0, frame = 8
 548              		@ frame_needed = 0, uses_anonymous_args = 0
 549              		.loc 1 106 1 is_stmt 0 view .LVU112
 550 0000 30B5     		push	{r4, r5, lr}
 551              		.save {r4, r5, lr}
 552              	.LCFI9:
 553              		.cfi_def_cfa_offset 12
 554              		.cfi_offset 4, -12
 555              		.cfi_offset 5, -8
 556              		.cfi_offset 14, -4
 557              		.pad #12
 558 0002 83B0     		sub	sp, sp, #12
 559              	.LCFI10:
 560              		.cfi_def_cfa_offset 24
 561 0004 8DED010A 		vstr.32	s0, [sp, #4]
 107:user/robot.cpp ****     if (_percent >= 0 && _percent <= 1)
 562              		.loc 1 107 5 is_stmt 1 view .LVU113
 563              	.LBB4:
 564 0008 B5EEC00A 		vcmpe.f32	s0, #0
 565 000c F1EE10FA 		vmrs	APSR_nzcv, FPSCR
 566 0010 08DB     		blt	.L36
 567 0012 0446     		mov	r4, r0
 568 0014 0D46     		mov	r5, r1
 569              		.loc 1 107 23 is_stmt 0 discriminator 1 view .LVU114
 570 0016 F7EE007A 		vmov.f32	s15, #1.0e+0
 571 001a B4EEE70A 		vcmpe.f32	s0, s15
 572 001e F1EE10FA 		vmrs	APSR_nzcv, FPSCR
 573 0022 01D9     		bls	.L45
 574              	.LVL38:
 575              	.L36:
 576              		.loc 1 107 23 discriminator 1 view .LVU115
 577              	.LBE4:
 108:user/robot.cpp ****     {
 109:user/robot.cpp ****         auto* b = (unsigned char*) (&_percent);
 110:user/robot.cpp **** 
 111:user/robot.cpp ****         i2cTxData[0] = 0x26;
 112:user/robot.cpp ****         for (int i = 0; i < 4; i++)
 113:user/robot.cpp ****             i2cTxData[i + 1] = *(b + i);
 114:user/robot.cpp **** 
 115:user/robot.cpp ****         TransmitAndReceiveI2cPacket(_joint.id);
 116:user/robot.cpp **** 
 117:user/robot.cpp ****         _joint.angle = *(float*) (i2cRxData + 1);
 118:user/robot.cpp **** 
 119:user/robot.cpp ****         HAL_Delay(500); // wait servo reset
 120:user/robot.cpp ****     }
 121:user/robot.cpp **** }
 578              		.loc 1 121 1 view .LVU116
 579 0024 03B0     		add	sp, sp, #12
 580              	.LCFI11:
 581              		.cfi_remember_state
ARM GAS  C:\Users\ADMINI~1\AppData\Local\Temp\ccuOIsec.s 			page 14


 582              		.cfi_def_cfa_offset 12
 583              		@ sp needed
 584 0026 30BD     		pop	{r4, r5, pc}
 585              	.LVL39:
 586              	.L45:
 587              	.LCFI12:
 588              		.cfi_restore_state
 589              	.LBB7:
 590              	.LBB5:
 109:user/robot.cpp **** 
 591              		.loc 1 109 9 is_stmt 1 view .LVU117
 111:user/robot.cpp ****         for (int i = 0; i < 4; i++)
 592              		.loc 1 111 9 view .LVU118
 111:user/robot.cpp ****         for (int i = 0; i < 4; i++)
 593              		.loc 1 111 22 is_stmt 0 view .LVU119
 594 0028 2623     		movs	r3, #38
 595 002a 80F8DC30 		strb	r3, [r0, #220]
 112:user/robot.cpp ****             i2cTxData[i + 1] = *(b + i);
 596              		.loc 1 112 9 is_stmt 1 view .LVU120
 597              	.LVL40:
 598              	.LBB6:
 112:user/robot.cpp ****             i2cTxData[i + 1] = *(b + i);
 599              		.loc 1 112 18 is_stmt 0 view .LVU121
 600 002e 0023     		movs	r3, #0
 601 0030 06E0     		b	.L41
 602              	.LVL41:
 603              	.L46:
 113:user/robot.cpp **** 
 604              		.loc 1 113 13 is_stmt 1 discriminator 2 view .LVU122
 113:user/robot.cpp **** 
 605              		.loc 1 113 36 is_stmt 0 discriminator 2 view .LVU123
 606 0032 01AA     		add	r2, sp, #4
 607              	.LVL42:
 113:user/robot.cpp **** 
 608              		.loc 1 113 36 discriminator 2 view .LVU124
 609 0034 1A44     		add	r2, r2, r3
 610              	.LVL43:
 113:user/robot.cpp **** 
 611              		.loc 1 113 25 discriminator 2 view .LVU125
 612 0036 0133     		adds	r3, r3, #1
 613              	.LVL44:
 113:user/robot.cpp **** 
 614              		.loc 1 113 32 discriminator 2 view .LVU126
 615 0038 1178     		ldrb	r1, [r2]	@ zero_extendqisi2
 113:user/robot.cpp **** 
 616              		.loc 1 113 30 discriminator 2 view .LVU127
 617 003a E218     		adds	r2, r4, r3
 618 003c 82F8DC10 		strb	r1, [r2, #220]
 112:user/robot.cpp ****             i2cTxData[i + 1] = *(b + i);
 619              		.loc 1 112 9 is_stmt 1 discriminator 2 view .LVU128
 620              	.LVL45:
 621              	.L41:
 112:user/robot.cpp ****             i2cTxData[i + 1] = *(b + i);
 622              		.loc 1 112 27 discriminator 3 view .LVU129
 623 0040 032B     		cmp	r3, #3
 624 0042 F6DD     		ble	.L46
 625              	.LBE6:
ARM GAS  C:\Users\ADMINI~1\AppData\Local\Temp\ccuOIsec.s 			page 15


 115:user/robot.cpp **** 
 626              		.loc 1 115 9 view .LVU130
 115:user/robot.cpp **** 
 627              		.loc 1 115 36 is_stmt 0 view .LVU131
 628 0044 2978     		ldrb	r1, [r5]	@ zero_extendqisi2
 629 0046 2046     		mov	r0, r4
 630              	.LVL46:
 115:user/robot.cpp **** 
 631              		.loc 1 115 36 view .LVU132
 632 0048 FFF7FEFF 		bl	_ZN5Robot27TransmitAndReceiveI2cPacketEh
 633              	.LVL47:
 117:user/robot.cpp **** 
 634              		.loc 1 117 9 is_stmt 1 view .LVU133
 117:user/robot.cpp **** 
 635              		.loc 1 117 24 is_stmt 0 view .LVU134
 636 004c D534     		adds	r4, r4, #213
 637              	.LVL48:
 117:user/robot.cpp **** 
 638              		.loc 1 117 24 view .LVU135
 639 004e 2368     		ldr	r3, [r4]	@ float
 117:user/robot.cpp **** 
 640              		.loc 1 117 22 view .LVU136
 641 0050 EB60     		str	r3, [r5, #12]	@ float
 119:user/robot.cpp ****     }
 642              		.loc 1 119 9 is_stmt 1 view .LVU137
 119:user/robot.cpp ****     }
 643              		.loc 1 119 18 is_stmt 0 view .LVU138
 644 0052 4FF4FA70 		mov	r0, #500
 645 0056 FFF7FEFF 		bl	HAL_Delay
 646              	.LVL49:
 647              	.LBE5:
 648              	.LBE7:
 649              		.loc 1 121 1 view .LVU139
 650 005a E3E7     		b	.L36
 651              		.cfi_endproc
 652              	.LFE161:
 653              		.fnend
 655              		.section	.text._ZN5Robot10SetJointIdERNS_13JointStatus_tEh,"ax",%progbits
 656              		.align	1
 657              		.global	_ZN5Robot10SetJointIdERNS_13JointStatus_tEh
 658              		.syntax unified
 659              		.thumb
 660              		.thumb_func
 662              	_ZN5Robot10SetJointIdERNS_13JointStatus_tEh:
 663              		.fnstart
 664              	.LVL50:
 665              	.LFB162:
 122:user/robot.cpp **** 
 123:user/robot.cpp **** 
 124:user/robot.cpp **** void Robot::SetJointId(Robot::JointStatus_t &_joint, uint8_t _id)
 125:user/robot.cpp **** {
 666              		.loc 1 125 1 is_stmt 1 view -0
 667              		.cfi_startproc
 668              		@ args = 0, pretend = 0, frame = 0
 669              		@ frame_needed = 0, uses_anonymous_args = 0
 670              		.loc 1 125 1 is_stmt 0 view .LVU141
 671 0000 38B5     		push	{r3, r4, r5, lr}
ARM GAS  C:\Users\ADMINI~1\AppData\Local\Temp\ccuOIsec.s 			page 16


 672              		.save {r3, r4, r5, lr}
 673              	.LCFI13:
 674              		.cfi_def_cfa_offset 16
 675              		.cfi_offset 3, -16
 676              		.cfi_offset 4, -12
 677              		.cfi_offset 5, -8
 678              		.cfi_offset 14, -4
 679 0002 0446     		mov	r4, r0
 680 0004 0D46     		mov	r5, r1
 126:user/robot.cpp ****     i2cTxData[0] = 0x21;
 681              		.loc 1 126 5 is_stmt 1 view .LVU142
 682              		.loc 1 126 18 is_stmt 0 view .LVU143
 683 0006 2123     		movs	r3, #33
 684 0008 80F8DC30 		strb	r3, [r0, #220]
 127:user/robot.cpp ****     i2cTxData[1] = _id;
 685              		.loc 1 127 5 is_stmt 1 view .LVU144
 686              		.loc 1 127 18 is_stmt 0 view .LVU145
 687 000c 80F8DD20 		strb	r2, [r0, #221]
 128:user/robot.cpp **** 
 129:user/robot.cpp ****     TransmitAndReceiveI2cPacket(_joint.id);
 688              		.loc 1 129 5 is_stmt 1 view .LVU146
 689              		.loc 1 129 32 is_stmt 0 view .LVU147
 690 0010 0978     		ldrb	r1, [r1]	@ zero_extendqisi2
 691              	.LVL51:
 692              		.loc 1 129 32 view .LVU148
 693 0012 FFF7FEFF 		bl	_ZN5Robot27TransmitAndReceiveI2cPacketEh
 694              	.LVL52:
 130:user/robot.cpp **** 
 131:user/robot.cpp ****     _joint.angle = *(float*) (i2cRxData + 1);
 695              		.loc 1 131 5 is_stmt 1 view .LVU149
 696              		.loc 1 131 20 is_stmt 0 view .LVU150
 697 0016 D534     		adds	r4, r4, #213
 698              	.LVL53:
 699              		.loc 1 131 20 view .LVU151
 700 0018 2368     		ldr	r3, [r4]	@ float
 701              		.loc 1 131 18 view .LVU152
 702 001a EB60     		str	r3, [r5, #12]	@ float
 132:user/robot.cpp **** 
 133:user/robot.cpp ****     HAL_Delay(500); // wait servo reset
 703              		.loc 1 133 5 is_stmt 1 view .LVU153
 704              		.loc 1 133 14 is_stmt 0 view .LVU154
 705 001c 4FF4FA70 		mov	r0, #500
 706 0020 FFF7FEFF 		bl	HAL_Delay
 707              	.LVL54:
 134:user/robot.cpp **** }
 708              		.loc 1 134 1 view .LVU155
 709 0024 38BD     		pop	{r3, r4, r5, pc}
 710              		.loc 1 134 1 view .LVU156
 711              		.cfi_endproc
 712              	.LFE162:
 713              		.fnend
 715              		.section	.text._ZN5Robot17SetJointInitAngleERNS_13JointStatus_tEf,"ax",%progbits
 716              		.align	1
 717              		.global	_ZN5Robot17SetJointInitAngleERNS_13JointStatus_tEf
 718              		.syntax unified
 719              		.thumb
 720              		.thumb_func
ARM GAS  C:\Users\ADMINI~1\AppData\Local\Temp\ccuOIsec.s 			page 17


 722              	_ZN5Robot17SetJointInitAngleERNS_13JointStatus_tEf:
 723              		.fnstart
 724              	.LVL55:
 725              	.LFB163:
 135:user/robot.cpp **** 
 136:user/robot.cpp **** 
 137:user/robot.cpp **** void Robot::SetJointInitAngle(Robot::JointStatus_t &_joint, float _angle)
 138:user/robot.cpp **** {
 726              		.loc 1 138 1 is_stmt 1 view -0
 727              		.cfi_startproc
 728              		@ args = 0, pretend = 0, frame = 8
 729              		@ frame_needed = 0, uses_anonymous_args = 0
 730              		.loc 1 138 1 is_stmt 0 view .LVU158
 731 0000 30B5     		push	{r4, r5, lr}
 732              		.save {r4, r5, lr}
 733              	.LCFI14:
 734              		.cfi_def_cfa_offset 12
 735              		.cfi_offset 4, -12
 736              		.cfi_offset 5, -8
 737              		.cfi_offset 14, -4
 738              		.pad #12
 739 0002 83B0     		sub	sp, sp, #12
 740              	.LCFI15:
 741              		.cfi_def_cfa_offset 24
 742 0004 0446     		mov	r4, r0
 743 0006 0D46     		mov	r5, r1
 744 0008 8DED010A 		vstr.32	s0, [sp, #4]
 139:user/robot.cpp ****     /* float sAngle = _joint.inverted ?
 140:user/robot.cpp ****                    (_angle - _joint.modelAngelMin) /
 141:user/robot.cpp ****                    (_joint.modelAngelMax - _joint.modelAngelMin) *
 142:user/robot.cpp ****                    (_joint.angleMin - _joint.angleMax) + _joint.angleMax :
 143:user/robot.cpp ****                    (_angle - _joint.modelAngelMin) /
 144:user/robot.cpp ****                    (_joint.modelAngelMax - _joint.modelAngelMin) *
 145:user/robot.cpp ****                    (_joint.angleMax - _joint.angleMin) + _joint.angleMin; */
 146:user/robot.cpp **** 
 147:user/robot.cpp ****     
 148:user/robot.cpp ****     //if (sAngle >= _joint.angleMin && sAngle <= _joint.angleMax)
 149:user/robot.cpp ****     {
 745              		.loc 1 149 5 is_stmt 1 view .LVU159
 746              	.LBB8:
 150:user/robot.cpp ****        
 151:user/robot.cpp ****         auto* b = (unsigned char*) (&_angle);
 747              		.loc 1 151 9 view .LVU160
 748              	.LVL56:
 152:user/robot.cpp **** 
 153:user/robot.cpp ****         i2cTxData[0] = 0x27;
 749              		.loc 1 153 9 view .LVU161
 750              		.loc 1 153 22 is_stmt 0 view .LVU162
 751 000c 2723     		movs	r3, #39
 752 000e 80F8DC30 		strb	r3, [r0, #220]
 154:user/robot.cpp ****         for (int i = 0; i < 4; i++)
 753              		.loc 1 154 9 is_stmt 1 view .LVU163
 754              	.LVL57:
 755              	.LBB9:
 756              		.loc 1 154 18 is_stmt 0 view .LVU164
 757 0012 0023     		movs	r3, #0
 758 0014 06E0     		b	.L51
ARM GAS  C:\Users\ADMINI~1\AppData\Local\Temp\ccuOIsec.s 			page 18


 759              	.LVL58:
 760              	.L53:
 155:user/robot.cpp ****             i2cTxData[i + 1] = *(b + i);
 761              		.loc 1 155 13 is_stmt 1 discriminator 2 view .LVU165
 762              		.loc 1 155 36 is_stmt 0 discriminator 2 view .LVU166
 763 0016 01AA     		add	r2, sp, #4
 764              	.LVL59:
 765              		.loc 1 155 36 discriminator 2 view .LVU167
 766 0018 1A44     		add	r2, r2, r3
 767              	.LVL60:
 768              		.loc 1 155 25 discriminator 2 view .LVU168
 769 001a 0133     		adds	r3, r3, #1
 770              	.LVL61:
 771              		.loc 1 155 32 discriminator 2 view .LVU169
 772 001c 1078     		ldrb	r0, [r2]	@ zero_extendqisi2
 773              		.loc 1 155 30 discriminator 2 view .LVU170
 774 001e E218     		adds	r2, r4, r3
 775 0020 82F8DC00 		strb	r0, [r2, #220]
 154:user/robot.cpp ****         for (int i = 0; i < 4; i++)
 776              		.loc 1 154 9 is_stmt 1 discriminator 2 view .LVU171
 777              	.LVL62:
 778              	.L51:
 154:user/robot.cpp ****         for (int i = 0; i < 4; i++)
 779              		.loc 1 154 27 discriminator 3 view .LVU172
 780 0024 032B     		cmp	r3, #3
 781 0026 F6DD     		ble	.L53
 782              	.LBE9:
 156:user/robot.cpp **** 
 157:user/robot.cpp ****         TransmitAndReceiveI2cPacket(_joint.id);
 783              		.loc 1 157 9 view .LVU173
 784              		.loc 1 157 36 is_stmt 0 view .LVU174
 785 0028 2978     		ldrb	r1, [r5]	@ zero_extendqisi2
 786              	.LVL63:
 787              		.loc 1 157 36 view .LVU175
 788 002a 2046     		mov	r0, r4
 789 002c FFF7FEFF 		bl	_ZN5Robot27TransmitAndReceiveI2cPacketEh
 790              	.LVL64:
 158:user/robot.cpp **** 
 159:user/robot.cpp ****         _joint.angle = *(float*) (i2cRxData + 1);
 791              		.loc 1 159 9 is_stmt 1 view .LVU176
 792              		.loc 1 159 24 is_stmt 0 view .LVU177
 793 0030 D534     		adds	r4, r4, #213
 794              	.LVL65:
 795              		.loc 1 159 24 view .LVU178
 796 0032 2368     		ldr	r3, [r4]	@ float
 797              		.loc 1 159 22 view .LVU179
 798 0034 EB60     		str	r3, [r5, #12]	@ float
 160:user/robot.cpp **** 
 161:user/robot.cpp ****         HAL_Delay(500); // wait servo reset
 799              		.loc 1 161 9 is_stmt 1 view .LVU180
 800              		.loc 1 161 18 is_stmt 0 view .LVU181
 801 0036 4FF4FA70 		mov	r0, #500
 802 003a FFF7FEFF 		bl	HAL_Delay
 803              	.LVL66:
 804              	.LBE8:
 162:user/robot.cpp ****     }
 163:user/robot.cpp **** }
ARM GAS  C:\Users\ADMINI~1\AppData\Local\Temp\ccuOIsec.s 			page 19


 805              		.loc 1 163 1 view .LVU182
 806 003e 03B0     		add	sp, sp, #12
 807              	.LCFI16:
 808              		.cfi_def_cfa_offset 12
 809              		@ sp needed
 810 0040 30BD     		pop	{r4, r5, pc}
 811              		.loc 1 163 1 view .LVU183
 812              		.cfi_endproc
 813              	.LFE163:
 814              		.fnend
 816              		.section	.text._ZN5Robot10SetJointKpERNS_13JointStatus_tEf,"ax",%progbits
 817              		.align	1
 818              		.global	_ZN5Robot10SetJointKpERNS_13JointStatus_tEf
 819              		.syntax unified
 820              		.thumb
 821              		.thumb_func
 823              	_ZN5Robot10SetJointKpERNS_13JointStatus_tEf:
 824              		.fnstart
 825              	.LVL67:
 826              	.LFB164:
 164:user/robot.cpp **** 
 165:user/robot.cpp **** 
 166:user/robot.cpp **** void Robot::SetJointKp(Robot::JointStatus_t &_joint, float _value)
 167:user/robot.cpp **** {
 827              		.loc 1 167 1 is_stmt 1 view -0
 828              		.cfi_startproc
 829              		@ args = 0, pretend = 0, frame = 8
 830              		@ frame_needed = 0, uses_anonymous_args = 0
 831              		.loc 1 167 1 is_stmt 0 view .LVU185
 832 0000 30B5     		push	{r4, r5, lr}
 833              		.save {r4, r5, lr}
 834              	.LCFI17:
 835              		.cfi_def_cfa_offset 12
 836              		.cfi_offset 4, -12
 837              		.cfi_offset 5, -8
 838              		.cfi_offset 14, -4
 839              		.pad #12
 840 0002 83B0     		sub	sp, sp, #12
 841              	.LCFI18:
 842              		.cfi_def_cfa_offset 24
 843 0004 0446     		mov	r4, r0
 844 0006 0D46     		mov	r5, r1
 845 0008 8DED010A 		vstr.32	s0, [sp, #4]
 168:user/robot.cpp ****     auto* b = (unsigned char*) (&_value);
 846              		.loc 1 168 5 is_stmt 1 view .LVU186
 847              	.LVL68:
 169:user/robot.cpp **** 
 170:user/robot.cpp ****     i2cTxData[0] = 0x22;
 848              		.loc 1 170 5 view .LVU187
 849              		.loc 1 170 18 is_stmt 0 view .LVU188
 850 000c 2223     		movs	r3, #34
 851 000e 80F8DC30 		strb	r3, [r0, #220]
 171:user/robot.cpp ****     for (int i = 0; i < 4; i++)
 852              		.loc 1 171 5 is_stmt 1 view .LVU189
 853              	.LVL69:
 854              	.LBB10:
 855              		.loc 1 171 14 is_stmt 0 view .LVU190
ARM GAS  C:\Users\ADMINI~1\AppData\Local\Temp\ccuOIsec.s 			page 20


 856 0012 0023     		movs	r3, #0
 857 0014 06E0     		b	.L56
 858              	.LVL70:
 859              	.L58:
 172:user/robot.cpp ****         i2cTxData[i + 1] = *(b + i);
 860              		.loc 1 172 9 is_stmt 1 discriminator 2 view .LVU191
 861              		.loc 1 172 32 is_stmt 0 discriminator 2 view .LVU192
 862 0016 01AA     		add	r2, sp, #4
 863              	.LVL71:
 864              		.loc 1 172 32 discriminator 2 view .LVU193
 865 0018 1A44     		add	r2, r2, r3
 866              	.LVL72:
 867              		.loc 1 172 21 discriminator 2 view .LVU194
 868 001a 0133     		adds	r3, r3, #1
 869              	.LVL73:
 870              		.loc 1 172 28 discriminator 2 view .LVU195
 871 001c 1078     		ldrb	r0, [r2]	@ zero_extendqisi2
 872              		.loc 1 172 26 discriminator 2 view .LVU196
 873 001e E218     		adds	r2, r4, r3
 874 0020 82F8DC00 		strb	r0, [r2, #220]
 171:user/robot.cpp ****     for (int i = 0; i < 4; i++)
 875              		.loc 1 171 5 is_stmt 1 discriminator 2 view .LVU197
 876              	.LVL74:
 877              	.L56:
 171:user/robot.cpp ****     for (int i = 0; i < 4; i++)
 878              		.loc 1 171 23 discriminator 3 view .LVU198
 879 0024 032B     		cmp	r3, #3
 880 0026 F6DD     		ble	.L58
 881              	.LBE10:
 173:user/robot.cpp **** 
 174:user/robot.cpp ****     TransmitAndReceiveI2cPacket(_joint.id);
 882              		.loc 1 174 5 view .LVU199
 883              		.loc 1 174 32 is_stmt 0 view .LVU200
 884 0028 2978     		ldrb	r1, [r5]	@ zero_extendqisi2
 885              	.LVL75:
 886              		.loc 1 174 32 view .LVU201
 887 002a 2046     		mov	r0, r4
 888 002c FFF7FEFF 		bl	_ZN5Robot27TransmitAndReceiveI2cPacketEh
 889              	.LVL76:
 175:user/robot.cpp **** 
 176:user/robot.cpp ****     _joint.angle = *(float*) (i2cRxData + 1);
 890              		.loc 1 176 5 is_stmt 1 view .LVU202
 891              		.loc 1 176 20 is_stmt 0 view .LVU203
 892 0030 D534     		adds	r4, r4, #213
 893              	.LVL77:
 894              		.loc 1 176 20 view .LVU204
 895 0032 2368     		ldr	r3, [r4]	@ float
 896              		.loc 1 176 18 view .LVU205
 897 0034 EB60     		str	r3, [r5, #12]	@ float
 177:user/robot.cpp **** 
 178:user/robot.cpp ****     HAL_Delay(500); // wait servo reset
 898              		.loc 1 178 5 is_stmt 1 view .LVU206
 899              		.loc 1 178 14 is_stmt 0 view .LVU207
 900 0036 4FF4FA70 		mov	r0, #500
 901 003a FFF7FEFF 		bl	HAL_Delay
 902              	.LVL78:
 179:user/robot.cpp **** }
ARM GAS  C:\Users\ADMINI~1\AppData\Local\Temp\ccuOIsec.s 			page 21


 903              		.loc 1 179 1 view .LVU208
 904 003e 03B0     		add	sp, sp, #12
 905              	.LCFI19:
 906              		.cfi_def_cfa_offset 12
 907              		@ sp needed
 908 0040 30BD     		pop	{r4, r5, pc}
 909              		.loc 1 179 1 view .LVU209
 910              		.cfi_endproc
 911              	.LFE164:
 912              		.fnend
 914              		.section	.text._ZN5Robot10SetJointKiERNS_13JointStatus_tEf,"ax",%progbits
 915              		.align	1
 916              		.global	_ZN5Robot10SetJointKiERNS_13JointStatus_tEf
 917              		.syntax unified
 918              		.thumb
 919              		.thumb_func
 921              	_ZN5Robot10SetJointKiERNS_13JointStatus_tEf:
 922              		.fnstart
 923              	.LVL79:
 924              	.LFB165:
 180:user/robot.cpp **** 
 181:user/robot.cpp **** 
 182:user/robot.cpp **** void Robot::SetJointKi(Robot::JointStatus_t &_joint, float _value)
 183:user/robot.cpp **** {
 925              		.loc 1 183 1 is_stmt 1 view -0
 926              		.cfi_startproc
 927              		@ args = 0, pretend = 0, frame = 8
 928              		@ frame_needed = 0, uses_anonymous_args = 0
 929              		.loc 1 183 1 is_stmt 0 view .LVU211
 930 0000 30B5     		push	{r4, r5, lr}
 931              		.save {r4, r5, lr}
 932              	.LCFI20:
 933              		.cfi_def_cfa_offset 12
 934              		.cfi_offset 4, -12
 935              		.cfi_offset 5, -8
 936              		.cfi_offset 14, -4
 937              		.pad #12
 938 0002 83B0     		sub	sp, sp, #12
 939              	.LCFI21:
 940              		.cfi_def_cfa_offset 24
 941 0004 0446     		mov	r4, r0
 942 0006 0D46     		mov	r5, r1
 943 0008 8DED010A 		vstr.32	s0, [sp, #4]
 184:user/robot.cpp ****     auto* b = (unsigned char*) (&_value);
 944              		.loc 1 184 5 is_stmt 1 view .LVU212
 945              	.LVL80:
 185:user/robot.cpp **** 
 186:user/robot.cpp ****     i2cTxData[0] = 0x23;
 946              		.loc 1 186 5 view .LVU213
 947              		.loc 1 186 18 is_stmt 0 view .LVU214
 948 000c 2323     		movs	r3, #35
 949 000e 80F8DC30 		strb	r3, [r0, #220]
 187:user/robot.cpp ****     for (int i = 0; i < 4; i++)
 950              		.loc 1 187 5 is_stmt 1 view .LVU215
 951              	.LVL81:
 952              	.LBB11:
 953              		.loc 1 187 14 is_stmt 0 view .LVU216
ARM GAS  C:\Users\ADMINI~1\AppData\Local\Temp\ccuOIsec.s 			page 22


 954 0012 0023     		movs	r3, #0
 955 0014 06E0     		b	.L61
 956              	.LVL82:
 957              	.L63:
 188:user/robot.cpp ****         i2cTxData[i + 1] = *(b + i);
 958              		.loc 1 188 9 is_stmt 1 discriminator 2 view .LVU217
 959              		.loc 1 188 32 is_stmt 0 discriminator 2 view .LVU218
 960 0016 01AA     		add	r2, sp, #4
 961              	.LVL83:
 962              		.loc 1 188 32 discriminator 2 view .LVU219
 963 0018 1A44     		add	r2, r2, r3
 964              	.LVL84:
 965              		.loc 1 188 21 discriminator 2 view .LVU220
 966 001a 0133     		adds	r3, r3, #1
 967              	.LVL85:
 968              		.loc 1 188 28 discriminator 2 view .LVU221
 969 001c 1078     		ldrb	r0, [r2]	@ zero_extendqisi2
 970              		.loc 1 188 26 discriminator 2 view .LVU222
 971 001e E218     		adds	r2, r4, r3
 972 0020 82F8DC00 		strb	r0, [r2, #220]
 187:user/robot.cpp ****     for (int i = 0; i < 4; i++)
 973              		.loc 1 187 5 is_stmt 1 discriminator 2 view .LVU223
 974              	.LVL86:
 975              	.L61:
 187:user/robot.cpp ****     for (int i = 0; i < 4; i++)
 976              		.loc 1 187 23 discriminator 3 view .LVU224
 977 0024 032B     		cmp	r3, #3
 978 0026 F6DD     		ble	.L63
 979              	.LBE11:
 189:user/robot.cpp **** 
 190:user/robot.cpp ****     TransmitAndReceiveI2cPacket(_joint.id);
 980              		.loc 1 190 5 view .LVU225
 981              		.loc 1 190 32 is_stmt 0 view .LVU226
 982 0028 2978     		ldrb	r1, [r5]	@ zero_extendqisi2
 983              	.LVL87:
 984              		.loc 1 190 32 view .LVU227
 985 002a 2046     		mov	r0, r4
 986 002c FFF7FEFF 		bl	_ZN5Robot27TransmitAndReceiveI2cPacketEh
 987              	.LVL88:
 191:user/robot.cpp **** 
 192:user/robot.cpp ****     _joint.angle = *(float*) (i2cRxData + 1);
 988              		.loc 1 192 5 is_stmt 1 view .LVU228
 989              		.loc 1 192 20 is_stmt 0 view .LVU229
 990 0030 D534     		adds	r4, r4, #213
 991              	.LVL89:
 992              		.loc 1 192 20 view .LVU230
 993 0032 2368     		ldr	r3, [r4]	@ float
 994              		.loc 1 192 18 view .LVU231
 995 0034 EB60     		str	r3, [r5, #12]	@ float
 193:user/robot.cpp **** 
 194:user/robot.cpp ****     HAL_Delay(500); // wait servo reset
 996              		.loc 1 194 5 is_stmt 1 view .LVU232
 997              		.loc 1 194 14 is_stmt 0 view .LVU233
 998 0036 4FF4FA70 		mov	r0, #500
 999 003a FFF7FEFF 		bl	HAL_Delay
 1000              	.LVL90:
 195:user/robot.cpp **** }
ARM GAS  C:\Users\ADMINI~1\AppData\Local\Temp\ccuOIsec.s 			page 23


 1001              		.loc 1 195 1 view .LVU234
 1002 003e 03B0     		add	sp, sp, #12
 1003              	.LCFI22:
 1004              		.cfi_def_cfa_offset 12
 1005              		@ sp needed
 1006 0040 30BD     		pop	{r4, r5, pc}
 1007              		.loc 1 195 1 view .LVU235
 1008              		.cfi_endproc
 1009              	.LFE165:
 1010              		.fnend
 1012              		.section	.text._ZN5Robot10SetJointKvERNS_13JointStatus_tEf,"ax",%progbits
 1013              		.align	1
 1014              		.global	_ZN5Robot10SetJointKvERNS_13JointStatus_tEf
 1015              		.syntax unified
 1016              		.thumb
 1017              		.thumb_func
 1019              	_ZN5Robot10SetJointKvERNS_13JointStatus_tEf:
 1020              		.fnstart
 1021              	.LVL91:
 1022              	.LFB166:
 196:user/robot.cpp **** 
 197:user/robot.cpp **** 
 198:user/robot.cpp **** void Robot::SetJointKv(Robot::JointStatus_t &_joint, float _value)
 199:user/robot.cpp **** {
 1023              		.loc 1 199 1 is_stmt 1 view -0
 1024              		.cfi_startproc
 1025              		@ args = 0, pretend = 0, frame = 8
 1026              		@ frame_needed = 0, uses_anonymous_args = 0
 1027              		.loc 1 199 1 is_stmt 0 view .LVU237
 1028 0000 30B5     		push	{r4, r5, lr}
 1029              		.save {r4, r5, lr}
 1030              	.LCFI23:
 1031              		.cfi_def_cfa_offset 12
 1032              		.cfi_offset 4, -12
 1033              		.cfi_offset 5, -8
 1034              		.cfi_offset 14, -4
 1035              		.pad #12
 1036 0002 83B0     		sub	sp, sp, #12
 1037              	.LCFI24:
 1038              		.cfi_def_cfa_offset 24
 1039 0004 0446     		mov	r4, r0
 1040 0006 0D46     		mov	r5, r1
 1041 0008 8DED010A 		vstr.32	s0, [sp, #4]
 200:user/robot.cpp ****     auto* b = (unsigned char*) (&_value);
 1042              		.loc 1 200 5 is_stmt 1 view .LVU238
 1043              	.LVL92:
 201:user/robot.cpp **** 
 202:user/robot.cpp ****     i2cTxData[0] = 0x24;
 1044              		.loc 1 202 5 view .LVU239
 1045              		.loc 1 202 18 is_stmt 0 view .LVU240
 1046 000c 2423     		movs	r3, #36
 1047 000e 80F8DC30 		strb	r3, [r0, #220]
 203:user/robot.cpp ****     for (int i = 0; i < 4; i++)
 1048              		.loc 1 203 5 is_stmt 1 view .LVU241
 1049              	.LVL93:
 1050              	.LBB12:
 1051              		.loc 1 203 14 is_stmt 0 view .LVU242
ARM GAS  C:\Users\ADMINI~1\AppData\Local\Temp\ccuOIsec.s 			page 24


 1052 0012 0023     		movs	r3, #0
 1053 0014 06E0     		b	.L66
 1054              	.LVL94:
 1055              	.L68:
 204:user/robot.cpp ****         i2cTxData[i + 1] = *(b + i);
 1056              		.loc 1 204 9 is_stmt 1 discriminator 2 view .LVU243
 1057              		.loc 1 204 32 is_stmt 0 discriminator 2 view .LVU244
 1058 0016 01AA     		add	r2, sp, #4
 1059              	.LVL95:
 1060              		.loc 1 204 32 discriminator 2 view .LVU245
 1061 0018 1A44     		add	r2, r2, r3
 1062              	.LVL96:
 1063              		.loc 1 204 21 discriminator 2 view .LVU246
 1064 001a 0133     		adds	r3, r3, #1
 1065              	.LVL97:
 1066              		.loc 1 204 28 discriminator 2 view .LVU247
 1067 001c 1078     		ldrb	r0, [r2]	@ zero_extendqisi2
 1068              		.loc 1 204 26 discriminator 2 view .LVU248
 1069 001e E218     		adds	r2, r4, r3
 1070 0020 82F8DC00 		strb	r0, [r2, #220]
 203:user/robot.cpp ****     for (int i = 0; i < 4; i++)
 1071              		.loc 1 203 5 is_stmt 1 discriminator 2 view .LVU249
 1072              	.LVL98:
 1073              	.L66:
 203:user/robot.cpp ****     for (int i = 0; i < 4; i++)
 1074              		.loc 1 203 23 discriminator 3 view .LVU250
 1075 0024 032B     		cmp	r3, #3
 1076 0026 F6DD     		ble	.L68
 1077              	.LBE12:
 205:user/robot.cpp **** 
 206:user/robot.cpp ****     TransmitAndReceiveI2cPacket(_joint.id);
 1078              		.loc 1 206 5 view .LVU251
 1079              		.loc 1 206 32 is_stmt 0 view .LVU252
 1080 0028 2978     		ldrb	r1, [r5]	@ zero_extendqisi2
 1081              	.LVL99:
 1082              		.loc 1 206 32 view .LVU253
 1083 002a 2046     		mov	r0, r4
 1084 002c FFF7FEFF 		bl	_ZN5Robot27TransmitAndReceiveI2cPacketEh
 1085              	.LVL100:
 207:user/robot.cpp **** 
 208:user/robot.cpp ****     _joint.angle = *(float*) (i2cRxData + 1);
 1086              		.loc 1 208 5 is_stmt 1 view .LVU254
 1087              		.loc 1 208 20 is_stmt 0 view .LVU255
 1088 0030 D534     		adds	r4, r4, #213
 1089              	.LVL101:
 1090              		.loc 1 208 20 view .LVU256
 1091 0032 2368     		ldr	r3, [r4]	@ float
 1092              		.loc 1 208 18 view .LVU257
 1093 0034 EB60     		str	r3, [r5, #12]	@ float
 209:user/robot.cpp **** 
 210:user/robot.cpp ****     HAL_Delay(500); // wait servo reset
 1094              		.loc 1 210 5 is_stmt 1 view .LVU258
 1095              		.loc 1 210 14 is_stmt 0 view .LVU259
 1096 0036 4FF4FA70 		mov	r0, #500
 1097 003a FFF7FEFF 		bl	HAL_Delay
 1098              	.LVL102:
 211:user/robot.cpp **** }
ARM GAS  C:\Users\ADMINI~1\AppData\Local\Temp\ccuOIsec.s 			page 25


 1099              		.loc 1 211 1 view .LVU260
 1100 003e 03B0     		add	sp, sp, #12
 1101              	.LCFI25:
 1102              		.cfi_def_cfa_offset 12
 1103              		@ sp needed
 1104 0040 30BD     		pop	{r4, r5, pc}
 1105              		.loc 1 211 1 view .LVU261
 1106              		.cfi_endproc
 1107              	.LFE166:
 1108              		.fnend
 1110              		.section	.text._ZN5Robot10SetJointKdERNS_13JointStatus_tEf,"ax",%progbits
 1111              		.align	1
 1112              		.global	_ZN5Robot10SetJointKdERNS_13JointStatus_tEf
 1113              		.syntax unified
 1114              		.thumb
 1115              		.thumb_func
 1117              	_ZN5Robot10SetJointKdERNS_13JointStatus_tEf:
 1118              		.fnstart
 1119              	.LVL103:
 1120              	.LFB167:
 212:user/robot.cpp **** 
 213:user/robot.cpp **** 
 214:user/robot.cpp **** void Robot::SetJointKd(Robot::JointStatus_t &_joint, float _value)
 215:user/robot.cpp **** {
 1121              		.loc 1 215 1 is_stmt 1 view -0
 1122              		.cfi_startproc
 1123              		@ args = 0, pretend = 0, frame = 8
 1124              		@ frame_needed = 0, uses_anonymous_args = 0
 1125              		.loc 1 215 1 is_stmt 0 view .LVU263
 1126 0000 30B5     		push	{r4, r5, lr}
 1127              		.save {r4, r5, lr}
 1128              	.LCFI26:
 1129              		.cfi_def_cfa_offset 12
 1130              		.cfi_offset 4, -12
 1131              		.cfi_offset 5, -8
 1132              		.cfi_offset 14, -4
 1133              		.pad #12
 1134 0002 83B0     		sub	sp, sp, #12
 1135              	.LCFI27:
 1136              		.cfi_def_cfa_offset 24
 1137 0004 0446     		mov	r4, r0
 1138 0006 0D46     		mov	r5, r1
 1139 0008 8DED010A 		vstr.32	s0, [sp, #4]
 216:user/robot.cpp ****     auto* b = (unsigned char*) (&_value);
 1140              		.loc 1 216 5 is_stmt 1 view .LVU264
 1141              	.LVL104:
 217:user/robot.cpp **** 
 218:user/robot.cpp ****     i2cTxData[0] = 0x25;
 1142              		.loc 1 218 5 view .LVU265
 1143              		.loc 1 218 18 is_stmt 0 view .LVU266
 1144 000c 2523     		movs	r3, #37
 1145 000e 80F8DC30 		strb	r3, [r0, #220]
 219:user/robot.cpp ****     for (int i = 0; i < 4; i++)
 1146              		.loc 1 219 5 is_stmt 1 view .LVU267
 1147              	.LVL105:
 1148              	.LBB13:
 1149              		.loc 1 219 14 is_stmt 0 view .LVU268
ARM GAS  C:\Users\ADMINI~1\AppData\Local\Temp\ccuOIsec.s 			page 26


 1150 0012 0023     		movs	r3, #0
 1151 0014 06E0     		b	.L71
 1152              	.LVL106:
 1153              	.L73:
 220:user/robot.cpp ****         i2cTxData[i + 1] = *(b + i);
 1154              		.loc 1 220 9 is_stmt 1 discriminator 2 view .LVU269
 1155              		.loc 1 220 32 is_stmt 0 discriminator 2 view .LVU270
 1156 0016 01AA     		add	r2, sp, #4
 1157              	.LVL107:
 1158              		.loc 1 220 32 discriminator 2 view .LVU271
 1159 0018 1A44     		add	r2, r2, r3
 1160              	.LVL108:
 1161              		.loc 1 220 21 discriminator 2 view .LVU272
 1162 001a 0133     		adds	r3, r3, #1
 1163              	.LVL109:
 1164              		.loc 1 220 28 discriminator 2 view .LVU273
 1165 001c 1078     		ldrb	r0, [r2]	@ zero_extendqisi2
 1166              		.loc 1 220 26 discriminator 2 view .LVU274
 1167 001e E218     		adds	r2, r4, r3
 1168 0020 82F8DC00 		strb	r0, [r2, #220]
 219:user/robot.cpp ****     for (int i = 0; i < 4; i++)
 1169              		.loc 1 219 5 is_stmt 1 discriminator 2 view .LVU275
 1170              	.LVL110:
 1171              	.L71:
 219:user/robot.cpp ****     for (int i = 0; i < 4; i++)
 1172              		.loc 1 219 23 discriminator 3 view .LVU276
 1173 0024 032B     		cmp	r3, #3
 1174 0026 F6DD     		ble	.L73
 1175              	.LBE13:
 221:user/robot.cpp **** 
 222:user/robot.cpp ****     TransmitAndReceiveI2cPacket(_joint.id);
 1176              		.loc 1 222 5 view .LVU277
 1177              		.loc 1 222 32 is_stmt 0 view .LVU278
 1178 0028 2978     		ldrb	r1, [r5]	@ zero_extendqisi2
 1179              	.LVL111:
 1180              		.loc 1 222 32 view .LVU279
 1181 002a 2046     		mov	r0, r4
 1182 002c FFF7FEFF 		bl	_ZN5Robot27TransmitAndReceiveI2cPacketEh
 1183              	.LVL112:
 223:user/robot.cpp **** 
 224:user/robot.cpp ****     _joint.angle = *(float*) (i2cRxData + 1);
 1184              		.loc 1 224 5 is_stmt 1 view .LVU280
 1185              		.loc 1 224 20 is_stmt 0 view .LVU281
 1186 0030 D534     		adds	r4, r4, #213
 1187              	.LVL113:
 1188              		.loc 1 224 20 view .LVU282
 1189 0032 2368     		ldr	r3, [r4]	@ float
 1190              		.loc 1 224 18 view .LVU283
 1191 0034 EB60     		str	r3, [r5, #12]	@ float
 225:user/robot.cpp **** 
 226:user/robot.cpp ****     HAL_Delay(500); // wait servo reset
 1192              		.loc 1 226 5 is_stmt 1 view .LVU284
 1193              		.loc 1 226 14 is_stmt 0 view .LVU285
 1194 0036 4FF4FA70 		mov	r0, #500
 1195 003a FFF7FEFF 		bl	HAL_Delay
 1196              	.LVL114:
 227:user/robot.cpp **** }
ARM GAS  C:\Users\ADMINI~1\AppData\Local\Temp\ccuOIsec.s 			page 27


 1197              		.loc 1 227 1 view .LVU286
 1198 003e 03B0     		add	sp, sp, #12
 1199              	.LCFI28:
 1200              		.cfi_def_cfa_offset 12
 1201              		@ sp needed
 1202 0040 30BD     		pop	{r4, r5, pc}
 1203              		.loc 1 227 1 view .LVU287
 1204              		.cfi_endproc
 1205              	.LFE167:
 1206              		.fnend
 1208              		.section	.text._ZN5Robot17GetExtraDataRxPtrEv,"ax",%progbits
 1209              		.align	1
 1210              		.global	_ZN5Robot17GetExtraDataRxPtrEv
 1211              		.syntax unified
 1212              		.thumb
 1213              		.thumb_func
 1215              	_ZN5Robot17GetExtraDataRxPtrEv:
 1216              		.fnstart
 1217              	.LVL115:
 1218              	.LFB168:
 228:user/robot.cpp **** 
 229:user/robot.cpp **** 
 230:user/robot.cpp **** uint8_t* Robot::GetExtraDataRxPtr()
 231:user/robot.cpp **** {
 1219              		.loc 1 231 1 is_stmt 1 view -0
 1220              		.cfi_startproc
 1221              		@ args = 0, pretend = 0, frame = 0
 1222              		@ frame_needed = 0, uses_anonymous_args = 0
 1223              		.loc 1 231 1 is_stmt 0 view .LVU289
 1224 0000 08B5     		push	{r3, lr}
 1225              	.LCFI29:
 1226              		.cfi_def_cfa_offset 8
 1227              		.cfi_offset 3, -8
 1228              		.cfi_offset 14, -4
 232:user/robot.cpp ****     return GetLcdBufferPtr() + 60 * 240 * 3;
 1229              		.loc 1 232 5 is_stmt 1 view .LVU290
 1230              		.loc 1 232 27 is_stmt 0 view .LVU291
 1231 0002 FFF7FEFF 		bl	_ZN5Robot15GetLcdBufferPtrEv
 1232              	.LVL116:
 233:user/robot.cpp **** }
 1233              		.loc 1 233 1 view .LVU292
 1234 0006 00F52840 		add	r0, r0, #43008
 1235 000a C030     		adds	r0, r0, #192
 1236 000c 08BD     		pop	{r3, pc}
 1237              		.cfi_endproc
 1238              	.LFE168:
 1239              		.cantunwind
 1240              		.fnend
 1242              		.section	.text._ZN5Robot16UpdateJointAngleERNS_13JointStatus_tE,"ax",%progbits
 1243              		.align	1
 1244              		.global	_ZN5Robot16UpdateJointAngleERNS_13JointStatus_tE
 1245              		.syntax unified
 1246              		.thumb
 1247              		.thumb_func
 1249              	_ZN5Robot16UpdateJointAngleERNS_13JointStatus_tE:
 1250              		.fnstart
 1251              	.LVL117:
ARM GAS  C:\Users\ADMINI~1\AppData\Local\Temp\ccuOIsec.s 			page 28


 1252              	.LFB169:
 234:user/robot.cpp **** 
 235:user/robot.cpp **** 
 236:user/robot.cpp **** void Robot::UpdateJointAngle(Robot::JointStatus_t &_joint)
 237:user/robot.cpp **** {
 1253              		.loc 1 237 1 is_stmt 1 view -0
 1254              		.cfi_startproc
 1255              		@ args = 0, pretend = 0, frame = 0
 1256              		@ frame_needed = 0, uses_anonymous_args = 0
 1257              		.loc 1 237 1 is_stmt 0 view .LVU294
 1258 0000 10B5     		push	{r4, lr}
 1259              		.save {r4, lr}
 1260              	.LCFI30:
 1261              		.cfi_def_cfa_offset 8
 1262              		.cfi_offset 4, -8
 1263              		.cfi_offset 14, -4
 1264 0002 0C46     		mov	r4, r1
 238:user/robot.cpp ****     UpdateServoAngle(_joint);
 1265              		.loc 1 238 5 is_stmt 1 view .LVU295
 1266              		.loc 1 238 21 is_stmt 0 view .LVU296
 1267 0004 FFF7FEFF 		bl	_ZN5Robot16UpdateServoAngleERNS_13JointStatus_tE
 1268              	.LVL118:
 239:user/robot.cpp **** 
 240:user/robot.cpp ****     float jAngle = _joint.inverted ?
 1269              		.loc 1 240 5 is_stmt 1 view .LVU297
 1270              		.loc 1 240 27 is_stmt 0 view .LVU298
 1271 0008 237E     		ldrb	r3, [r4, #24]	@ zero_extendqisi2
 1272              		.loc 1 240 36 view .LVU299
 1273 000a C3B1     		cbz	r3, .L77
 241:user/robot.cpp ****                    (_joint.angleMax - _joint.angle) /
 1274              		.loc 1 241 28 discriminator 1 view .LVU300
 1275 000c D4ED027A 		vldr.32	s15, [r4, #8]
 1276              		.loc 1 241 46 discriminator 1 view .LVU301
 1277 0010 D4ED036A 		vldr.32	s13, [r4, #12]
 1278              		.loc 1 241 37 discriminator 1 view .LVU302
 1279 0014 77EEE66A 		vsub.f32	s13, s15, s13
 242:user/robot.cpp ****                    (_joint.angleMax - _joint.angleMin) *
 1280              		.loc 1 242 46 discriminator 1 view .LVU303
 1281 0018 94ED017A 		vldr.32	s14, [r4, #4]
 1282              		.loc 1 242 37 discriminator 1 view .LVU304
 1283 001c 77EEC77A 		vsub.f32	s15, s15, s14
 241:user/robot.cpp ****                    (_joint.angleMax - _joint.angle) /
 1284              		.loc 1 241 53 discriminator 1 view .LVU305
 1285 0020 86EEA77A 		vdiv.f32	s14, s13, s15
 243:user/robot.cpp ****                    (_joint.modelAngelMax - _joint.modelAngelMin) + _joint.modelAngelMin :
 1286              		.loc 1 243 28 discriminator 1 view .LVU306
 1287 0024 D4ED056A 		vldr.32	s13, [r4, #20]
 1288              		.loc 1 243 51 discriminator 1 view .LVU307
 1289 0028 D4ED047A 		vldr.32	s15, [r4, #16]
 1290              		.loc 1 243 42 discriminator 1 view .LVU308
 1291 002c 76EEE76A 		vsub.f32	s13, s13, s15
 242:user/robot.cpp ****                    (_joint.angleMax - _joint.angleMin) *
 1292              		.loc 1 242 56 discriminator 1 view .LVU309
 1293 0030 27EE267A 		vmul.f32	s14, s14, s13
 240:user/robot.cpp ****                    (_joint.angleMax - _joint.angle) /
 1294              		.loc 1 240 36 discriminator 1 view .LVU310
 1295 0034 77EE877A 		vadd.f32	s15, s15, s14
ARM GAS  C:\Users\ADMINI~1\AppData\Local\Temp\ccuOIsec.s 			page 29


 1296              	.L78:
 1297              	.LVL119:
 244:user/robot.cpp ****                    (_joint.angle - _joint.angleMin) /
 245:user/robot.cpp ****                    (_joint.angleMax - _joint.angleMin) *
 246:user/robot.cpp ****                    (_joint.modelAngelMax - _joint.modelAngelMin) + _joint.modelAngelMin;
 247:user/robot.cpp **** 
 248:user/robot.cpp ****     _joint.angle = jAngle;
 1298              		.loc 1 248 5 is_stmt 1 discriminator 4 view .LVU311
 1299              		.loc 1 248 18 is_stmt 0 discriminator 4 view .LVU312
 1300 0038 C4ED037A 		vstr.32	s15, [r4, #12]
 249:user/robot.cpp **** }
 1301              		.loc 1 249 1 discriminator 4 view .LVU313
 1302 003c 10BD     		pop	{r4, pc}
 1303              	.LVL120:
 1304              	.L77:
 244:user/robot.cpp ****                    (_joint.angle - _joint.angleMin) /
 1305              		.loc 1 244 28 discriminator 2 view .LVU314
 1306 003e D4ED036A 		vldr.32	s13, [r4, #12]
 244:user/robot.cpp ****                    (_joint.angle - _joint.angleMin) /
 1307              		.loc 1 244 43 discriminator 2 view .LVU315
 1308 0042 94ED017A 		vldr.32	s14, [r4, #4]
 244:user/robot.cpp ****                    (_joint.angle - _joint.angleMin) /
 1309              		.loc 1 244 34 discriminator 2 view .LVU316
 1310 0046 76EEC76A 		vsub.f32	s13, s13, s14
 245:user/robot.cpp ****                    (_joint.modelAngelMax - _joint.modelAngelMin) + _joint.modelAngelMin;
 1311              		.loc 1 245 28 discriminator 2 view .LVU317
 1312 004a D4ED027A 		vldr.32	s15, [r4, #8]
 245:user/robot.cpp ****                    (_joint.modelAngelMax - _joint.modelAngelMin) + _joint.modelAngelMin;
 1313              		.loc 1 245 37 discriminator 2 view .LVU318
 1314 004e 77EEC77A 		vsub.f32	s15, s15, s14
 244:user/robot.cpp ****                    (_joint.angle - _joint.angleMin) /
 1315              		.loc 1 244 53 discriminator 2 view .LVU319
 1316 0052 86EEA77A 		vdiv.f32	s14, s13, s15
 246:user/robot.cpp **** 
 1317              		.loc 1 246 28 discriminator 2 view .LVU320
 1318 0056 D4ED056A 		vldr.32	s13, [r4, #20]
 246:user/robot.cpp **** 
 1319              		.loc 1 246 51 discriminator 2 view .LVU321
 1320 005a D4ED047A 		vldr.32	s15, [r4, #16]
 246:user/robot.cpp **** 
 1321              		.loc 1 246 42 discriminator 2 view .LVU322
 1322 005e 76EEE76A 		vsub.f32	s13, s13, s15
 245:user/robot.cpp ****                    (_joint.modelAngelMax - _joint.modelAngelMin) + _joint.modelAngelMin;
 1323              		.loc 1 245 56 discriminator 2 view .LVU323
 1324 0062 27EE267A 		vmul.f32	s14, s14, s13
 240:user/robot.cpp ****                    (_joint.angleMax - _joint.angle) /
 1325              		.loc 1 240 36 discriminator 2 view .LVU324
 1326 0066 77EE877A 		vadd.f32	s15, s15, s14
 1327 006a E5E7     		b	.L78
 1328              		.cfi_endproc
 1329              	.LFE169:
 1330              		.fnend
 1332              		.section	.text._ZN5Robot16UpdateJointAngleERNS_13JointStatus_tEf,"ax",%progbits
 1333              		.align	1
 1334              		.global	_ZN5Robot16UpdateJointAngleERNS_13JointStatus_tEf
 1335              		.syntax unified
 1336              		.thumb
ARM GAS  C:\Users\ADMINI~1\AppData\Local\Temp\ccuOIsec.s 			page 30


 1337              		.thumb_func
 1339              	_ZN5Robot16UpdateJointAngleERNS_13JointStatus_tEf:
 1340              		.fnstart
 1341              	.LVL121:
 1342              	.LFB170:
 250:user/robot.cpp **** 
 251:user/robot.cpp **** 
 252:user/robot.cpp **** void Robot::UpdateJointAngle(Robot::JointStatus_t &_joint, float _angleSetPoint)
 253:user/robot.cpp **** {
 1343              		.loc 1 253 1 is_stmt 1 view -0
 1344              		.cfi_startproc
 1345              		@ args = 0, pretend = 0, frame = 0
 1346              		@ frame_needed = 0, uses_anonymous_args = 0
 1347              		.loc 1 253 1 is_stmt 0 view .LVU326
 1348 0000 08B5     		push	{r3, lr}
 1349              		.save {r3, lr}
 1350              	.LCFI31:
 1351              		.cfi_def_cfa_offset 8
 1352              		.cfi_offset 3, -8
 1353              		.cfi_offset 14, -4
 254:user/robot.cpp ****     /* float sAngle = _joint.inverted ?
 255:user/robot.cpp ****                    (_angleSetPoint - _joint.modelAngelMin) /
 256:user/robot.cpp ****                    (_joint.modelAngelMax - _joint.modelAngelMin) *
 257:user/robot.cpp ****                    (_joint.angleMin - _joint.angleMax) + _joint.angleMax :
 258:user/robot.cpp ****                    (_angleSetPoint - _joint.modelAngelMin) /
 259:user/robot.cpp ****                    (_joint.modelAngelMax - _joint.modelAngelMin) *
 260:user/robot.cpp ****                    (_joint.angleMax - _joint.angleMin) + _joint.angleMin; */
 261:user/robot.cpp **** 
 262:user/robot.cpp ****     // UpdateServoAngle(_joint, sAngle);
 263:user/robot.cpp ****     UpdateServoAngle(_joint, _angleSetPoint);
 1354              		.loc 1 263 5 is_stmt 1 view .LVU327
 1355              		.loc 1 263 21 is_stmt 0 view .LVU328
 1356 0002 FFF7FEFF 		bl	_ZN5Robot16UpdateServoAngleERNS_13JointStatus_tEf
 1357              	.LVL122:
 264:user/robot.cpp ****     // printf("id=%d\r\n",_joint.id);
 265:user/robot.cpp **** 
 266:user/robot.cpp ****     /* float jAngle = _joint.inverted ?
 267:user/robot.cpp ****                    (_joint.angleMax - _joint.angle) /
 268:user/robot.cpp ****                    (_joint.angleMax - _joint.angleMin) *
 269:user/robot.cpp ****                    (_joint.modelAngelMax - _joint.modelAngelMin) + _joint.modelAngelMin :
 270:user/robot.cpp ****                    (_joint.angle - _joint.angleMin) /
 271:user/robot.cpp ****                    (_joint.angleMax - _joint.angleMin) *
 272:user/robot.cpp ****                    (_joint.modelAngelMax - _joint.modelAngelMin) + _joint.modelAngelMin;
 273:user/robot.cpp **** 
 274:user/robot.cpp ****     _joint.angle = jAngle; */
 275:user/robot.cpp **** }
 1358              		.loc 1 275 1 view .LVU329
 1359 0006 08BD     		pop	{r3, pc}
 1360              		.cfi_endproc
 1361              	.LFE170:
 1362              		.fnend
 1364              		.text
 1365              	.Letext0:
 1366              		.file 2 "c:\\program files (x86)\\gnu arm embedded toolchain\\10 2021.10\\arm-none-eabi\\include\\
 1367              		.file 3 "c:\\program files (x86)\\gnu arm embedded toolchain\\10 2021.10\\arm-none-eabi\\include\\
 1368              		.file 4 "Drivers/CMSIS/Device/ST/STM32F4xx/Include/stm32f405xx.h"
 1369              		.file 5 "c:\\program files (x86)\\gnu arm embedded toolchain\\10 2021.10\\lib\\gcc\\arm-none-eabi\
ARM GAS  C:\Users\ADMINI~1\AppData\Local\Temp\ccuOIsec.s 			page 31


 1370              		.file 6 "Drivers/STM32F4xx_HAL_Driver/Inc/stm32f4xx_hal_def.h"
 1371              		.file 7 "Drivers/STM32F4xx_HAL_Driver/Inc/stm32f4xx_hal_dma.h"
 1372              		.file 8 "Drivers/STM32F4xx_HAL_Driver/Inc/stm32f4xx_hal_i2c.h"
 1373              		.file 9 "Drivers/STM32F4xx_HAL_Driver/Inc/stm32f4xx_hal_spi.h"
 1374              		.file 10 "user/screen.h"
 1375              		.file 11 "c:\\program files (x86)\\gnu arm embedded toolchain\\10 2021.10\\arm-none-eabi\\include\
 1376              		.file 12 "c:\\program files (x86)\\gnu arm embedded toolchain\\10 2021.10\\arm-none-eabi\\include\
 1377              		.file 13 "c:\\program files (x86)\\gnu arm embedded toolchain\\10 2021.10\\arm-none-eabi\\include\
 1378              		.file 14 "c:\\program files (x86)\\gnu arm embedded toolchain\\10 2021.10\\arm-none-eabi\\include\
 1379              		.file 15 "c:\\program files (x86)\\gnu arm embedded toolchain\\10 2021.10\\arm-none-eabi\\include\
 1380              		.file 16 "Middlewares/ST/STM32_USB_Device_Library/Core/Inc/usbd_def.h"
 1381              		.file 17 "user/common_inc.h"
 1382              		.file 18 "user/robot.h"
 1383              		.file 19 "Drivers/STM32F4xx_HAL_Driver/Inc/stm32f4xx_hal.h"
 1384              		.file 20 "Middlewares/ST/STM32_USB_Device_Library/Class/winUsb/Inc/usbd_winUsb.h"
 1385              		.file 21 "<built-in>"
ARM GAS  C:\Users\ADMINI~1\AppData\Local\Temp\ccuOIsec.s 			page 32

