ARM GAS  C:\Users\ADMINI~1\AppData\Local\Temp\ccdyFdU3.s 			page 1


   1              		.cpu cortex-m4
   2              		.arch armv7e-m
   3              		.fpu fpv4-sp-d16
   4              		.eabi_attribute 27, 1
   5              		.eabi_attribute 28, 1
   6              		.eabi_attribute 20, 1
   7              		.eabi_attribute 21, 1
   8              		.eabi_attribute 23, 3
   9              		.eabi_attribute 24, 1
  10              		.eabi_attribute 25, 1
  11              		.eabi_attribute 26, 1
  12              		.eabi_attribute 30, 1
  13              		.eabi_attribute 34, 1
  14              		.eabi_attribute 18, 4
  15              		.file	"usart.c"
  16              		.text
  17              	.Ltext0:
  18              		.cfi_sections	.debug_frame
  19              		.section	.text.MX_USART1_UART_Init,"ax",%progbits
  20              		.align	1
  21              		.global	MX_USART1_UART_Init
  22              		.syntax unified
  23              		.thumb
  24              		.thumb_func
  26              	MX_USART1_UART_Init:
  27              	.LFB133:
  28              		.file 1 "Src/usart.c"
   1:Src/usart.c   **** /* USER CODE BEGIN Header */
   2:Src/usart.c   **** /**
   3:Src/usart.c   ****   ******************************************************************************
   4:Src/usart.c   ****   * @file    usart.c
   5:Src/usart.c   ****   * @brief   This file provides code for the configuration
   6:Src/usart.c   ****   *          of the USART instances.
   7:Src/usart.c   ****   ******************************************************************************
   8:Src/usart.c   ****   * @attention
   9:Src/usart.c   ****   *
  10:Src/usart.c   ****   * Copyright (c) 2022 STMicroelectronics.
  11:Src/usart.c   ****   * All rights reserved.
  12:Src/usart.c   ****   *
  13:Src/usart.c   ****   * This software is licensed under terms that can be found in the LICENSE file
  14:Src/usart.c   ****   * in the root directory of this software component.
  15:Src/usart.c   ****   * If no LICENSE file comes with this software, it is provided AS-IS.
  16:Src/usart.c   ****   *
  17:Src/usart.c   ****   ******************************************************************************
  18:Src/usart.c   ****   */
  19:Src/usart.c   **** /* USER CODE END Header */
  20:Src/usart.c   **** /* Includes ------------------------------------------------------------------*/
  21:Src/usart.c   **** #include "usart.h"
  22:Src/usart.c   **** 
  23:Src/usart.c   **** /* USER CODE BEGIN 0 */
  24:Src/usart.c   **** #include "retarget.h"
  25:Src/usart.c   **** uint8_t rx_buffer[BUFFER_SIZE] = {0};
  26:Src/usart.c   **** /* USER CODE END 0 */
  27:Src/usart.c   **** 
  28:Src/usart.c   **** UART_HandleTypeDef huart1;
  29:Src/usart.c   **** DMA_HandleTypeDef hdma_usart1_rx;
  30:Src/usart.c   **** DMA_HandleTypeDef hdma_usart1_tx;
ARM GAS  C:\Users\ADMINI~1\AppData\Local\Temp\ccdyFdU3.s 			page 2


  31:Src/usart.c   **** 
  32:Src/usart.c   **** /* USART1 init function */
  33:Src/usart.c   **** 
  34:Src/usart.c   **** void MX_USART1_UART_Init(void)
  35:Src/usart.c   **** {
  29              		.loc 1 35 1 view -0
  30              		.cfi_startproc
  31              		@ args = 0, pretend = 0, frame = 0
  32              		@ frame_needed = 0, uses_anonymous_args = 0
  33 0000 10B5     		push	{r4, lr}
  34              	.LCFI0:
  35              		.cfi_def_cfa_offset 8
  36              		.cfi_offset 4, -8
  37              		.cfi_offset 14, -4
  36:Src/usart.c   **** 
  37:Src/usart.c   ****   /* USER CODE BEGIN USART1_Init 0 */
  38:Src/usart.c   **** 
  39:Src/usart.c   ****   /* USER CODE END USART1_Init 0 */
  40:Src/usart.c   **** 
  41:Src/usart.c   ****   /* USER CODE BEGIN USART1_Init 1 */
  42:Src/usart.c   **** 
  43:Src/usart.c   ****   /* USER CODE END USART1_Init 1 */
  44:Src/usart.c   ****   huart1.Instance = USART1;
  38              		.loc 1 44 3 view .LVU1
  39              		.loc 1 44 19 is_stmt 0 view .LVU2
  40 0002 0F48     		ldr	r0, .L5
  41 0004 0F4B     		ldr	r3, .L5+4
  42 0006 0360     		str	r3, [r0]
  45:Src/usart.c   ****   huart1.Init.BaudRate = 115200;
  43              		.loc 1 45 3 is_stmt 1 view .LVU3
  44              		.loc 1 45 24 is_stmt 0 view .LVU4
  45 0008 4FF4E133 		mov	r3, #115200
  46 000c 4360     		str	r3, [r0, #4]
  46:Src/usart.c   ****   huart1.Init.WordLength = UART_WORDLENGTH_8B;
  47              		.loc 1 46 3 is_stmt 1 view .LVU5
  48              		.loc 1 46 26 is_stmt 0 view .LVU6
  49 000e 0023     		movs	r3, #0
  50 0010 8360     		str	r3, [r0, #8]
  47:Src/usart.c   ****   huart1.Init.StopBits = UART_STOPBITS_1;
  51              		.loc 1 47 3 is_stmt 1 view .LVU7
  52              		.loc 1 47 24 is_stmt 0 view .LVU8
  53 0012 C360     		str	r3, [r0, #12]
  48:Src/usart.c   ****   huart1.Init.Parity = UART_PARITY_NONE;
  54              		.loc 1 48 3 is_stmt 1 view .LVU9
  55              		.loc 1 48 22 is_stmt 0 view .LVU10
  56 0014 0361     		str	r3, [r0, #16]
  49:Src/usart.c   ****   huart1.Init.Mode = UART_MODE_TX_RX;
  57              		.loc 1 49 3 is_stmt 1 view .LVU11
  58              		.loc 1 49 20 is_stmt 0 view .LVU12
  59 0016 0C22     		movs	r2, #12
  60 0018 4261     		str	r2, [r0, #20]
  50:Src/usart.c   ****   huart1.Init.HwFlowCtl = UART_HWCONTROL_NONE;
  61              		.loc 1 50 3 is_stmt 1 view .LVU13
  62              		.loc 1 50 25 is_stmt 0 view .LVU14
  63 001a 8361     		str	r3, [r0, #24]
  51:Src/usart.c   ****   huart1.Init.OverSampling = UART_OVERSAMPLING_16;
  64              		.loc 1 51 3 is_stmt 1 view .LVU15
ARM GAS  C:\Users\ADMINI~1\AppData\Local\Temp\ccdyFdU3.s 			page 3


  65              		.loc 1 51 28 is_stmt 0 view .LVU16
  66 001c C361     		str	r3, [r0, #28]
  52:Src/usart.c   ****   if (HAL_UART_Init(&huart1) != HAL_OK)
  67              		.loc 1 52 3 is_stmt 1 view .LVU17
  68              		.loc 1 52 7 is_stmt 0 view .LVU18
  69 001e FFF7FEFF 		bl	HAL_UART_Init
  70              	.LVL0:
  71              		.loc 1 52 6 view .LVU19
  72 0022 48B9     		cbnz	r0, .L4
  73              	.L2:
  53:Src/usart.c   ****   {
  54:Src/usart.c   ****     Error_Handler();
  55:Src/usart.c   ****   }
  56:Src/usart.c   ****   /* USER CODE BEGIN USART1_Init 2 */
  57:Src/usart.c   ****   RetargetInit(&huart1);
  74              		.loc 1 57 3 is_stmt 1 view .LVU20
  75 0024 064C     		ldr	r4, .L5
  76 0026 2046     		mov	r0, r4
  77 0028 FFF7FEFF 		bl	RetargetInit
  78              	.LVL1:
  58:Src/usart.c   ****   HAL_UART_Receive_DMA(&huart1, rx_buffer, BUFFER_SIZE);
  79              		.loc 1 58 3 view .LVU21
  80 002c 8022     		movs	r2, #128
  81 002e 0649     		ldr	r1, .L5+8
  82 0030 2046     		mov	r0, r4
  83 0032 FFF7FEFF 		bl	HAL_UART_Receive_DMA
  84              	.LVL2:
  59:Src/usart.c   ****   /* USER CODE END USART1_Init 2 */
  60:Src/usart.c   **** 
  61:Src/usart.c   **** }
  85              		.loc 1 61 1 is_stmt 0 view .LVU22
  86 0036 10BD     		pop	{r4, pc}
  87              	.L4:
  54:Src/usart.c   ****   }
  88              		.loc 1 54 5 is_stmt 1 view .LVU23
  89 0038 FFF7FEFF 		bl	Error_Handler
  90              	.LVL3:
  91 003c F2E7     		b	.L2
  92              	.L6:
  93 003e 00BF     		.align	2
  94              	.L5:
  95 0040 00000000 		.word	.LANCHOR0
  96 0044 00100140 		.word	1073811456
  97 0048 00000000 		.word	.LANCHOR1
  98              		.cfi_endproc
  99              	.LFE133:
 101              		.section	.text.HAL_UART_MspInit,"ax",%progbits
 102              		.align	1
 103              		.global	HAL_UART_MspInit
 104              		.syntax unified
 105              		.thumb
 106              		.thumb_func
 108              	HAL_UART_MspInit:
 109              	.LVL4:
 110              	.LFB134:
  62:Src/usart.c   **** 
  63:Src/usart.c   **** void HAL_UART_MspInit(UART_HandleTypeDef* uartHandle)
ARM GAS  C:\Users\ADMINI~1\AppData\Local\Temp\ccdyFdU3.s 			page 4


  64:Src/usart.c   **** {
 111              		.loc 1 64 1 view -0
 112              		.cfi_startproc
 113              		@ args = 0, pretend = 0, frame = 32
 114              		@ frame_needed = 0, uses_anonymous_args = 0
 115              		.loc 1 64 1 is_stmt 0 view .LVU25
 116 0000 30B5     		push	{r4, r5, lr}
 117              	.LCFI1:
 118              		.cfi_def_cfa_offset 12
 119              		.cfi_offset 4, -12
 120              		.cfi_offset 5, -8
 121              		.cfi_offset 14, -4
 122 0002 89B0     		sub	sp, sp, #36
 123              	.LCFI2:
 124              		.cfi_def_cfa_offset 48
  65:Src/usart.c   **** 
  66:Src/usart.c   ****   GPIO_InitTypeDef GPIO_InitStruct = {0};
 125              		.loc 1 66 3 is_stmt 1 view .LVU26
 126              		.loc 1 66 20 is_stmt 0 view .LVU27
 127 0004 0023     		movs	r3, #0
 128 0006 0393     		str	r3, [sp, #12]
 129 0008 0493     		str	r3, [sp, #16]
 130 000a 0593     		str	r3, [sp, #20]
 131 000c 0693     		str	r3, [sp, #24]
 132 000e 0793     		str	r3, [sp, #28]
  67:Src/usart.c   ****   if(uartHandle->Instance==USART1)
 133              		.loc 1 67 3 is_stmt 1 view .LVU28
 134              		.loc 1 67 16 is_stmt 0 view .LVU29
 135 0010 0268     		ldr	r2, [r0]
 136              		.loc 1 67 5 view .LVU30
 137 0012 03F18043 		add	r3, r3, #1073741824
 138 0016 03F58833 		add	r3, r3, #69632
 139 001a 9A42     		cmp	r2, r3
 140 001c 01D0     		beq	.L12
 141              	.LVL5:
 142              	.L7:
  68:Src/usart.c   ****   {
  69:Src/usart.c   ****   /* USER CODE BEGIN USART1_MspInit 0 */
  70:Src/usart.c   **** 
  71:Src/usart.c   ****   /* USER CODE END USART1_MspInit 0 */
  72:Src/usart.c   ****     /* USART1 clock enable */
  73:Src/usart.c   ****     __HAL_RCC_USART1_CLK_ENABLE();
  74:Src/usart.c   **** 
  75:Src/usart.c   ****     __HAL_RCC_GPIOA_CLK_ENABLE();
  76:Src/usart.c   ****     /**USART1 GPIO Configuration
  77:Src/usart.c   ****     PA9     ------> USART1_TX
  78:Src/usart.c   ****     PA10     ------> USART1_RX
  79:Src/usart.c   ****     */
  80:Src/usart.c   ****     GPIO_InitStruct.Pin = GPIO_PIN_9|GPIO_PIN_10;
  81:Src/usart.c   ****     GPIO_InitStruct.Mode = GPIO_MODE_AF_PP;
  82:Src/usart.c   ****     GPIO_InitStruct.Pull = GPIO_NOPULL;
  83:Src/usart.c   ****     GPIO_InitStruct.Speed = GPIO_SPEED_FREQ_VERY_HIGH;
  84:Src/usart.c   ****     GPIO_InitStruct.Alternate = GPIO_AF7_USART1;
  85:Src/usart.c   ****     HAL_GPIO_Init(GPIOA, &GPIO_InitStruct);
  86:Src/usart.c   **** 
  87:Src/usart.c   ****     /* USART1 DMA Init */
  88:Src/usart.c   ****     /* USART1_RX Init */
ARM GAS  C:\Users\ADMINI~1\AppData\Local\Temp\ccdyFdU3.s 			page 5


  89:Src/usart.c   ****     hdma_usart1_rx.Instance = DMA2_Stream2;
  90:Src/usart.c   ****     hdma_usart1_rx.Init.Channel = DMA_CHANNEL_4;
  91:Src/usart.c   ****     hdma_usart1_rx.Init.Direction = DMA_PERIPH_TO_MEMORY;
  92:Src/usart.c   ****     hdma_usart1_rx.Init.PeriphInc = DMA_PINC_DISABLE;
  93:Src/usart.c   ****     hdma_usart1_rx.Init.MemInc = DMA_MINC_ENABLE;
  94:Src/usart.c   ****     hdma_usart1_rx.Init.PeriphDataAlignment = DMA_PDATAALIGN_BYTE;
  95:Src/usart.c   ****     hdma_usart1_rx.Init.MemDataAlignment = DMA_MDATAALIGN_BYTE;
  96:Src/usart.c   ****     hdma_usart1_rx.Init.Mode = DMA_CIRCULAR;
  97:Src/usart.c   ****     hdma_usart1_rx.Init.Priority = DMA_PRIORITY_LOW;
  98:Src/usart.c   ****     hdma_usart1_rx.Init.FIFOMode = DMA_FIFOMODE_DISABLE;
  99:Src/usart.c   ****     if (HAL_DMA_Init(&hdma_usart1_rx) != HAL_OK)
 100:Src/usart.c   ****     {
 101:Src/usart.c   ****       Error_Handler();
 102:Src/usart.c   ****     }
 103:Src/usart.c   **** 
 104:Src/usart.c   ****     __HAL_LINKDMA(uartHandle,hdmarx,hdma_usart1_rx);
 105:Src/usart.c   **** 
 106:Src/usart.c   ****     /* USART1_TX Init */
 107:Src/usart.c   ****     hdma_usart1_tx.Instance = DMA2_Stream7;
 108:Src/usart.c   ****     hdma_usart1_tx.Init.Channel = DMA_CHANNEL_4;
 109:Src/usart.c   ****     hdma_usart1_tx.Init.Direction = DMA_MEMORY_TO_PERIPH;
 110:Src/usart.c   ****     hdma_usart1_tx.Init.PeriphInc = DMA_PINC_DISABLE;
 111:Src/usart.c   ****     hdma_usart1_tx.Init.MemInc = DMA_MINC_ENABLE;
 112:Src/usart.c   ****     hdma_usart1_tx.Init.PeriphDataAlignment = DMA_PDATAALIGN_BYTE;
 113:Src/usart.c   ****     hdma_usart1_tx.Init.MemDataAlignment = DMA_MDATAALIGN_BYTE;
 114:Src/usart.c   ****     hdma_usart1_tx.Init.Mode = DMA_NORMAL;
 115:Src/usart.c   ****     hdma_usart1_tx.Init.Priority = DMA_PRIORITY_LOW;
 116:Src/usart.c   ****     hdma_usart1_tx.Init.FIFOMode = DMA_FIFOMODE_DISABLE;
 117:Src/usart.c   ****     if (HAL_DMA_Init(&hdma_usart1_tx) != HAL_OK)
 118:Src/usart.c   ****     {
 119:Src/usart.c   ****       Error_Handler();
 120:Src/usart.c   ****     }
 121:Src/usart.c   **** 
 122:Src/usart.c   ****     __HAL_LINKDMA(uartHandle,hdmatx,hdma_usart1_tx);
 123:Src/usart.c   **** 
 124:Src/usart.c   ****     /* USART1 interrupt Init */
 125:Src/usart.c   ****     /* HAL_NVIC_SetPriority(USART1_IRQn, 9, 0);
 126:Src/usart.c   ****     HAL_NVIC_EnableIRQ(USART1_IRQn); */
 127:Src/usart.c   ****   /* USER CODE BEGIN USART1_MspInit 1 */
 128:Src/usart.c   **** 
 129:Src/usart.c   ****   /* USER CODE END USART1_MspInit 1 */
 130:Src/usart.c   ****   }
 131:Src/usart.c   **** }
 143              		.loc 1 131 1 view .LVU31
 144 001e 09B0     		add	sp, sp, #36
 145              	.LCFI3:
 146              		.cfi_remember_state
 147              		.cfi_def_cfa_offset 12
 148              		@ sp needed
 149 0020 30BD     		pop	{r4, r5, pc}
 150              	.LVL6:
 151              	.L12:
 152              	.LCFI4:
 153              		.cfi_restore_state
 154              		.loc 1 131 1 view .LVU32
 155 0022 0446     		mov	r4, r0
  73:Src/usart.c   **** 
ARM GAS  C:\Users\ADMINI~1\AppData\Local\Temp\ccdyFdU3.s 			page 6


 156              		.loc 1 73 5 is_stmt 1 view .LVU33
 157              	.LBB2:
  73:Src/usart.c   **** 
 158              		.loc 1 73 5 view .LVU34
 159 0024 0025     		movs	r5, #0
 160 0026 0195     		str	r5, [sp, #4]
  73:Src/usart.c   **** 
 161              		.loc 1 73 5 view .LVU35
 162 0028 03F59433 		add	r3, r3, #75776
 163 002c 5A6C     		ldr	r2, [r3, #68]
 164 002e 42F01002 		orr	r2, r2, #16
 165 0032 5A64     		str	r2, [r3, #68]
  73:Src/usart.c   **** 
 166              		.loc 1 73 5 view .LVU36
 167 0034 5A6C     		ldr	r2, [r3, #68]
 168 0036 02F01002 		and	r2, r2, #16
 169 003a 0192     		str	r2, [sp, #4]
  73:Src/usart.c   **** 
 170              		.loc 1 73 5 view .LVU37
 171 003c 019A     		ldr	r2, [sp, #4]
 172              	.LBE2:
  73:Src/usart.c   **** 
 173              		.loc 1 73 5 view .LVU38
  75:Src/usart.c   ****     /**USART1 GPIO Configuration
 174              		.loc 1 75 5 view .LVU39
 175              	.LBB3:
  75:Src/usart.c   ****     /**USART1 GPIO Configuration
 176              		.loc 1 75 5 view .LVU40
 177 003e 0295     		str	r5, [sp, #8]
  75:Src/usart.c   ****     /**USART1 GPIO Configuration
 178              		.loc 1 75 5 view .LVU41
 179 0040 1A6B     		ldr	r2, [r3, #48]
 180 0042 42F00102 		orr	r2, r2, #1
 181 0046 1A63     		str	r2, [r3, #48]
  75:Src/usart.c   ****     /**USART1 GPIO Configuration
 182              		.loc 1 75 5 view .LVU42
 183 0048 1B6B     		ldr	r3, [r3, #48]
 184 004a 03F00103 		and	r3, r3, #1
 185 004e 0293     		str	r3, [sp, #8]
  75:Src/usart.c   ****     /**USART1 GPIO Configuration
 186              		.loc 1 75 5 view .LVU43
 187 0050 029B     		ldr	r3, [sp, #8]
 188              	.LBE3:
  75:Src/usart.c   ****     /**USART1 GPIO Configuration
 189              		.loc 1 75 5 view .LVU44
  80:Src/usart.c   ****     GPIO_InitStruct.Mode = GPIO_MODE_AF_PP;
 190              		.loc 1 80 5 view .LVU45
  80:Src/usart.c   ****     GPIO_InitStruct.Mode = GPIO_MODE_AF_PP;
 191              		.loc 1 80 25 is_stmt 0 view .LVU46
 192 0052 4FF4C063 		mov	r3, #1536
 193 0056 0393     		str	r3, [sp, #12]
  81:Src/usart.c   ****     GPIO_InitStruct.Pull = GPIO_NOPULL;
 194              		.loc 1 81 5 is_stmt 1 view .LVU47
  81:Src/usart.c   ****     GPIO_InitStruct.Pull = GPIO_NOPULL;
 195              		.loc 1 81 26 is_stmt 0 view .LVU48
 196 0058 0223     		movs	r3, #2
 197 005a 0493     		str	r3, [sp, #16]
ARM GAS  C:\Users\ADMINI~1\AppData\Local\Temp\ccdyFdU3.s 			page 7


  82:Src/usart.c   ****     GPIO_InitStruct.Speed = GPIO_SPEED_FREQ_VERY_HIGH;
 198              		.loc 1 82 5 is_stmt 1 view .LVU49
  83:Src/usart.c   ****     GPIO_InitStruct.Alternate = GPIO_AF7_USART1;
 199              		.loc 1 83 5 view .LVU50
  83:Src/usart.c   ****     GPIO_InitStruct.Alternate = GPIO_AF7_USART1;
 200              		.loc 1 83 27 is_stmt 0 view .LVU51
 201 005c 0323     		movs	r3, #3
 202 005e 0693     		str	r3, [sp, #24]
  84:Src/usart.c   ****     HAL_GPIO_Init(GPIOA, &GPIO_InitStruct);
 203              		.loc 1 84 5 is_stmt 1 view .LVU52
  84:Src/usart.c   ****     HAL_GPIO_Init(GPIOA, &GPIO_InitStruct);
 204              		.loc 1 84 31 is_stmt 0 view .LVU53
 205 0060 0723     		movs	r3, #7
 206 0062 0793     		str	r3, [sp, #28]
  85:Src/usart.c   **** 
 207              		.loc 1 85 5 is_stmt 1 view .LVU54
 208 0064 03A9     		add	r1, sp, #12
 209 0066 1D48     		ldr	r0, .L15
 210              	.LVL7:
  85:Src/usart.c   **** 
 211              		.loc 1 85 5 is_stmt 0 view .LVU55
 212 0068 FFF7FEFF 		bl	HAL_GPIO_Init
 213              	.LVL8:
  89:Src/usart.c   ****     hdma_usart1_rx.Init.Channel = DMA_CHANNEL_4;
 214              		.loc 1 89 5 is_stmt 1 view .LVU56
  89:Src/usart.c   ****     hdma_usart1_rx.Init.Channel = DMA_CHANNEL_4;
 215              		.loc 1 89 29 is_stmt 0 view .LVU57
 216 006c 1C48     		ldr	r0, .L15+4
 217 006e 1D4B     		ldr	r3, .L15+8
 218 0070 0360     		str	r3, [r0]
  90:Src/usart.c   ****     hdma_usart1_rx.Init.Direction = DMA_PERIPH_TO_MEMORY;
 219              		.loc 1 90 5 is_stmt 1 view .LVU58
  90:Src/usart.c   ****     hdma_usart1_rx.Init.Direction = DMA_PERIPH_TO_MEMORY;
 220              		.loc 1 90 33 is_stmt 0 view .LVU59
 221 0072 4FF00063 		mov	r3, #134217728
 222 0076 4360     		str	r3, [r0, #4]
  91:Src/usart.c   ****     hdma_usart1_rx.Init.PeriphInc = DMA_PINC_DISABLE;
 223              		.loc 1 91 5 is_stmt 1 view .LVU60
  91:Src/usart.c   ****     hdma_usart1_rx.Init.PeriphInc = DMA_PINC_DISABLE;
 224              		.loc 1 91 35 is_stmt 0 view .LVU61
 225 0078 8560     		str	r5, [r0, #8]
  92:Src/usart.c   ****     hdma_usart1_rx.Init.MemInc = DMA_MINC_ENABLE;
 226              		.loc 1 92 5 is_stmt 1 view .LVU62
  92:Src/usart.c   ****     hdma_usart1_rx.Init.MemInc = DMA_MINC_ENABLE;
 227              		.loc 1 92 35 is_stmt 0 view .LVU63
 228 007a C560     		str	r5, [r0, #12]
  93:Src/usart.c   ****     hdma_usart1_rx.Init.PeriphDataAlignment = DMA_PDATAALIGN_BYTE;
 229              		.loc 1 93 5 is_stmt 1 view .LVU64
  93:Src/usart.c   ****     hdma_usart1_rx.Init.PeriphDataAlignment = DMA_PDATAALIGN_BYTE;
 230              		.loc 1 93 32 is_stmt 0 view .LVU65
 231 007c 4FF48063 		mov	r3, #1024
 232 0080 0361     		str	r3, [r0, #16]
  94:Src/usart.c   ****     hdma_usart1_rx.Init.MemDataAlignment = DMA_MDATAALIGN_BYTE;
 233              		.loc 1 94 5 is_stmt 1 view .LVU66
  94:Src/usart.c   ****     hdma_usart1_rx.Init.MemDataAlignment = DMA_MDATAALIGN_BYTE;
 234              		.loc 1 94 45 is_stmt 0 view .LVU67
 235 0082 4561     		str	r5, [r0, #20]
ARM GAS  C:\Users\ADMINI~1\AppData\Local\Temp\ccdyFdU3.s 			page 8


  95:Src/usart.c   ****     hdma_usart1_rx.Init.Mode = DMA_CIRCULAR;
 236              		.loc 1 95 5 is_stmt 1 view .LVU68
  95:Src/usart.c   ****     hdma_usart1_rx.Init.Mode = DMA_CIRCULAR;
 237              		.loc 1 95 42 is_stmt 0 view .LVU69
 238 0084 8561     		str	r5, [r0, #24]
  96:Src/usart.c   ****     hdma_usart1_rx.Init.Priority = DMA_PRIORITY_LOW;
 239              		.loc 1 96 5 is_stmt 1 view .LVU70
  96:Src/usart.c   ****     hdma_usart1_rx.Init.Priority = DMA_PRIORITY_LOW;
 240              		.loc 1 96 30 is_stmt 0 view .LVU71
 241 0086 4FF48073 		mov	r3, #256
 242 008a C361     		str	r3, [r0, #28]
  97:Src/usart.c   ****     hdma_usart1_rx.Init.FIFOMode = DMA_FIFOMODE_DISABLE;
 243              		.loc 1 97 5 is_stmt 1 view .LVU72
  97:Src/usart.c   ****     hdma_usart1_rx.Init.FIFOMode = DMA_FIFOMODE_DISABLE;
 244              		.loc 1 97 34 is_stmt 0 view .LVU73
 245 008c 0562     		str	r5, [r0, #32]
  98:Src/usart.c   ****     if (HAL_DMA_Init(&hdma_usart1_rx) != HAL_OK)
 246              		.loc 1 98 5 is_stmt 1 view .LVU74
  98:Src/usart.c   ****     if (HAL_DMA_Init(&hdma_usart1_rx) != HAL_OK)
 247              		.loc 1 98 34 is_stmt 0 view .LVU75
 248 008e 4562     		str	r5, [r0, #36]
  99:Src/usart.c   ****     {
 249              		.loc 1 99 5 is_stmt 1 view .LVU76
  99:Src/usart.c   ****     {
 250              		.loc 1 99 9 is_stmt 0 view .LVU77
 251 0090 FFF7FEFF 		bl	HAL_DMA_Init
 252              	.LVL9:
  99:Src/usart.c   ****     {
 253              		.loc 1 99 8 view .LVU78
 254 0094 D8B9     		cbnz	r0, .L13
 255              	.L9:
 104:Src/usart.c   **** 
 256              		.loc 1 104 5 is_stmt 1 view .LVU79
 104:Src/usart.c   **** 
 257              		.loc 1 104 5 view .LVU80
 258 0096 124B     		ldr	r3, .L15+4
 259 0098 A363     		str	r3, [r4, #56]
 104:Src/usart.c   **** 
 260              		.loc 1 104 5 view .LVU81
 261 009a 9C63     		str	r4, [r3, #56]
 104:Src/usart.c   **** 
 262              		.loc 1 104 5 view .LVU82
 107:Src/usart.c   ****     hdma_usart1_tx.Init.Channel = DMA_CHANNEL_4;
 263              		.loc 1 107 5 view .LVU83
 107:Src/usart.c   ****     hdma_usart1_tx.Init.Channel = DMA_CHANNEL_4;
 264              		.loc 1 107 29 is_stmt 0 view .LVU84
 265 009c 1248     		ldr	r0, .L15+12
 266 009e 134B     		ldr	r3, .L15+16
 267 00a0 0360     		str	r3, [r0]
 108:Src/usart.c   ****     hdma_usart1_tx.Init.Direction = DMA_MEMORY_TO_PERIPH;
 268              		.loc 1 108 5 is_stmt 1 view .LVU85
 108:Src/usart.c   ****     hdma_usart1_tx.Init.Direction = DMA_MEMORY_TO_PERIPH;
 269              		.loc 1 108 33 is_stmt 0 view .LVU86
 270 00a2 4FF00063 		mov	r3, #134217728
 271 00a6 4360     		str	r3, [r0, #4]
 109:Src/usart.c   ****     hdma_usart1_tx.Init.PeriphInc = DMA_PINC_DISABLE;
 272              		.loc 1 109 5 is_stmt 1 view .LVU87
ARM GAS  C:\Users\ADMINI~1\AppData\Local\Temp\ccdyFdU3.s 			page 9


 109:Src/usart.c   ****     hdma_usart1_tx.Init.PeriphInc = DMA_PINC_DISABLE;
 273              		.loc 1 109 35 is_stmt 0 view .LVU88
 274 00a8 4023     		movs	r3, #64
 275 00aa 8360     		str	r3, [r0, #8]
 110:Src/usart.c   ****     hdma_usart1_tx.Init.MemInc = DMA_MINC_ENABLE;
 276              		.loc 1 110 5 is_stmt 1 view .LVU89
 110:Src/usart.c   ****     hdma_usart1_tx.Init.MemInc = DMA_MINC_ENABLE;
 277              		.loc 1 110 35 is_stmt 0 view .LVU90
 278 00ac 0023     		movs	r3, #0
 279 00ae C360     		str	r3, [r0, #12]
 111:Src/usart.c   ****     hdma_usart1_tx.Init.PeriphDataAlignment = DMA_PDATAALIGN_BYTE;
 280              		.loc 1 111 5 is_stmt 1 view .LVU91
 111:Src/usart.c   ****     hdma_usart1_tx.Init.PeriphDataAlignment = DMA_PDATAALIGN_BYTE;
 281              		.loc 1 111 32 is_stmt 0 view .LVU92
 282 00b0 4FF48062 		mov	r2, #1024
 283 00b4 0261     		str	r2, [r0, #16]
 112:Src/usart.c   ****     hdma_usart1_tx.Init.MemDataAlignment = DMA_MDATAALIGN_BYTE;
 284              		.loc 1 112 5 is_stmt 1 view .LVU93
 112:Src/usart.c   ****     hdma_usart1_tx.Init.MemDataAlignment = DMA_MDATAALIGN_BYTE;
 285              		.loc 1 112 45 is_stmt 0 view .LVU94
 286 00b6 4361     		str	r3, [r0, #20]
 113:Src/usart.c   ****     hdma_usart1_tx.Init.Mode = DMA_NORMAL;
 287              		.loc 1 113 5 is_stmt 1 view .LVU95
 113:Src/usart.c   ****     hdma_usart1_tx.Init.Mode = DMA_NORMAL;
 288              		.loc 1 113 42 is_stmt 0 view .LVU96
 289 00b8 8361     		str	r3, [r0, #24]
 114:Src/usart.c   ****     hdma_usart1_tx.Init.Priority = DMA_PRIORITY_LOW;
 290              		.loc 1 114 5 is_stmt 1 view .LVU97
 114:Src/usart.c   ****     hdma_usart1_tx.Init.Priority = DMA_PRIORITY_LOW;
 291              		.loc 1 114 30 is_stmt 0 view .LVU98
 292 00ba C361     		str	r3, [r0, #28]
 115:Src/usart.c   ****     hdma_usart1_tx.Init.FIFOMode = DMA_FIFOMODE_DISABLE;
 293              		.loc 1 115 5 is_stmt 1 view .LVU99
 115:Src/usart.c   ****     hdma_usart1_tx.Init.FIFOMode = DMA_FIFOMODE_DISABLE;
 294              		.loc 1 115 34 is_stmt 0 view .LVU100
 295 00bc 0362     		str	r3, [r0, #32]
 116:Src/usart.c   ****     if (HAL_DMA_Init(&hdma_usart1_tx) != HAL_OK)
 296              		.loc 1 116 5 is_stmt 1 view .LVU101
 116:Src/usart.c   ****     if (HAL_DMA_Init(&hdma_usart1_tx) != HAL_OK)
 297              		.loc 1 116 34 is_stmt 0 view .LVU102
 298 00be 4362     		str	r3, [r0, #36]
 117:Src/usart.c   ****     {
 299              		.loc 1 117 5 is_stmt 1 view .LVU103
 117:Src/usart.c   ****     {
 300              		.loc 1 117 9 is_stmt 0 view .LVU104
 301 00c0 FFF7FEFF 		bl	HAL_DMA_Init
 302              	.LVL10:
 117:Src/usart.c   ****     {
 303              		.loc 1 117 8 view .LVU105
 304 00c4 30B9     		cbnz	r0, .L14
 305              	.L10:
 122:Src/usart.c   **** 
 306              		.loc 1 122 5 is_stmt 1 view .LVU106
 122:Src/usart.c   **** 
 307              		.loc 1 122 5 view .LVU107
 308 00c6 084B     		ldr	r3, .L15+12
 309 00c8 6363     		str	r3, [r4, #52]
ARM GAS  C:\Users\ADMINI~1\AppData\Local\Temp\ccdyFdU3.s 			page 10


 122:Src/usart.c   **** 
 310              		.loc 1 122 5 view .LVU108
 311 00ca 9C63     		str	r4, [r3, #56]
 122:Src/usart.c   **** 
 312              		.loc 1 122 5 view .LVU109
 313              		.loc 1 131 1 is_stmt 0 view .LVU110
 314 00cc A7E7     		b	.L7
 315              	.L13:
 101:Src/usart.c   ****     }
 316              		.loc 1 101 7 is_stmt 1 view .LVU111
 317 00ce FFF7FEFF 		bl	Error_Handler
 318              	.LVL11:
 319 00d2 E0E7     		b	.L9
 320              	.L14:
 119:Src/usart.c   ****     }
 321              		.loc 1 119 7 view .LVU112
 322 00d4 FFF7FEFF 		bl	Error_Handler
 323              	.LVL12:
 324 00d8 F5E7     		b	.L10
 325              	.L16:
 326 00da 00BF     		.align	2
 327              	.L15:
 328 00dc 00000240 		.word	1073872896
 329 00e0 00000000 		.word	.LANCHOR2
 330 00e4 40640240 		.word	1073898560
 331 00e8 00000000 		.word	.LANCHOR3
 332 00ec B8640240 		.word	1073898680
 333              		.cfi_endproc
 334              	.LFE134:
 336              		.section	.text.HAL_UART_MspDeInit,"ax",%progbits
 337              		.align	1
 338              		.global	HAL_UART_MspDeInit
 339              		.syntax unified
 340              		.thumb
 341              		.thumb_func
 343              	HAL_UART_MspDeInit:
 344              	.LVL13:
 345              	.LFB135:
 132:Src/usart.c   **** 
 133:Src/usart.c   **** void HAL_UART_MspDeInit(UART_HandleTypeDef* uartHandle)
 134:Src/usart.c   **** {
 346              		.loc 1 134 1 view -0
 347              		.cfi_startproc
 348              		@ args = 0, pretend = 0, frame = 0
 349              		@ frame_needed = 0, uses_anonymous_args = 0
 135:Src/usart.c   **** 
 136:Src/usart.c   ****   if(uartHandle->Instance==USART1)
 350              		.loc 1 136 3 view .LVU114
 351              		.loc 1 136 16 is_stmt 0 view .LVU115
 352 0000 0268     		ldr	r2, [r0]
 353              		.loc 1 136 5 view .LVU116
 354 0002 0D4B     		ldr	r3, .L24
 355 0004 9A42     		cmp	r2, r3
 356 0006 00D0     		beq	.L23
 357 0008 7047     		bx	lr
 358              	.L23:
 134:Src/usart.c   **** 
ARM GAS  C:\Users\ADMINI~1\AppData\Local\Temp\ccdyFdU3.s 			page 11


 359              		.loc 1 134 1 view .LVU117
 360 000a 10B5     		push	{r4, lr}
 361              	.LCFI5:
 362              		.cfi_def_cfa_offset 8
 363              		.cfi_offset 4, -8
 364              		.cfi_offset 14, -4
 365 000c 0446     		mov	r4, r0
 137:Src/usart.c   ****   {
 138:Src/usart.c   ****   /* USER CODE BEGIN USART1_MspDeInit 0 */
 139:Src/usart.c   **** 
 140:Src/usart.c   ****   /* USER CODE END USART1_MspDeInit 0 */
 141:Src/usart.c   ****     /* Peripheral clock disable */
 142:Src/usart.c   ****     __HAL_RCC_USART1_CLK_DISABLE();
 366              		.loc 1 142 5 is_stmt 1 view .LVU118
 367 000e 0B4A     		ldr	r2, .L24+4
 368 0010 536C     		ldr	r3, [r2, #68]
 369 0012 23F01003 		bic	r3, r3, #16
 370 0016 5364     		str	r3, [r2, #68]
 143:Src/usart.c   **** 
 144:Src/usart.c   ****     /**USART1 GPIO Configuration
 145:Src/usart.c   ****     PA9     ------> USART1_TX
 146:Src/usart.c   ****     PA10     ------> USART1_RX
 147:Src/usart.c   ****     */
 148:Src/usart.c   ****     HAL_GPIO_DeInit(GPIOA, GPIO_PIN_9|GPIO_PIN_10);
 371              		.loc 1 148 5 view .LVU119
 372 0018 4FF4C061 		mov	r1, #1536
 373 001c 0848     		ldr	r0, .L24+8
 374              	.LVL14:
 375              		.loc 1 148 5 is_stmt 0 view .LVU120
 376 001e FFF7FEFF 		bl	HAL_GPIO_DeInit
 377              	.LVL15:
 149:Src/usart.c   **** 
 150:Src/usart.c   ****     /* USART1 DMA DeInit */
 151:Src/usart.c   ****     HAL_DMA_DeInit(uartHandle->hdmarx);
 378              		.loc 1 151 5 is_stmt 1 view .LVU121
 379 0022 A06B     		ldr	r0, [r4, #56]
 380 0024 FFF7FEFF 		bl	HAL_DMA_DeInit
 381              	.LVL16:
 152:Src/usart.c   ****     HAL_DMA_DeInit(uartHandle->hdmatx);
 382              		.loc 1 152 5 view .LVU122
 383 0028 606B     		ldr	r0, [r4, #52]
 384 002a FFF7FEFF 		bl	HAL_DMA_DeInit
 385              	.LVL17:
 153:Src/usart.c   **** 
 154:Src/usart.c   ****     /* USART1 interrupt Deinit */
 155:Src/usart.c   ****     HAL_NVIC_DisableIRQ(USART1_IRQn);
 386              		.loc 1 155 5 view .LVU123
 387 002e 2520     		movs	r0, #37
 388 0030 FFF7FEFF 		bl	HAL_NVIC_DisableIRQ
 389              	.LVL18:
 156:Src/usart.c   ****   /* USER CODE BEGIN USART1_MspDeInit 1 */
 157:Src/usart.c   **** 
 158:Src/usart.c   ****   /* USER CODE END USART1_MspDeInit 1 */
 159:Src/usart.c   ****   }
 160:Src/usart.c   **** }
 390              		.loc 1 160 1 is_stmt 0 view .LVU124
 391 0034 10BD     		pop	{r4, pc}
ARM GAS  C:\Users\ADMINI~1\AppData\Local\Temp\ccdyFdU3.s 			page 12


 392              	.LVL19:
 393              	.L25:
 394              		.loc 1 160 1 view .LVU125
 395 0036 00BF     		.align	2
 396              	.L24:
 397 0038 00100140 		.word	1073811456
 398 003c 00380240 		.word	1073887232
 399 0040 00000240 		.word	1073872896
 400              		.cfi_endproc
 401              	.LFE135:
 403              		.global	hdma_usart1_tx
 404              		.global	hdma_usart1_rx
 405              		.global	huart1
 406              		.global	rx_buffer
 407              		.section	.bss.hdma_usart1_rx,"aw",%nobits
 408              		.align	2
 409              		.set	.LANCHOR2,. + 0
 412              	hdma_usart1_rx:
 413 0000 00000000 		.space	96
 413      00000000 
 413      00000000 
 413      00000000 
 413      00000000 
 414              		.section	.bss.hdma_usart1_tx,"aw",%nobits
 415              		.align	2
 416              		.set	.LANCHOR3,. + 0
 419              	hdma_usart1_tx:
 420 0000 00000000 		.space	96
 420      00000000 
 420      00000000 
 420      00000000 
 420      00000000 
 421              		.section	.bss.huart1,"aw",%nobits
 422              		.align	2
 423              		.set	.LANCHOR0,. + 0
 426              	huart1:
 427 0000 00000000 		.space	68
 427      00000000 
 427      00000000 
 427      00000000 
 427      00000000 
 428              		.section	.bss.rx_buffer,"aw",%nobits
 429              		.align	2
 430              		.set	.LANCHOR1,. + 0
 433              	rx_buffer:
 434 0000 00000000 		.space	128
 434      00000000 
 434      00000000 
 434      00000000 
 434      00000000 
 435              		.text
 436              	.Letext0:
 437              		.file 2 "c:\\program files (x86)\\gnu arm embedded toolchain\\10 2021.10\\arm-none-eabi\\include\\
 438              		.file 3 "c:\\program files (x86)\\gnu arm embedded toolchain\\10 2021.10\\arm-none-eabi\\include\\
 439              		.file 4 "Drivers/CMSIS/Device/ST/STM32F4xx/Include/stm32f405xx.h"
 440              		.file 5 "Drivers/STM32F4xx_HAL_Driver/Inc/stm32f4xx_hal_def.h"
 441              		.file 6 "Drivers/STM32F4xx_HAL_Driver/Inc/stm32f4xx_hal_gpio.h"
ARM GAS  C:\Users\ADMINI~1\AppData\Local\Temp\ccdyFdU3.s 			page 13


 442              		.file 7 "Drivers/STM32F4xx_HAL_Driver/Inc/stm32f4xx_hal_dma.h"
 443              		.file 8 "Drivers/STM32F4xx_HAL_Driver/Inc/stm32f4xx_hal_uart.h"
 444              		.file 9 "Inc/usart.h"
 445              		.file 10 "Drivers/STM32F4xx_HAL_Driver/Inc/stm32f4xx_hal_cortex.h"
 446              		.file 11 "Inc/main.h"
 447              		.file 12 "user/retarget.h"
ARM GAS  C:\Users\ADMINI~1\AppData\Local\Temp\ccdyFdU3.s 			page 14

