ARM GAS  C:\Users\ADMINI~1\AppData\Local\Temp\ccoWGqne.s 			page 1


   1              		.cpu cortex-m4
   2              		.arch armv7e-m
   3              		.fpu fpv4-sp-d16
   4              		.eabi_attribute 27, 1
   5              		.eabi_attribute 28, 1
   6              		.eabi_attribute 20, 1
   7              		.eabi_attribute 21, 1
   8              		.eabi_attribute 23, 3
   9              		.eabi_attribute 24, 1
  10              		.eabi_attribute 25, 1
  11              		.eabi_attribute 26, 1
  12              		.eabi_attribute 30, 1
  13              		.eabi_attribute 34, 1
  14              		.eabi_attribute 18, 4
  15              		.file	"usbd_msc_bot.c"
  16              		.text
  17              	.Ltext0:
  18              		.cfi_sections	.debug_frame
  19              		.section	.text.MSC_BOT_SendData,"ax",%progbits
  20              		.align	1
  21              		.syntax unified
  22              		.thumb
  23              		.thumb_func
  25              	MSC_BOT_SendData:
  26              	.LVL0:
  27              	.LFB140:
  28              		.file 1 "Middlewares/ST/STM32_USB_Device_Library/Class/MSC/Src/usbd_msc_bot.c"
   1:Middlewares/ST/STM32_USB_Device_Library/Class/MSC/Src/usbd_msc_bot.c **** /**
   2:Middlewares/ST/STM32_USB_Device_Library/Class/MSC/Src/usbd_msc_bot.c ****   ******************************************************************************
   3:Middlewares/ST/STM32_USB_Device_Library/Class/MSC/Src/usbd_msc_bot.c ****   * @file    usbd_msc_bot.c
   4:Middlewares/ST/STM32_USB_Device_Library/Class/MSC/Src/usbd_msc_bot.c ****   * @author  MCD Application Team
   5:Middlewares/ST/STM32_USB_Device_Library/Class/MSC/Src/usbd_msc_bot.c ****   * @brief   This file provides all the BOT protocol core functions.
   6:Middlewares/ST/STM32_USB_Device_Library/Class/MSC/Src/usbd_msc_bot.c ****   ******************************************************************************
   7:Middlewares/ST/STM32_USB_Device_Library/Class/MSC/Src/usbd_msc_bot.c ****   * @attention
   8:Middlewares/ST/STM32_USB_Device_Library/Class/MSC/Src/usbd_msc_bot.c ****   *
   9:Middlewares/ST/STM32_USB_Device_Library/Class/MSC/Src/usbd_msc_bot.c ****   * Copyright (c) 2015 STMicroelectronics.
  10:Middlewares/ST/STM32_USB_Device_Library/Class/MSC/Src/usbd_msc_bot.c ****   * All rights reserved.
  11:Middlewares/ST/STM32_USB_Device_Library/Class/MSC/Src/usbd_msc_bot.c ****   *
  12:Middlewares/ST/STM32_USB_Device_Library/Class/MSC/Src/usbd_msc_bot.c ****   * This software is licensed under terms that can be found in the LICENSE file
  13:Middlewares/ST/STM32_USB_Device_Library/Class/MSC/Src/usbd_msc_bot.c ****   * in the root directory of this software component.
  14:Middlewares/ST/STM32_USB_Device_Library/Class/MSC/Src/usbd_msc_bot.c ****   * If no LICENSE file comes with this software, it is provided AS-IS.
  15:Middlewares/ST/STM32_USB_Device_Library/Class/MSC/Src/usbd_msc_bot.c ****   *
  16:Middlewares/ST/STM32_USB_Device_Library/Class/MSC/Src/usbd_msc_bot.c ****   ******************************************************************************
  17:Middlewares/ST/STM32_USB_Device_Library/Class/MSC/Src/usbd_msc_bot.c ****   */
  18:Middlewares/ST/STM32_USB_Device_Library/Class/MSC/Src/usbd_msc_bot.c **** 
  19:Middlewares/ST/STM32_USB_Device_Library/Class/MSC/Src/usbd_msc_bot.c **** /* BSPDependencies
  20:Middlewares/ST/STM32_USB_Device_Library/Class/MSC/Src/usbd_msc_bot.c **** - "stm32xxxxx_{eval}{discovery}{nucleo_144}.c"
  21:Middlewares/ST/STM32_USB_Device_Library/Class/MSC/Src/usbd_msc_bot.c **** - "stm32xxxxx_{eval}{discovery}_io.c"
  22:Middlewares/ST/STM32_USB_Device_Library/Class/MSC/Src/usbd_msc_bot.c **** - "stm32xxxxx_{eval}{discovery}{adafruit}_sd.c"
  23:Middlewares/ST/STM32_USB_Device_Library/Class/MSC/Src/usbd_msc_bot.c **** EndBSPDependencies */
  24:Middlewares/ST/STM32_USB_Device_Library/Class/MSC/Src/usbd_msc_bot.c **** 
  25:Middlewares/ST/STM32_USB_Device_Library/Class/MSC/Src/usbd_msc_bot.c **** /* Includes ------------------------------------------------------------------*/
  26:Middlewares/ST/STM32_USB_Device_Library/Class/MSC/Src/usbd_msc_bot.c **** #include "usbd_msc_bot.h"
  27:Middlewares/ST/STM32_USB_Device_Library/Class/MSC/Src/usbd_msc_bot.c **** #include "usbd_msc.h"
  28:Middlewares/ST/STM32_USB_Device_Library/Class/MSC/Src/usbd_msc_bot.c **** #include "usbd_msc_scsi.h"
  29:Middlewares/ST/STM32_USB_Device_Library/Class/MSC/Src/usbd_msc_bot.c **** #include "usbd_ioreq.h"
  30:Middlewares/ST/STM32_USB_Device_Library/Class/MSC/Src/usbd_msc_bot.c **** 
ARM GAS  C:\Users\ADMINI~1\AppData\Local\Temp\ccoWGqne.s 			page 2


  31:Middlewares/ST/STM32_USB_Device_Library/Class/MSC/Src/usbd_msc_bot.c **** /** @addtogroup STM32_USB_DEVICE_LIBRARY
  32:Middlewares/ST/STM32_USB_Device_Library/Class/MSC/Src/usbd_msc_bot.c ****   * @{
  33:Middlewares/ST/STM32_USB_Device_Library/Class/MSC/Src/usbd_msc_bot.c ****   */
  34:Middlewares/ST/STM32_USB_Device_Library/Class/MSC/Src/usbd_msc_bot.c **** 
  35:Middlewares/ST/STM32_USB_Device_Library/Class/MSC/Src/usbd_msc_bot.c **** 
  36:Middlewares/ST/STM32_USB_Device_Library/Class/MSC/Src/usbd_msc_bot.c **** /** @defgroup MSC_BOT
  37:Middlewares/ST/STM32_USB_Device_Library/Class/MSC/Src/usbd_msc_bot.c ****   * @brief BOT protocol module
  38:Middlewares/ST/STM32_USB_Device_Library/Class/MSC/Src/usbd_msc_bot.c ****   * @{
  39:Middlewares/ST/STM32_USB_Device_Library/Class/MSC/Src/usbd_msc_bot.c ****   */
  40:Middlewares/ST/STM32_USB_Device_Library/Class/MSC/Src/usbd_msc_bot.c **** 
  41:Middlewares/ST/STM32_USB_Device_Library/Class/MSC/Src/usbd_msc_bot.c **** /** @defgroup MSC_BOT_Private_TypesDefinitions
  42:Middlewares/ST/STM32_USB_Device_Library/Class/MSC/Src/usbd_msc_bot.c ****   * @{
  43:Middlewares/ST/STM32_USB_Device_Library/Class/MSC/Src/usbd_msc_bot.c ****   */
  44:Middlewares/ST/STM32_USB_Device_Library/Class/MSC/Src/usbd_msc_bot.c **** /**
  45:Middlewares/ST/STM32_USB_Device_Library/Class/MSC/Src/usbd_msc_bot.c ****   * @}
  46:Middlewares/ST/STM32_USB_Device_Library/Class/MSC/Src/usbd_msc_bot.c ****   */
  47:Middlewares/ST/STM32_USB_Device_Library/Class/MSC/Src/usbd_msc_bot.c **** 
  48:Middlewares/ST/STM32_USB_Device_Library/Class/MSC/Src/usbd_msc_bot.c **** 
  49:Middlewares/ST/STM32_USB_Device_Library/Class/MSC/Src/usbd_msc_bot.c **** /** @defgroup MSC_BOT_Private_Defines
  50:Middlewares/ST/STM32_USB_Device_Library/Class/MSC/Src/usbd_msc_bot.c ****   * @{
  51:Middlewares/ST/STM32_USB_Device_Library/Class/MSC/Src/usbd_msc_bot.c ****   */
  52:Middlewares/ST/STM32_USB_Device_Library/Class/MSC/Src/usbd_msc_bot.c **** 
  53:Middlewares/ST/STM32_USB_Device_Library/Class/MSC/Src/usbd_msc_bot.c **** /**
  54:Middlewares/ST/STM32_USB_Device_Library/Class/MSC/Src/usbd_msc_bot.c ****   * @}
  55:Middlewares/ST/STM32_USB_Device_Library/Class/MSC/Src/usbd_msc_bot.c ****   */
  56:Middlewares/ST/STM32_USB_Device_Library/Class/MSC/Src/usbd_msc_bot.c **** 
  57:Middlewares/ST/STM32_USB_Device_Library/Class/MSC/Src/usbd_msc_bot.c **** 
  58:Middlewares/ST/STM32_USB_Device_Library/Class/MSC/Src/usbd_msc_bot.c **** /** @defgroup MSC_BOT_Private_Macros
  59:Middlewares/ST/STM32_USB_Device_Library/Class/MSC/Src/usbd_msc_bot.c ****   * @{
  60:Middlewares/ST/STM32_USB_Device_Library/Class/MSC/Src/usbd_msc_bot.c ****   */
  61:Middlewares/ST/STM32_USB_Device_Library/Class/MSC/Src/usbd_msc_bot.c **** /**
  62:Middlewares/ST/STM32_USB_Device_Library/Class/MSC/Src/usbd_msc_bot.c ****   * @}
  63:Middlewares/ST/STM32_USB_Device_Library/Class/MSC/Src/usbd_msc_bot.c ****   */
  64:Middlewares/ST/STM32_USB_Device_Library/Class/MSC/Src/usbd_msc_bot.c **** 
  65:Middlewares/ST/STM32_USB_Device_Library/Class/MSC/Src/usbd_msc_bot.c **** 
  66:Middlewares/ST/STM32_USB_Device_Library/Class/MSC/Src/usbd_msc_bot.c **** /** @defgroup MSC_BOT_Private_Variables
  67:Middlewares/ST/STM32_USB_Device_Library/Class/MSC/Src/usbd_msc_bot.c ****   * @{
  68:Middlewares/ST/STM32_USB_Device_Library/Class/MSC/Src/usbd_msc_bot.c ****   */
  69:Middlewares/ST/STM32_USB_Device_Library/Class/MSC/Src/usbd_msc_bot.c **** extern uint8_t MSCInEpAdd;
  70:Middlewares/ST/STM32_USB_Device_Library/Class/MSC/Src/usbd_msc_bot.c **** extern uint8_t MSCOutEpAdd;
  71:Middlewares/ST/STM32_USB_Device_Library/Class/MSC/Src/usbd_msc_bot.c **** /**
  72:Middlewares/ST/STM32_USB_Device_Library/Class/MSC/Src/usbd_msc_bot.c ****   * @}
  73:Middlewares/ST/STM32_USB_Device_Library/Class/MSC/Src/usbd_msc_bot.c ****   */
  74:Middlewares/ST/STM32_USB_Device_Library/Class/MSC/Src/usbd_msc_bot.c **** 
  75:Middlewares/ST/STM32_USB_Device_Library/Class/MSC/Src/usbd_msc_bot.c **** 
  76:Middlewares/ST/STM32_USB_Device_Library/Class/MSC/Src/usbd_msc_bot.c **** /** @defgroup MSC_BOT_Private_FunctionPrototypes
  77:Middlewares/ST/STM32_USB_Device_Library/Class/MSC/Src/usbd_msc_bot.c ****   * @{
  78:Middlewares/ST/STM32_USB_Device_Library/Class/MSC/Src/usbd_msc_bot.c ****   */
  79:Middlewares/ST/STM32_USB_Device_Library/Class/MSC/Src/usbd_msc_bot.c **** static void MSC_BOT_SendData(USBD_HandleTypeDef *pdev, uint8_t *pbuf, uint32_t len);
  80:Middlewares/ST/STM32_USB_Device_Library/Class/MSC/Src/usbd_msc_bot.c **** static void MSC_BOT_CBW_Decode(USBD_HandleTypeDef *pdev);
  81:Middlewares/ST/STM32_USB_Device_Library/Class/MSC/Src/usbd_msc_bot.c **** static void MSC_BOT_Abort(USBD_HandleTypeDef *pdev);
  82:Middlewares/ST/STM32_USB_Device_Library/Class/MSC/Src/usbd_msc_bot.c **** /**
  83:Middlewares/ST/STM32_USB_Device_Library/Class/MSC/Src/usbd_msc_bot.c ****   * @}
  84:Middlewares/ST/STM32_USB_Device_Library/Class/MSC/Src/usbd_msc_bot.c ****   */
  85:Middlewares/ST/STM32_USB_Device_Library/Class/MSC/Src/usbd_msc_bot.c **** 
  86:Middlewares/ST/STM32_USB_Device_Library/Class/MSC/Src/usbd_msc_bot.c **** 
  87:Middlewares/ST/STM32_USB_Device_Library/Class/MSC/Src/usbd_msc_bot.c **** /** @defgroup MSC_BOT_Private_Functions
ARM GAS  C:\Users\ADMINI~1\AppData\Local\Temp\ccoWGqne.s 			page 3


  88:Middlewares/ST/STM32_USB_Device_Library/Class/MSC/Src/usbd_msc_bot.c ****   * @{
  89:Middlewares/ST/STM32_USB_Device_Library/Class/MSC/Src/usbd_msc_bot.c ****   */
  90:Middlewares/ST/STM32_USB_Device_Library/Class/MSC/Src/usbd_msc_bot.c **** 
  91:Middlewares/ST/STM32_USB_Device_Library/Class/MSC/Src/usbd_msc_bot.c **** 
  92:Middlewares/ST/STM32_USB_Device_Library/Class/MSC/Src/usbd_msc_bot.c **** /**
  93:Middlewares/ST/STM32_USB_Device_Library/Class/MSC/Src/usbd_msc_bot.c ****   * @brief  MSC_BOT_Init
  94:Middlewares/ST/STM32_USB_Device_Library/Class/MSC/Src/usbd_msc_bot.c ****   *         Initialize the BOT Process
  95:Middlewares/ST/STM32_USB_Device_Library/Class/MSC/Src/usbd_msc_bot.c ****   * @param  pdev: device instance
  96:Middlewares/ST/STM32_USB_Device_Library/Class/MSC/Src/usbd_msc_bot.c ****   * @retval None
  97:Middlewares/ST/STM32_USB_Device_Library/Class/MSC/Src/usbd_msc_bot.c ****   */
  98:Middlewares/ST/STM32_USB_Device_Library/Class/MSC/Src/usbd_msc_bot.c **** void MSC_BOT_Init(USBD_HandleTypeDef *pdev)
  99:Middlewares/ST/STM32_USB_Device_Library/Class/MSC/Src/usbd_msc_bot.c **** {
 100:Middlewares/ST/STM32_USB_Device_Library/Class/MSC/Src/usbd_msc_bot.c ****   USBD_MSC_BOT_HandleTypeDef *hmsc = (USBD_MSC_BOT_HandleTypeDef *)pdev->pClassDataCmsit[pdev->clas
 101:Middlewares/ST/STM32_USB_Device_Library/Class/MSC/Src/usbd_msc_bot.c **** 
 102:Middlewares/ST/STM32_USB_Device_Library/Class/MSC/Src/usbd_msc_bot.c **** #ifdef USE_USBD_COMPOSITE
 103:Middlewares/ST/STM32_USB_Device_Library/Class/MSC/Src/usbd_msc_bot.c ****   /* Get the Endpoints addresses allocated for this class instance */
 104:Middlewares/ST/STM32_USB_Device_Library/Class/MSC/Src/usbd_msc_bot.c ****   MSCInEpAdd  = USBD_CoreGetEPAdd(pdev, USBD_EP_IN, USBD_EP_TYPE_BULK);
 105:Middlewares/ST/STM32_USB_Device_Library/Class/MSC/Src/usbd_msc_bot.c ****   MSCOutEpAdd = USBD_CoreGetEPAdd(pdev, USBD_EP_OUT, USBD_EP_TYPE_BULK);
 106:Middlewares/ST/STM32_USB_Device_Library/Class/MSC/Src/usbd_msc_bot.c **** #endif /* USE_USBD_COMPOSITE */
 107:Middlewares/ST/STM32_USB_Device_Library/Class/MSC/Src/usbd_msc_bot.c **** 
 108:Middlewares/ST/STM32_USB_Device_Library/Class/MSC/Src/usbd_msc_bot.c ****   if (hmsc == NULL)
 109:Middlewares/ST/STM32_USB_Device_Library/Class/MSC/Src/usbd_msc_bot.c ****   {
 110:Middlewares/ST/STM32_USB_Device_Library/Class/MSC/Src/usbd_msc_bot.c ****     return;
 111:Middlewares/ST/STM32_USB_Device_Library/Class/MSC/Src/usbd_msc_bot.c ****   }
 112:Middlewares/ST/STM32_USB_Device_Library/Class/MSC/Src/usbd_msc_bot.c **** 
 113:Middlewares/ST/STM32_USB_Device_Library/Class/MSC/Src/usbd_msc_bot.c ****   hmsc->bot_state = USBD_BOT_IDLE;
 114:Middlewares/ST/STM32_USB_Device_Library/Class/MSC/Src/usbd_msc_bot.c ****   hmsc->bot_status = USBD_BOT_STATUS_NORMAL;
 115:Middlewares/ST/STM32_USB_Device_Library/Class/MSC/Src/usbd_msc_bot.c **** 
 116:Middlewares/ST/STM32_USB_Device_Library/Class/MSC/Src/usbd_msc_bot.c ****   hmsc->scsi_sense_tail = 0U;
 117:Middlewares/ST/STM32_USB_Device_Library/Class/MSC/Src/usbd_msc_bot.c ****   hmsc->scsi_sense_head = 0U;
 118:Middlewares/ST/STM32_USB_Device_Library/Class/MSC/Src/usbd_msc_bot.c ****   hmsc->scsi_medium_state = SCSI_MEDIUM_UNLOCKED;
 119:Middlewares/ST/STM32_USB_Device_Library/Class/MSC/Src/usbd_msc_bot.c **** 
 120:Middlewares/ST/STM32_USB_Device_Library/Class/MSC/Src/usbd_msc_bot.c ****   ((USBD_StorageTypeDef *)pdev->pUserData[pdev->classId])->Init(0U);
 121:Middlewares/ST/STM32_USB_Device_Library/Class/MSC/Src/usbd_msc_bot.c **** 
 122:Middlewares/ST/STM32_USB_Device_Library/Class/MSC/Src/usbd_msc_bot.c ****   (void)USBD_LL_FlushEP(pdev, MSCOutEpAdd);
 123:Middlewares/ST/STM32_USB_Device_Library/Class/MSC/Src/usbd_msc_bot.c ****   (void)USBD_LL_FlushEP(pdev, MSCInEpAdd);
 124:Middlewares/ST/STM32_USB_Device_Library/Class/MSC/Src/usbd_msc_bot.c **** 
 125:Middlewares/ST/STM32_USB_Device_Library/Class/MSC/Src/usbd_msc_bot.c ****   /* Prepare EP to Receive First BOT Cmd */
 126:Middlewares/ST/STM32_USB_Device_Library/Class/MSC/Src/usbd_msc_bot.c ****   (void)USBD_LL_PrepareReceive(pdev, MSCOutEpAdd, (uint8_t *)&hmsc->cbw,
 127:Middlewares/ST/STM32_USB_Device_Library/Class/MSC/Src/usbd_msc_bot.c ****                                USBD_BOT_CBW_LENGTH);
 128:Middlewares/ST/STM32_USB_Device_Library/Class/MSC/Src/usbd_msc_bot.c **** }
 129:Middlewares/ST/STM32_USB_Device_Library/Class/MSC/Src/usbd_msc_bot.c **** 
 130:Middlewares/ST/STM32_USB_Device_Library/Class/MSC/Src/usbd_msc_bot.c **** /**
 131:Middlewares/ST/STM32_USB_Device_Library/Class/MSC/Src/usbd_msc_bot.c ****   * @brief  MSC_BOT_Reset
 132:Middlewares/ST/STM32_USB_Device_Library/Class/MSC/Src/usbd_msc_bot.c ****   *         Reset the BOT Machine
 133:Middlewares/ST/STM32_USB_Device_Library/Class/MSC/Src/usbd_msc_bot.c ****   * @param  pdev: device instance
 134:Middlewares/ST/STM32_USB_Device_Library/Class/MSC/Src/usbd_msc_bot.c ****   * @retval  None
 135:Middlewares/ST/STM32_USB_Device_Library/Class/MSC/Src/usbd_msc_bot.c ****   */
 136:Middlewares/ST/STM32_USB_Device_Library/Class/MSC/Src/usbd_msc_bot.c **** void MSC_BOT_Reset(USBD_HandleTypeDef *pdev)
 137:Middlewares/ST/STM32_USB_Device_Library/Class/MSC/Src/usbd_msc_bot.c **** {
 138:Middlewares/ST/STM32_USB_Device_Library/Class/MSC/Src/usbd_msc_bot.c ****   USBD_MSC_BOT_HandleTypeDef *hmsc = (USBD_MSC_BOT_HandleTypeDef *)pdev->pClassDataCmsit[pdev->clas
 139:Middlewares/ST/STM32_USB_Device_Library/Class/MSC/Src/usbd_msc_bot.c **** 
 140:Middlewares/ST/STM32_USB_Device_Library/Class/MSC/Src/usbd_msc_bot.c **** #ifdef USE_USBD_COMPOSITE
 141:Middlewares/ST/STM32_USB_Device_Library/Class/MSC/Src/usbd_msc_bot.c ****   /* Get the Endpoints addresses allocated for this class instance */
 142:Middlewares/ST/STM32_USB_Device_Library/Class/MSC/Src/usbd_msc_bot.c ****   MSCInEpAdd  = USBD_CoreGetEPAdd(pdev, USBD_EP_IN, USBD_EP_TYPE_BULK);
 143:Middlewares/ST/STM32_USB_Device_Library/Class/MSC/Src/usbd_msc_bot.c ****   MSCOutEpAdd = USBD_CoreGetEPAdd(pdev, USBD_EP_OUT, USBD_EP_TYPE_BULK);
 144:Middlewares/ST/STM32_USB_Device_Library/Class/MSC/Src/usbd_msc_bot.c **** #endif /* USE_USBD_COMPOSITE */
ARM GAS  C:\Users\ADMINI~1\AppData\Local\Temp\ccoWGqne.s 			page 4


 145:Middlewares/ST/STM32_USB_Device_Library/Class/MSC/Src/usbd_msc_bot.c **** 
 146:Middlewares/ST/STM32_USB_Device_Library/Class/MSC/Src/usbd_msc_bot.c ****   if (hmsc == NULL)
 147:Middlewares/ST/STM32_USB_Device_Library/Class/MSC/Src/usbd_msc_bot.c ****   {
 148:Middlewares/ST/STM32_USB_Device_Library/Class/MSC/Src/usbd_msc_bot.c ****     return;
 149:Middlewares/ST/STM32_USB_Device_Library/Class/MSC/Src/usbd_msc_bot.c ****   }
 150:Middlewares/ST/STM32_USB_Device_Library/Class/MSC/Src/usbd_msc_bot.c **** 
 151:Middlewares/ST/STM32_USB_Device_Library/Class/MSC/Src/usbd_msc_bot.c ****   hmsc->bot_state  = USBD_BOT_IDLE;
 152:Middlewares/ST/STM32_USB_Device_Library/Class/MSC/Src/usbd_msc_bot.c ****   hmsc->bot_status = USBD_BOT_STATUS_RECOVERY;
 153:Middlewares/ST/STM32_USB_Device_Library/Class/MSC/Src/usbd_msc_bot.c **** 
 154:Middlewares/ST/STM32_USB_Device_Library/Class/MSC/Src/usbd_msc_bot.c ****   (void)USBD_LL_ClearStallEP(pdev, MSCInEpAdd);
 155:Middlewares/ST/STM32_USB_Device_Library/Class/MSC/Src/usbd_msc_bot.c ****   (void)USBD_LL_ClearStallEP(pdev, MSCOutEpAdd);
 156:Middlewares/ST/STM32_USB_Device_Library/Class/MSC/Src/usbd_msc_bot.c **** 
 157:Middlewares/ST/STM32_USB_Device_Library/Class/MSC/Src/usbd_msc_bot.c ****   /* Prepare EP to Receive First BOT Cmd */
 158:Middlewares/ST/STM32_USB_Device_Library/Class/MSC/Src/usbd_msc_bot.c ****   (void)USBD_LL_PrepareReceive(pdev, MSCOutEpAdd, (uint8_t *)&hmsc->cbw,
 159:Middlewares/ST/STM32_USB_Device_Library/Class/MSC/Src/usbd_msc_bot.c ****                                USBD_BOT_CBW_LENGTH);
 160:Middlewares/ST/STM32_USB_Device_Library/Class/MSC/Src/usbd_msc_bot.c **** }
 161:Middlewares/ST/STM32_USB_Device_Library/Class/MSC/Src/usbd_msc_bot.c **** 
 162:Middlewares/ST/STM32_USB_Device_Library/Class/MSC/Src/usbd_msc_bot.c **** /**
 163:Middlewares/ST/STM32_USB_Device_Library/Class/MSC/Src/usbd_msc_bot.c ****   * @brief  MSC_BOT_DeInit
 164:Middlewares/ST/STM32_USB_Device_Library/Class/MSC/Src/usbd_msc_bot.c ****   *         DeInitialize the BOT Machine
 165:Middlewares/ST/STM32_USB_Device_Library/Class/MSC/Src/usbd_msc_bot.c ****   * @param  pdev: device instance
 166:Middlewares/ST/STM32_USB_Device_Library/Class/MSC/Src/usbd_msc_bot.c ****   * @retval None
 167:Middlewares/ST/STM32_USB_Device_Library/Class/MSC/Src/usbd_msc_bot.c ****   */
 168:Middlewares/ST/STM32_USB_Device_Library/Class/MSC/Src/usbd_msc_bot.c **** void MSC_BOT_DeInit(USBD_HandleTypeDef  *pdev)
 169:Middlewares/ST/STM32_USB_Device_Library/Class/MSC/Src/usbd_msc_bot.c **** {
 170:Middlewares/ST/STM32_USB_Device_Library/Class/MSC/Src/usbd_msc_bot.c ****   USBD_MSC_BOT_HandleTypeDef *hmsc = (USBD_MSC_BOT_HandleTypeDef *)pdev->pClassDataCmsit[pdev->clas
 171:Middlewares/ST/STM32_USB_Device_Library/Class/MSC/Src/usbd_msc_bot.c **** 
 172:Middlewares/ST/STM32_USB_Device_Library/Class/MSC/Src/usbd_msc_bot.c ****   if (hmsc != NULL)
 173:Middlewares/ST/STM32_USB_Device_Library/Class/MSC/Src/usbd_msc_bot.c ****   {
 174:Middlewares/ST/STM32_USB_Device_Library/Class/MSC/Src/usbd_msc_bot.c ****     hmsc->bot_state = USBD_BOT_IDLE;
 175:Middlewares/ST/STM32_USB_Device_Library/Class/MSC/Src/usbd_msc_bot.c ****   }
 176:Middlewares/ST/STM32_USB_Device_Library/Class/MSC/Src/usbd_msc_bot.c **** }
 177:Middlewares/ST/STM32_USB_Device_Library/Class/MSC/Src/usbd_msc_bot.c **** 
 178:Middlewares/ST/STM32_USB_Device_Library/Class/MSC/Src/usbd_msc_bot.c **** /**
 179:Middlewares/ST/STM32_USB_Device_Library/Class/MSC/Src/usbd_msc_bot.c ****   * @brief  MSC_BOT_DataIn
 180:Middlewares/ST/STM32_USB_Device_Library/Class/MSC/Src/usbd_msc_bot.c ****   *         Handle BOT IN data stage
 181:Middlewares/ST/STM32_USB_Device_Library/Class/MSC/Src/usbd_msc_bot.c ****   * @param  pdev: device instance
 182:Middlewares/ST/STM32_USB_Device_Library/Class/MSC/Src/usbd_msc_bot.c ****   * @param  epnum: endpoint index
 183:Middlewares/ST/STM32_USB_Device_Library/Class/MSC/Src/usbd_msc_bot.c ****   * @retval None
 184:Middlewares/ST/STM32_USB_Device_Library/Class/MSC/Src/usbd_msc_bot.c ****   */
 185:Middlewares/ST/STM32_USB_Device_Library/Class/MSC/Src/usbd_msc_bot.c **** void MSC_BOT_DataIn(USBD_HandleTypeDef *pdev, uint8_t epnum)
 186:Middlewares/ST/STM32_USB_Device_Library/Class/MSC/Src/usbd_msc_bot.c **** {
 187:Middlewares/ST/STM32_USB_Device_Library/Class/MSC/Src/usbd_msc_bot.c ****   UNUSED(epnum);
 188:Middlewares/ST/STM32_USB_Device_Library/Class/MSC/Src/usbd_msc_bot.c **** 
 189:Middlewares/ST/STM32_USB_Device_Library/Class/MSC/Src/usbd_msc_bot.c ****   USBD_MSC_BOT_HandleTypeDef *hmsc = (USBD_MSC_BOT_HandleTypeDef *)pdev->pClassDataCmsit[pdev->clas
 190:Middlewares/ST/STM32_USB_Device_Library/Class/MSC/Src/usbd_msc_bot.c **** 
 191:Middlewares/ST/STM32_USB_Device_Library/Class/MSC/Src/usbd_msc_bot.c ****   if (hmsc == NULL)
 192:Middlewares/ST/STM32_USB_Device_Library/Class/MSC/Src/usbd_msc_bot.c ****   {
 193:Middlewares/ST/STM32_USB_Device_Library/Class/MSC/Src/usbd_msc_bot.c ****     return;
 194:Middlewares/ST/STM32_USB_Device_Library/Class/MSC/Src/usbd_msc_bot.c ****   }
 195:Middlewares/ST/STM32_USB_Device_Library/Class/MSC/Src/usbd_msc_bot.c **** 
 196:Middlewares/ST/STM32_USB_Device_Library/Class/MSC/Src/usbd_msc_bot.c ****   switch (hmsc->bot_state)
 197:Middlewares/ST/STM32_USB_Device_Library/Class/MSC/Src/usbd_msc_bot.c ****   {
 198:Middlewares/ST/STM32_USB_Device_Library/Class/MSC/Src/usbd_msc_bot.c ****     case USBD_BOT_DATA_IN:
 199:Middlewares/ST/STM32_USB_Device_Library/Class/MSC/Src/usbd_msc_bot.c ****       if (SCSI_ProcessCmd(pdev, hmsc->cbw.bLUN, &hmsc->cbw.CB[0]) < 0)
 200:Middlewares/ST/STM32_USB_Device_Library/Class/MSC/Src/usbd_msc_bot.c ****       {
 201:Middlewares/ST/STM32_USB_Device_Library/Class/MSC/Src/usbd_msc_bot.c ****         MSC_BOT_SendCSW(pdev, USBD_CSW_CMD_FAILED);
ARM GAS  C:\Users\ADMINI~1\AppData\Local\Temp\ccoWGqne.s 			page 5


 202:Middlewares/ST/STM32_USB_Device_Library/Class/MSC/Src/usbd_msc_bot.c ****       }
 203:Middlewares/ST/STM32_USB_Device_Library/Class/MSC/Src/usbd_msc_bot.c ****       break;
 204:Middlewares/ST/STM32_USB_Device_Library/Class/MSC/Src/usbd_msc_bot.c **** 
 205:Middlewares/ST/STM32_USB_Device_Library/Class/MSC/Src/usbd_msc_bot.c ****     case USBD_BOT_SEND_DATA:
 206:Middlewares/ST/STM32_USB_Device_Library/Class/MSC/Src/usbd_msc_bot.c ****     case USBD_BOT_LAST_DATA_IN:
 207:Middlewares/ST/STM32_USB_Device_Library/Class/MSC/Src/usbd_msc_bot.c ****       MSC_BOT_SendCSW(pdev, USBD_CSW_CMD_PASSED);
 208:Middlewares/ST/STM32_USB_Device_Library/Class/MSC/Src/usbd_msc_bot.c ****       break;
 209:Middlewares/ST/STM32_USB_Device_Library/Class/MSC/Src/usbd_msc_bot.c **** 
 210:Middlewares/ST/STM32_USB_Device_Library/Class/MSC/Src/usbd_msc_bot.c ****     default:
 211:Middlewares/ST/STM32_USB_Device_Library/Class/MSC/Src/usbd_msc_bot.c ****       break;
 212:Middlewares/ST/STM32_USB_Device_Library/Class/MSC/Src/usbd_msc_bot.c ****   }
 213:Middlewares/ST/STM32_USB_Device_Library/Class/MSC/Src/usbd_msc_bot.c **** }
 214:Middlewares/ST/STM32_USB_Device_Library/Class/MSC/Src/usbd_msc_bot.c **** /**
 215:Middlewares/ST/STM32_USB_Device_Library/Class/MSC/Src/usbd_msc_bot.c ****   * @brief  MSC_BOT_DataOut
 216:Middlewares/ST/STM32_USB_Device_Library/Class/MSC/Src/usbd_msc_bot.c ****   *         Process MSC OUT data
 217:Middlewares/ST/STM32_USB_Device_Library/Class/MSC/Src/usbd_msc_bot.c ****   * @param  pdev: device instance
 218:Middlewares/ST/STM32_USB_Device_Library/Class/MSC/Src/usbd_msc_bot.c ****   * @param  epnum: endpoint index
 219:Middlewares/ST/STM32_USB_Device_Library/Class/MSC/Src/usbd_msc_bot.c ****   * @retval None
 220:Middlewares/ST/STM32_USB_Device_Library/Class/MSC/Src/usbd_msc_bot.c ****   */
 221:Middlewares/ST/STM32_USB_Device_Library/Class/MSC/Src/usbd_msc_bot.c **** void MSC_BOT_DataOut(USBD_HandleTypeDef *pdev, uint8_t epnum)
 222:Middlewares/ST/STM32_USB_Device_Library/Class/MSC/Src/usbd_msc_bot.c **** {
 223:Middlewares/ST/STM32_USB_Device_Library/Class/MSC/Src/usbd_msc_bot.c ****   UNUSED(epnum);
 224:Middlewares/ST/STM32_USB_Device_Library/Class/MSC/Src/usbd_msc_bot.c **** 
 225:Middlewares/ST/STM32_USB_Device_Library/Class/MSC/Src/usbd_msc_bot.c ****   USBD_MSC_BOT_HandleTypeDef *hmsc = (USBD_MSC_BOT_HandleTypeDef *)pdev->pClassDataCmsit[pdev->clas
 226:Middlewares/ST/STM32_USB_Device_Library/Class/MSC/Src/usbd_msc_bot.c **** 
 227:Middlewares/ST/STM32_USB_Device_Library/Class/MSC/Src/usbd_msc_bot.c ****   if (hmsc == NULL)
 228:Middlewares/ST/STM32_USB_Device_Library/Class/MSC/Src/usbd_msc_bot.c ****   {
 229:Middlewares/ST/STM32_USB_Device_Library/Class/MSC/Src/usbd_msc_bot.c ****     return;
 230:Middlewares/ST/STM32_USB_Device_Library/Class/MSC/Src/usbd_msc_bot.c ****   }
 231:Middlewares/ST/STM32_USB_Device_Library/Class/MSC/Src/usbd_msc_bot.c **** 
 232:Middlewares/ST/STM32_USB_Device_Library/Class/MSC/Src/usbd_msc_bot.c ****   switch (hmsc->bot_state)
 233:Middlewares/ST/STM32_USB_Device_Library/Class/MSC/Src/usbd_msc_bot.c ****   {
 234:Middlewares/ST/STM32_USB_Device_Library/Class/MSC/Src/usbd_msc_bot.c ****     case USBD_BOT_IDLE:
 235:Middlewares/ST/STM32_USB_Device_Library/Class/MSC/Src/usbd_msc_bot.c ****       MSC_BOT_CBW_Decode(pdev);
 236:Middlewares/ST/STM32_USB_Device_Library/Class/MSC/Src/usbd_msc_bot.c ****       break;
 237:Middlewares/ST/STM32_USB_Device_Library/Class/MSC/Src/usbd_msc_bot.c **** 
 238:Middlewares/ST/STM32_USB_Device_Library/Class/MSC/Src/usbd_msc_bot.c ****     case USBD_BOT_DATA_OUT:
 239:Middlewares/ST/STM32_USB_Device_Library/Class/MSC/Src/usbd_msc_bot.c ****       if (SCSI_ProcessCmd(pdev, hmsc->cbw.bLUN, &hmsc->cbw.CB[0]) < 0)
 240:Middlewares/ST/STM32_USB_Device_Library/Class/MSC/Src/usbd_msc_bot.c ****       {
 241:Middlewares/ST/STM32_USB_Device_Library/Class/MSC/Src/usbd_msc_bot.c ****         MSC_BOT_SendCSW(pdev, USBD_CSW_CMD_FAILED);
 242:Middlewares/ST/STM32_USB_Device_Library/Class/MSC/Src/usbd_msc_bot.c ****       }
 243:Middlewares/ST/STM32_USB_Device_Library/Class/MSC/Src/usbd_msc_bot.c ****       break;
 244:Middlewares/ST/STM32_USB_Device_Library/Class/MSC/Src/usbd_msc_bot.c **** 
 245:Middlewares/ST/STM32_USB_Device_Library/Class/MSC/Src/usbd_msc_bot.c ****     default:
 246:Middlewares/ST/STM32_USB_Device_Library/Class/MSC/Src/usbd_msc_bot.c ****       break;
 247:Middlewares/ST/STM32_USB_Device_Library/Class/MSC/Src/usbd_msc_bot.c ****   }
 248:Middlewares/ST/STM32_USB_Device_Library/Class/MSC/Src/usbd_msc_bot.c **** }
 249:Middlewares/ST/STM32_USB_Device_Library/Class/MSC/Src/usbd_msc_bot.c **** 
 250:Middlewares/ST/STM32_USB_Device_Library/Class/MSC/Src/usbd_msc_bot.c **** /**
 251:Middlewares/ST/STM32_USB_Device_Library/Class/MSC/Src/usbd_msc_bot.c ****   * @brief  MSC_BOT_CBW_Decode
 252:Middlewares/ST/STM32_USB_Device_Library/Class/MSC/Src/usbd_msc_bot.c ****   *         Decode the CBW command and set the BOT state machine accordingly
 253:Middlewares/ST/STM32_USB_Device_Library/Class/MSC/Src/usbd_msc_bot.c ****   * @param  pdev: device instance
 254:Middlewares/ST/STM32_USB_Device_Library/Class/MSC/Src/usbd_msc_bot.c ****   * @retval None
 255:Middlewares/ST/STM32_USB_Device_Library/Class/MSC/Src/usbd_msc_bot.c ****   */
 256:Middlewares/ST/STM32_USB_Device_Library/Class/MSC/Src/usbd_msc_bot.c **** static void  MSC_BOT_CBW_Decode(USBD_HandleTypeDef *pdev)
 257:Middlewares/ST/STM32_USB_Device_Library/Class/MSC/Src/usbd_msc_bot.c **** {
 258:Middlewares/ST/STM32_USB_Device_Library/Class/MSC/Src/usbd_msc_bot.c ****   USBD_MSC_BOT_HandleTypeDef *hmsc = (USBD_MSC_BOT_HandleTypeDef *)pdev->pClassDataCmsit[pdev->clas
ARM GAS  C:\Users\ADMINI~1\AppData\Local\Temp\ccoWGqne.s 			page 6


 259:Middlewares/ST/STM32_USB_Device_Library/Class/MSC/Src/usbd_msc_bot.c **** 
 260:Middlewares/ST/STM32_USB_Device_Library/Class/MSC/Src/usbd_msc_bot.c **** #ifdef USE_USBD_COMPOSITE
 261:Middlewares/ST/STM32_USB_Device_Library/Class/MSC/Src/usbd_msc_bot.c ****   /* Get the Endpoints addresses allocated for this class instance */
 262:Middlewares/ST/STM32_USB_Device_Library/Class/MSC/Src/usbd_msc_bot.c ****   MSCInEpAdd  = USBD_CoreGetEPAdd(pdev, USBD_EP_IN, USBD_EP_TYPE_BULK);
 263:Middlewares/ST/STM32_USB_Device_Library/Class/MSC/Src/usbd_msc_bot.c ****   MSCOutEpAdd = USBD_CoreGetEPAdd(pdev, USBD_EP_OUT, USBD_EP_TYPE_BULK);
 264:Middlewares/ST/STM32_USB_Device_Library/Class/MSC/Src/usbd_msc_bot.c **** #endif /* USE_USBD_COMPOSITE */
 265:Middlewares/ST/STM32_USB_Device_Library/Class/MSC/Src/usbd_msc_bot.c **** 
 266:Middlewares/ST/STM32_USB_Device_Library/Class/MSC/Src/usbd_msc_bot.c ****   if (hmsc == NULL)
 267:Middlewares/ST/STM32_USB_Device_Library/Class/MSC/Src/usbd_msc_bot.c ****   {
 268:Middlewares/ST/STM32_USB_Device_Library/Class/MSC/Src/usbd_msc_bot.c ****     return;
 269:Middlewares/ST/STM32_USB_Device_Library/Class/MSC/Src/usbd_msc_bot.c ****   }
 270:Middlewares/ST/STM32_USB_Device_Library/Class/MSC/Src/usbd_msc_bot.c **** 
 271:Middlewares/ST/STM32_USB_Device_Library/Class/MSC/Src/usbd_msc_bot.c ****   hmsc->csw.dTag = hmsc->cbw.dTag;
 272:Middlewares/ST/STM32_USB_Device_Library/Class/MSC/Src/usbd_msc_bot.c ****   hmsc->csw.dDataResidue = hmsc->cbw.dDataLength;
 273:Middlewares/ST/STM32_USB_Device_Library/Class/MSC/Src/usbd_msc_bot.c **** 
 274:Middlewares/ST/STM32_USB_Device_Library/Class/MSC/Src/usbd_msc_bot.c ****   if ((USBD_LL_GetRxDataSize(pdev, MSCOutEpAdd) != USBD_BOT_CBW_LENGTH) ||
 275:Middlewares/ST/STM32_USB_Device_Library/Class/MSC/Src/usbd_msc_bot.c ****       (hmsc->cbw.dSignature != USBD_BOT_CBW_SIGNATURE) ||
 276:Middlewares/ST/STM32_USB_Device_Library/Class/MSC/Src/usbd_msc_bot.c ****       (hmsc->cbw.bLUN > 1U) || (hmsc->cbw.bCBLength < 1U) ||
 277:Middlewares/ST/STM32_USB_Device_Library/Class/MSC/Src/usbd_msc_bot.c ****       (hmsc->cbw.bCBLength > 16U))
 278:Middlewares/ST/STM32_USB_Device_Library/Class/MSC/Src/usbd_msc_bot.c ****   {
 279:Middlewares/ST/STM32_USB_Device_Library/Class/MSC/Src/usbd_msc_bot.c ****     SCSI_SenseCode(pdev, hmsc->cbw.bLUN, ILLEGAL_REQUEST, INVALID_CDB);
 280:Middlewares/ST/STM32_USB_Device_Library/Class/MSC/Src/usbd_msc_bot.c **** 
 281:Middlewares/ST/STM32_USB_Device_Library/Class/MSC/Src/usbd_msc_bot.c ****     hmsc->bot_status = USBD_BOT_STATUS_ERROR;
 282:Middlewares/ST/STM32_USB_Device_Library/Class/MSC/Src/usbd_msc_bot.c ****     MSC_BOT_Abort(pdev);
 283:Middlewares/ST/STM32_USB_Device_Library/Class/MSC/Src/usbd_msc_bot.c ****   }
 284:Middlewares/ST/STM32_USB_Device_Library/Class/MSC/Src/usbd_msc_bot.c ****   else
 285:Middlewares/ST/STM32_USB_Device_Library/Class/MSC/Src/usbd_msc_bot.c ****   {
 286:Middlewares/ST/STM32_USB_Device_Library/Class/MSC/Src/usbd_msc_bot.c ****     if (SCSI_ProcessCmd(pdev, hmsc->cbw.bLUN, &hmsc->cbw.CB[0]) < 0)
 287:Middlewares/ST/STM32_USB_Device_Library/Class/MSC/Src/usbd_msc_bot.c ****     {
 288:Middlewares/ST/STM32_USB_Device_Library/Class/MSC/Src/usbd_msc_bot.c ****       if (hmsc->bot_state == USBD_BOT_NO_DATA)
 289:Middlewares/ST/STM32_USB_Device_Library/Class/MSC/Src/usbd_msc_bot.c ****       {
 290:Middlewares/ST/STM32_USB_Device_Library/Class/MSC/Src/usbd_msc_bot.c ****         MSC_BOT_SendCSW(pdev, USBD_CSW_CMD_FAILED);
 291:Middlewares/ST/STM32_USB_Device_Library/Class/MSC/Src/usbd_msc_bot.c ****       }
 292:Middlewares/ST/STM32_USB_Device_Library/Class/MSC/Src/usbd_msc_bot.c ****       else
 293:Middlewares/ST/STM32_USB_Device_Library/Class/MSC/Src/usbd_msc_bot.c ****       {
 294:Middlewares/ST/STM32_USB_Device_Library/Class/MSC/Src/usbd_msc_bot.c ****         MSC_BOT_Abort(pdev);
 295:Middlewares/ST/STM32_USB_Device_Library/Class/MSC/Src/usbd_msc_bot.c ****       }
 296:Middlewares/ST/STM32_USB_Device_Library/Class/MSC/Src/usbd_msc_bot.c ****     }
 297:Middlewares/ST/STM32_USB_Device_Library/Class/MSC/Src/usbd_msc_bot.c ****     /* Burst xfer handled internally */
 298:Middlewares/ST/STM32_USB_Device_Library/Class/MSC/Src/usbd_msc_bot.c ****     else if ((hmsc->bot_state != USBD_BOT_DATA_IN) &&
 299:Middlewares/ST/STM32_USB_Device_Library/Class/MSC/Src/usbd_msc_bot.c ****              (hmsc->bot_state != USBD_BOT_DATA_OUT) &&
 300:Middlewares/ST/STM32_USB_Device_Library/Class/MSC/Src/usbd_msc_bot.c ****              (hmsc->bot_state != USBD_BOT_LAST_DATA_IN))
 301:Middlewares/ST/STM32_USB_Device_Library/Class/MSC/Src/usbd_msc_bot.c ****     {
 302:Middlewares/ST/STM32_USB_Device_Library/Class/MSC/Src/usbd_msc_bot.c ****       if (hmsc->bot_data_length > 0U)
 303:Middlewares/ST/STM32_USB_Device_Library/Class/MSC/Src/usbd_msc_bot.c ****       {
 304:Middlewares/ST/STM32_USB_Device_Library/Class/MSC/Src/usbd_msc_bot.c ****         MSC_BOT_SendData(pdev, hmsc->bot_data, hmsc->bot_data_length);
 305:Middlewares/ST/STM32_USB_Device_Library/Class/MSC/Src/usbd_msc_bot.c ****       }
 306:Middlewares/ST/STM32_USB_Device_Library/Class/MSC/Src/usbd_msc_bot.c ****       else if (hmsc->bot_data_length == 0U)
 307:Middlewares/ST/STM32_USB_Device_Library/Class/MSC/Src/usbd_msc_bot.c ****       {
 308:Middlewares/ST/STM32_USB_Device_Library/Class/MSC/Src/usbd_msc_bot.c ****         MSC_BOT_SendCSW(pdev, USBD_CSW_CMD_PASSED);
 309:Middlewares/ST/STM32_USB_Device_Library/Class/MSC/Src/usbd_msc_bot.c ****       }
 310:Middlewares/ST/STM32_USB_Device_Library/Class/MSC/Src/usbd_msc_bot.c ****       else
 311:Middlewares/ST/STM32_USB_Device_Library/Class/MSC/Src/usbd_msc_bot.c ****       {
 312:Middlewares/ST/STM32_USB_Device_Library/Class/MSC/Src/usbd_msc_bot.c ****         MSC_BOT_Abort(pdev);
 313:Middlewares/ST/STM32_USB_Device_Library/Class/MSC/Src/usbd_msc_bot.c ****       }
 314:Middlewares/ST/STM32_USB_Device_Library/Class/MSC/Src/usbd_msc_bot.c ****     }
 315:Middlewares/ST/STM32_USB_Device_Library/Class/MSC/Src/usbd_msc_bot.c ****     else
ARM GAS  C:\Users\ADMINI~1\AppData\Local\Temp\ccoWGqne.s 			page 7


 316:Middlewares/ST/STM32_USB_Device_Library/Class/MSC/Src/usbd_msc_bot.c ****     {
 317:Middlewares/ST/STM32_USB_Device_Library/Class/MSC/Src/usbd_msc_bot.c ****       return;
 318:Middlewares/ST/STM32_USB_Device_Library/Class/MSC/Src/usbd_msc_bot.c ****     }
 319:Middlewares/ST/STM32_USB_Device_Library/Class/MSC/Src/usbd_msc_bot.c ****   }
 320:Middlewares/ST/STM32_USB_Device_Library/Class/MSC/Src/usbd_msc_bot.c **** }
 321:Middlewares/ST/STM32_USB_Device_Library/Class/MSC/Src/usbd_msc_bot.c **** 
 322:Middlewares/ST/STM32_USB_Device_Library/Class/MSC/Src/usbd_msc_bot.c **** /**
 323:Middlewares/ST/STM32_USB_Device_Library/Class/MSC/Src/usbd_msc_bot.c ****   * @brief  MSC_BOT_SendData
 324:Middlewares/ST/STM32_USB_Device_Library/Class/MSC/Src/usbd_msc_bot.c ****   *         Send the requested data
 325:Middlewares/ST/STM32_USB_Device_Library/Class/MSC/Src/usbd_msc_bot.c ****   * @param  pdev: device instance
 326:Middlewares/ST/STM32_USB_Device_Library/Class/MSC/Src/usbd_msc_bot.c ****   * @param  buf: pointer to data buffer
 327:Middlewares/ST/STM32_USB_Device_Library/Class/MSC/Src/usbd_msc_bot.c ****   * @param  len: Data Length
 328:Middlewares/ST/STM32_USB_Device_Library/Class/MSC/Src/usbd_msc_bot.c ****   * @retval None
 329:Middlewares/ST/STM32_USB_Device_Library/Class/MSC/Src/usbd_msc_bot.c ****   */
 330:Middlewares/ST/STM32_USB_Device_Library/Class/MSC/Src/usbd_msc_bot.c **** static void  MSC_BOT_SendData(USBD_HandleTypeDef *pdev, uint8_t *pbuf, uint32_t len)
 331:Middlewares/ST/STM32_USB_Device_Library/Class/MSC/Src/usbd_msc_bot.c **** {
  29              		.loc 1 331 1 view -0
  30              		.cfi_startproc
  31              		@ args = 0, pretend = 0, frame = 0
  32              		@ frame_needed = 0, uses_anonymous_args = 0
  33              		.loc 1 331 1 is_stmt 0 view .LVU1
  34 0000 38B5     		push	{r3, r4, r5, lr}
  35              	.LCFI0:
  36              		.cfi_def_cfa_offset 16
  37              		.cfi_offset 3, -16
  38              		.cfi_offset 4, -12
  39              		.cfi_offset 5, -8
  40              		.cfi_offset 14, -4
 332:Middlewares/ST/STM32_USB_Device_Library/Class/MSC/Src/usbd_msc_bot.c ****   USBD_MSC_BOT_HandleTypeDef *hmsc = (USBD_MSC_BOT_HandleTypeDef *)pdev->pClassDataCmsit[pdev->clas
  41              		.loc 1 332 3 is_stmt 1 view .LVU2
  42              		.loc 1 332 94 is_stmt 0 view .LVU3
  43 0002 D0F8D432 		ldr	r3, [r0, #724]
  44              		.loc 1 332 31 view .LVU4
  45 0006 B033     		adds	r3, r3, #176
  46 0008 50F82340 		ldr	r4, [r0, r3, lsl #2]
  47              	.LVL1:
 333:Middlewares/ST/STM32_USB_Device_Library/Class/MSC/Src/usbd_msc_bot.c **** 
 334:Middlewares/ST/STM32_USB_Device_Library/Class/MSC/Src/usbd_msc_bot.c ****   uint32_t length;
  48              		.loc 1 334 3 is_stmt 1 view .LVU5
 335:Middlewares/ST/STM32_USB_Device_Library/Class/MSC/Src/usbd_msc_bot.c **** 
 336:Middlewares/ST/STM32_USB_Device_Library/Class/MSC/Src/usbd_msc_bot.c **** #ifdef USE_USBD_COMPOSITE
 337:Middlewares/ST/STM32_USB_Device_Library/Class/MSC/Src/usbd_msc_bot.c ****   /* Get the Endpoints addresses allocated for this class instance */
 338:Middlewares/ST/STM32_USB_Device_Library/Class/MSC/Src/usbd_msc_bot.c ****   MSCInEpAdd  = USBD_CoreGetEPAdd(pdev, USBD_EP_IN, USBD_EP_TYPE_BULK);
 339:Middlewares/ST/STM32_USB_Device_Library/Class/MSC/Src/usbd_msc_bot.c ****   MSCOutEpAdd = USBD_CoreGetEPAdd(pdev, USBD_EP_OUT, USBD_EP_TYPE_BULK);
 340:Middlewares/ST/STM32_USB_Device_Library/Class/MSC/Src/usbd_msc_bot.c **** #endif /* USE_USBD_COMPOSITE */
 341:Middlewares/ST/STM32_USB_Device_Library/Class/MSC/Src/usbd_msc_bot.c **** 
 342:Middlewares/ST/STM32_USB_Device_Library/Class/MSC/Src/usbd_msc_bot.c ****   if (hmsc == NULL)
  49              		.loc 1 342 3 view .LVU6
  50              		.loc 1 342 6 is_stmt 0 view .LVU7
  51 000c 9CB1     		cbz	r4, .L1
 343:Middlewares/ST/STM32_USB_Device_Library/Class/MSC/Src/usbd_msc_bot.c ****   {
 344:Middlewares/ST/STM32_USB_Device_Library/Class/MSC/Src/usbd_msc_bot.c ****     return;
 345:Middlewares/ST/STM32_USB_Device_Library/Class/MSC/Src/usbd_msc_bot.c ****   }
 346:Middlewares/ST/STM32_USB_Device_Library/Class/MSC/Src/usbd_msc_bot.c **** 
 347:Middlewares/ST/STM32_USB_Device_Library/Class/MSC/Src/usbd_msc_bot.c ****   length = MIN(hmsc->cbw.dDataLength, len);
  52              		.loc 1 347 3 is_stmt 1 view .LVU8
  53              		.loc 1 347 12 is_stmt 0 view .LVU9
ARM GAS  C:\Users\ADMINI~1\AppData\Local\Temp\ccoWGqne.s 			page 8


  54 000e D4F81832 		ldr	r3, [r4, #536]
  55              	.LVL2:
 348:Middlewares/ST/STM32_USB_Device_Library/Class/MSC/Src/usbd_msc_bot.c **** 
 349:Middlewares/ST/STM32_USB_Device_Library/Class/MSC/Src/usbd_msc_bot.c ****   hmsc->csw.dDataResidue -= len;
  56              		.loc 1 349 3 is_stmt 1 view .LVU10
  57              		.loc 1 349 26 is_stmt 0 view .LVU11
  58 0012 D4F83852 		ldr	r5, [r4, #568]
  59 0016 AD1A     		subs	r5, r5, r2
  60 0018 C4F83852 		str	r5, [r4, #568]
 350:Middlewares/ST/STM32_USB_Device_Library/Class/MSC/Src/usbd_msc_bot.c ****   hmsc->csw.bStatus = USBD_CSW_CMD_PASSED;
  61              		.loc 1 350 3 is_stmt 1 view .LVU12
  62              		.loc 1 350 21 is_stmt 0 view .LVU13
  63 001c 0025     		movs	r5, #0
  64 001e 84F83C52 		strb	r5, [r4, #572]
 351:Middlewares/ST/STM32_USB_Device_Library/Class/MSC/Src/usbd_msc_bot.c ****   hmsc->bot_state = USBD_BOT_SEND_DATA;
  65              		.loc 1 351 3 is_stmt 1 view .LVU14
  66              		.loc 1 351 19 is_stmt 0 view .LVU15
  67 0022 0425     		movs	r5, #4
  68 0024 2572     		strb	r5, [r4, #8]
 352:Middlewares/ST/STM32_USB_Device_Library/Class/MSC/Src/usbd_msc_bot.c **** 
 353:Middlewares/ST/STM32_USB_Device_Library/Class/MSC/Src/usbd_msc_bot.c ****   (void)USBD_LL_Transmit(pdev, MSCInEpAdd, pbuf, length);
  69              		.loc 1 353 3 is_stmt 1 view .LVU16
  70              		.loc 1 353 9 is_stmt 0 view .LVU17
  71 0026 9342     		cmp	r3, r2
  72 0028 28BF     		it	cs
  73 002a 1346     		movcs	r3, r2
  74              	.LVL3:
  75              		.loc 1 353 9 view .LVU18
  76 002c 0A46     		mov	r2, r1
  77              	.LVL4:
  78              		.loc 1 353 9 view .LVU19
  79 002e 0249     		ldr	r1, .L4
  80              	.LVL5:
  81              		.loc 1 353 9 view .LVU20
  82 0030 0978     		ldrb	r1, [r1]	@ zero_extendqisi2
  83 0032 FFF7FEFF 		bl	USBD_LL_Transmit
  84              	.LVL6:
  85              	.L1:
 354:Middlewares/ST/STM32_USB_Device_Library/Class/MSC/Src/usbd_msc_bot.c **** }
  86              		.loc 1 354 1 view .LVU21
  87 0036 38BD     		pop	{r3, r4, r5, pc}
  88              	.LVL7:
  89              	.L5:
  90              		.loc 1 354 1 view .LVU22
  91              		.align	2
  92              	.L4:
  93 0038 00000000 		.word	MSCInEpAdd
  94              		.cfi_endproc
  95              	.LFE140:
  97              		.section	.text.MSC_BOT_Abort,"ax",%progbits
  98              		.align	1
  99              		.syntax unified
 100              		.thumb
 101              		.thumb_func
 103              	MSC_BOT_Abort:
 104              	.LVL8:
 105              	.LFB142:
ARM GAS  C:\Users\ADMINI~1\AppData\Local\Temp\ccoWGqne.s 			page 9


 355:Middlewares/ST/STM32_USB_Device_Library/Class/MSC/Src/usbd_msc_bot.c **** 
 356:Middlewares/ST/STM32_USB_Device_Library/Class/MSC/Src/usbd_msc_bot.c **** /**
 357:Middlewares/ST/STM32_USB_Device_Library/Class/MSC/Src/usbd_msc_bot.c ****   * @brief  MSC_BOT_SendCSW
 358:Middlewares/ST/STM32_USB_Device_Library/Class/MSC/Src/usbd_msc_bot.c ****   *         Send the Command Status Wrapper
 359:Middlewares/ST/STM32_USB_Device_Library/Class/MSC/Src/usbd_msc_bot.c ****   * @param  pdev: device instance
 360:Middlewares/ST/STM32_USB_Device_Library/Class/MSC/Src/usbd_msc_bot.c ****   * @param  status : CSW status
 361:Middlewares/ST/STM32_USB_Device_Library/Class/MSC/Src/usbd_msc_bot.c ****   * @retval None
 362:Middlewares/ST/STM32_USB_Device_Library/Class/MSC/Src/usbd_msc_bot.c ****   */
 363:Middlewares/ST/STM32_USB_Device_Library/Class/MSC/Src/usbd_msc_bot.c **** void  MSC_BOT_SendCSW(USBD_HandleTypeDef *pdev, uint8_t CSW_Status)
 364:Middlewares/ST/STM32_USB_Device_Library/Class/MSC/Src/usbd_msc_bot.c **** {
 365:Middlewares/ST/STM32_USB_Device_Library/Class/MSC/Src/usbd_msc_bot.c ****   USBD_MSC_BOT_HandleTypeDef *hmsc = (USBD_MSC_BOT_HandleTypeDef *)pdev->pClassDataCmsit[pdev->clas
 366:Middlewares/ST/STM32_USB_Device_Library/Class/MSC/Src/usbd_msc_bot.c **** 
 367:Middlewares/ST/STM32_USB_Device_Library/Class/MSC/Src/usbd_msc_bot.c **** #ifdef USE_USBD_COMPOSITE
 368:Middlewares/ST/STM32_USB_Device_Library/Class/MSC/Src/usbd_msc_bot.c ****   /* Get the Endpoints addresses allocated for this class instance */
 369:Middlewares/ST/STM32_USB_Device_Library/Class/MSC/Src/usbd_msc_bot.c ****   MSCInEpAdd  = USBD_CoreGetEPAdd(pdev, USBD_EP_IN, USBD_EP_TYPE_BULK);
 370:Middlewares/ST/STM32_USB_Device_Library/Class/MSC/Src/usbd_msc_bot.c ****   MSCOutEpAdd = USBD_CoreGetEPAdd(pdev, USBD_EP_OUT, USBD_EP_TYPE_BULK);
 371:Middlewares/ST/STM32_USB_Device_Library/Class/MSC/Src/usbd_msc_bot.c **** #endif /* USE_USBD_COMPOSITE */
 372:Middlewares/ST/STM32_USB_Device_Library/Class/MSC/Src/usbd_msc_bot.c **** 
 373:Middlewares/ST/STM32_USB_Device_Library/Class/MSC/Src/usbd_msc_bot.c ****   if (hmsc == NULL)
 374:Middlewares/ST/STM32_USB_Device_Library/Class/MSC/Src/usbd_msc_bot.c ****   {
 375:Middlewares/ST/STM32_USB_Device_Library/Class/MSC/Src/usbd_msc_bot.c ****     return;
 376:Middlewares/ST/STM32_USB_Device_Library/Class/MSC/Src/usbd_msc_bot.c ****   }
 377:Middlewares/ST/STM32_USB_Device_Library/Class/MSC/Src/usbd_msc_bot.c **** 
 378:Middlewares/ST/STM32_USB_Device_Library/Class/MSC/Src/usbd_msc_bot.c ****   hmsc->csw.dSignature = USBD_BOT_CSW_SIGNATURE;
 379:Middlewares/ST/STM32_USB_Device_Library/Class/MSC/Src/usbd_msc_bot.c ****   hmsc->csw.bStatus = CSW_Status;
 380:Middlewares/ST/STM32_USB_Device_Library/Class/MSC/Src/usbd_msc_bot.c ****   hmsc->bot_state = USBD_BOT_IDLE;
 381:Middlewares/ST/STM32_USB_Device_Library/Class/MSC/Src/usbd_msc_bot.c **** 
 382:Middlewares/ST/STM32_USB_Device_Library/Class/MSC/Src/usbd_msc_bot.c ****   (void)USBD_LL_Transmit(pdev, MSCInEpAdd, (uint8_t *)&hmsc->csw,
 383:Middlewares/ST/STM32_USB_Device_Library/Class/MSC/Src/usbd_msc_bot.c ****                          USBD_BOT_CSW_LENGTH);
 384:Middlewares/ST/STM32_USB_Device_Library/Class/MSC/Src/usbd_msc_bot.c **** 
 385:Middlewares/ST/STM32_USB_Device_Library/Class/MSC/Src/usbd_msc_bot.c ****   /* Prepare EP to Receive next Cmd */
 386:Middlewares/ST/STM32_USB_Device_Library/Class/MSC/Src/usbd_msc_bot.c ****   (void)USBD_LL_PrepareReceive(pdev, MSCOutEpAdd, (uint8_t *)&hmsc->cbw,
 387:Middlewares/ST/STM32_USB_Device_Library/Class/MSC/Src/usbd_msc_bot.c ****                                USBD_BOT_CBW_LENGTH);
 388:Middlewares/ST/STM32_USB_Device_Library/Class/MSC/Src/usbd_msc_bot.c **** }
 389:Middlewares/ST/STM32_USB_Device_Library/Class/MSC/Src/usbd_msc_bot.c **** 
 390:Middlewares/ST/STM32_USB_Device_Library/Class/MSC/Src/usbd_msc_bot.c **** /**
 391:Middlewares/ST/STM32_USB_Device_Library/Class/MSC/Src/usbd_msc_bot.c ****   * @brief  MSC_BOT_Abort
 392:Middlewares/ST/STM32_USB_Device_Library/Class/MSC/Src/usbd_msc_bot.c ****   *         Abort the current transfer
 393:Middlewares/ST/STM32_USB_Device_Library/Class/MSC/Src/usbd_msc_bot.c ****   * @param  pdev: device instance
 394:Middlewares/ST/STM32_USB_Device_Library/Class/MSC/Src/usbd_msc_bot.c ****   * @retval status
 395:Middlewares/ST/STM32_USB_Device_Library/Class/MSC/Src/usbd_msc_bot.c ****   */
 396:Middlewares/ST/STM32_USB_Device_Library/Class/MSC/Src/usbd_msc_bot.c **** 
 397:Middlewares/ST/STM32_USB_Device_Library/Class/MSC/Src/usbd_msc_bot.c **** static void  MSC_BOT_Abort(USBD_HandleTypeDef *pdev)
 398:Middlewares/ST/STM32_USB_Device_Library/Class/MSC/Src/usbd_msc_bot.c **** {
 106              		.loc 1 398 1 is_stmt 1 view -0
 107              		.cfi_startproc
 108              		@ args = 0, pretend = 0, frame = 0
 109              		@ frame_needed = 0, uses_anonymous_args = 0
 110              		.loc 1 398 1 is_stmt 0 view .LVU24
 111 0000 38B5     		push	{r3, r4, r5, lr}
 112              	.LCFI1:
 113              		.cfi_def_cfa_offset 16
 114              		.cfi_offset 3, -16
 115              		.cfi_offset 4, -12
 116              		.cfi_offset 5, -8
 117              		.cfi_offset 14, -4
 399:Middlewares/ST/STM32_USB_Device_Library/Class/MSC/Src/usbd_msc_bot.c ****   USBD_MSC_BOT_HandleTypeDef *hmsc = (USBD_MSC_BOT_HandleTypeDef *)pdev->pClassDataCmsit[pdev->clas
ARM GAS  C:\Users\ADMINI~1\AppData\Local\Temp\ccoWGqne.s 			page 10


 118              		.loc 1 399 3 is_stmt 1 view .LVU25
 119              		.loc 1 399 94 is_stmt 0 view .LVU26
 120 0002 D0F8D432 		ldr	r3, [r0, #724]
 121              		.loc 1 399 31 view .LVU27
 122 0006 B033     		adds	r3, r3, #176
 123 0008 50F82350 		ldr	r5, [r0, r3, lsl #2]
 124              	.LVL9:
 400:Middlewares/ST/STM32_USB_Device_Library/Class/MSC/Src/usbd_msc_bot.c **** 
 401:Middlewares/ST/STM32_USB_Device_Library/Class/MSC/Src/usbd_msc_bot.c **** #ifdef USE_USBD_COMPOSITE
 402:Middlewares/ST/STM32_USB_Device_Library/Class/MSC/Src/usbd_msc_bot.c ****   /* Get the Endpoints addresses allocated for this class instance */
 403:Middlewares/ST/STM32_USB_Device_Library/Class/MSC/Src/usbd_msc_bot.c ****   MSCInEpAdd  = USBD_CoreGetEPAdd(pdev, USBD_EP_IN, USBD_EP_TYPE_BULK);
 404:Middlewares/ST/STM32_USB_Device_Library/Class/MSC/Src/usbd_msc_bot.c ****   MSCOutEpAdd = USBD_CoreGetEPAdd(pdev, USBD_EP_OUT, USBD_EP_TYPE_BULK);
 405:Middlewares/ST/STM32_USB_Device_Library/Class/MSC/Src/usbd_msc_bot.c **** #endif /* USE_USBD_COMPOSITE */
 406:Middlewares/ST/STM32_USB_Device_Library/Class/MSC/Src/usbd_msc_bot.c **** 
 407:Middlewares/ST/STM32_USB_Device_Library/Class/MSC/Src/usbd_msc_bot.c ****   if (hmsc == NULL)
 125              		.loc 1 407 3 is_stmt 1 view .LVU28
 126              		.loc 1 407 6 is_stmt 0 view .LVU29
 127 000c 85B1     		cbz	r5, .L6
 128 000e 0446     		mov	r4, r0
 408:Middlewares/ST/STM32_USB_Device_Library/Class/MSC/Src/usbd_msc_bot.c ****   {
 409:Middlewares/ST/STM32_USB_Device_Library/Class/MSC/Src/usbd_msc_bot.c ****     return;
 410:Middlewares/ST/STM32_USB_Device_Library/Class/MSC/Src/usbd_msc_bot.c ****   }
 411:Middlewares/ST/STM32_USB_Device_Library/Class/MSC/Src/usbd_msc_bot.c **** 
 412:Middlewares/ST/STM32_USB_Device_Library/Class/MSC/Src/usbd_msc_bot.c ****   if ((hmsc->cbw.bmFlags == 0U) &&
 129              		.loc 1 412 3 is_stmt 1 view .LVU30
 130              		.loc 1 412 17 is_stmt 0 view .LVU31
 131 0010 95F81C32 		ldrb	r3, [r5, #540]	@ zero_extendqisi2
 132              		.loc 1 412 6 view .LVU32
 133 0014 23B9     		cbnz	r3, .L8
 413:Middlewares/ST/STM32_USB_Device_Library/Class/MSC/Src/usbd_msc_bot.c ****       (hmsc->cbw.dDataLength != 0U) &&
 134              		.loc 1 413 17 discriminator 1 view .LVU33
 135 0016 D5F81832 		ldr	r3, [r5, #536]
 412:Middlewares/ST/STM32_USB_Device_Library/Class/MSC/Src/usbd_msc_bot.c ****       (hmsc->cbw.dDataLength != 0U) &&
 136              		.loc 1 412 33 discriminator 1 view .LVU34
 137 001a 0BB1     		cbz	r3, .L8
 414:Middlewares/ST/STM32_USB_Device_Library/Class/MSC/Src/usbd_msc_bot.c ****       (hmsc->bot_status == USBD_BOT_STATUS_NORMAL))
 138              		.loc 1 414 12 view .LVU35
 139 001c 6B7A     		ldrb	r3, [r5, #9]	@ zero_extendqisi2
 413:Middlewares/ST/STM32_USB_Device_Library/Class/MSC/Src/usbd_msc_bot.c ****       (hmsc->cbw.dDataLength != 0U) &&
 140              		.loc 1 413 37 view .LVU36
 141 001e 43B1     		cbz	r3, .L10
 142              	.LVL10:
 143              	.L8:
 415:Middlewares/ST/STM32_USB_Device_Library/Class/MSC/Src/usbd_msc_bot.c ****   {
 416:Middlewares/ST/STM32_USB_Device_Library/Class/MSC/Src/usbd_msc_bot.c ****     (void)USBD_LL_StallEP(pdev, MSCOutEpAdd);
 417:Middlewares/ST/STM32_USB_Device_Library/Class/MSC/Src/usbd_msc_bot.c ****   }
 418:Middlewares/ST/STM32_USB_Device_Library/Class/MSC/Src/usbd_msc_bot.c **** 
 419:Middlewares/ST/STM32_USB_Device_Library/Class/MSC/Src/usbd_msc_bot.c ****   (void)USBD_LL_StallEP(pdev, MSCInEpAdd);
 144              		.loc 1 419 3 is_stmt 1 view .LVU37
 145              		.loc 1 419 9 is_stmt 0 view .LVU38
 146 0020 0C4B     		ldr	r3, .L12
 147 0022 1978     		ldrb	r1, [r3]	@ zero_extendqisi2
 148 0024 2046     		mov	r0, r4
 149 0026 FFF7FEFF 		bl	USBD_LL_StallEP
 150              	.LVL11:
 420:Middlewares/ST/STM32_USB_Device_Library/Class/MSC/Src/usbd_msc_bot.c **** 
 421:Middlewares/ST/STM32_USB_Device_Library/Class/MSC/Src/usbd_msc_bot.c ****   if (hmsc->bot_status == USBD_BOT_STATUS_ERROR)
ARM GAS  C:\Users\ADMINI~1\AppData\Local\Temp\ccoWGqne.s 			page 11


 151              		.loc 1 421 3 is_stmt 1 view .LVU39
 152              		.loc 1 421 11 is_stmt 0 view .LVU40
 153 002a 6B7A     		ldrb	r3, [r5, #9]	@ zero_extendqisi2
 154              		.loc 1 421 6 view .LVU41
 155 002c 022B     		cmp	r3, #2
 156 002e 05D0     		beq	.L11
 157              	.LVL12:
 158              	.L6:
 422:Middlewares/ST/STM32_USB_Device_Library/Class/MSC/Src/usbd_msc_bot.c ****   {
 423:Middlewares/ST/STM32_USB_Device_Library/Class/MSC/Src/usbd_msc_bot.c ****     (void)USBD_LL_StallEP(pdev, MSCInEpAdd);
 424:Middlewares/ST/STM32_USB_Device_Library/Class/MSC/Src/usbd_msc_bot.c ****     (void)USBD_LL_StallEP(pdev, MSCOutEpAdd);
 425:Middlewares/ST/STM32_USB_Device_Library/Class/MSC/Src/usbd_msc_bot.c ****   }
 426:Middlewares/ST/STM32_USB_Device_Library/Class/MSC/Src/usbd_msc_bot.c **** }
 159              		.loc 1 426 1 view .LVU42
 160 0030 38BD     		pop	{r3, r4, r5, pc}
 161              	.LVL13:
 162              	.L10:
 416:Middlewares/ST/STM32_USB_Device_Library/Class/MSC/Src/usbd_msc_bot.c ****   }
 163              		.loc 1 416 5 is_stmt 1 view .LVU43
 416:Middlewares/ST/STM32_USB_Device_Library/Class/MSC/Src/usbd_msc_bot.c ****   }
 164              		.loc 1 416 11 is_stmt 0 view .LVU44
 165 0032 094B     		ldr	r3, .L12+4
 166 0034 1978     		ldrb	r1, [r3]	@ zero_extendqisi2
 167 0036 FFF7FEFF 		bl	USBD_LL_StallEP
 168              	.LVL14:
 416:Middlewares/ST/STM32_USB_Device_Library/Class/MSC/Src/usbd_msc_bot.c ****   }
 169              		.loc 1 416 11 view .LVU45
 170 003a F1E7     		b	.L8
 171              	.L11:
 423:Middlewares/ST/STM32_USB_Device_Library/Class/MSC/Src/usbd_msc_bot.c ****     (void)USBD_LL_StallEP(pdev, MSCOutEpAdd);
 172              		.loc 1 423 5 is_stmt 1 view .LVU46
 423:Middlewares/ST/STM32_USB_Device_Library/Class/MSC/Src/usbd_msc_bot.c ****     (void)USBD_LL_StallEP(pdev, MSCOutEpAdd);
 173              		.loc 1 423 11 is_stmt 0 view .LVU47
 174 003c 054B     		ldr	r3, .L12
 175 003e 1978     		ldrb	r1, [r3]	@ zero_extendqisi2
 176 0040 2046     		mov	r0, r4
 177 0042 FFF7FEFF 		bl	USBD_LL_StallEP
 178              	.LVL15:
 424:Middlewares/ST/STM32_USB_Device_Library/Class/MSC/Src/usbd_msc_bot.c ****   }
 179              		.loc 1 424 5 is_stmt 1 view .LVU48
 424:Middlewares/ST/STM32_USB_Device_Library/Class/MSC/Src/usbd_msc_bot.c ****   }
 180              		.loc 1 424 11 is_stmt 0 view .LVU49
 181 0046 044B     		ldr	r3, .L12+4
 182 0048 1978     		ldrb	r1, [r3]	@ zero_extendqisi2
 183 004a 2046     		mov	r0, r4
 184 004c FFF7FEFF 		bl	USBD_LL_StallEP
 185              	.LVL16:
 186 0050 EEE7     		b	.L6
 187              	.L13:
 188 0052 00BF     		.align	2
 189              	.L12:
 190 0054 00000000 		.word	MSCInEpAdd
 191 0058 00000000 		.word	MSCOutEpAdd
 192              		.cfi_endproc
 193              	.LFE142:
 195              		.section	.text.MSC_BOT_Init,"ax",%progbits
 196              		.align	1
ARM GAS  C:\Users\ADMINI~1\AppData\Local\Temp\ccoWGqne.s 			page 12


 197              		.global	MSC_BOT_Init
 198              		.syntax unified
 199              		.thumb
 200              		.thumb_func
 202              	MSC_BOT_Init:
 203              	.LVL17:
 204              	.LFB134:
  99:Middlewares/ST/STM32_USB_Device_Library/Class/MSC/Src/usbd_msc_bot.c ****   USBD_MSC_BOT_HandleTypeDef *hmsc = (USBD_MSC_BOT_HandleTypeDef *)pdev->pClassDataCmsit[pdev->clas
 205              		.loc 1 99 1 is_stmt 1 view -0
 206              		.cfi_startproc
 207              		@ args = 0, pretend = 0, frame = 0
 208              		@ frame_needed = 0, uses_anonymous_args = 0
  99:Middlewares/ST/STM32_USB_Device_Library/Class/MSC/Src/usbd_msc_bot.c ****   USBD_MSC_BOT_HandleTypeDef *hmsc = (USBD_MSC_BOT_HandleTypeDef *)pdev->pClassDataCmsit[pdev->clas
 209              		.loc 1 99 1 is_stmt 0 view .LVU51
 210 0000 70B5     		push	{r4, r5, r6, lr}
 211              	.LCFI2:
 212              		.cfi_def_cfa_offset 16
 213              		.cfi_offset 4, -16
 214              		.cfi_offset 5, -12
 215              		.cfi_offset 6, -8
 216              		.cfi_offset 14, -4
 100:Middlewares/ST/STM32_USB_Device_Library/Class/MSC/Src/usbd_msc_bot.c **** 
 217              		.loc 1 100 3 is_stmt 1 view .LVU52
 100:Middlewares/ST/STM32_USB_Device_Library/Class/MSC/Src/usbd_msc_bot.c **** 
 218              		.loc 1 100 94 is_stmt 0 view .LVU53
 219 0002 D0F8D432 		ldr	r3, [r0, #724]
 100:Middlewares/ST/STM32_USB_Device_Library/Class/MSC/Src/usbd_msc_bot.c **** 
 220              		.loc 1 100 31 view .LVU54
 221 0006 B033     		adds	r3, r3, #176
 222 0008 50F82350 		ldr	r5, [r0, r3, lsl #2]
 223              	.LVL18:
 108:Middlewares/ST/STM32_USB_Device_Library/Class/MSC/Src/usbd_msc_bot.c ****   {
 224              		.loc 1 108 3 is_stmt 1 view .LVU55
 108:Middlewares/ST/STM32_USB_Device_Library/Class/MSC/Src/usbd_msc_bot.c ****   {
 225              		.loc 1 108 6 is_stmt 0 view .LVU56
 226 000c 15B3     		cbz	r5, .L14
 227 000e 0446     		mov	r4, r0
 113:Middlewares/ST/STM32_USB_Device_Library/Class/MSC/Src/usbd_msc_bot.c ****   hmsc->bot_status = USBD_BOT_STATUS_NORMAL;
 228              		.loc 1 113 3 is_stmt 1 view .LVU57
 113:Middlewares/ST/STM32_USB_Device_Library/Class/MSC/Src/usbd_msc_bot.c ****   hmsc->bot_status = USBD_BOT_STATUS_NORMAL;
 229              		.loc 1 113 19 is_stmt 0 view .LVU58
 230 0010 0020     		movs	r0, #0
 231              	.LVL19:
 113:Middlewares/ST/STM32_USB_Device_Library/Class/MSC/Src/usbd_msc_bot.c ****   hmsc->bot_status = USBD_BOT_STATUS_NORMAL;
 232              		.loc 1 113 19 view .LVU59
 233 0012 2872     		strb	r0, [r5, #8]
 114:Middlewares/ST/STM32_USB_Device_Library/Class/MSC/Src/usbd_msc_bot.c **** 
 234              		.loc 1 114 3 is_stmt 1 view .LVU60
 114:Middlewares/ST/STM32_USB_Device_Library/Class/MSC/Src/usbd_msc_bot.c **** 
 235              		.loc 1 114 20 is_stmt 0 view .LVU61
 236 0014 6872     		strb	r0, [r5, #9]
 116:Middlewares/ST/STM32_USB_Device_Library/Class/MSC/Src/usbd_msc_bot.c ****   hmsc->scsi_sense_head = 0U;
 237              		.loc 1 116 3 is_stmt 1 view .LVU62
 116:Middlewares/ST/STM32_USB_Device_Library/Class/MSC/Src/usbd_msc_bot.c ****   hmsc->scsi_sense_head = 0U;
 238              		.loc 1 116 25 is_stmt 0 view .LVU63
 239 0016 85F86102 		strb	r0, [r5, #609]
 117:Middlewares/ST/STM32_USB_Device_Library/Class/MSC/Src/usbd_msc_bot.c ****   hmsc->scsi_medium_state = SCSI_MEDIUM_UNLOCKED;
ARM GAS  C:\Users\ADMINI~1\AppData\Local\Temp\ccoWGqne.s 			page 13


 240              		.loc 1 117 3 is_stmt 1 view .LVU64
 117:Middlewares/ST/STM32_USB_Device_Library/Class/MSC/Src/usbd_msc_bot.c ****   hmsc->scsi_medium_state = SCSI_MEDIUM_UNLOCKED;
 241              		.loc 1 117 25 is_stmt 0 view .LVU65
 242 001a 85F86002 		strb	r0, [r5, #608]
 118:Middlewares/ST/STM32_USB_Device_Library/Class/MSC/Src/usbd_msc_bot.c **** 
 243              		.loc 1 118 3 is_stmt 1 view .LVU66
 118:Middlewares/ST/STM32_USB_Device_Library/Class/MSC/Src/usbd_msc_bot.c **** 
 244              		.loc 1 118 27 is_stmt 0 view .LVU67
 245 001e 85F86202 		strb	r0, [r5, #610]
 120:Middlewares/ST/STM32_USB_Device_Library/Class/MSC/Src/usbd_msc_bot.c **** 
 246              		.loc 1 120 3 is_stmt 1 view .LVU68
 120:Middlewares/ST/STM32_USB_Device_Library/Class/MSC/Src/usbd_msc_bot.c **** 
 247              		.loc 1 120 47 is_stmt 0 view .LVU69
 248 0022 D4F8D432 		ldr	r3, [r4, #724]
 120:Middlewares/ST/STM32_USB_Device_Library/Class/MSC/Src/usbd_msc_bot.c **** 
 249              		.loc 1 120 42 view .LVU70
 250 0026 B033     		adds	r3, r3, #176
 251 0028 04EB8303 		add	r3, r4, r3, lsl #2
 252 002c 5B68     		ldr	r3, [r3, #4]
 120:Middlewares/ST/STM32_USB_Device_Library/Class/MSC/Src/usbd_msc_bot.c **** 
 253              		.loc 1 120 58 view .LVU71
 254 002e 1B68     		ldr	r3, [r3]
 120:Middlewares/ST/STM32_USB_Device_Library/Class/MSC/Src/usbd_msc_bot.c **** 
 255              		.loc 1 120 4 view .LVU72
 256 0030 9847     		blx	r3
 257              	.LVL20:
 122:Middlewares/ST/STM32_USB_Device_Library/Class/MSC/Src/usbd_msc_bot.c ****   (void)USBD_LL_FlushEP(pdev, MSCInEpAdd);
 258              		.loc 1 122 3 is_stmt 1 view .LVU73
 259 0032 094E     		ldr	r6, .L17
 122:Middlewares/ST/STM32_USB_Device_Library/Class/MSC/Src/usbd_msc_bot.c ****   (void)USBD_LL_FlushEP(pdev, MSCInEpAdd);
 260              		.loc 1 122 9 is_stmt 0 view .LVU74
 261 0034 3178     		ldrb	r1, [r6]	@ zero_extendqisi2
 262 0036 2046     		mov	r0, r4
 263 0038 FFF7FEFF 		bl	USBD_LL_FlushEP
 264              	.LVL21:
 123:Middlewares/ST/STM32_USB_Device_Library/Class/MSC/Src/usbd_msc_bot.c **** 
 265              		.loc 1 123 3 is_stmt 1 view .LVU75
 123:Middlewares/ST/STM32_USB_Device_Library/Class/MSC/Src/usbd_msc_bot.c **** 
 266              		.loc 1 123 9 is_stmt 0 view .LVU76
 267 003c 074B     		ldr	r3, .L17+4
 268 003e 1978     		ldrb	r1, [r3]	@ zero_extendqisi2
 269 0040 2046     		mov	r0, r4
 270 0042 FFF7FEFF 		bl	USBD_LL_FlushEP
 271              	.LVL22:
 126:Middlewares/ST/STM32_USB_Device_Library/Class/MSC/Src/usbd_msc_bot.c ****                                USBD_BOT_CBW_LENGTH);
 272              		.loc 1 126 3 is_stmt 1 view .LVU77
 126:Middlewares/ST/STM32_USB_Device_Library/Class/MSC/Src/usbd_msc_bot.c ****                                USBD_BOT_CBW_LENGTH);
 273              		.loc 1 126 9 is_stmt 0 view .LVU78
 274 0046 1F23     		movs	r3, #31
 275 0048 05F50472 		add	r2, r5, #528
 276 004c 3178     		ldrb	r1, [r6]	@ zero_extendqisi2
 277 004e 2046     		mov	r0, r4
 278 0050 FFF7FEFF 		bl	USBD_LL_PrepareReceive
 279              	.LVL23:
 280              	.L14:
 128:Middlewares/ST/STM32_USB_Device_Library/Class/MSC/Src/usbd_msc_bot.c **** 
 281              		.loc 1 128 1 view .LVU79
ARM GAS  C:\Users\ADMINI~1\AppData\Local\Temp\ccoWGqne.s 			page 14


 282 0054 70BD     		pop	{r4, r5, r6, pc}
 283              	.LVL24:
 284              	.L18:
 128:Middlewares/ST/STM32_USB_Device_Library/Class/MSC/Src/usbd_msc_bot.c **** 
 285              		.loc 1 128 1 view .LVU80
 286 0056 00BF     		.align	2
 287              	.L17:
 288 0058 00000000 		.word	MSCOutEpAdd
 289 005c 00000000 		.word	MSCInEpAdd
 290              		.cfi_endproc
 291              	.LFE134:
 293              		.section	.text.MSC_BOT_Reset,"ax",%progbits
 294              		.align	1
 295              		.global	MSC_BOT_Reset
 296              		.syntax unified
 297              		.thumb
 298              		.thumb_func
 300              	MSC_BOT_Reset:
 301              	.LVL25:
 302              	.LFB135:
 137:Middlewares/ST/STM32_USB_Device_Library/Class/MSC/Src/usbd_msc_bot.c ****   USBD_MSC_BOT_HandleTypeDef *hmsc = (USBD_MSC_BOT_HandleTypeDef *)pdev->pClassDataCmsit[pdev->clas
 303              		.loc 1 137 1 is_stmt 1 view -0
 304              		.cfi_startproc
 305              		@ args = 0, pretend = 0, frame = 0
 306              		@ frame_needed = 0, uses_anonymous_args = 0
 137:Middlewares/ST/STM32_USB_Device_Library/Class/MSC/Src/usbd_msc_bot.c ****   USBD_MSC_BOT_HandleTypeDef *hmsc = (USBD_MSC_BOT_HandleTypeDef *)pdev->pClassDataCmsit[pdev->clas
 307              		.loc 1 137 1 is_stmt 0 view .LVU82
 308 0000 70B5     		push	{r4, r5, r6, lr}
 309              	.LCFI3:
 310              		.cfi_def_cfa_offset 16
 311              		.cfi_offset 4, -16
 312              		.cfi_offset 5, -12
 313              		.cfi_offset 6, -8
 314              		.cfi_offset 14, -4
 138:Middlewares/ST/STM32_USB_Device_Library/Class/MSC/Src/usbd_msc_bot.c **** 
 315              		.loc 1 138 3 is_stmt 1 view .LVU83
 138:Middlewares/ST/STM32_USB_Device_Library/Class/MSC/Src/usbd_msc_bot.c **** 
 316              		.loc 1 138 94 is_stmt 0 view .LVU84
 317 0002 D0F8D432 		ldr	r3, [r0, #724]
 138:Middlewares/ST/STM32_USB_Device_Library/Class/MSC/Src/usbd_msc_bot.c **** 
 318              		.loc 1 138 31 view .LVU85
 319 0006 B033     		adds	r3, r3, #176
 320 0008 50F82350 		ldr	r5, [r0, r3, lsl #2]
 321              	.LVL26:
 146:Middlewares/ST/STM32_USB_Device_Library/Class/MSC/Src/usbd_msc_bot.c ****   {
 322              		.loc 1 146 3 is_stmt 1 view .LVU86
 146:Middlewares/ST/STM32_USB_Device_Library/Class/MSC/Src/usbd_msc_bot.c ****   {
 323              		.loc 1 146 6 is_stmt 0 view .LVU87
 324 000c A5B1     		cbz	r5, .L19
 325 000e 0446     		mov	r4, r0
 151:Middlewares/ST/STM32_USB_Device_Library/Class/MSC/Src/usbd_msc_bot.c ****   hmsc->bot_status = USBD_BOT_STATUS_RECOVERY;
 326              		.loc 1 151 3 is_stmt 1 view .LVU88
 151:Middlewares/ST/STM32_USB_Device_Library/Class/MSC/Src/usbd_msc_bot.c ****   hmsc->bot_status = USBD_BOT_STATUS_RECOVERY;
 327              		.loc 1 151 20 is_stmt 0 view .LVU89
 328 0010 0023     		movs	r3, #0
 329 0012 2B72     		strb	r3, [r5, #8]
 152:Middlewares/ST/STM32_USB_Device_Library/Class/MSC/Src/usbd_msc_bot.c **** 
ARM GAS  C:\Users\ADMINI~1\AppData\Local\Temp\ccoWGqne.s 			page 15


 330              		.loc 1 152 3 is_stmt 1 view .LVU90
 152:Middlewares/ST/STM32_USB_Device_Library/Class/MSC/Src/usbd_msc_bot.c **** 
 331              		.loc 1 152 20 is_stmt 0 view .LVU91
 332 0014 0123     		movs	r3, #1
 333 0016 6B72     		strb	r3, [r5, #9]
 154:Middlewares/ST/STM32_USB_Device_Library/Class/MSC/Src/usbd_msc_bot.c ****   (void)USBD_LL_ClearStallEP(pdev, MSCOutEpAdd);
 334              		.loc 1 154 3 is_stmt 1 view .LVU92
 154:Middlewares/ST/STM32_USB_Device_Library/Class/MSC/Src/usbd_msc_bot.c ****   (void)USBD_LL_ClearStallEP(pdev, MSCOutEpAdd);
 335              		.loc 1 154 9 is_stmt 0 view .LVU93
 336 0018 084B     		ldr	r3, .L22
 337 001a 1978     		ldrb	r1, [r3]	@ zero_extendqisi2
 338 001c FFF7FEFF 		bl	USBD_LL_ClearStallEP
 339              	.LVL27:
 155:Middlewares/ST/STM32_USB_Device_Library/Class/MSC/Src/usbd_msc_bot.c **** 
 340              		.loc 1 155 3 is_stmt 1 view .LVU94
 341 0020 074E     		ldr	r6, .L22+4
 155:Middlewares/ST/STM32_USB_Device_Library/Class/MSC/Src/usbd_msc_bot.c **** 
 342              		.loc 1 155 9 is_stmt 0 view .LVU95
 343 0022 3178     		ldrb	r1, [r6]	@ zero_extendqisi2
 344 0024 2046     		mov	r0, r4
 345 0026 FFF7FEFF 		bl	USBD_LL_ClearStallEP
 346              	.LVL28:
 158:Middlewares/ST/STM32_USB_Device_Library/Class/MSC/Src/usbd_msc_bot.c ****                                USBD_BOT_CBW_LENGTH);
 347              		.loc 1 158 3 is_stmt 1 view .LVU96
 158:Middlewares/ST/STM32_USB_Device_Library/Class/MSC/Src/usbd_msc_bot.c ****                                USBD_BOT_CBW_LENGTH);
 348              		.loc 1 158 9 is_stmt 0 view .LVU97
 349 002a 1F23     		movs	r3, #31
 350 002c 05F50472 		add	r2, r5, #528
 351 0030 3178     		ldrb	r1, [r6]	@ zero_extendqisi2
 352 0032 2046     		mov	r0, r4
 353 0034 FFF7FEFF 		bl	USBD_LL_PrepareReceive
 354              	.LVL29:
 355              	.L19:
 160:Middlewares/ST/STM32_USB_Device_Library/Class/MSC/Src/usbd_msc_bot.c **** 
 356              		.loc 1 160 1 view .LVU98
 357 0038 70BD     		pop	{r4, r5, r6, pc}
 358              	.LVL30:
 359              	.L23:
 160:Middlewares/ST/STM32_USB_Device_Library/Class/MSC/Src/usbd_msc_bot.c **** 
 360              		.loc 1 160 1 view .LVU99
 361 003a 00BF     		.align	2
 362              	.L22:
 363 003c 00000000 		.word	MSCInEpAdd
 364 0040 00000000 		.word	MSCOutEpAdd
 365              		.cfi_endproc
 366              	.LFE135:
 368              		.section	.text.MSC_BOT_DeInit,"ax",%progbits
 369              		.align	1
 370              		.global	MSC_BOT_DeInit
 371              		.syntax unified
 372              		.thumb
 373              		.thumb_func
 375              	MSC_BOT_DeInit:
 376              	.LVL31:
 377              	.LFB136:
 169:Middlewares/ST/STM32_USB_Device_Library/Class/MSC/Src/usbd_msc_bot.c ****   USBD_MSC_BOT_HandleTypeDef *hmsc = (USBD_MSC_BOT_HandleTypeDef *)pdev->pClassDataCmsit[pdev->clas
 378              		.loc 1 169 1 is_stmt 1 view -0
ARM GAS  C:\Users\ADMINI~1\AppData\Local\Temp\ccoWGqne.s 			page 16


 379              		.cfi_startproc
 380              		@ args = 0, pretend = 0, frame = 0
 381              		@ frame_needed = 0, uses_anonymous_args = 0
 382              		@ link register save eliminated.
 170:Middlewares/ST/STM32_USB_Device_Library/Class/MSC/Src/usbd_msc_bot.c **** 
 383              		.loc 1 170 3 view .LVU101
 170:Middlewares/ST/STM32_USB_Device_Library/Class/MSC/Src/usbd_msc_bot.c **** 
 384              		.loc 1 170 94 is_stmt 0 view .LVU102
 385 0000 D0F8D432 		ldr	r3, [r0, #724]
 170:Middlewares/ST/STM32_USB_Device_Library/Class/MSC/Src/usbd_msc_bot.c **** 
 386              		.loc 1 170 31 view .LVU103
 387 0004 B033     		adds	r3, r3, #176
 388 0006 50F82330 		ldr	r3, [r0, r3, lsl #2]
 389              	.LVL32:
 172:Middlewares/ST/STM32_USB_Device_Library/Class/MSC/Src/usbd_msc_bot.c ****   {
 390              		.loc 1 172 3 is_stmt 1 view .LVU104
 172:Middlewares/ST/STM32_USB_Device_Library/Class/MSC/Src/usbd_msc_bot.c ****   {
 391              		.loc 1 172 6 is_stmt 0 view .LVU105
 392 000a 0BB1     		cbz	r3, .L24
 174:Middlewares/ST/STM32_USB_Device_Library/Class/MSC/Src/usbd_msc_bot.c ****   }
 393              		.loc 1 174 5 is_stmt 1 view .LVU106
 174:Middlewares/ST/STM32_USB_Device_Library/Class/MSC/Src/usbd_msc_bot.c ****   }
 394              		.loc 1 174 21 is_stmt 0 view .LVU107
 395 000c 0022     		movs	r2, #0
 396 000e 1A72     		strb	r2, [r3, #8]
 397              	.L24:
 176:Middlewares/ST/STM32_USB_Device_Library/Class/MSC/Src/usbd_msc_bot.c **** 
 398              		.loc 1 176 1 view .LVU108
 399 0010 7047     		bx	lr
 400              		.cfi_endproc
 401              	.LFE136:
 403              		.section	.text.MSC_BOT_SendCSW,"ax",%progbits
 404              		.align	1
 405              		.global	MSC_BOT_SendCSW
 406              		.syntax unified
 407              		.thumb
 408              		.thumb_func
 410              	MSC_BOT_SendCSW:
 411              	.LVL33:
 412              	.LFB141:
 364:Middlewares/ST/STM32_USB_Device_Library/Class/MSC/Src/usbd_msc_bot.c ****   USBD_MSC_BOT_HandleTypeDef *hmsc = (USBD_MSC_BOT_HandleTypeDef *)pdev->pClassDataCmsit[pdev->clas
 413              		.loc 1 364 1 is_stmt 1 view -0
 414              		.cfi_startproc
 415              		@ args = 0, pretend = 0, frame = 0
 416              		@ frame_needed = 0, uses_anonymous_args = 0
 364:Middlewares/ST/STM32_USB_Device_Library/Class/MSC/Src/usbd_msc_bot.c ****   USBD_MSC_BOT_HandleTypeDef *hmsc = (USBD_MSC_BOT_HandleTypeDef *)pdev->pClassDataCmsit[pdev->clas
 417              		.loc 1 364 1 is_stmt 0 view .LVU110
 418 0000 38B5     		push	{r3, r4, r5, lr}
 419              	.LCFI4:
 420              		.cfi_def_cfa_offset 16
 421              		.cfi_offset 3, -16
 422              		.cfi_offset 4, -12
 423              		.cfi_offset 5, -8
 424              		.cfi_offset 14, -4
 365:Middlewares/ST/STM32_USB_Device_Library/Class/MSC/Src/usbd_msc_bot.c **** 
 425              		.loc 1 365 3 is_stmt 1 view .LVU111
 365:Middlewares/ST/STM32_USB_Device_Library/Class/MSC/Src/usbd_msc_bot.c **** 
ARM GAS  C:\Users\ADMINI~1\AppData\Local\Temp\ccoWGqne.s 			page 17


 426              		.loc 1 365 94 is_stmt 0 view .LVU112
 427 0002 D0F8D432 		ldr	r3, [r0, #724]
 365:Middlewares/ST/STM32_USB_Device_Library/Class/MSC/Src/usbd_msc_bot.c **** 
 428              		.loc 1 365 31 view .LVU113
 429 0006 B033     		adds	r3, r3, #176
 430 0008 50F82350 		ldr	r5, [r0, r3, lsl #2]
 431              	.LVL34:
 373:Middlewares/ST/STM32_USB_Device_Library/Class/MSC/Src/usbd_msc_bot.c ****   {
 432              		.loc 1 373 3 is_stmt 1 view .LVU114
 373:Middlewares/ST/STM32_USB_Device_Library/Class/MSC/Src/usbd_msc_bot.c ****   {
 433              		.loc 1 373 6 is_stmt 0 view .LVU115
 434 000c B5B1     		cbz	r5, .L26
 435 000e 0446     		mov	r4, r0
 378:Middlewares/ST/STM32_USB_Device_Library/Class/MSC/Src/usbd_msc_bot.c ****   hmsc->csw.bStatus = CSW_Status;
 436              		.loc 1 378 3 is_stmt 1 view .LVU116
 378:Middlewares/ST/STM32_USB_Device_Library/Class/MSC/Src/usbd_msc_bot.c ****   hmsc->csw.bStatus = CSW_Status;
 437              		.loc 1 378 24 is_stmt 0 view .LVU117
 438 0010 0B4B     		ldr	r3, .L29
 439 0012 C5F83032 		str	r3, [r5, #560]
 379:Middlewares/ST/STM32_USB_Device_Library/Class/MSC/Src/usbd_msc_bot.c ****   hmsc->bot_state = USBD_BOT_IDLE;
 440              		.loc 1 379 3 is_stmt 1 view .LVU118
 379:Middlewares/ST/STM32_USB_Device_Library/Class/MSC/Src/usbd_msc_bot.c ****   hmsc->bot_state = USBD_BOT_IDLE;
 441              		.loc 1 379 21 is_stmt 0 view .LVU119
 442 0016 85F83C12 		strb	r1, [r5, #572]
 380:Middlewares/ST/STM32_USB_Device_Library/Class/MSC/Src/usbd_msc_bot.c **** 
 443              		.loc 1 380 3 is_stmt 1 view .LVU120
 380:Middlewares/ST/STM32_USB_Device_Library/Class/MSC/Src/usbd_msc_bot.c **** 
 444              		.loc 1 380 19 is_stmt 0 view .LVU121
 445 001a 0023     		movs	r3, #0
 446 001c 2B72     		strb	r3, [r5, #8]
 382:Middlewares/ST/STM32_USB_Device_Library/Class/MSC/Src/usbd_msc_bot.c ****                          USBD_BOT_CSW_LENGTH);
 447              		.loc 1 382 3 is_stmt 1 view .LVU122
 382:Middlewares/ST/STM32_USB_Device_Library/Class/MSC/Src/usbd_msc_bot.c ****                          USBD_BOT_CSW_LENGTH);
 448              		.loc 1 382 9 is_stmt 0 view .LVU123
 449 001e 0D23     		movs	r3, #13
 450 0020 05F50C72 		add	r2, r5, #560
 451 0024 0749     		ldr	r1, .L29+4
 452              	.LVL35:
 382:Middlewares/ST/STM32_USB_Device_Library/Class/MSC/Src/usbd_msc_bot.c ****                          USBD_BOT_CSW_LENGTH);
 453              		.loc 1 382 9 view .LVU124
 454 0026 0978     		ldrb	r1, [r1]	@ zero_extendqisi2
 455 0028 FFF7FEFF 		bl	USBD_LL_Transmit
 456              	.LVL36:
 386:Middlewares/ST/STM32_USB_Device_Library/Class/MSC/Src/usbd_msc_bot.c ****                                USBD_BOT_CBW_LENGTH);
 457              		.loc 1 386 3 is_stmt 1 view .LVU125
 386:Middlewares/ST/STM32_USB_Device_Library/Class/MSC/Src/usbd_msc_bot.c ****                                USBD_BOT_CBW_LENGTH);
 458              		.loc 1 386 9 is_stmt 0 view .LVU126
 459 002c 1F23     		movs	r3, #31
 460 002e 05F50472 		add	r2, r5, #528
 461 0032 0549     		ldr	r1, .L29+8
 462 0034 0978     		ldrb	r1, [r1]	@ zero_extendqisi2
 463 0036 2046     		mov	r0, r4
 464 0038 FFF7FEFF 		bl	USBD_LL_PrepareReceive
 465              	.LVL37:
 466              	.L26:
 388:Middlewares/ST/STM32_USB_Device_Library/Class/MSC/Src/usbd_msc_bot.c **** 
 467              		.loc 1 388 1 view .LVU127
ARM GAS  C:\Users\ADMINI~1\AppData\Local\Temp\ccoWGqne.s 			page 18


 468 003c 38BD     		pop	{r3, r4, r5, pc}
 469              	.LVL38:
 470              	.L30:
 388:Middlewares/ST/STM32_USB_Device_Library/Class/MSC/Src/usbd_msc_bot.c **** 
 471              		.loc 1 388 1 view .LVU128
 472 003e 00BF     		.align	2
 473              	.L29:
 474 0040 55534253 		.word	1396855637
 475 0044 00000000 		.word	MSCInEpAdd
 476 0048 00000000 		.word	MSCOutEpAdd
 477              		.cfi_endproc
 478              	.LFE141:
 480              		.section	.text.MSC_BOT_DataIn,"ax",%progbits
 481              		.align	1
 482              		.global	MSC_BOT_DataIn
 483              		.syntax unified
 484              		.thumb
 485              		.thumb_func
 487              	MSC_BOT_DataIn:
 488              	.LVL39:
 489              	.LFB137:
 186:Middlewares/ST/STM32_USB_Device_Library/Class/MSC/Src/usbd_msc_bot.c ****   UNUSED(epnum);
 490              		.loc 1 186 1 is_stmt 1 view -0
 491              		.cfi_startproc
 492              		@ args = 0, pretend = 0, frame = 0
 493              		@ frame_needed = 0, uses_anonymous_args = 0
 187:Middlewares/ST/STM32_USB_Device_Library/Class/MSC/Src/usbd_msc_bot.c **** 
 494              		.loc 1 187 3 view .LVU130
 189:Middlewares/ST/STM32_USB_Device_Library/Class/MSC/Src/usbd_msc_bot.c **** 
 495              		.loc 1 189 3 view .LVU131
 189:Middlewares/ST/STM32_USB_Device_Library/Class/MSC/Src/usbd_msc_bot.c **** 
 496              		.loc 1 189 94 is_stmt 0 view .LVU132
 497 0000 D0F8D432 		ldr	r3, [r0, #724]
 189:Middlewares/ST/STM32_USB_Device_Library/Class/MSC/Src/usbd_msc_bot.c **** 
 498              		.loc 1 189 31 view .LVU133
 499 0004 B033     		adds	r3, r3, #176
 500 0006 50F82310 		ldr	r1, [r0, r3, lsl #2]
 501              	.LVL40:
 191:Middlewares/ST/STM32_USB_Device_Library/Class/MSC/Src/usbd_msc_bot.c ****   {
 502              		.loc 1 191 3 is_stmt 1 view .LVU134
 191:Middlewares/ST/STM32_USB_Device_Library/Class/MSC/Src/usbd_msc_bot.c ****   {
 503              		.loc 1 191 6 is_stmt 0 view .LVU135
 504 000a D1B1     		cbz	r1, .L37
 186:Middlewares/ST/STM32_USB_Device_Library/Class/MSC/Src/usbd_msc_bot.c ****   UNUSED(epnum);
 505              		.loc 1 186 1 view .LVU136
 506 000c 10B5     		push	{r4, lr}
 507              	.LCFI5:
 508              		.cfi_def_cfa_offset 8
 509              		.cfi_offset 4, -8
 510              		.cfi_offset 14, -4
 511 000e 0446     		mov	r4, r0
 196:Middlewares/ST/STM32_USB_Device_Library/Class/MSC/Src/usbd_msc_bot.c ****   {
 512              		.loc 1 196 3 is_stmt 1 view .LVU137
 196:Middlewares/ST/STM32_USB_Device_Library/Class/MSC/Src/usbd_msc_bot.c ****   {
 513              		.loc 1 196 15 is_stmt 0 view .LVU138
 514 0010 0B7A     		ldrb	r3, [r1, #8]	@ zero_extendqisi2
 196:Middlewares/ST/STM32_USB_Device_Library/Class/MSC/Src/usbd_msc_bot.c ****   {
ARM GAS  C:\Users\ADMINI~1\AppData\Local\Temp\ccoWGqne.s 			page 19


 515              		.loc 1 196 3 view .LVU139
 516 0012 022B     		cmp	r3, #2
 517 0014 08D0     		beq	.L33
 518 0016 06D3     		bcc	.L31
 519 0018 033B     		subs	r3, r3, #3
 520 001a DBB2     		uxtb	r3, r3
 521 001c 012B     		cmp	r3, #1
 522 001e 02D8     		bhi	.L31
 207:Middlewares/ST/STM32_USB_Device_Library/Class/MSC/Src/usbd_msc_bot.c ****       break;
 523              		.loc 1 207 7 is_stmt 1 view .LVU140
 524 0020 0021     		movs	r1, #0
 525              	.LVL41:
 207:Middlewares/ST/STM32_USB_Device_Library/Class/MSC/Src/usbd_msc_bot.c ****       break;
 526              		.loc 1 207 7 is_stmt 0 view .LVU141
 527 0022 FFF7FEFF 		bl	MSC_BOT_SendCSW
 528              	.LVL42:
 208:Middlewares/ST/STM32_USB_Device_Library/Class/MSC/Src/usbd_msc_bot.c **** 
 529              		.loc 1 208 7 is_stmt 1 view .LVU142
 530              	.L31:
 213:Middlewares/ST/STM32_USB_Device_Library/Class/MSC/Src/usbd_msc_bot.c **** /**
 531              		.loc 1 213 1 is_stmt 0 view .LVU143
 532 0026 10BD     		pop	{r4, pc}
 533              	.LVL43:
 534              	.L33:
 199:Middlewares/ST/STM32_USB_Device_Library/Class/MSC/Src/usbd_msc_bot.c ****       {
 535              		.loc 1 199 7 is_stmt 1 view .LVU144
 199:Middlewares/ST/STM32_USB_Device_Library/Class/MSC/Src/usbd_msc_bot.c ****       {
 536              		.loc 1 199 11 is_stmt 0 view .LVU145
 537 0028 01F21F22 		addw	r2, r1, #543
 538 002c 91F81D12 		ldrb	r1, [r1, #541]	@ zero_extendqisi2
 539              	.LVL44:
 199:Middlewares/ST/STM32_USB_Device_Library/Class/MSC/Src/usbd_msc_bot.c ****       {
 540              		.loc 1 199 11 view .LVU146
 541 0030 FFF7FEFF 		bl	SCSI_ProcessCmd
 542              	.LVL45:
 199:Middlewares/ST/STM32_USB_Device_Library/Class/MSC/Src/usbd_msc_bot.c ****       {
 543              		.loc 1 199 10 view .LVU147
 544 0034 0028     		cmp	r0, #0
 545 0036 F6DA     		bge	.L31
 201:Middlewares/ST/STM32_USB_Device_Library/Class/MSC/Src/usbd_msc_bot.c ****       }
 546              		.loc 1 201 9 is_stmt 1 view .LVU148
 547 0038 0121     		movs	r1, #1
 548 003a 2046     		mov	r0, r4
 549 003c FFF7FEFF 		bl	MSC_BOT_SendCSW
 550              	.LVL46:
 551 0040 F1E7     		b	.L31
 552              	.LVL47:
 553              	.L37:
 554              	.LCFI6:
 555              		.cfi_def_cfa_offset 0
 556              		.cfi_restore 4
 557              		.cfi_restore 14
 201:Middlewares/ST/STM32_USB_Device_Library/Class/MSC/Src/usbd_msc_bot.c ****       }
 558              		.loc 1 201 9 is_stmt 0 view .LVU149
 559 0042 7047     		bx	lr
 560              		.cfi_endproc
 561              	.LFE137:
ARM GAS  C:\Users\ADMINI~1\AppData\Local\Temp\ccoWGqne.s 			page 20


 563              		.section	.text.MSC_BOT_CBW_Decode,"ax",%progbits
 564              		.align	1
 565              		.syntax unified
 566              		.thumb
 567              		.thumb_func
 569              	MSC_BOT_CBW_Decode:
 570              	.LVL48:
 571              	.LFB139:
 257:Middlewares/ST/STM32_USB_Device_Library/Class/MSC/Src/usbd_msc_bot.c ****   USBD_MSC_BOT_HandleTypeDef *hmsc = (USBD_MSC_BOT_HandleTypeDef *)pdev->pClassDataCmsit[pdev->clas
 572              		.loc 1 257 1 is_stmt 1 view -0
 573              		.cfi_startproc
 574              		@ args = 0, pretend = 0, frame = 0
 575              		@ frame_needed = 0, uses_anonymous_args = 0
 257:Middlewares/ST/STM32_USB_Device_Library/Class/MSC/Src/usbd_msc_bot.c ****   USBD_MSC_BOT_HandleTypeDef *hmsc = (USBD_MSC_BOT_HandleTypeDef *)pdev->pClassDataCmsit[pdev->clas
 576              		.loc 1 257 1 is_stmt 0 view .LVU151
 577 0000 38B5     		push	{r3, r4, r5, lr}
 578              	.LCFI7:
 579              		.cfi_def_cfa_offset 16
 580              		.cfi_offset 3, -16
 581              		.cfi_offset 4, -12
 582              		.cfi_offset 5, -8
 583              		.cfi_offset 14, -4
 258:Middlewares/ST/STM32_USB_Device_Library/Class/MSC/Src/usbd_msc_bot.c **** 
 584              		.loc 1 258 3 is_stmt 1 view .LVU152
 258:Middlewares/ST/STM32_USB_Device_Library/Class/MSC/Src/usbd_msc_bot.c **** 
 585              		.loc 1 258 94 is_stmt 0 view .LVU153
 586 0002 D0F8D432 		ldr	r3, [r0, #724]
 258:Middlewares/ST/STM32_USB_Device_Library/Class/MSC/Src/usbd_msc_bot.c **** 
 587              		.loc 1 258 31 view .LVU154
 588 0006 B033     		adds	r3, r3, #176
 589 0008 50F82350 		ldr	r5, [r0, r3, lsl #2]
 590              	.LVL49:
 266:Middlewares/ST/STM32_USB_Device_Library/Class/MSC/Src/usbd_msc_bot.c ****   {
 591              		.loc 1 266 3 is_stmt 1 view .LVU155
 266:Middlewares/ST/STM32_USB_Device_Library/Class/MSC/Src/usbd_msc_bot.c ****   {
 592              		.loc 1 266 6 is_stmt 0 view .LVU156
 593 000c FDB1     		cbz	r5, .L40
 594 000e 0446     		mov	r4, r0
 271:Middlewares/ST/STM32_USB_Device_Library/Class/MSC/Src/usbd_msc_bot.c ****   hmsc->csw.dDataResidue = hmsc->cbw.dDataLength;
 595              		.loc 1 271 3 is_stmt 1 view .LVU157
 271:Middlewares/ST/STM32_USB_Device_Library/Class/MSC/Src/usbd_msc_bot.c ****   hmsc->csw.dDataResidue = hmsc->cbw.dDataLength;
 596              		.loc 1 271 29 is_stmt 0 view .LVU158
 597 0010 D5F81432 		ldr	r3, [r5, #532]
 271:Middlewares/ST/STM32_USB_Device_Library/Class/MSC/Src/usbd_msc_bot.c ****   hmsc->csw.dDataResidue = hmsc->cbw.dDataLength;
 598              		.loc 1 271 18 view .LVU159
 599 0014 C5F83432 		str	r3, [r5, #564]
 272:Middlewares/ST/STM32_USB_Device_Library/Class/MSC/Src/usbd_msc_bot.c **** 
 600              		.loc 1 272 3 is_stmt 1 view .LVU160
 272:Middlewares/ST/STM32_USB_Device_Library/Class/MSC/Src/usbd_msc_bot.c **** 
 601              		.loc 1 272 37 is_stmt 0 view .LVU161
 602 0018 D5F81832 		ldr	r3, [r5, #536]
 272:Middlewares/ST/STM32_USB_Device_Library/Class/MSC/Src/usbd_msc_bot.c **** 
 603              		.loc 1 272 26 view .LVU162
 604 001c C5F83832 		str	r3, [r5, #568]
 274:Middlewares/ST/STM32_USB_Device_Library/Class/MSC/Src/usbd_msc_bot.c ****       (hmsc->cbw.dSignature != USBD_BOT_CBW_SIGNATURE) ||
 605              		.loc 1 274 3 is_stmt 1 view .LVU163
 274:Middlewares/ST/STM32_USB_Device_Library/Class/MSC/Src/usbd_msc_bot.c ****       (hmsc->cbw.dSignature != USBD_BOT_CBW_SIGNATURE) ||
ARM GAS  C:\Users\ADMINI~1\AppData\Local\Temp\ccoWGqne.s 			page 21


 606              		.loc 1 274 8 is_stmt 0 view .LVU164
 607 0020 234B     		ldr	r3, .L51
 608 0022 1978     		ldrb	r1, [r3]	@ zero_extendqisi2
 609 0024 FFF7FEFF 		bl	USBD_LL_GetRxDataSize
 610              	.LVL50:
 274:Middlewares/ST/STM32_USB_Device_Library/Class/MSC/Src/usbd_msc_bot.c ****       (hmsc->cbw.dSignature != USBD_BOT_CBW_SIGNATURE) ||
 611              		.loc 1 274 6 view .LVU165
 612 0028 1F28     		cmp	r0, #31
 613 002a 04D1     		bne	.L42
 275:Middlewares/ST/STM32_USB_Device_Library/Class/MSC/Src/usbd_msc_bot.c ****       (hmsc->cbw.bLUN > 1U) || (hmsc->cbw.bCBLength < 1U) ||
 614              		.loc 1 275 17 discriminator 1 view .LVU166
 615 002c D5F81022 		ldr	r2, [r5, #528]
 274:Middlewares/ST/STM32_USB_Device_Library/Class/MSC/Src/usbd_msc_bot.c ****       (hmsc->cbw.dSignature != USBD_BOT_CBW_SIGNATURE) ||
 616              		.loc 1 274 73 discriminator 1 view .LVU167
 617 0030 204B     		ldr	r3, .L51+4
 618 0032 9A42     		cmp	r2, r3
 619 0034 0CD0     		beq	.L48
 620              	.L42:
 279:Middlewares/ST/STM32_USB_Device_Library/Class/MSC/Src/usbd_msc_bot.c **** 
 621              		.loc 1 279 5 is_stmt 1 view .LVU168
 622 0036 2023     		movs	r3, #32
 623 0038 0522     		movs	r2, #5
 624 003a 95F81D12 		ldrb	r1, [r5, #541]	@ zero_extendqisi2
 625 003e 2046     		mov	r0, r4
 626 0040 FFF7FEFF 		bl	SCSI_SenseCode
 627              	.LVL51:
 281:Middlewares/ST/STM32_USB_Device_Library/Class/MSC/Src/usbd_msc_bot.c ****     MSC_BOT_Abort(pdev);
 628              		.loc 1 281 5 view .LVU169
 281:Middlewares/ST/STM32_USB_Device_Library/Class/MSC/Src/usbd_msc_bot.c ****     MSC_BOT_Abort(pdev);
 629              		.loc 1 281 22 is_stmt 0 view .LVU170
 630 0044 0223     		movs	r3, #2
 631 0046 6B72     		strb	r3, [r5, #9]
 282:Middlewares/ST/STM32_USB_Device_Library/Class/MSC/Src/usbd_msc_bot.c ****   }
 632              		.loc 1 282 5 is_stmt 1 view .LVU171
 633 0048 2046     		mov	r0, r4
 634 004a FFF7FEFF 		bl	MSC_BOT_Abort
 635              	.LVL52:
 636              	.L40:
 320:Middlewares/ST/STM32_USB_Device_Library/Class/MSC/Src/usbd_msc_bot.c **** 
 637              		.loc 1 320 1 is_stmt 0 view .LVU172
 638 004e 38BD     		pop	{r3, r4, r5, pc}
 639              	.LVL53:
 640              	.L48:
 276:Middlewares/ST/STM32_USB_Device_Library/Class/MSC/Src/usbd_msc_bot.c ****       (hmsc->cbw.bCBLength > 16U))
 641              		.loc 1 276 17 view .LVU173
 642 0050 95F81D12 		ldrb	r1, [r5, #541]	@ zero_extendqisi2
 275:Middlewares/ST/STM32_USB_Device_Library/Class/MSC/Src/usbd_msc_bot.c ****       (hmsc->cbw.bLUN > 1U) || (hmsc->cbw.bCBLength < 1U) ||
 643              		.loc 1 275 56 view .LVU174
 644 0054 0129     		cmp	r1, #1
 645 0056 EED8     		bhi	.L42
 276:Middlewares/ST/STM32_USB_Device_Library/Class/MSC/Src/usbd_msc_bot.c ****       (hmsc->cbw.bCBLength > 16U))
 646              		.loc 1 276 42 view .LVU175
 647 0058 95F81E32 		ldrb	r3, [r5, #542]	@ zero_extendqisi2
 276:Middlewares/ST/STM32_USB_Device_Library/Class/MSC/Src/usbd_msc_bot.c ****       (hmsc->cbw.bCBLength > 16U))
 648              		.loc 1 276 29 view .LVU176
 649 005c 002B     		cmp	r3, #0
 650 005e EAD0     		beq	.L42
ARM GAS  C:\Users\ADMINI~1\AppData\Local\Temp\ccoWGqne.s 			page 22


 276:Middlewares/ST/STM32_USB_Device_Library/Class/MSC/Src/usbd_msc_bot.c ****       (hmsc->cbw.bCBLength > 16U))
 651              		.loc 1 276 59 discriminator 1 view .LVU177
 652 0060 102B     		cmp	r3, #16
 653 0062 E8D8     		bhi	.L42
 286:Middlewares/ST/STM32_USB_Device_Library/Class/MSC/Src/usbd_msc_bot.c ****     {
 654              		.loc 1 286 5 is_stmt 1 view .LVU178
 286:Middlewares/ST/STM32_USB_Device_Library/Class/MSC/Src/usbd_msc_bot.c ****     {
 655              		.loc 1 286 9 is_stmt 0 view .LVU179
 656 0064 05F21F22 		addw	r2, r5, #543
 657 0068 2046     		mov	r0, r4
 658 006a FFF7FEFF 		bl	SCSI_ProcessCmd
 659              	.LVL54:
 286:Middlewares/ST/STM32_USB_Device_Library/Class/MSC/Src/usbd_msc_bot.c ****     {
 660              		.loc 1 286 8 view .LVU180
 661 006e 0028     		cmp	r0, #0
 662 0070 0CDB     		blt	.L49
 298:Middlewares/ST/STM32_USB_Device_Library/Class/MSC/Src/usbd_msc_bot.c ****              (hmsc->bot_state != USBD_BOT_DATA_OUT) &&
 663              		.loc 1 298 10 is_stmt 1 view .LVU181
 298:Middlewares/ST/STM32_USB_Device_Library/Class/MSC/Src/usbd_msc_bot.c ****              (hmsc->bot_state != USBD_BOT_DATA_OUT) &&
 664              		.loc 1 298 19 is_stmt 0 view .LVU182
 665 0072 2B7A     		ldrb	r3, [r5, #8]	@ zero_extendqisi2
 299:Middlewares/ST/STM32_USB_Device_Library/Class/MSC/Src/usbd_msc_bot.c ****              (hmsc->bot_state != USBD_BOT_LAST_DATA_IN))
 666              		.loc 1 299 53 view .LVU183
 667 0074 013B     		subs	r3, r3, #1
 668 0076 DBB2     		uxtb	r3, r3
 298:Middlewares/ST/STM32_USB_Device_Library/Class/MSC/Src/usbd_msc_bot.c ****              (hmsc->bot_state != USBD_BOT_DATA_OUT) &&
 669              		.loc 1 298 13 view .LVU184
 670 0078 022B     		cmp	r3, #2
 671 007a E8D9     		bls	.L40
 302:Middlewares/ST/STM32_USB_Device_Library/Class/MSC/Src/usbd_msc_bot.c ****       {
 672              		.loc 1 302 7 is_stmt 1 view .LVU185
 302:Middlewares/ST/STM32_USB_Device_Library/Class/MSC/Src/usbd_msc_bot.c ****       {
 673              		.loc 1 302 15 is_stmt 0 view .LVU186
 674 007c EA68     		ldr	r2, [r5, #12]
 302:Middlewares/ST/STM32_USB_Device_Library/Class/MSC/Src/usbd_msc_bot.c ****       {
 675              		.loc 1 302 10 view .LVU187
 676 007e 8AB1     		cbz	r2, .L46
 304:Middlewares/ST/STM32_USB_Device_Library/Class/MSC/Src/usbd_msc_bot.c ****       }
 677              		.loc 1 304 9 is_stmt 1 view .LVU188
 678 0080 05F11001 		add	r1, r5, #16
 679 0084 2046     		mov	r0, r4
 680 0086 FFF7FEFF 		bl	MSC_BOT_SendData
 681              	.LVL55:
 682 008a E0E7     		b	.L40
 683              	.L49:
 288:Middlewares/ST/STM32_USB_Device_Library/Class/MSC/Src/usbd_msc_bot.c ****       {
 684              		.loc 1 288 7 view .LVU189
 288:Middlewares/ST/STM32_USB_Device_Library/Class/MSC/Src/usbd_msc_bot.c ****       {
 685              		.loc 1 288 15 is_stmt 0 view .LVU190
 686 008c 2B7A     		ldrb	r3, [r5, #8]	@ zero_extendqisi2
 288:Middlewares/ST/STM32_USB_Device_Library/Class/MSC/Src/usbd_msc_bot.c ****       {
 687              		.loc 1 288 10 view .LVU191
 688 008e 052B     		cmp	r3, #5
 689 0090 03D0     		beq	.L50
 294:Middlewares/ST/STM32_USB_Device_Library/Class/MSC/Src/usbd_msc_bot.c ****       }
 690              		.loc 1 294 9 is_stmt 1 view .LVU192
 691 0092 2046     		mov	r0, r4
ARM GAS  C:\Users\ADMINI~1\AppData\Local\Temp\ccoWGqne.s 			page 23


 692 0094 FFF7FEFF 		bl	MSC_BOT_Abort
 693              	.LVL56:
 694 0098 D9E7     		b	.L40
 695              	.L50:
 290:Middlewares/ST/STM32_USB_Device_Library/Class/MSC/Src/usbd_msc_bot.c ****       }
 696              		.loc 1 290 9 view .LVU193
 697 009a 0121     		movs	r1, #1
 698 009c 2046     		mov	r0, r4
 699 009e FFF7FEFF 		bl	MSC_BOT_SendCSW
 700              	.LVL57:
 701 00a2 D4E7     		b	.L40
 702              	.L46:
 306:Middlewares/ST/STM32_USB_Device_Library/Class/MSC/Src/usbd_msc_bot.c ****       {
 703              		.loc 1 306 12 view .LVU194
 308:Middlewares/ST/STM32_USB_Device_Library/Class/MSC/Src/usbd_msc_bot.c ****       }
 704              		.loc 1 308 9 view .LVU195
 705 00a4 0021     		movs	r1, #0
 706 00a6 2046     		mov	r0, r4
 707 00a8 FFF7FEFF 		bl	MSC_BOT_SendCSW
 708              	.LVL58:
 709 00ac CFE7     		b	.L40
 710              	.L52:
 711 00ae 00BF     		.align	2
 712              	.L51:
 713 00b0 00000000 		.word	MSCOutEpAdd
 714 00b4 55534243 		.word	1128420181
 715              		.cfi_endproc
 716              	.LFE139:
 718              		.section	.text.MSC_BOT_DataOut,"ax",%progbits
 719              		.align	1
 720              		.global	MSC_BOT_DataOut
 721              		.syntax unified
 722              		.thumb
 723              		.thumb_func
 725              	MSC_BOT_DataOut:
 726              	.LVL59:
 727              	.LFB138:
 222:Middlewares/ST/STM32_USB_Device_Library/Class/MSC/Src/usbd_msc_bot.c ****   UNUSED(epnum);
 728              		.loc 1 222 1 view -0
 729              		.cfi_startproc
 730              		@ args = 0, pretend = 0, frame = 0
 731              		@ frame_needed = 0, uses_anonymous_args = 0
 223:Middlewares/ST/STM32_USB_Device_Library/Class/MSC/Src/usbd_msc_bot.c **** 
 732              		.loc 1 223 3 view .LVU197
 225:Middlewares/ST/STM32_USB_Device_Library/Class/MSC/Src/usbd_msc_bot.c **** 
 733              		.loc 1 225 3 view .LVU198
 225:Middlewares/ST/STM32_USB_Device_Library/Class/MSC/Src/usbd_msc_bot.c **** 
 734              		.loc 1 225 94 is_stmt 0 view .LVU199
 735 0000 D0F8D432 		ldr	r3, [r0, #724]
 225:Middlewares/ST/STM32_USB_Device_Library/Class/MSC/Src/usbd_msc_bot.c **** 
 736              		.loc 1 225 31 view .LVU200
 737 0004 B033     		adds	r3, r3, #176
 738 0006 50F82330 		ldr	r3, [r0, r3, lsl #2]
 739              	.LVL60:
 227:Middlewares/ST/STM32_USB_Device_Library/Class/MSC/Src/usbd_msc_bot.c ****   {
 740              		.loc 1 227 3 is_stmt 1 view .LVU201
 227:Middlewares/ST/STM32_USB_Device_Library/Class/MSC/Src/usbd_msc_bot.c ****   {
ARM GAS  C:\Users\ADMINI~1\AppData\Local\Temp\ccoWGqne.s 			page 24


 741              		.loc 1 227 6 is_stmt 0 view .LVU202
 742 000a B3B1     		cbz	r3, .L58
 222:Middlewares/ST/STM32_USB_Device_Library/Class/MSC/Src/usbd_msc_bot.c ****   UNUSED(epnum);
 743              		.loc 1 222 1 view .LVU203
 744 000c 10B5     		push	{r4, lr}
 745              	.LCFI8:
 746              		.cfi_def_cfa_offset 8
 747              		.cfi_offset 4, -8
 748              		.cfi_offset 14, -4
 749 000e 0446     		mov	r4, r0
 232:Middlewares/ST/STM32_USB_Device_Library/Class/MSC/Src/usbd_msc_bot.c ****   {
 750              		.loc 1 232 3 is_stmt 1 view .LVU204
 232:Middlewares/ST/STM32_USB_Device_Library/Class/MSC/Src/usbd_msc_bot.c ****   {
 751              		.loc 1 232 15 is_stmt 0 view .LVU205
 752 0010 1A7A     		ldrb	r2, [r3, #8]	@ zero_extendqisi2
 232:Middlewares/ST/STM32_USB_Device_Library/Class/MSC/Src/usbd_msc_bot.c ****   {
 753              		.loc 1 232 3 view .LVU206
 754 0012 12B1     		cbz	r2, .L55
 755 0014 012A     		cmp	r2, #1
 756 0016 03D0     		beq	.L56
 757              	.LVL61:
 758              	.L53:
 248:Middlewares/ST/STM32_USB_Device_Library/Class/MSC/Src/usbd_msc_bot.c **** 
 759              		.loc 1 248 1 view .LVU207
 760 0018 10BD     		pop	{r4, pc}
 761              	.LVL62:
 762              	.L55:
 235:Middlewares/ST/STM32_USB_Device_Library/Class/MSC/Src/usbd_msc_bot.c ****       break;
 763              		.loc 1 235 7 is_stmt 1 view .LVU208
 764 001a FFF7FEFF 		bl	MSC_BOT_CBW_Decode
 765              	.LVL63:
 236:Middlewares/ST/STM32_USB_Device_Library/Class/MSC/Src/usbd_msc_bot.c **** 
 766              		.loc 1 236 7 view .LVU209
 767 001e FBE7     		b	.L53
 768              	.LVL64:
 769              	.L56:
 239:Middlewares/ST/STM32_USB_Device_Library/Class/MSC/Src/usbd_msc_bot.c ****       {
 770              		.loc 1 239 7 view .LVU210
 239:Middlewares/ST/STM32_USB_Device_Library/Class/MSC/Src/usbd_msc_bot.c ****       {
 771              		.loc 1 239 11 is_stmt 0 view .LVU211
 772 0020 03F21F22 		addw	r2, r3, #543
 773 0024 93F81D12 		ldrb	r1, [r3, #541]	@ zero_extendqisi2
 774              	.LVL65:
 239:Middlewares/ST/STM32_USB_Device_Library/Class/MSC/Src/usbd_msc_bot.c ****       {
 775              		.loc 1 239 11 view .LVU212
 776 0028 FFF7FEFF 		bl	SCSI_ProcessCmd
 777              	.LVL66:
 239:Middlewares/ST/STM32_USB_Device_Library/Class/MSC/Src/usbd_msc_bot.c ****       {
 778              		.loc 1 239 10 view .LVU213
 779 002c 0028     		cmp	r0, #0
 780 002e F3DA     		bge	.L53
 241:Middlewares/ST/STM32_USB_Device_Library/Class/MSC/Src/usbd_msc_bot.c ****       }
 781              		.loc 1 241 9 is_stmt 1 view .LVU214
 782 0030 0121     		movs	r1, #1
 783 0032 2046     		mov	r0, r4
 784 0034 FFF7FEFF 		bl	MSC_BOT_SendCSW
 785              	.LVL67:
ARM GAS  C:\Users\ADMINI~1\AppData\Local\Temp\ccoWGqne.s 			page 25


 786 0038 EEE7     		b	.L53
 787              	.LVL68:
 788              	.L58:
 789              	.LCFI9:
 790              		.cfi_def_cfa_offset 0
 791              		.cfi_restore 4
 792              		.cfi_restore 14
 241:Middlewares/ST/STM32_USB_Device_Library/Class/MSC/Src/usbd_msc_bot.c ****       }
 793              		.loc 1 241 9 is_stmt 0 view .LVU215
 794 003a 7047     		bx	lr
 795              		.cfi_endproc
 796              	.LFE138:
 798              		.section	.text.MSC_BOT_CplClrFeature,"ax",%progbits
 799              		.align	1
 800              		.global	MSC_BOT_CplClrFeature
 801              		.syntax unified
 802              		.thumb
 803              		.thumb_func
 805              	MSC_BOT_CplClrFeature:
 806              	.LVL69:
 807              	.LFB143:
 427:Middlewares/ST/STM32_USB_Device_Library/Class/MSC/Src/usbd_msc_bot.c **** 
 428:Middlewares/ST/STM32_USB_Device_Library/Class/MSC/Src/usbd_msc_bot.c **** /**
 429:Middlewares/ST/STM32_USB_Device_Library/Class/MSC/Src/usbd_msc_bot.c ****   * @brief  MSC_BOT_CplClrFeature
 430:Middlewares/ST/STM32_USB_Device_Library/Class/MSC/Src/usbd_msc_bot.c ****   *         Complete the clear feature request
 431:Middlewares/ST/STM32_USB_Device_Library/Class/MSC/Src/usbd_msc_bot.c ****   * @param  pdev: device instance
 432:Middlewares/ST/STM32_USB_Device_Library/Class/MSC/Src/usbd_msc_bot.c ****   * @param  epnum: endpoint index
 433:Middlewares/ST/STM32_USB_Device_Library/Class/MSC/Src/usbd_msc_bot.c ****   * @retval None
 434:Middlewares/ST/STM32_USB_Device_Library/Class/MSC/Src/usbd_msc_bot.c ****   */
 435:Middlewares/ST/STM32_USB_Device_Library/Class/MSC/Src/usbd_msc_bot.c **** 
 436:Middlewares/ST/STM32_USB_Device_Library/Class/MSC/Src/usbd_msc_bot.c **** void  MSC_BOT_CplClrFeature(USBD_HandleTypeDef *pdev, uint8_t epnum)
 437:Middlewares/ST/STM32_USB_Device_Library/Class/MSC/Src/usbd_msc_bot.c **** {
 808              		.loc 1 437 1 is_stmt 1 view -0
 809              		.cfi_startproc
 810              		@ args = 0, pretend = 0, frame = 0
 811              		@ frame_needed = 0, uses_anonymous_args = 0
 438:Middlewares/ST/STM32_USB_Device_Library/Class/MSC/Src/usbd_msc_bot.c ****   USBD_MSC_BOT_HandleTypeDef *hmsc = (USBD_MSC_BOT_HandleTypeDef *)pdev->pClassDataCmsit[pdev->clas
 812              		.loc 1 438 3 view .LVU217
 813              		.loc 1 438 94 is_stmt 0 view .LVU218
 814 0000 D0F8D432 		ldr	r3, [r0, #724]
 815              		.loc 1 438 31 view .LVU219
 816 0004 B033     		adds	r3, r3, #176
 817 0006 50F82330 		ldr	r3, [r0, r3, lsl #2]
 818              	.LVL70:
 439:Middlewares/ST/STM32_USB_Device_Library/Class/MSC/Src/usbd_msc_bot.c **** 
 440:Middlewares/ST/STM32_USB_Device_Library/Class/MSC/Src/usbd_msc_bot.c **** #ifdef USE_USBD_COMPOSITE
 441:Middlewares/ST/STM32_USB_Device_Library/Class/MSC/Src/usbd_msc_bot.c ****   /* Get the Endpoints addresses allocated for this class instance */
 442:Middlewares/ST/STM32_USB_Device_Library/Class/MSC/Src/usbd_msc_bot.c ****   MSCInEpAdd  = USBD_CoreGetEPAdd(pdev, USBD_EP_IN, USBD_EP_TYPE_BULK);
 443:Middlewares/ST/STM32_USB_Device_Library/Class/MSC/Src/usbd_msc_bot.c ****   MSCOutEpAdd = USBD_CoreGetEPAdd(pdev, USBD_EP_OUT, USBD_EP_TYPE_BULK);
 444:Middlewares/ST/STM32_USB_Device_Library/Class/MSC/Src/usbd_msc_bot.c **** #endif /* USE_USBD_COMPOSITE */
 445:Middlewares/ST/STM32_USB_Device_Library/Class/MSC/Src/usbd_msc_bot.c **** 
 446:Middlewares/ST/STM32_USB_Device_Library/Class/MSC/Src/usbd_msc_bot.c ****   if (hmsc == NULL)
 819              		.loc 1 446 3 is_stmt 1 view .LVU220
 820              		.loc 1 446 6 is_stmt 0 view .LVU221
 821 000a BBB1     		cbz	r3, .L65
 437:Middlewares/ST/STM32_USB_Device_Library/Class/MSC/Src/usbd_msc_bot.c ****   USBD_MSC_BOT_HandleTypeDef *hmsc = (USBD_MSC_BOT_HandleTypeDef *)pdev->pClassDataCmsit[pdev->clas
 822              		.loc 1 437 1 view .LVU222
ARM GAS  C:\Users\ADMINI~1\AppData\Local\Temp\ccoWGqne.s 			page 26


 823 000c 10B5     		push	{r4, lr}
 824              	.LCFI10:
 825              		.cfi_def_cfa_offset 8
 826              		.cfi_offset 4, -8
 827              		.cfi_offset 14, -4
 828 000e 0446     		mov	r4, r0
 447:Middlewares/ST/STM32_USB_Device_Library/Class/MSC/Src/usbd_msc_bot.c ****   {
 448:Middlewares/ST/STM32_USB_Device_Library/Class/MSC/Src/usbd_msc_bot.c ****     return;
 449:Middlewares/ST/STM32_USB_Device_Library/Class/MSC/Src/usbd_msc_bot.c ****   }
 450:Middlewares/ST/STM32_USB_Device_Library/Class/MSC/Src/usbd_msc_bot.c **** 
 451:Middlewares/ST/STM32_USB_Device_Library/Class/MSC/Src/usbd_msc_bot.c ****   if (hmsc->bot_status == USBD_BOT_STATUS_ERROR) /* Bad CBW Signature */
 829              		.loc 1 451 3 is_stmt 1 view .LVU223
 830              		.loc 1 451 11 is_stmt 0 view .LVU224
 831 0010 5B7A     		ldrb	r3, [r3, #9]	@ zero_extendqisi2
 832              	.LVL71:
 833              		.loc 1 451 6 view .LVU225
 834 0012 022B     		cmp	r3, #2
 835 0014 08D0     		beq	.L68
 452:Middlewares/ST/STM32_USB_Device_Library/Class/MSC/Src/usbd_msc_bot.c ****   {
 453:Middlewares/ST/STM32_USB_Device_Library/Class/MSC/Src/usbd_msc_bot.c ****     (void)USBD_LL_StallEP(pdev, MSCInEpAdd);
 454:Middlewares/ST/STM32_USB_Device_Library/Class/MSC/Src/usbd_msc_bot.c ****     (void)USBD_LL_StallEP(pdev, MSCOutEpAdd);
 455:Middlewares/ST/STM32_USB_Device_Library/Class/MSC/Src/usbd_msc_bot.c ****   }
 456:Middlewares/ST/STM32_USB_Device_Library/Class/MSC/Src/usbd_msc_bot.c ****   else if (((epnum & 0x80U) == 0x80U) && (hmsc->bot_status != USBD_BOT_STATUS_RECOVERY))
 836              		.loc 1 456 8 is_stmt 1 view .LVU226
 837              		.loc 1 456 11 is_stmt 0 view .LVU227
 838 0016 11F0800F 		tst	r1, #128
 839 001a 04D0     		beq	.L61
 840              		.loc 1 456 39 discriminator 1 view .LVU228
 841 001c 012B     		cmp	r3, #1
 842 001e 02D0     		beq	.L61
 457:Middlewares/ST/STM32_USB_Device_Library/Class/MSC/Src/usbd_msc_bot.c ****   {
 458:Middlewares/ST/STM32_USB_Device_Library/Class/MSC/Src/usbd_msc_bot.c ****     MSC_BOT_SendCSW(pdev, USBD_CSW_CMD_FAILED);
 843              		.loc 1 458 5 is_stmt 1 view .LVU229
 844 0020 0121     		movs	r1, #1
 845              	.LVL72:
 846              		.loc 1 458 5 is_stmt 0 view .LVU230
 847 0022 FFF7FEFF 		bl	MSC_BOT_SendCSW
 848              	.LVL73:
 849              	.L61:
 459:Middlewares/ST/STM32_USB_Device_Library/Class/MSC/Src/usbd_msc_bot.c ****   }
 460:Middlewares/ST/STM32_USB_Device_Library/Class/MSC/Src/usbd_msc_bot.c ****   else
 461:Middlewares/ST/STM32_USB_Device_Library/Class/MSC/Src/usbd_msc_bot.c ****   {
 462:Middlewares/ST/STM32_USB_Device_Library/Class/MSC/Src/usbd_msc_bot.c ****     return;
 463:Middlewares/ST/STM32_USB_Device_Library/Class/MSC/Src/usbd_msc_bot.c ****   }
 464:Middlewares/ST/STM32_USB_Device_Library/Class/MSC/Src/usbd_msc_bot.c **** }
 850              		.loc 1 464 1 view .LVU231
 851 0026 10BD     		pop	{r4, pc}
 852              	.LVL74:
 853              	.L68:
 453:Middlewares/ST/STM32_USB_Device_Library/Class/MSC/Src/usbd_msc_bot.c ****     (void)USBD_LL_StallEP(pdev, MSCOutEpAdd);
 854              		.loc 1 453 5 is_stmt 1 view .LVU232
 453:Middlewares/ST/STM32_USB_Device_Library/Class/MSC/Src/usbd_msc_bot.c ****     (void)USBD_LL_StallEP(pdev, MSCOutEpAdd);
 855              		.loc 1 453 11 is_stmt 0 view .LVU233
 856 0028 054B     		ldr	r3, .L69
 857 002a 1978     		ldrb	r1, [r3]	@ zero_extendqisi2
 858              	.LVL75:
 453:Middlewares/ST/STM32_USB_Device_Library/Class/MSC/Src/usbd_msc_bot.c ****     (void)USBD_LL_StallEP(pdev, MSCOutEpAdd);
ARM GAS  C:\Users\ADMINI~1\AppData\Local\Temp\ccoWGqne.s 			page 27


 859              		.loc 1 453 11 view .LVU234
 860 002c FFF7FEFF 		bl	USBD_LL_StallEP
 861              	.LVL76:
 454:Middlewares/ST/STM32_USB_Device_Library/Class/MSC/Src/usbd_msc_bot.c ****   }
 862              		.loc 1 454 5 is_stmt 1 view .LVU235
 454:Middlewares/ST/STM32_USB_Device_Library/Class/MSC/Src/usbd_msc_bot.c ****   }
 863              		.loc 1 454 11 is_stmt 0 view .LVU236
 864 0030 044B     		ldr	r3, .L69+4
 865 0032 1978     		ldrb	r1, [r3]	@ zero_extendqisi2
 866 0034 2046     		mov	r0, r4
 867 0036 FFF7FEFF 		bl	USBD_LL_StallEP
 868              	.LVL77:
 869 003a F4E7     		b	.L61
 870              	.LVL78:
 871              	.L65:
 872              	.LCFI11:
 873              		.cfi_def_cfa_offset 0
 874              		.cfi_restore 4
 875              		.cfi_restore 14
 454:Middlewares/ST/STM32_USB_Device_Library/Class/MSC/Src/usbd_msc_bot.c ****   }
 876              		.loc 1 454 11 view .LVU237
 877 003c 7047     		bx	lr
 878              	.L70:
 879 003e 00BF     		.align	2
 880              	.L69:
 881 0040 00000000 		.word	MSCInEpAdd
 882 0044 00000000 		.word	MSCOutEpAdd
 883              		.cfi_endproc
 884              	.LFE143:
 886              		.text
 887              	.Letext0:
 888              		.file 2 "c:\\program files (x86)\\gnu arm embedded toolchain\\10 2021.10\\arm-none-eabi\\include\\
 889              		.file 3 "c:\\program files (x86)\\gnu arm embedded toolchain\\10 2021.10\\arm-none-eabi\\include\\
 890              		.file 4 "Middlewares/ST/STM32_USB_Device_Library/Core/Inc/usbd_def.h"
 891              		.file 5 "Middlewares/ST/STM32_USB_Device_Library/Class/MSC/Inc/usbd_msc_bot.h"
 892              		.file 6 "Middlewares/ST/STM32_USB_Device_Library/Class/MSC/Inc/usbd_msc_scsi.h"
 893              		.file 7 "Middlewares/ST/STM32_USB_Device_Library/Class/MSC/Inc/usbd_msc.h"
 894              		.file 8 "Middlewares/ST/STM32_USB_Device_Library/Core/Inc/usbd_core.h"
ARM GAS  C:\Users\ADMINI~1\AppData\Local\Temp\ccoWGqne.s 			page 28

