ARM GAS  C:\Users\ADMINI~1\AppData\Local\Temp\ccslNEp2.s 			page 1


   1              		.cpu cortex-m4
   2              		.arch armv7e-m
   3              		.fpu fpv4-sp-d16
   4              		.eabi_attribute 27, 1
   5              		.eabi_attribute 28, 1
   6              		.eabi_attribute 20, 1
   7              		.eabi_attribute 21, 1
   8              		.eabi_attribute 23, 3
   9              		.eabi_attribute 24, 1
  10              		.eabi_attribute 25, 1
  11              		.eabi_attribute 26, 1
  12              		.eabi_attribute 30, 1
  13              		.eabi_attribute 34, 1
  14              		.eabi_attribute 18, 4
  15              		.file	"usbd_winUsb.c"
  16              		.text
  17              	.Ltext0:
  18              		.cfi_sections	.debug_frame
  19              		.section	.text.USBD_WinUsb_EP0_RxReady,"ax",%progbits
  20              		.align	1
  21              		.syntax unified
  22              		.thumb
  23              		.thumb_func
  25              	USBD_WinUsb_EP0_RxReady:
  26              	.LVL0:
  27              	.LFB148:
  28              		.file 1 "Middlewares/ST/STM32_USB_Device_Library/Class/winUsb/Src/usbd_winUsb.c"
   1:Middlewares/ST/STM32_USB_Device_Library/Class/winUsb/Src/usbd_winUsb.c **** /**
   2:Middlewares/ST/STM32_USB_Device_Library/Class/winUsb/Src/usbd_winUsb.c ****   ******************************************************************************
   3:Middlewares/ST/STM32_USB_Device_Library/Class/winUsb/Src/usbd_winUsb.c ****   * @file    usbd_cdc.c
   4:Middlewares/ST/STM32_USB_Device_Library/Class/winUsb/Src/usbd_winUsb.c ****   * @author  MCD Application Team
   5:Middlewares/ST/STM32_USB_Device_Library/Class/winUsb/Src/usbd_winUsb.c ****   * @brief   This file provides the high layer firmware functions to manage the
   6:Middlewares/ST/STM32_USB_Device_Library/Class/winUsb/Src/usbd_winUsb.c ****   *          following functionalities of the USB CDC Class:
   7:Middlewares/ST/STM32_USB_Device_Library/Class/winUsb/Src/usbd_winUsb.c ****   *           - Initialization and Configuration of high and low layer
   8:Middlewares/ST/STM32_USB_Device_Library/Class/winUsb/Src/usbd_winUsb.c ****   *           - Enumeration as CDC Device (and enumeration for each implemented memory interface)
   9:Middlewares/ST/STM32_USB_Device_Library/Class/winUsb/Src/usbd_winUsb.c ****   *           - OUT/IN data transfer
  10:Middlewares/ST/STM32_USB_Device_Library/Class/winUsb/Src/usbd_winUsb.c ****   *           - Command IN transfer (class requests management)
  11:Middlewares/ST/STM32_USB_Device_Library/Class/winUsb/Src/usbd_winUsb.c ****   *           - Error management
  12:Middlewares/ST/STM32_USB_Device_Library/Class/winUsb/Src/usbd_winUsb.c ****   *
  13:Middlewares/ST/STM32_USB_Device_Library/Class/winUsb/Src/usbd_winUsb.c ****   ******************************************************************************
  14:Middlewares/ST/STM32_USB_Device_Library/Class/winUsb/Src/usbd_winUsb.c ****   * @attention
  15:Middlewares/ST/STM32_USB_Device_Library/Class/winUsb/Src/usbd_winUsb.c ****   *
  16:Middlewares/ST/STM32_USB_Device_Library/Class/winUsb/Src/usbd_winUsb.c ****   * Copyright (c) 2015 STMicroelectronics.
  17:Middlewares/ST/STM32_USB_Device_Library/Class/winUsb/Src/usbd_winUsb.c ****   * All rights reserved.
  18:Middlewares/ST/STM32_USB_Device_Library/Class/winUsb/Src/usbd_winUsb.c ****   *
  19:Middlewares/ST/STM32_USB_Device_Library/Class/winUsb/Src/usbd_winUsb.c ****   * This software is licensed under terms that can be found in the LICENSE file
  20:Middlewares/ST/STM32_USB_Device_Library/Class/winUsb/Src/usbd_winUsb.c ****   * in the root directory of this software component.
  21:Middlewares/ST/STM32_USB_Device_Library/Class/winUsb/Src/usbd_winUsb.c ****   * If no LICENSE file comes with this software, it is provided AS-IS.
  22:Middlewares/ST/STM32_USB_Device_Library/Class/winUsb/Src/usbd_winUsb.c ****   *
  23:Middlewares/ST/STM32_USB_Device_Library/Class/winUsb/Src/usbd_winUsb.c ****   ******************************************************************************
  24:Middlewares/ST/STM32_USB_Device_Library/Class/winUsb/Src/usbd_winUsb.c ****   *  @verbatim
  25:Middlewares/ST/STM32_USB_Device_Library/Class/winUsb/Src/usbd_winUsb.c ****   *
  26:Middlewares/ST/STM32_USB_Device_Library/Class/winUsb/Src/usbd_winUsb.c ****   *          ===================================================================
  27:Middlewares/ST/STM32_USB_Device_Library/Class/winUsb/Src/usbd_winUsb.c ****   *                                CDC Class Driver Description
  28:Middlewares/ST/STM32_USB_Device_Library/Class/winUsb/Src/usbd_winUsb.c ****   *          ===================================================================
  29:Middlewares/ST/STM32_USB_Device_Library/Class/winUsb/Src/usbd_winUsb.c ****   *           This driver manages the "Universal Serial Bus Class Definitions for Communications De
  30:Middlewares/ST/STM32_USB_Device_Library/Class/winUsb/Src/usbd_winUsb.c ****   *           Revision 1.2 November 16, 2007" and the sub-protocol specification of "Universal Seri
ARM GAS  C:\Users\ADMINI~1\AppData\Local\Temp\ccslNEp2.s 			page 2


  31:Middlewares/ST/STM32_USB_Device_Library/Class/winUsb/Src/usbd_winUsb.c ****   *           Communications Class Subclass Specification for PSTN Devices Revision 1.2 February 9,
  32:Middlewares/ST/STM32_USB_Device_Library/Class/winUsb/Src/usbd_winUsb.c ****   *           This driver implements the following aspects of the specification:
  33:Middlewares/ST/STM32_USB_Device_Library/Class/winUsb/Src/usbd_winUsb.c ****   *             - Device descriptor management
  34:Middlewares/ST/STM32_USB_Device_Library/Class/winUsb/Src/usbd_winUsb.c ****   *             - Configuration descriptor management
  35:Middlewares/ST/STM32_USB_Device_Library/Class/winUsb/Src/usbd_winUsb.c ****   *             - Enumeration as CDC device with 2 data endpoints (IN and OUT) and 1 command endpoi
  36:Middlewares/ST/STM32_USB_Device_Library/Class/winUsb/Src/usbd_winUsb.c ****   *             - Requests management (as described in section 6.2 in specification)
  37:Middlewares/ST/STM32_USB_Device_Library/Class/winUsb/Src/usbd_winUsb.c ****   *             - Abstract Control Model compliant
  38:Middlewares/ST/STM32_USB_Device_Library/Class/winUsb/Src/usbd_winUsb.c ****   *             - Union Functional collection (using 1 IN endpoint for control)
  39:Middlewares/ST/STM32_USB_Device_Library/Class/winUsb/Src/usbd_winUsb.c ****   *             - Data interface class
  40:Middlewares/ST/STM32_USB_Device_Library/Class/winUsb/Src/usbd_winUsb.c ****   *
  41:Middlewares/ST/STM32_USB_Device_Library/Class/winUsb/Src/usbd_winUsb.c ****   *           These aspects may be enriched or modified for a specific user application.
  42:Middlewares/ST/STM32_USB_Device_Library/Class/winUsb/Src/usbd_winUsb.c ****   *
  43:Middlewares/ST/STM32_USB_Device_Library/Class/winUsb/Src/usbd_winUsb.c ****   *            This driver doesn't implement the following aspects of the specification
  44:Middlewares/ST/STM32_USB_Device_Library/Class/winUsb/Src/usbd_winUsb.c ****   *            (but it is possible to manage these features with some modifications on this driver)
  45:Middlewares/ST/STM32_USB_Device_Library/Class/winUsb/Src/usbd_winUsb.c ****   *             - Any class-specific aspect relative to communication classes should be managed by 
  46:Middlewares/ST/STM32_USB_Device_Library/Class/winUsb/Src/usbd_winUsb.c ****   *             - All communication classes other than PSTN are not managed
  47:Middlewares/ST/STM32_USB_Device_Library/Class/winUsb/Src/usbd_winUsb.c ****   *
  48:Middlewares/ST/STM32_USB_Device_Library/Class/winUsb/Src/usbd_winUsb.c ****   *  @endverbatim
  49:Middlewares/ST/STM32_USB_Device_Library/Class/winUsb/Src/usbd_winUsb.c ****   *
  50:Middlewares/ST/STM32_USB_Device_Library/Class/winUsb/Src/usbd_winUsb.c ****   ******************************************************************************
  51:Middlewares/ST/STM32_USB_Device_Library/Class/winUsb/Src/usbd_winUsb.c ****   */
  52:Middlewares/ST/STM32_USB_Device_Library/Class/winUsb/Src/usbd_winUsb.c **** 
  53:Middlewares/ST/STM32_USB_Device_Library/Class/winUsb/Src/usbd_winUsb.c **** /* BSPDependencies
  54:Middlewares/ST/STM32_USB_Device_Library/Class/winUsb/Src/usbd_winUsb.c **** - "stm32xxxxx_{eval}{discovery}{nucleo_144}.c"
  55:Middlewares/ST/STM32_USB_Device_Library/Class/winUsb/Src/usbd_winUsb.c **** - "stm32xxxxx_{eval}{discovery}_io.c"
  56:Middlewares/ST/STM32_USB_Device_Library/Class/winUsb/Src/usbd_winUsb.c **** EndBSPDependencies */
  57:Middlewares/ST/STM32_USB_Device_Library/Class/winUsb/Src/usbd_winUsb.c **** 
  58:Middlewares/ST/STM32_USB_Device_Library/Class/winUsb/Src/usbd_winUsb.c **** /* Includes ------------------------------------------------------------------*/
  59:Middlewares/ST/STM32_USB_Device_Library/Class/winUsb/Src/usbd_winUsb.c **** #include "usbd_winUsb.h"
  60:Middlewares/ST/STM32_USB_Device_Library/Class/winUsb/Src/usbd_winUsb.c **** #include "usbd_ctlreq.h"
  61:Middlewares/ST/STM32_USB_Device_Library/Class/winUsb/Src/usbd_winUsb.c **** #include "usbd_desc.h"
  62:Middlewares/ST/STM32_USB_Device_Library/Class/winUsb/Src/usbd_winUsb.c **** #include <stdio.h>
  63:Middlewares/ST/STM32_USB_Device_Library/Class/winUsb/Src/usbd_winUsb.c **** #include "common_inc.h"
  64:Middlewares/ST/STM32_USB_Device_Library/Class/winUsb/Src/usbd_winUsb.c **** 
  65:Middlewares/ST/STM32_USB_Device_Library/Class/winUsb/Src/usbd_winUsb.c **** /** @addtogroup STM32_USB_DEVICE_LIBRARY
  66:Middlewares/ST/STM32_USB_Device_Library/Class/winUsb/Src/usbd_winUsb.c ****   * @{
  67:Middlewares/ST/STM32_USB_Device_Library/Class/winUsb/Src/usbd_winUsb.c ****   */
  68:Middlewares/ST/STM32_USB_Device_Library/Class/winUsb/Src/usbd_winUsb.c **** static uint8_t USBD_WinUsb_Init(USBD_HandleTypeDef *pdev, uint8_t cfgidx);
  69:Middlewares/ST/STM32_USB_Device_Library/Class/winUsb/Src/usbd_winUsb.c **** static uint8_t USBD_WinUsb_DeInit(USBD_HandleTypeDef *pdev, uint8_t cfgidx);
  70:Middlewares/ST/STM32_USB_Device_Library/Class/winUsb/Src/usbd_winUsb.c **** static uint8_t USBD_WinUsb_Setup(USBD_HandleTypeDef *pdev, USBD_SetupReqTypedef *req);
  71:Middlewares/ST/STM32_USB_Device_Library/Class/winUsb/Src/usbd_winUsb.c **** static uint8_t USBD_WinUsb_DataIn(USBD_HandleTypeDef *pdev, uint8_t epnum);
  72:Middlewares/ST/STM32_USB_Device_Library/Class/winUsb/Src/usbd_winUsb.c **** static uint8_t USBD_WinUsb_DataOut(USBD_HandleTypeDef *pdev, uint8_t epnum);
  73:Middlewares/ST/STM32_USB_Device_Library/Class/winUsb/Src/usbd_winUsb.c **** static uint8_t USBD_WinUsb_EP0_RxReady(USBD_HandleTypeDef *pdev);
  74:Middlewares/ST/STM32_USB_Device_Library/Class/winUsb/Src/usbd_winUsb.c **** 
  75:Middlewares/ST/STM32_USB_Device_Library/Class/winUsb/Src/usbd_winUsb.c **** 
  76:Middlewares/ST/STM32_USB_Device_Library/Class/winUsb/Src/usbd_winUsb.c **** /** @defgroup USBD_CDC
  77:Middlewares/ST/STM32_USB_Device_Library/Class/winUsb/Src/usbd_winUsb.c ****   * @brief usbd core module
  78:Middlewares/ST/STM32_USB_Device_Library/Class/winUsb/Src/usbd_winUsb.c ****   * @{
  79:Middlewares/ST/STM32_USB_Device_Library/Class/winUsb/Src/usbd_winUsb.c ****   */
  80:Middlewares/ST/STM32_USB_Device_Library/Class/winUsb/Src/usbd_winUsb.c **** 
  81:Middlewares/ST/STM32_USB_Device_Library/Class/winUsb/Src/usbd_winUsb.c **** USBD_ClassTypeDef  USBD_WinUsb =
  82:Middlewares/ST/STM32_USB_Device_Library/Class/winUsb/Src/usbd_winUsb.c **** {
  83:Middlewares/ST/STM32_USB_Device_Library/Class/winUsb/Src/usbd_winUsb.c ****   USBD_WinUsb_Init,
  84:Middlewares/ST/STM32_USB_Device_Library/Class/winUsb/Src/usbd_winUsb.c ****   USBD_WinUsb_DeInit,
  85:Middlewares/ST/STM32_USB_Device_Library/Class/winUsb/Src/usbd_winUsb.c ****   USBD_WinUsb_Setup,
  86:Middlewares/ST/STM32_USB_Device_Library/Class/winUsb/Src/usbd_winUsb.c ****   NULL,                 /* EP0_TxSent */
  87:Middlewares/ST/STM32_USB_Device_Library/Class/winUsb/Src/usbd_winUsb.c ****   USBD_WinUsb_EP0_RxReady,
ARM GAS  C:\Users\ADMINI~1\AppData\Local\Temp\ccslNEp2.s 			page 3


  88:Middlewares/ST/STM32_USB_Device_Library/Class/winUsb/Src/usbd_winUsb.c ****   USBD_WinUsb_DataIn,
  89:Middlewares/ST/STM32_USB_Device_Library/Class/winUsb/Src/usbd_winUsb.c ****   USBD_WinUsb_DataOut,
  90:Middlewares/ST/STM32_USB_Device_Library/Class/winUsb/Src/usbd_winUsb.c ****   NULL,
  91:Middlewares/ST/STM32_USB_Device_Library/Class/winUsb/Src/usbd_winUsb.c ****   NULL,
  92:Middlewares/ST/STM32_USB_Device_Library/Class/winUsb/Src/usbd_winUsb.c ****   NULL,
  93:Middlewares/ST/STM32_USB_Device_Library/Class/winUsb/Src/usbd_winUsb.c **** #ifdef USE_USBD_COMPOSITE
  94:Middlewares/ST/STM32_USB_Device_Library/Class/winUsb/Src/usbd_winUsb.c ****   NULL,
  95:Middlewares/ST/STM32_USB_Device_Library/Class/winUsb/Src/usbd_winUsb.c ****   NULL,
  96:Middlewares/ST/STM32_USB_Device_Library/Class/winUsb/Src/usbd_winUsb.c ****   NULL,
  97:Middlewares/ST/STM32_USB_Device_Library/Class/winUsb/Src/usbd_winUsb.c ****   NULL,
  98:Middlewares/ST/STM32_USB_Device_Library/Class/winUsb/Src/usbd_winUsb.c **** #else
  99:Middlewares/ST/STM32_USB_Device_Library/Class/winUsb/Src/usbd_winUsb.c ****   NULL,
 100:Middlewares/ST/STM32_USB_Device_Library/Class/winUsb/Src/usbd_winUsb.c ****   NULL,
 101:Middlewares/ST/STM32_USB_Device_Library/Class/winUsb/Src/usbd_winUsb.c ****   NULL,
 102:Middlewares/ST/STM32_USB_Device_Library/Class/winUsb/Src/usbd_winUsb.c ****   NULL,
 103:Middlewares/ST/STM32_USB_Device_Library/Class/winUsb/Src/usbd_winUsb.c ****  /*  USBD_WinUsb_GetHSCfgDesc,
 104:Middlewares/ST/STM32_USB_Device_Library/Class/winUsb/Src/usbd_winUsb.c ****   USBD_WinUsb_GetFSCfgDesc,
 105:Middlewares/ST/STM32_USB_Device_Library/Class/winUsb/Src/usbd_winUsb.c ****   USBD_WinUsb_GetOtherSpeedCfgDesc,
 106:Middlewares/ST/STM32_USB_Device_Library/Class/winUsb/Src/usbd_winUsb.c ****   USBD_WinUsb_GetDeviceQualifierDescriptor, */
 107:Middlewares/ST/STM32_USB_Device_Library/Class/winUsb/Src/usbd_winUsb.c **** #endif /* USE_USBD_COMPOSITE  */
 108:Middlewares/ST/STM32_USB_Device_Library/Class/winUsb/Src/usbd_winUsb.c ****   USBD_UsrStrDescriptor
 109:Middlewares/ST/STM32_USB_Device_Library/Class/winUsb/Src/usbd_winUsb.c **** };
 110:Middlewares/ST/STM32_USB_Device_Library/Class/winUsb/Src/usbd_winUsb.c **** 
 111:Middlewares/ST/STM32_USB_Device_Library/Class/winUsb/Src/usbd_winUsb.c **** 
 112:Middlewares/ST/STM32_USB_Device_Library/Class/winUsb/Src/usbd_winUsb.c **** #define NUM_INTERFACES 1
 113:Middlewares/ST/STM32_USB_Device_Library/Class/winUsb/Src/usbd_winUsb.c **** 
 114:Middlewares/ST/STM32_USB_Device_Library/Class/winUsb/Src/usbd_winUsb.c **** #if NUM_INTERFACES == 2
 115:Middlewares/ST/STM32_USB_Device_Library/Class/winUsb/Src/usbd_winUsb.c **** #define USB_WINUSBCOMM_COMPAT_ID_OS_DESC_SIZ       (16 + 24 + 24)
 116:Middlewares/ST/STM32_USB_Device_Library/Class/winUsb/Src/usbd_winUsb.c **** #else
 117:Middlewares/ST/STM32_USB_Device_Library/Class/winUsb/Src/usbd_winUsb.c **** #define USB_WINUSBCOMM_COMPAT_ID_OS_DESC_SIZ       (16 + 24)
 118:Middlewares/ST/STM32_USB_Device_Library/Class/winUsb/Src/usbd_winUsb.c **** #endif
 119:Middlewares/ST/STM32_USB_Device_Library/Class/winUsb/Src/usbd_winUsb.c **** 
 120:Middlewares/ST/STM32_USB_Device_Library/Class/winUsb/Src/usbd_winUsb.c **** 
 121:Middlewares/ST/STM32_USB_Device_Library/Class/winUsb/Src/usbd_winUsb.c **** // This associates winusb driver with the device
 122:Middlewares/ST/STM32_USB_Device_Library/Class/winUsb/Src/usbd_winUsb.c **** __ALIGN_BEGIN uint8_t USBD_WinUSBComm_Extended_Compat_ID_OS_Desc[USB_WINUSBCOMM_COMPAT_ID_OS_DESC_S
 123:Middlewares/ST/STM32_USB_Device_Library/Class/winUsb/Src/usbd_winUsb.c **** {
 124:Middlewares/ST/STM32_USB_Device_Library/Class/winUsb/Src/usbd_winUsb.c ****                                                     //    +-- Offset in descriptor
 125:Middlewares/ST/STM32_USB_Device_Library/Class/winUsb/Src/usbd_winUsb.c ****                                                     //    |             +-- Size
 126:Middlewares/ST/STM32_USB_Device_Library/Class/winUsb/Src/usbd_winUsb.c ****                                                     //    v             v
 127:Middlewares/ST/STM32_USB_Device_Library/Class/winUsb/Src/usbd_winUsb.c ****   USB_WINUSBCOMM_COMPAT_ID_OS_DESC_SIZ, 0, 0, 0,    //    0 dwLength    4 DWORD The length, in byte
 128:Middlewares/ST/STM32_USB_Device_Library/Class/winUsb/Src/usbd_winUsb.c ****   0x00, 0x01,                                       //    4 bcdVersion  2 BCD The descriptor’s ve
 129:Middlewares/ST/STM32_USB_Device_Library/Class/winUsb/Src/usbd_winUsb.c ****   0x04, 0x00,                                       //    6 wIndex      2 WORD  An index that ident
 130:Middlewares/ST/STM32_USB_Device_Library/Class/winUsb/Src/usbd_winUsb.c ****   NUM_INTERFACES,                                   //    8 bCount      1 BYTE  The number of custo
 131:Middlewares/ST/STM32_USB_Device_Library/Class/winUsb/Src/usbd_winUsb.c ****   0, 0, 0, 0, 0, 0, 0,                              //    9 RESERVED    7 BYTEs Reserved
 132:Middlewares/ST/STM32_USB_Device_Library/Class/winUsb/Src/usbd_winUsb.c ****                                                     //    =====================
 133:Middlewares/ST/STM32_USB_Device_Library/Class/winUsb/Src/usbd_winUsb.c ****                                                     //                 16
 134:Middlewares/ST/STM32_USB_Device_Library/Class/winUsb/Src/usbd_winUsb.c **** 
 135:Middlewares/ST/STM32_USB_Device_Library/Class/winUsb/Src/usbd_winUsb.c ****                                                     //   +-- Offset from function section start
 136:Middlewares/ST/STM32_USB_Device_Library/Class/winUsb/Src/usbd_winUsb.c ****                                                     //   |                        +-- Size
 137:Middlewares/ST/STM32_USB_Device_Library/Class/winUsb/Src/usbd_winUsb.c ****                                                     //   v                        v
 138:Middlewares/ST/STM32_USB_Device_Library/Class/winUsb/Src/usbd_winUsb.c ****   1,                                                //   0  bFirstInterfaceNumber 1 BYTE  The inter
 139:Middlewares/ST/STM32_USB_Device_Library/Class/winUsb/Src/usbd_winUsb.c ****   0,                                                //   1  RESERVED              1 BYTE  Reserved
 140:Middlewares/ST/STM32_USB_Device_Library/Class/winUsb/Src/usbd_winUsb.c ****   0x57, 0x49, 0x4E, 0x55, 0x53, 0x42, 0x00, 0x00,   //   2  compatibleID          8 BYTEs The funct
 141:Middlewares/ST/STM32_USB_Device_Library/Class/winUsb/Src/usbd_winUsb.c ****   0, 0, 0, 0, 0, 0, 0, 0,                           //  10  subCompatibleID       8 BYTEs The funct
 142:Middlewares/ST/STM32_USB_Device_Library/Class/winUsb/Src/usbd_winUsb.c ****   0, 0, 0, 0, 0, 0,                                 //  18  RESERVED              6 BYTEs Reserved
 143:Middlewares/ST/STM32_USB_Device_Library/Class/winUsb/Src/usbd_winUsb.c ****                                                     //  =================================
 144:Middlewares/ST/STM32_USB_Device_Library/Class/winUsb/Src/usbd_winUsb.c ****                                                     //                           24
ARM GAS  C:\Users\ADMINI~1\AppData\Local\Temp\ccslNEp2.s 			page 4


 145:Middlewares/ST/STM32_USB_Device_Library/Class/winUsb/Src/usbd_winUsb.c **** #if NUM_INTERFACES == 2
 146:Middlewares/ST/STM32_USB_Device_Library/Class/winUsb/Src/usbd_winUsb.c ****                                                     //   +-- Offset from function section start
 147:Middlewares/ST/STM32_USB_Device_Library/Class/winUsb/Src/usbd_winUsb.c ****                                                     //   |                        +-- Size
 148:Middlewares/ST/STM32_USB_Device_Library/Class/winUsb/Src/usbd_winUsb.c ****                                                     //   v                        v
 149:Middlewares/ST/STM32_USB_Device_Library/Class/winUsb/Src/usbd_winUsb.c ****   2,                                                //   0  bFirstInterfaceNumber 1 BYTE  The inter
 150:Middlewares/ST/STM32_USB_Device_Library/Class/winUsb/Src/usbd_winUsb.c ****   0,                                                //   1  RESERVED              1 BYTE  Reserved
 151:Middlewares/ST/STM32_USB_Device_Library/Class/winUsb/Src/usbd_winUsb.c ****   0x57, 0x49, 0x4E, 0x55, 0x53, 0x42, 0x00, 0x00,   //   2  compatibleID          8 BYTEs The funct
 152:Middlewares/ST/STM32_USB_Device_Library/Class/winUsb/Src/usbd_winUsb.c ****   0, 0, 0, 0, 0, 0, 0, 0,                           //  10  subCompatibleID       8 BYTEs The funct
 153:Middlewares/ST/STM32_USB_Device_Library/Class/winUsb/Src/usbd_winUsb.c ****   0, 0, 0, 0, 0, 0,                                 //  18  RESERVED              6 BYTEs Reserved
 154:Middlewares/ST/STM32_USB_Device_Library/Class/winUsb/Src/usbd_winUsb.c ****                                                     //  =================================
 155:Middlewares/ST/STM32_USB_Device_Library/Class/winUsb/Src/usbd_winUsb.c ****                                                     //                           24
 156:Middlewares/ST/STM32_USB_Device_Library/Class/winUsb/Src/usbd_winUsb.c **** #endif
 157:Middlewares/ST/STM32_USB_Device_Library/Class/winUsb/Src/usbd_winUsb.c **** };
 158:Middlewares/ST/STM32_USB_Device_Library/Class/winUsb/Src/usbd_winUsb.c **** // Properties are added to:
 159:Middlewares/ST/STM32_USB_Device_Library/Class/winUsb/Src/usbd_winUsb.c **** // HKEY_LOCAL_MACHINE\SYSTEM\CurrentControlSet\Enum\USB\VID_xxxx&PID_xxxx\sssssssss\Device Paramete
 160:Middlewares/ST/STM32_USB_Device_Library/Class/winUsb/Src/usbd_winUsb.c **** // Use USBDeview or similar to uninstall
 161:Middlewares/ST/STM32_USB_Device_Library/Class/winUsb/Src/usbd_winUsb.c **** 
 162:Middlewares/ST/STM32_USB_Device_Library/Class/winUsb/Src/usbd_winUsb.c **** __ALIGN_BEGIN uint8_t USBD_WinUSBComm_Extended_Properties_OS_Desc[0xB6]  __ALIGN_END =
 163:Middlewares/ST/STM32_USB_Device_Library/Class/winUsb/Src/usbd_winUsb.c **** {
 164:Middlewares/ST/STM32_USB_Device_Library/Class/winUsb/Src/usbd_winUsb.c ****   0xB6, 0x00, 0x00, 0x00,   // 0 dwLength   4 DWORD The length, in bytes, of the complete extended 
 165:Middlewares/ST/STM32_USB_Device_Library/Class/winUsb/Src/usbd_winUsb.c ****   0x00, 0x01,               // 4 bcdVersion 2 BCD   The descriptor’s version number, in binary co
 166:Middlewares/ST/STM32_USB_Device_Library/Class/winUsb/Src/usbd_winUsb.c ****   0x05, 0x00,               // 6 wIndex     2 WORD  The index for extended properties OS descriptor
 167:Middlewares/ST/STM32_USB_Device_Library/Class/winUsb/Src/usbd_winUsb.c ****   0x02, 0x00,               // 8 wCount     2 WORD  The number of custom property sections that fol
 168:Middlewares/ST/STM32_USB_Device_Library/Class/winUsb/Src/usbd_winUsb.c ****                             // ====================
 169:Middlewares/ST/STM32_USB_Device_Library/Class/winUsb/Src/usbd_winUsb.c ****                             //             10
 170:Middlewares/ST/STM32_USB_Device_Library/Class/winUsb/Src/usbd_winUsb.c **** ///////////////////////////////////////////////////////////////////////////////////////////////////
 171:Middlewares/ST/STM32_USB_Device_Library/Class/winUsb/Src/usbd_winUsb.c ****   0x84, 0x00, 0x00, 0x00,   //  0       dwSize                  4 DWORD             The size of thi
 172:Middlewares/ST/STM32_USB_Device_Library/Class/winUsb/Src/usbd_winUsb.c ****   0x01, 0x00, 0x00, 0x00,   //  4       dwPropertyDataType      4 DWORD             Property data f
 173:Middlewares/ST/STM32_USB_Device_Library/Class/winUsb/Src/usbd_winUsb.c ****   0x28, 0x00,               //  8       wPropertyNameLength     2 DWORD             Property name l
 174:Middlewares/ST/STM32_USB_Device_Library/Class/winUsb/Src/usbd_winUsb.c ****                             // ========================================
 175:Middlewares/ST/STM32_USB_Device_Library/Class/winUsb/Src/usbd_winUsb.c ****                             //                                 10
 176:Middlewares/ST/STM32_USB_Device_Library/Class/winUsb/Src/usbd_winUsb.c ****                             // 10       bPropertyName         PNL WCHAR[]           The property na
 177:Middlewares/ST/STM32_USB_Device_Library/Class/winUsb/Src/usbd_winUsb.c ****   'D',0, 'e',0, 'v',0, 'i',0, 'c',0, 'e',0, 'I',0, 'n',0,
 178:Middlewares/ST/STM32_USB_Device_Library/Class/winUsb/Src/usbd_winUsb.c ****   't',0, 'e',0, 'r',0, 'f',0, 'a',0, 'c',0, 'e',0, 'G',0,
 179:Middlewares/ST/STM32_USB_Device_Library/Class/winUsb/Src/usbd_winUsb.c ****   'U',0, 'I',0, 'D',0, 0,0,
 180:Middlewares/ST/STM32_USB_Device_Library/Class/winUsb/Src/usbd_winUsb.c ****                             // ========================================
 181:Middlewares/ST/STM32_USB_Device_Library/Class/winUsb/Src/usbd_winUsb.c ****                             //                                 40 (0x28)
 182:Middlewares/ST/STM32_USB_Device_Library/Class/winUsb/Src/usbd_winUsb.c **** 
 183:Middlewares/ST/STM32_USB_Device_Library/Class/winUsb/Src/usbd_winUsb.c ****   0x4E, 0x00, 0x00, 0x00,   // 10 + PNL dwPropertyDataLength    4 DWORD             Length of the b
 184:Middlewares/ST/STM32_USB_Device_Library/Class/winUsb/Src/usbd_winUsb.c ****                             // ========================================
 185:Middlewares/ST/STM32_USB_Device_Library/Class/winUsb/Src/usbd_winUsb.c ****                             //                                  4
 186:Middlewares/ST/STM32_USB_Device_Library/Class/winUsb/Src/usbd_winUsb.c ****     // 14 + PNL bPropertyData         PDL Format-dependent  Property data
 187:Middlewares/ST/STM32_USB_Device_Library/Class/winUsb/Src/usbd_winUsb.c ****   '{',0, 'E',0, 'A',0, '0',0, 'B',0, 'D',0, '5',0, 'C',0,
 188:Middlewares/ST/STM32_USB_Device_Library/Class/winUsb/Src/usbd_winUsb.c ****   '3',0, '-',0, '5',0, '0',0, 'F',0, '3',0, '-',0, '4',0,
 189:Middlewares/ST/STM32_USB_Device_Library/Class/winUsb/Src/usbd_winUsb.c ****   '8',0, '8',0, '8',0, '-',0, '8',0, '4',0, 'B',0, '4',0,
 190:Middlewares/ST/STM32_USB_Device_Library/Class/winUsb/Src/usbd_winUsb.c ****   '-',0, '7',0, '4',0, 'E',0, '5',0, '0',0, 'E',0, '1',0,
 191:Middlewares/ST/STM32_USB_Device_Library/Class/winUsb/Src/usbd_winUsb.c ****   '6',0, '4',0, '9',0, 'D',0, 'B',0, '}',0,  0 ,0,
 192:Middlewares/ST/STM32_USB_Device_Library/Class/winUsb/Src/usbd_winUsb.c ****                             // ========================================
 193:Middlewares/ST/STM32_USB_Device_Library/Class/winUsb/Src/usbd_winUsb.c ****                             //                                 78 (0x4E)
 194:Middlewares/ST/STM32_USB_Device_Library/Class/winUsb/Src/usbd_winUsb.c **** ///////////////////////////////////////////////////////////////////////////////////////////////////
 195:Middlewares/ST/STM32_USB_Device_Library/Class/winUsb/Src/usbd_winUsb.c ****   0x3E, 0x00, 0x00, 0x00,   //  0 dwSize 0x00000030 (62 bytes)
 196:Middlewares/ST/STM32_USB_Device_Library/Class/winUsb/Src/usbd_winUsb.c ****   0x01, 0x00, 0x00, 0x00,   //  4 dwPropertyDataType 0x00000001 (Unicode string)
 197:Middlewares/ST/STM32_USB_Device_Library/Class/winUsb/Src/usbd_winUsb.c ****   0x0C, 0x00,               //  8 wPropertyNameLength 0x000C (12 bytes)
 198:Middlewares/ST/STM32_USB_Device_Library/Class/winUsb/Src/usbd_winUsb.c ****                             // ========================================
 199:Middlewares/ST/STM32_USB_Device_Library/Class/winUsb/Src/usbd_winUsb.c ****                             //                                  10
 200:Middlewares/ST/STM32_USB_Device_Library/Class/winUsb/Src/usbd_winUsb.c ****   'L',0, 'a',0, 'b',0, 'e',0, 'l',0, 0,0,
 201:Middlewares/ST/STM32_USB_Device_Library/Class/winUsb/Src/usbd_winUsb.c ****                             // 10 bPropertyName “Label”
ARM GAS  C:\Users\ADMINI~1\AppData\Local\Temp\ccslNEp2.s 			page 5


 202:Middlewares/ST/STM32_USB_Device_Library/Class/winUsb/Src/usbd_winUsb.c ****                             // ========================================
 203:Middlewares/ST/STM32_USB_Device_Library/Class/winUsb/Src/usbd_winUsb.c ****                             //                                  12
 204:Middlewares/ST/STM32_USB_Device_Library/Class/winUsb/Src/usbd_winUsb.c ****   0x24, 0x00, 0x00, 0x00,   // 22 dwPropertyDataLength 0x00000016 (36 bytes)
 205:Middlewares/ST/STM32_USB_Device_Library/Class/winUsb/Src/usbd_winUsb.c ****                             // ========================================
 206:Middlewares/ST/STM32_USB_Device_Library/Class/winUsb/Src/usbd_winUsb.c ****                             //                                  4
 207:Middlewares/ST/STM32_USB_Device_Library/Class/winUsb/Src/usbd_winUsb.c ****   'O',0, 'D',0, 'r',0, 'i',0, 'v',0, 'e',0, 0,0
 208:Middlewares/ST/STM32_USB_Device_Library/Class/winUsb/Src/usbd_winUsb.c ****                             // 26 bPropertyData “ODrive”
 209:Middlewares/ST/STM32_USB_Device_Library/Class/winUsb/Src/usbd_winUsb.c ****                             // ========================================
 210:Middlewares/ST/STM32_USB_Device_Library/Class/winUsb/Src/usbd_winUsb.c ****                             //                                  14
 211:Middlewares/ST/STM32_USB_Device_Library/Class/winUsb/Src/usbd_winUsb.c **** 
 212:Middlewares/ST/STM32_USB_Device_Library/Class/winUsb/Src/usbd_winUsb.c **** };
 213:Middlewares/ST/STM32_USB_Device_Library/Class/winUsb/Src/usbd_winUsb.c **** 
 214:Middlewares/ST/STM32_USB_Device_Library/Class/winUsb/Src/usbd_winUsb.c **** static uint8_t  USBD_WinUSBComm_GetMSExtendedCompatIDOSDescriptor (USBD_HandleTypeDef *pdev, USBD_S
 215:Middlewares/ST/STM32_USB_Device_Library/Class/winUsb/Src/usbd_winUsb.c **** {
 216:Middlewares/ST/STM32_USB_Device_Library/Class/winUsb/Src/usbd_winUsb.c ****   switch (req->wIndex)
 217:Middlewares/ST/STM32_USB_Device_Library/Class/winUsb/Src/usbd_winUsb.c ****   {
 218:Middlewares/ST/STM32_USB_Device_Library/Class/winUsb/Src/usbd_winUsb.c ****   case 0x04:
 219:Middlewares/ST/STM32_USB_Device_Library/Class/winUsb/Src/usbd_winUsb.c ****     USBD_CtlSendData (pdev, USBD_WinUSBComm_Extended_Compat_ID_OS_Desc, req->wLength);
 220:Middlewares/ST/STM32_USB_Device_Library/Class/winUsb/Src/usbd_winUsb.c ****     break;
 221:Middlewares/ST/STM32_USB_Device_Library/Class/winUsb/Src/usbd_winUsb.c ****   default:
 222:Middlewares/ST/STM32_USB_Device_Library/Class/winUsb/Src/usbd_winUsb.c ****    USBD_CtlError(pdev , req);
 223:Middlewares/ST/STM32_USB_Device_Library/Class/winUsb/Src/usbd_winUsb.c ****    return USBD_FAIL;
 224:Middlewares/ST/STM32_USB_Device_Library/Class/winUsb/Src/usbd_winUsb.c ****   }
 225:Middlewares/ST/STM32_USB_Device_Library/Class/winUsb/Src/usbd_winUsb.c ****   return USBD_OK;
 226:Middlewares/ST/STM32_USB_Device_Library/Class/winUsb/Src/usbd_winUsb.c **** }
 227:Middlewares/ST/STM32_USB_Device_Library/Class/winUsb/Src/usbd_winUsb.c **** static uint8_t  USBD_WinUSBComm_GetMSExtendedPropertiesOSDescriptor (USBD_HandleTypeDef *pdev, USBD
 228:Middlewares/ST/STM32_USB_Device_Library/Class/winUsb/Src/usbd_winUsb.c **** {
 229:Middlewares/ST/STM32_USB_Device_Library/Class/winUsb/Src/usbd_winUsb.c ****   uint8_t byInterfaceIndex = (uint8_t)req->wValue;
 230:Middlewares/ST/STM32_USB_Device_Library/Class/winUsb/Src/usbd_winUsb.c ****   if ( req->wIndex != 0x05 )
 231:Middlewares/ST/STM32_USB_Device_Library/Class/winUsb/Src/usbd_winUsb.c ****   {
 232:Middlewares/ST/STM32_USB_Device_Library/Class/winUsb/Src/usbd_winUsb.c ****     USBD_CtlError(pdev , req);
 233:Middlewares/ST/STM32_USB_Device_Library/Class/winUsb/Src/usbd_winUsb.c ****     return USBD_FAIL;
 234:Middlewares/ST/STM32_USB_Device_Library/Class/winUsb/Src/usbd_winUsb.c ****   }
 235:Middlewares/ST/STM32_USB_Device_Library/Class/winUsb/Src/usbd_winUsb.c ****   switch ( byInterfaceIndex )
 236:Middlewares/ST/STM32_USB_Device_Library/Class/winUsb/Src/usbd_winUsb.c ****   {
 237:Middlewares/ST/STM32_USB_Device_Library/Class/winUsb/Src/usbd_winUsb.c ****   case 0:
 238:Middlewares/ST/STM32_USB_Device_Library/Class/winUsb/Src/usbd_winUsb.c **** #if NUM_INTERFACES == 2
 239:Middlewares/ST/STM32_USB_Device_Library/Class/winUsb/Src/usbd_winUsb.c ****   case 1:
 240:Middlewares/ST/STM32_USB_Device_Library/Class/winUsb/Src/usbd_winUsb.c **** #endif
 241:Middlewares/ST/STM32_USB_Device_Library/Class/winUsb/Src/usbd_winUsb.c ****     USBD_CtlSendData (pdev, USBD_WinUSBComm_Extended_Properties_OS_Desc, req->wLength);
 242:Middlewares/ST/STM32_USB_Device_Library/Class/winUsb/Src/usbd_winUsb.c ****     break;
 243:Middlewares/ST/STM32_USB_Device_Library/Class/winUsb/Src/usbd_winUsb.c ****   default:
 244:Middlewares/ST/STM32_USB_Device_Library/Class/winUsb/Src/usbd_winUsb.c ****     USBD_CtlError(pdev , req);
 245:Middlewares/ST/STM32_USB_Device_Library/Class/winUsb/Src/usbd_winUsb.c ****     return USBD_FAIL;
 246:Middlewares/ST/STM32_USB_Device_Library/Class/winUsb/Src/usbd_winUsb.c ****   }
 247:Middlewares/ST/STM32_USB_Device_Library/Class/winUsb/Src/usbd_winUsb.c ****   return USBD_OK;
 248:Middlewares/ST/STM32_USB_Device_Library/Class/winUsb/Src/usbd_winUsb.c **** }
 249:Middlewares/ST/STM32_USB_Device_Library/Class/winUsb/Src/usbd_winUsb.c **** static uint8_t  USBD_WinUSBComm_SetupVendorDevice(USBD_HandleTypeDef *pdev, USBD_SetupReqTypedef *r
 250:Middlewares/ST/STM32_USB_Device_Library/Class/winUsb/Src/usbd_winUsb.c **** {
 251:Middlewares/ST/STM32_USB_Device_Library/Class/winUsb/Src/usbd_winUsb.c ****   USBD_CtlError(pdev , req);
 252:Middlewares/ST/STM32_USB_Device_Library/Class/winUsb/Src/usbd_winUsb.c ****   return USBD_FAIL;
 253:Middlewares/ST/STM32_USB_Device_Library/Class/winUsb/Src/usbd_winUsb.c **** }
 254:Middlewares/ST/STM32_USB_Device_Library/Class/winUsb/Src/usbd_winUsb.c **** static uint8_t  USBD_WinUSBComm_SetupVendorInterface(USBD_HandleTypeDef *pdev, USBD_SetupReqTypedef
 255:Middlewares/ST/STM32_USB_Device_Library/Class/winUsb/Src/usbd_winUsb.c **** {
 256:Middlewares/ST/STM32_USB_Device_Library/Class/winUsb/Src/usbd_winUsb.c ****   USBD_CtlError(pdev , req);
 257:Middlewares/ST/STM32_USB_Device_Library/Class/winUsb/Src/usbd_winUsb.c ****   // TODO: check if this is important
 258:Middlewares/ST/STM32_USB_Device_Library/Class/winUsb/Src/usbd_winUsb.c ****   return USBD_FAIL;
ARM GAS  C:\Users\ADMINI~1\AppData\Local\Temp\ccslNEp2.s 			page 6


 259:Middlewares/ST/STM32_USB_Device_Library/Class/winUsb/Src/usbd_winUsb.c **** }
 260:Middlewares/ST/STM32_USB_Device_Library/Class/winUsb/Src/usbd_winUsb.c **** static uint8_t  USBD_WinUSBComm_SetupVendor(USBD_HandleTypeDef *pdev, USBD_SetupReqTypedef *req)
 261:Middlewares/ST/STM32_USB_Device_Library/Class/winUsb/Src/usbd_winUsb.c **** {
 262:Middlewares/ST/STM32_USB_Device_Library/Class/winUsb/Src/usbd_winUsb.c ****   // printf("bmRequest=%.2x req->bRequest=%.2x\r\n",req->bmRequest,req->bRequest);
 263:Middlewares/ST/STM32_USB_Device_Library/Class/winUsb/Src/usbd_winUsb.c ****   switch ( req->bmRequest & USB_REQ_RECIPIENT_MASK )
 264:Middlewares/ST/STM32_USB_Device_Library/Class/winUsb/Src/usbd_winUsb.c ****   {
 265:Middlewares/ST/STM32_USB_Device_Library/Class/winUsb/Src/usbd_winUsb.c ****   case USB_REQ_RECIPIENT_DEVICE:
 266:Middlewares/ST/STM32_USB_Device_Library/Class/winUsb/Src/usbd_winUsb.c ****     return ( MS_VendorCode == req->bRequest ) ? USBD_WinUSBComm_GetMSExtendedCompatIDOSDescriptor(p
 267:Middlewares/ST/STM32_USB_Device_Library/Class/winUsb/Src/usbd_winUsb.c ****   case USB_REQ_RECIPIENT_INTERFACE:
 268:Middlewares/ST/STM32_USB_Device_Library/Class/winUsb/Src/usbd_winUsb.c ****     return ( MS_VendorCode == req->bRequest ) ? USBD_WinUSBComm_GetMSExtendedPropertiesOSDescriptor
 269:Middlewares/ST/STM32_USB_Device_Library/Class/winUsb/Src/usbd_winUsb.c ****   case USB_REQ_RECIPIENT_ENDPOINT:
 270:Middlewares/ST/STM32_USB_Device_Library/Class/winUsb/Src/usbd_winUsb.c ****     // fall through
 271:Middlewares/ST/STM32_USB_Device_Library/Class/winUsb/Src/usbd_winUsb.c ****   default:
 272:Middlewares/ST/STM32_USB_Device_Library/Class/winUsb/Src/usbd_winUsb.c ****     break;
 273:Middlewares/ST/STM32_USB_Device_Library/Class/winUsb/Src/usbd_winUsb.c ****   }
 274:Middlewares/ST/STM32_USB_Device_Library/Class/winUsb/Src/usbd_winUsb.c ****   USBD_CtlError(pdev , req);
 275:Middlewares/ST/STM32_USB_Device_Library/Class/winUsb/Src/usbd_winUsb.c ****   return USBD_FAIL;
 276:Middlewares/ST/STM32_USB_Device_Library/Class/winUsb/Src/usbd_winUsb.c **** }
 277:Middlewares/ST/STM32_USB_Device_Library/Class/winUsb/Src/usbd_winUsb.c **** static uint8_t WinUsbInEpAdd = WIN_USB_EPIN_ADDR;
 278:Middlewares/ST/STM32_USB_Device_Library/Class/winUsb/Src/usbd_winUsb.c **** static uint8_t WinUsbOutEpAdd = WIN_USB_EPOUT_ADDR;
 279:Middlewares/ST/STM32_USB_Device_Library/Class/winUsb/Src/usbd_winUsb.c **** 
 280:Middlewares/ST/STM32_USB_Device_Library/Class/winUsb/Src/usbd_winUsb.c **** 
 281:Middlewares/ST/STM32_USB_Device_Library/Class/winUsb/Src/usbd_winUsb.c **** static uint8_t USBD_WinUsb_Init(USBD_HandleTypeDef *pdev, uint8_t cfgidx)
 282:Middlewares/ST/STM32_USB_Device_Library/Class/winUsb/Src/usbd_winUsb.c **** {
 283:Middlewares/ST/STM32_USB_Device_Library/Class/winUsb/Src/usbd_winUsb.c ****   UNUSED(cfgidx);
 284:Middlewares/ST/STM32_USB_Device_Library/Class/winUsb/Src/usbd_winUsb.c ****   USBD_WinUsb_HandleTypeDef *hcdc;
 285:Middlewares/ST/STM32_USB_Device_Library/Class/winUsb/Src/usbd_winUsb.c **** 
 286:Middlewares/ST/STM32_USB_Device_Library/Class/winUsb/Src/usbd_winUsb.c ****   hcdc = (USBD_WinUsb_HandleTypeDef *)USBD_malloc(sizeof(USBD_WinUsb_HandleTypeDef));
 287:Middlewares/ST/STM32_USB_Device_Library/Class/winUsb/Src/usbd_winUsb.c **** 
 288:Middlewares/ST/STM32_USB_Device_Library/Class/winUsb/Src/usbd_winUsb.c ****   if (hcdc == NULL)
 289:Middlewares/ST/STM32_USB_Device_Library/Class/winUsb/Src/usbd_winUsb.c ****   {
 290:Middlewares/ST/STM32_USB_Device_Library/Class/winUsb/Src/usbd_winUsb.c ****     pdev->pClassDataCmsit[pdev->classId] = NULL;
 291:Middlewares/ST/STM32_USB_Device_Library/Class/winUsb/Src/usbd_winUsb.c ****     return (uint8_t)USBD_EMEM;
 292:Middlewares/ST/STM32_USB_Device_Library/Class/winUsb/Src/usbd_winUsb.c ****   }
 293:Middlewares/ST/STM32_USB_Device_Library/Class/winUsb/Src/usbd_winUsb.c **** 
 294:Middlewares/ST/STM32_USB_Device_Library/Class/winUsb/Src/usbd_winUsb.c ****   (void)USBD_memset(hcdc, 0, sizeof(USBD_WinUsb_HandleTypeDef));
 295:Middlewares/ST/STM32_USB_Device_Library/Class/winUsb/Src/usbd_winUsb.c **** 
 296:Middlewares/ST/STM32_USB_Device_Library/Class/winUsb/Src/usbd_winUsb.c ****   pdev->pClassDataCmsit[pdev->classId] = (void *)hcdc;
 297:Middlewares/ST/STM32_USB_Device_Library/Class/winUsb/Src/usbd_winUsb.c ****   pdev->pClassData = pdev->pClassDataCmsit[pdev->classId];
 298:Middlewares/ST/STM32_USB_Device_Library/Class/winUsb/Src/usbd_winUsb.c ****   if (pdev->dev_speed == USBD_SPEED_HIGH)
 299:Middlewares/ST/STM32_USB_Device_Library/Class/winUsb/Src/usbd_winUsb.c ****   {
 300:Middlewares/ST/STM32_USB_Device_Library/Class/winUsb/Src/usbd_winUsb.c ****     USBD_LL_OpenEP(pdev,WIN_USB_EPIN_ADDR,USBD_EP_TYPE_BULK,WIN_DATA_HS_IN_PACKET_SIZE);
 301:Middlewares/ST/STM32_USB_Device_Library/Class/winUsb/Src/usbd_winUsb.c ****     USBD_LL_OpenEP(pdev,WIN_USB_EPOUT_ADDR,USBD_EP_TYPE_BULK,WIN_DATA_HS_OUT_PACKET_SIZE);
 302:Middlewares/ST/STM32_USB_Device_Library/Class/winUsb/Src/usbd_winUsb.c ****   }
 303:Middlewares/ST/STM32_USB_Device_Library/Class/winUsb/Src/usbd_winUsb.c ****   else
 304:Middlewares/ST/STM32_USB_Device_Library/Class/winUsb/Src/usbd_winUsb.c ****   {
 305:Middlewares/ST/STM32_USB_Device_Library/Class/winUsb/Src/usbd_winUsb.c ****     USBD_LL_OpenEP(pdev,WIN_USB_EPIN_ADDR,USBD_EP_TYPE_BULK,WIN_DATA_FS_IN_PACKET_SIZE);
 306:Middlewares/ST/STM32_USB_Device_Library/Class/winUsb/Src/usbd_winUsb.c ****     USBD_LL_OpenEP(pdev,WIN_USB_EPOUT_ADDR,USBD_EP_TYPE_BULK,WIN_DATA_FS_OUT_PACKET_SIZE);
 307:Middlewares/ST/STM32_USB_Device_Library/Class/winUsb/Src/usbd_winUsb.c **** 
 308:Middlewares/ST/STM32_USB_Device_Library/Class/winUsb/Src/usbd_winUsb.c ****   }
 309:Middlewares/ST/STM32_USB_Device_Library/Class/winUsb/Src/usbd_winUsb.c ****   
 310:Middlewares/ST/STM32_USB_Device_Library/Class/winUsb/Src/usbd_winUsb.c ****   
 311:Middlewares/ST/STM32_USB_Device_Library/Class/winUsb/Src/usbd_winUsb.c ****   pdev->ep_in[WinUsbInEpAdd & 0xFU].is_used = 1U;
 312:Middlewares/ST/STM32_USB_Device_Library/Class/winUsb/Src/usbd_winUsb.c ****   pdev->ep_in[WinUsbOutEpAdd & 0xFU].is_used = 1U;
 313:Middlewares/ST/STM32_USB_Device_Library/Class/winUsb/Src/usbd_winUsb.c **** 
 314:Middlewares/ST/STM32_USB_Device_Library/Class/winUsb/Src/usbd_winUsb.c **** 
 315:Middlewares/ST/STM32_USB_Device_Library/Class/winUsb/Src/usbd_winUsb.c ****   hcdc->RxBuffer = NULL;
ARM GAS  C:\Users\ADMINI~1\AppData\Local\Temp\ccslNEp2.s 			page 7


 316:Middlewares/ST/STM32_USB_Device_Library/Class/winUsb/Src/usbd_winUsb.c **** 
 317:Middlewares/ST/STM32_USB_Device_Library/Class/winUsb/Src/usbd_winUsb.c ****   /* Init  physical Interface components */
 318:Middlewares/ST/STM32_USB_Device_Library/Class/winUsb/Src/usbd_winUsb.c ****   ((USBD_WinUsb_ItfTypeDef *)pdev->pUserData[pdev->classId])->Init();
 319:Middlewares/ST/STM32_USB_Device_Library/Class/winUsb/Src/usbd_winUsb.c **** 
 320:Middlewares/ST/STM32_USB_Device_Library/Class/winUsb/Src/usbd_winUsb.c ****   /* Init Xfer states */
 321:Middlewares/ST/STM32_USB_Device_Library/Class/winUsb/Src/usbd_winUsb.c ****   hcdc->TxState = 0U;
 322:Middlewares/ST/STM32_USB_Device_Library/Class/winUsb/Src/usbd_winUsb.c ****   hcdc->RxState = 0U;
 323:Middlewares/ST/STM32_USB_Device_Library/Class/winUsb/Src/usbd_winUsb.c **** 
 324:Middlewares/ST/STM32_USB_Device_Library/Class/winUsb/Src/usbd_winUsb.c ****   if (hcdc->RxBuffer == NULL)
 325:Middlewares/ST/STM32_USB_Device_Library/Class/winUsb/Src/usbd_winUsb.c ****   {
 326:Middlewares/ST/STM32_USB_Device_Library/Class/winUsb/Src/usbd_winUsb.c ****     return (uint8_t)USBD_EMEM;
 327:Middlewares/ST/STM32_USB_Device_Library/Class/winUsb/Src/usbd_winUsb.c ****   }
 328:Middlewares/ST/STM32_USB_Device_Library/Class/winUsb/Src/usbd_winUsb.c ****   if (pdev->dev_speed == USBD_SPEED_HIGH)
 329:Middlewares/ST/STM32_USB_Device_Library/Class/winUsb/Src/usbd_winUsb.c ****   {
 330:Middlewares/ST/STM32_USB_Device_Library/Class/winUsb/Src/usbd_winUsb.c ****     USBD_LL_PrepareReceive(pdev,
 331:Middlewares/ST/STM32_USB_Device_Library/Class/winUsb/Src/usbd_winUsb.c ****                           WIN_USB_EPOUT_ADDR,
 332:Middlewares/ST/STM32_USB_Device_Library/Class/winUsb/Src/usbd_winUsb.c ****                           hcdc->RxBuffer,
 333:Middlewares/ST/STM32_USB_Device_Library/Class/winUsb/Src/usbd_winUsb.c ****                           WIN_DATA_HS_OUT_PACKET_SIZE);
 334:Middlewares/ST/STM32_USB_Device_Library/Class/winUsb/Src/usbd_winUsb.c ****   }
 335:Middlewares/ST/STM32_USB_Device_Library/Class/winUsb/Src/usbd_winUsb.c ****   else
 336:Middlewares/ST/STM32_USB_Device_Library/Class/winUsb/Src/usbd_winUsb.c ****   {
 337:Middlewares/ST/STM32_USB_Device_Library/Class/winUsb/Src/usbd_winUsb.c ****     USBD_LL_PrepareReceive(pdev,
 338:Middlewares/ST/STM32_USB_Device_Library/Class/winUsb/Src/usbd_winUsb.c ****                           WIN_USB_EPOUT_ADDR,
 339:Middlewares/ST/STM32_USB_Device_Library/Class/winUsb/Src/usbd_winUsb.c ****                           hcdc->RxBuffer,
 340:Middlewares/ST/STM32_USB_Device_Library/Class/winUsb/Src/usbd_winUsb.c ****                           WIN_DATA_FS_OUT_PACKET_SIZE);
 341:Middlewares/ST/STM32_USB_Device_Library/Class/winUsb/Src/usbd_winUsb.c ****   }
 342:Middlewares/ST/STM32_USB_Device_Library/Class/winUsb/Src/usbd_winUsb.c ****   return (uint8_t)USBD_OK;
 343:Middlewares/ST/STM32_USB_Device_Library/Class/winUsb/Src/usbd_winUsb.c **** 
 344:Middlewares/ST/STM32_USB_Device_Library/Class/winUsb/Src/usbd_winUsb.c **** }
 345:Middlewares/ST/STM32_USB_Device_Library/Class/winUsb/Src/usbd_winUsb.c **** 
 346:Middlewares/ST/STM32_USB_Device_Library/Class/winUsb/Src/usbd_winUsb.c **** static uint8_t USBD_WinUsb_DeInit(USBD_HandleTypeDef *pdev, uint8_t cfgidx)
 347:Middlewares/ST/STM32_USB_Device_Library/Class/winUsb/Src/usbd_winUsb.c **** {
 348:Middlewares/ST/STM32_USB_Device_Library/Class/winUsb/Src/usbd_winUsb.c ****   UNUSED(cfgidx);
 349:Middlewares/ST/STM32_USB_Device_Library/Class/winUsb/Src/usbd_winUsb.c **** 	/* Close EP IN */
 350:Middlewares/ST/STM32_USB_Device_Library/Class/winUsb/Src/usbd_winUsb.c ****   USBD_LL_CloseEP(pdev,WinUsbInEpAdd);
 351:Middlewares/ST/STM32_USB_Device_Library/Class/winUsb/Src/usbd_winUsb.c ****   pdev->ep_out[WinUsbInEpAdd & 0xFU].is_used = 0U;  
 352:Middlewares/ST/STM32_USB_Device_Library/Class/winUsb/Src/usbd_winUsb.c ****   /* Close EP OUT */
 353:Middlewares/ST/STM32_USB_Device_Library/Class/winUsb/Src/usbd_winUsb.c ****   USBD_LL_CloseEP(pdev,WinUsbOutEpAdd); 
 354:Middlewares/ST/STM32_USB_Device_Library/Class/winUsb/Src/usbd_winUsb.c ****   pdev->ep_out[WinUsbOutEpAdd & 0xFU].is_used = 0U;
 355:Middlewares/ST/STM32_USB_Device_Library/Class/winUsb/Src/usbd_winUsb.c **** 
 356:Middlewares/ST/STM32_USB_Device_Library/Class/winUsb/Src/usbd_winUsb.c **** 
 357:Middlewares/ST/STM32_USB_Device_Library/Class/winUsb/Src/usbd_winUsb.c ****   /* DeInit  physical Interface components */
 358:Middlewares/ST/STM32_USB_Device_Library/Class/winUsb/Src/usbd_winUsb.c ****   if (pdev->pClassDataCmsit[pdev->classId] != NULL)
 359:Middlewares/ST/STM32_USB_Device_Library/Class/winUsb/Src/usbd_winUsb.c ****   {
 360:Middlewares/ST/STM32_USB_Device_Library/Class/winUsb/Src/usbd_winUsb.c ****     ((USBD_WinUsb_ItfTypeDef *)pdev->pUserData[pdev->classId])->DeInit();
 361:Middlewares/ST/STM32_USB_Device_Library/Class/winUsb/Src/usbd_winUsb.c ****     (void)USBD_free(pdev->pClassDataCmsit[pdev->classId]);
 362:Middlewares/ST/STM32_USB_Device_Library/Class/winUsb/Src/usbd_winUsb.c ****     pdev->pClassDataCmsit[pdev->classId] = NULL;
 363:Middlewares/ST/STM32_USB_Device_Library/Class/winUsb/Src/usbd_winUsb.c ****     pdev->pClassData = NULL;
 364:Middlewares/ST/STM32_USB_Device_Library/Class/winUsb/Src/usbd_winUsb.c ****   }
 365:Middlewares/ST/STM32_USB_Device_Library/Class/winUsb/Src/usbd_winUsb.c **** 	return (uint8_t)USBD_OK;
 366:Middlewares/ST/STM32_USB_Device_Library/Class/winUsb/Src/usbd_winUsb.c **** 
 367:Middlewares/ST/STM32_USB_Device_Library/Class/winUsb/Src/usbd_winUsb.c **** }
 368:Middlewares/ST/STM32_USB_Device_Library/Class/winUsb/Src/usbd_winUsb.c **** static uint8_t USBD_WinUsb_Setup(USBD_HandleTypeDef *pdev, USBD_SetupReqTypedef *req)
 369:Middlewares/ST/STM32_USB_Device_Library/Class/winUsb/Src/usbd_winUsb.c **** {
 370:Middlewares/ST/STM32_USB_Device_Library/Class/winUsb/Src/usbd_winUsb.c **** 	USBD_WinUsb_HandleTypeDef *hcdc = (USBD_WinUsb_HandleTypeDef *)pdev->pClassDataCmsit[pdev->classId
 371:Middlewares/ST/STM32_USB_Device_Library/Class/winUsb/Src/usbd_winUsb.c ****    
 372:Middlewares/ST/STM32_USB_Device_Library/Class/winUsb/Src/usbd_winUsb.c ****   USBD_StatusTypeDef ret = USBD_OK;
ARM GAS  C:\Users\ADMINI~1\AppData\Local\Temp\ccslNEp2.s 			page 8


 373:Middlewares/ST/STM32_USB_Device_Library/Class/winUsb/Src/usbd_winUsb.c ****   
 374:Middlewares/ST/STM32_USB_Device_Library/Class/winUsb/Src/usbd_winUsb.c ****   if (hcdc == NULL)
 375:Middlewares/ST/STM32_USB_Device_Library/Class/winUsb/Src/usbd_winUsb.c ****   {
 376:Middlewares/ST/STM32_USB_Device_Library/Class/winUsb/Src/usbd_winUsb.c ****     return (uint8_t)USBD_FAIL;
 377:Middlewares/ST/STM32_USB_Device_Library/Class/winUsb/Src/usbd_winUsb.c ****   }
 378:Middlewares/ST/STM32_USB_Device_Library/Class/winUsb/Src/usbd_winUsb.c **** //  printf("winusb bmRequest=%x\r\n",req->bmRequest);
 379:Middlewares/ST/STM32_USB_Device_Library/Class/winUsb/Src/usbd_winUsb.c ****  switch (req->bmRequest & USB_REQ_TYPE_MASK)
 380:Middlewares/ST/STM32_USB_Device_Library/Class/winUsb/Src/usbd_winUsb.c ****   {
 381:Middlewares/ST/STM32_USB_Device_Library/Class/winUsb/Src/usbd_winUsb.c ****     
 382:Middlewares/ST/STM32_USB_Device_Library/Class/winUsb/Src/usbd_winUsb.c ****     case USB_REQ_TYPE_VENDOR:{
 383:Middlewares/ST/STM32_USB_Device_Library/Class/winUsb/Src/usbd_winUsb.c ****         USBD_WinUSBComm_SetupVendor(pdev, req);
 384:Middlewares/ST/STM32_USB_Device_Library/Class/winUsb/Src/usbd_winUsb.c ****       }break;
 385:Middlewares/ST/STM32_USB_Device_Library/Class/winUsb/Src/usbd_winUsb.c **** 
 386:Middlewares/ST/STM32_USB_Device_Library/Class/winUsb/Src/usbd_winUsb.c ****     default:
 387:Middlewares/ST/STM32_USB_Device_Library/Class/winUsb/Src/usbd_winUsb.c ****       USBD_CtlError(pdev, req);
 388:Middlewares/ST/STM32_USB_Device_Library/Class/winUsb/Src/usbd_winUsb.c ****       ret = USBD_FAIL;
 389:Middlewares/ST/STM32_USB_Device_Library/Class/winUsb/Src/usbd_winUsb.c ****       break;
 390:Middlewares/ST/STM32_USB_Device_Library/Class/winUsb/Src/usbd_winUsb.c ****   }
 391:Middlewares/ST/STM32_USB_Device_Library/Class/winUsb/Src/usbd_winUsb.c **** 
 392:Middlewares/ST/STM32_USB_Device_Library/Class/winUsb/Src/usbd_winUsb.c ****   return (uint8_t)ret;
 393:Middlewares/ST/STM32_USB_Device_Library/Class/winUsb/Src/usbd_winUsb.c **** 
 394:Middlewares/ST/STM32_USB_Device_Library/Class/winUsb/Src/usbd_winUsb.c **** }
 395:Middlewares/ST/STM32_USB_Device_Library/Class/winUsb/Src/usbd_winUsb.c **** static uint8_t USBD_WinUsb_DataIn(USBD_HandleTypeDef *pdev, uint8_t epnum)
 396:Middlewares/ST/STM32_USB_Device_Library/Class/winUsb/Src/usbd_winUsb.c **** {
 397:Middlewares/ST/STM32_USB_Device_Library/Class/winUsb/Src/usbd_winUsb.c ****   USBD_WinUsb_HandleTypeDef *hcdc;
 398:Middlewares/ST/STM32_USB_Device_Library/Class/winUsb/Src/usbd_winUsb.c ****   PCD_HandleTypeDef *hpcd = (PCD_HandleTypeDef *)pdev->pData;
 399:Middlewares/ST/STM32_USB_Device_Library/Class/winUsb/Src/usbd_winUsb.c **** 
 400:Middlewares/ST/STM32_USB_Device_Library/Class/winUsb/Src/usbd_winUsb.c ****   if (pdev->pClassDataCmsit[pdev->classId] == NULL)
 401:Middlewares/ST/STM32_USB_Device_Library/Class/winUsb/Src/usbd_winUsb.c ****   {
 402:Middlewares/ST/STM32_USB_Device_Library/Class/winUsb/Src/usbd_winUsb.c ****     return (uint8_t)USBD_FAIL;
 403:Middlewares/ST/STM32_USB_Device_Library/Class/winUsb/Src/usbd_winUsb.c ****   }
 404:Middlewares/ST/STM32_USB_Device_Library/Class/winUsb/Src/usbd_winUsb.c **** 
 405:Middlewares/ST/STM32_USB_Device_Library/Class/winUsb/Src/usbd_winUsb.c ****   hcdc = (USBD_WinUsb_HandleTypeDef *)pdev->pClassDataCmsit[pdev->classId];
 406:Middlewares/ST/STM32_USB_Device_Library/Class/winUsb/Src/usbd_winUsb.c **** 
 407:Middlewares/ST/STM32_USB_Device_Library/Class/winUsb/Src/usbd_winUsb.c ****   if ((pdev->ep_in[epnum & 0xFU].total_length > 0U) &&
 408:Middlewares/ST/STM32_USB_Device_Library/Class/winUsb/Src/usbd_winUsb.c ****       ((pdev->ep_in[epnum & 0xFU].total_length % hpcd->IN_ep[epnum & 0xFU].maxpacket) == 0U))
 409:Middlewares/ST/STM32_USB_Device_Library/Class/winUsb/Src/usbd_winUsb.c ****   {
 410:Middlewares/ST/STM32_USB_Device_Library/Class/winUsb/Src/usbd_winUsb.c ****     /* Update the packet total length */
 411:Middlewares/ST/STM32_USB_Device_Library/Class/winUsb/Src/usbd_winUsb.c ****     pdev->ep_in[epnum & 0xFU].total_length = 0U;
 412:Middlewares/ST/STM32_USB_Device_Library/Class/winUsb/Src/usbd_winUsb.c **** 
 413:Middlewares/ST/STM32_USB_Device_Library/Class/winUsb/Src/usbd_winUsb.c ****     /* Send ZLP */
 414:Middlewares/ST/STM32_USB_Device_Library/Class/winUsb/Src/usbd_winUsb.c ****     (void)USBD_LL_Transmit(pdev, epnum, NULL, 0U);
 415:Middlewares/ST/STM32_USB_Device_Library/Class/winUsb/Src/usbd_winUsb.c ****   }
 416:Middlewares/ST/STM32_USB_Device_Library/Class/winUsb/Src/usbd_winUsb.c ****   else
 417:Middlewares/ST/STM32_USB_Device_Library/Class/winUsb/Src/usbd_winUsb.c ****   {
 418:Middlewares/ST/STM32_USB_Device_Library/Class/winUsb/Src/usbd_winUsb.c ****     hcdc->TxState = 0U;
 419:Middlewares/ST/STM32_USB_Device_Library/Class/winUsb/Src/usbd_winUsb.c **** 
 420:Middlewares/ST/STM32_USB_Device_Library/Class/winUsb/Src/usbd_winUsb.c ****     if (((USBD_WinUsb_ItfTypeDef *)pdev->pUserData[pdev->classId])->TransmitCplt != NULL)
 421:Middlewares/ST/STM32_USB_Device_Library/Class/winUsb/Src/usbd_winUsb.c ****     {
 422:Middlewares/ST/STM32_USB_Device_Library/Class/winUsb/Src/usbd_winUsb.c ****       ((USBD_WinUsb_ItfTypeDef *)pdev->pUserData[pdev->classId])->TransmitCplt(hcdc->TxBuffer, &hcd
 423:Middlewares/ST/STM32_USB_Device_Library/Class/winUsb/Src/usbd_winUsb.c ****     }
 424:Middlewares/ST/STM32_USB_Device_Library/Class/winUsb/Src/usbd_winUsb.c ****   }
 425:Middlewares/ST/STM32_USB_Device_Library/Class/winUsb/Src/usbd_winUsb.c **** 
 426:Middlewares/ST/STM32_USB_Device_Library/Class/winUsb/Src/usbd_winUsb.c ****   return (uint8_t)USBD_OK;	
 427:Middlewares/ST/STM32_USB_Device_Library/Class/winUsb/Src/usbd_winUsb.c **** 
 428:Middlewares/ST/STM32_USB_Device_Library/Class/winUsb/Src/usbd_winUsb.c **** }
 429:Middlewares/ST/STM32_USB_Device_Library/Class/winUsb/Src/usbd_winUsb.c **** 
ARM GAS  C:\Users\ADMINI~1\AppData\Local\Temp\ccslNEp2.s 			page 9


 430:Middlewares/ST/STM32_USB_Device_Library/Class/winUsb/Src/usbd_winUsb.c **** static uint8_t USBD_WinUsb_DataOut(USBD_HandleTypeDef *pdev, uint8_t epnum)
 431:Middlewares/ST/STM32_USB_Device_Library/Class/winUsb/Src/usbd_winUsb.c **** {
 432:Middlewares/ST/STM32_USB_Device_Library/Class/winUsb/Src/usbd_winUsb.c ****   USBD_WinUsb_HandleTypeDef *hcdc = (USBD_WinUsb_HandleTypeDef *)pdev->pClassDataCmsit[pdev->classI
 433:Middlewares/ST/STM32_USB_Device_Library/Class/winUsb/Src/usbd_winUsb.c **** 
 434:Middlewares/ST/STM32_USB_Device_Library/Class/winUsb/Src/usbd_winUsb.c ****   if (pdev->pClassDataCmsit[pdev->classId] == NULL)
 435:Middlewares/ST/STM32_USB_Device_Library/Class/winUsb/Src/usbd_winUsb.c ****   {
 436:Middlewares/ST/STM32_USB_Device_Library/Class/winUsb/Src/usbd_winUsb.c ****     return (uint8_t)USBD_FAIL;
 437:Middlewares/ST/STM32_USB_Device_Library/Class/winUsb/Src/usbd_winUsb.c ****   }
 438:Middlewares/ST/STM32_USB_Device_Library/Class/winUsb/Src/usbd_winUsb.c **** 
 439:Middlewares/ST/STM32_USB_Device_Library/Class/winUsb/Src/usbd_winUsb.c ****   /* Get the received data length */
 440:Middlewares/ST/STM32_USB_Device_Library/Class/winUsb/Src/usbd_winUsb.c ****   hcdc->RxLength = USBD_LL_GetRxDataSize(pdev, epnum);
 441:Middlewares/ST/STM32_USB_Device_Library/Class/winUsb/Src/usbd_winUsb.c **** 
 442:Middlewares/ST/STM32_USB_Device_Library/Class/winUsb/Src/usbd_winUsb.c ****   /* USB data will be immediately processed, this allow next USB traffic being
 443:Middlewares/ST/STM32_USB_Device_Library/Class/winUsb/Src/usbd_winUsb.c ****   NAKed till the end of the application Xfer */
 444:Middlewares/ST/STM32_USB_Device_Library/Class/winUsb/Src/usbd_winUsb.c **** 
 445:Middlewares/ST/STM32_USB_Device_Library/Class/winUsb/Src/usbd_winUsb.c ****   ((USBD_WinUsb_ItfTypeDef *)pdev->pUserData[pdev->classId])->Receive(hcdc->RxBuffer, &hcdc->RxLeng
 446:Middlewares/ST/STM32_USB_Device_Library/Class/winUsb/Src/usbd_winUsb.c **** 
 447:Middlewares/ST/STM32_USB_Device_Library/Class/winUsb/Src/usbd_winUsb.c ****   return (uint8_t)USBD_OK;
 448:Middlewares/ST/STM32_USB_Device_Library/Class/winUsb/Src/usbd_winUsb.c **** 
 449:Middlewares/ST/STM32_USB_Device_Library/Class/winUsb/Src/usbd_winUsb.c **** }
 450:Middlewares/ST/STM32_USB_Device_Library/Class/winUsb/Src/usbd_winUsb.c **** static uint8_t USBD_WinUsb_EP0_RxReady(USBD_HandleTypeDef *pdev)
 451:Middlewares/ST/STM32_USB_Device_Library/Class/winUsb/Src/usbd_winUsb.c **** {
  29              		.loc 1 451 1 view -0
  30              		.cfi_startproc
  31              		@ args = 0, pretend = 0, frame = 0
  32              		@ frame_needed = 0, uses_anonymous_args = 0
  33              		@ link register save eliminated.
 452:Middlewares/ST/STM32_USB_Device_Library/Class/winUsb/Src/usbd_winUsb.c **** 	return (uint8_t)USBD_OK;
  34              		.loc 1 452 2 view .LVU1
 453:Middlewares/ST/STM32_USB_Device_Library/Class/winUsb/Src/usbd_winUsb.c **** 
 454:Middlewares/ST/STM32_USB_Device_Library/Class/winUsb/Src/usbd_winUsb.c **** }
  35              		.loc 1 454 1 is_stmt 0 view .LVU2
  36 0000 0020     		movs	r0, #0
  37              	.LVL1:
  38              		.loc 1 454 1 view .LVU3
  39 0002 7047     		bx	lr
  40              		.cfi_endproc
  41              	.LFE148:
  43              		.section	.text.WinUsb_DeInit_FS,"ax",%progbits
  44              		.align	1
  45              		.syntax unified
  46              		.thumb
  47              		.thumb_func
  49              	WinUsb_DeInit_FS:
  50              	.LFB154:
 455:Middlewares/ST/STM32_USB_Device_Library/Class/winUsb/Src/usbd_winUsb.c **** 
 456:Middlewares/ST/STM32_USB_Device_Library/Class/winUsb/Src/usbd_winUsb.c **** /* uint8_t WinUsbRxBufferFS[winAPP_RX_DATA_SIZE];
 457:Middlewares/ST/STM32_USB_Device_Library/Class/winUsb/Src/usbd_winUsb.c **** uint8_t WinUsbTxBufferFS[winAPP_TX_DATA_SIZE]; */
 458:Middlewares/ST/STM32_USB_Device_Library/Class/winUsb/Src/usbd_winUsb.c **** UsbBuffer_t usbBuffer;
 459:Middlewares/ST/STM32_USB_Device_Library/Class/winUsb/Src/usbd_winUsb.c **** // extern USBD_HandleTypeDef hUsbDeviceFS;
 460:Middlewares/ST/STM32_USB_Device_Library/Class/winUsb/Src/usbd_winUsb.c **** 
 461:Middlewares/ST/STM32_USB_Device_Library/Class/winUsb/Src/usbd_winUsb.c **** extern USBD_HandleTypeDef hUsbDeviceHS;
 462:Middlewares/ST/STM32_USB_Device_Library/Class/winUsb/Src/usbd_winUsb.c **** 
 463:Middlewares/ST/STM32_USB_Device_Library/Class/winUsb/Src/usbd_winUsb.c **** uint8_t USBD_WinUsb_SetTxBuffer(USBD_HandleTypeDef *pdev,
 464:Middlewares/ST/STM32_USB_Device_Library/Class/winUsb/Src/usbd_winUsb.c ****                              uint8_t *pbuff, uint32_t length)
 465:Middlewares/ST/STM32_USB_Device_Library/Class/winUsb/Src/usbd_winUsb.c **** {
 466:Middlewares/ST/STM32_USB_Device_Library/Class/winUsb/Src/usbd_winUsb.c ****   USBD_WinUsb_HandleTypeDef *hcdc = (USBD_WinUsb_HandleTypeDef *)pdev->pClassDataCmsit[pdev->classI
ARM GAS  C:\Users\ADMINI~1\AppData\Local\Temp\ccslNEp2.s 			page 10


 467:Middlewares/ST/STM32_USB_Device_Library/Class/winUsb/Src/usbd_winUsb.c **** 
 468:Middlewares/ST/STM32_USB_Device_Library/Class/winUsb/Src/usbd_winUsb.c ****   if (hcdc == NULL)
 469:Middlewares/ST/STM32_USB_Device_Library/Class/winUsb/Src/usbd_winUsb.c ****   {
 470:Middlewares/ST/STM32_USB_Device_Library/Class/winUsb/Src/usbd_winUsb.c ****     return (uint8_t)USBD_FAIL;
 471:Middlewares/ST/STM32_USB_Device_Library/Class/winUsb/Src/usbd_winUsb.c ****   }
 472:Middlewares/ST/STM32_USB_Device_Library/Class/winUsb/Src/usbd_winUsb.c **** 
 473:Middlewares/ST/STM32_USB_Device_Library/Class/winUsb/Src/usbd_winUsb.c ****   hcdc->TxBuffer = pbuff;
 474:Middlewares/ST/STM32_USB_Device_Library/Class/winUsb/Src/usbd_winUsb.c ****   hcdc->TxLength = length;
 475:Middlewares/ST/STM32_USB_Device_Library/Class/winUsb/Src/usbd_winUsb.c **** 
 476:Middlewares/ST/STM32_USB_Device_Library/Class/winUsb/Src/usbd_winUsb.c ****   return (uint8_t)USBD_OK;
 477:Middlewares/ST/STM32_USB_Device_Library/Class/winUsb/Src/usbd_winUsb.c **** }
 478:Middlewares/ST/STM32_USB_Device_Library/Class/winUsb/Src/usbd_winUsb.c **** uint8_t USBD_WinUsb_SetRxBuffer(USBD_HandleTypeDef *pdev, uint8_t *pbuff)
 479:Middlewares/ST/STM32_USB_Device_Library/Class/winUsb/Src/usbd_winUsb.c **** {
 480:Middlewares/ST/STM32_USB_Device_Library/Class/winUsb/Src/usbd_winUsb.c **** 	USBD_WinUsb_HandleTypeDef *hcdc = (USBD_WinUsb_HandleTypeDef *)pdev->pClassDataCmsit[pdev->classId
 481:Middlewares/ST/STM32_USB_Device_Library/Class/winUsb/Src/usbd_winUsb.c **** 
 482:Middlewares/ST/STM32_USB_Device_Library/Class/winUsb/Src/usbd_winUsb.c **** 	if (hcdc == NULL)
 483:Middlewares/ST/STM32_USB_Device_Library/Class/winUsb/Src/usbd_winUsb.c **** 	{
 484:Middlewares/ST/STM32_USB_Device_Library/Class/winUsb/Src/usbd_winUsb.c **** 	 	return (uint8_t)USBD_FAIL;
 485:Middlewares/ST/STM32_USB_Device_Library/Class/winUsb/Src/usbd_winUsb.c **** 	}
 486:Middlewares/ST/STM32_USB_Device_Library/Class/winUsb/Src/usbd_winUsb.c **** 
 487:Middlewares/ST/STM32_USB_Device_Library/Class/winUsb/Src/usbd_winUsb.c **** 	hcdc->RxBuffer = pbuff;
 488:Middlewares/ST/STM32_USB_Device_Library/Class/winUsb/Src/usbd_winUsb.c **** 
 489:Middlewares/ST/STM32_USB_Device_Library/Class/winUsb/Src/usbd_winUsb.c **** 	return (uint8_t)USBD_OK;
 490:Middlewares/ST/STM32_USB_Device_Library/Class/winUsb/Src/usbd_winUsb.c **** }
 491:Middlewares/ST/STM32_USB_Device_Library/Class/winUsb/Src/usbd_winUsb.c **** 
 492:Middlewares/ST/STM32_USB_Device_Library/Class/winUsb/Src/usbd_winUsb.c **** uint8_t USBD_WinUsb_ReceivePacket(USBD_HandleTypeDef *pdev)
 493:Middlewares/ST/STM32_USB_Device_Library/Class/winUsb/Src/usbd_winUsb.c **** {
 494:Middlewares/ST/STM32_USB_Device_Library/Class/winUsb/Src/usbd_winUsb.c ****   USBD_WinUsb_HandleTypeDef *hcdc = (USBD_WinUsb_HandleTypeDef *)pdev->pClassDataCmsit[pdev->classI
 495:Middlewares/ST/STM32_USB_Device_Library/Class/winUsb/Src/usbd_winUsb.c **** 
 496:Middlewares/ST/STM32_USB_Device_Library/Class/winUsb/Src/usbd_winUsb.c ****   if (pdev->pClassDataCmsit[pdev->classId] == NULL)
 497:Middlewares/ST/STM32_USB_Device_Library/Class/winUsb/Src/usbd_winUsb.c ****   {
 498:Middlewares/ST/STM32_USB_Device_Library/Class/winUsb/Src/usbd_winUsb.c ****     return (uint8_t)USBD_FAIL;
 499:Middlewares/ST/STM32_USB_Device_Library/Class/winUsb/Src/usbd_winUsb.c ****   }
 500:Middlewares/ST/STM32_USB_Device_Library/Class/winUsb/Src/usbd_winUsb.c ****   if (pdev->dev_speed == USBD_SPEED_HIGH)
 501:Middlewares/ST/STM32_USB_Device_Library/Class/winUsb/Src/usbd_winUsb.c ****   {
 502:Middlewares/ST/STM32_USB_Device_Library/Class/winUsb/Src/usbd_winUsb.c ****     /* Prepare Out endpoint to receive next packet */
 503:Middlewares/ST/STM32_USB_Device_Library/Class/winUsb/Src/usbd_winUsb.c ****     (void)USBD_LL_PrepareReceive(pdev, WinUsbOutEpAdd, hcdc->RxBuffer,
 504:Middlewares/ST/STM32_USB_Device_Library/Class/winUsb/Src/usbd_winUsb.c ****                                  WIN_DATA_HS_OUT_PACKET_SIZE);
 505:Middlewares/ST/STM32_USB_Device_Library/Class/winUsb/Src/usbd_winUsb.c ****   }
 506:Middlewares/ST/STM32_USB_Device_Library/Class/winUsb/Src/usbd_winUsb.c ****   else
 507:Middlewares/ST/STM32_USB_Device_Library/Class/winUsb/Src/usbd_winUsb.c ****   {
 508:Middlewares/ST/STM32_USB_Device_Library/Class/winUsb/Src/usbd_winUsb.c ****     /* Prepare Out endpoint to receive next packet */
 509:Middlewares/ST/STM32_USB_Device_Library/Class/winUsb/Src/usbd_winUsb.c ****     (void)USBD_LL_PrepareReceive(pdev, WinUsbOutEpAdd, hcdc->RxBuffer,
 510:Middlewares/ST/STM32_USB_Device_Library/Class/winUsb/Src/usbd_winUsb.c ****                                  WIN_DATA_FS_OUT_PACKET_SIZE);
 511:Middlewares/ST/STM32_USB_Device_Library/Class/winUsb/Src/usbd_winUsb.c ****   }
 512:Middlewares/ST/STM32_USB_Device_Library/Class/winUsb/Src/usbd_winUsb.c ****  return (uint8_t)USBD_OK;
 513:Middlewares/ST/STM32_USB_Device_Library/Class/winUsb/Src/usbd_winUsb.c **** }
 514:Middlewares/ST/STM32_USB_Device_Library/Class/winUsb/Src/usbd_winUsb.c **** 
 515:Middlewares/ST/STM32_USB_Device_Library/Class/winUsb/Src/usbd_winUsb.c **** uint8_t USBD_WinUsb_TransmitPacket(USBD_HandleTypeDef *pdev)
 516:Middlewares/ST/STM32_USB_Device_Library/Class/winUsb/Src/usbd_winUsb.c **** {
 517:Middlewares/ST/STM32_USB_Device_Library/Class/winUsb/Src/usbd_winUsb.c ****   USBD_WinUsb_HandleTypeDef *hcdc = (USBD_WinUsb_HandleTypeDef *)pdev->pClassDataCmsit[pdev->classI
 518:Middlewares/ST/STM32_USB_Device_Library/Class/winUsb/Src/usbd_winUsb.c ****   USBD_StatusTypeDef ret = USBD_BUSY;
 519:Middlewares/ST/STM32_USB_Device_Library/Class/winUsb/Src/usbd_winUsb.c **** 
 520:Middlewares/ST/STM32_USB_Device_Library/Class/winUsb/Src/usbd_winUsb.c ****   if (pdev->pClassDataCmsit[pdev->classId] == NULL)
 521:Middlewares/ST/STM32_USB_Device_Library/Class/winUsb/Src/usbd_winUsb.c ****   {
 522:Middlewares/ST/STM32_USB_Device_Library/Class/winUsb/Src/usbd_winUsb.c ****     return (uint8_t)USBD_FAIL;
 523:Middlewares/ST/STM32_USB_Device_Library/Class/winUsb/Src/usbd_winUsb.c ****   }
ARM GAS  C:\Users\ADMINI~1\AppData\Local\Temp\ccslNEp2.s 			page 11


 524:Middlewares/ST/STM32_USB_Device_Library/Class/winUsb/Src/usbd_winUsb.c **** 
 525:Middlewares/ST/STM32_USB_Device_Library/Class/winUsb/Src/usbd_winUsb.c ****   if (hcdc->TxState == 0U)
 526:Middlewares/ST/STM32_USB_Device_Library/Class/winUsb/Src/usbd_winUsb.c ****   {
 527:Middlewares/ST/STM32_USB_Device_Library/Class/winUsb/Src/usbd_winUsb.c ****     /* Tx Transfer in progress */
 528:Middlewares/ST/STM32_USB_Device_Library/Class/winUsb/Src/usbd_winUsb.c ****     hcdc->TxState = 1U;
 529:Middlewares/ST/STM32_USB_Device_Library/Class/winUsb/Src/usbd_winUsb.c **** 
 530:Middlewares/ST/STM32_USB_Device_Library/Class/winUsb/Src/usbd_winUsb.c ****     /* Update the packet total length */
 531:Middlewares/ST/STM32_USB_Device_Library/Class/winUsb/Src/usbd_winUsb.c ****     pdev->ep_in[WinUsbInEpAdd & 0xFU].total_length = hcdc->TxLength;
 532:Middlewares/ST/STM32_USB_Device_Library/Class/winUsb/Src/usbd_winUsb.c **** 
 533:Middlewares/ST/STM32_USB_Device_Library/Class/winUsb/Src/usbd_winUsb.c ****     /* Transmit next packet */
 534:Middlewares/ST/STM32_USB_Device_Library/Class/winUsb/Src/usbd_winUsb.c ****     (void)USBD_LL_Transmit(pdev, WinUsbInEpAdd, hcdc->TxBuffer, hcdc->TxLength);
 535:Middlewares/ST/STM32_USB_Device_Library/Class/winUsb/Src/usbd_winUsb.c **** 
 536:Middlewares/ST/STM32_USB_Device_Library/Class/winUsb/Src/usbd_winUsb.c ****     ret = USBD_OK;
 537:Middlewares/ST/STM32_USB_Device_Library/Class/winUsb/Src/usbd_winUsb.c ****   }
 538:Middlewares/ST/STM32_USB_Device_Library/Class/winUsb/Src/usbd_winUsb.c **** 
 539:Middlewares/ST/STM32_USB_Device_Library/Class/winUsb/Src/usbd_winUsb.c ****   return (uint8_t)ret;
 540:Middlewares/ST/STM32_USB_Device_Library/Class/winUsb/Src/usbd_winUsb.c **** }
 541:Middlewares/ST/STM32_USB_Device_Library/Class/winUsb/Src/usbd_winUsb.c **** static int8_t WinUsb_Init_FS(void)
 542:Middlewares/ST/STM32_USB_Device_Library/Class/winUsb/Src/usbd_winUsb.c **** {
 543:Middlewares/ST/STM32_USB_Device_Library/Class/winUsb/Src/usbd_winUsb.c ****   /* USER CODE BEGIN 3 */
 544:Middlewares/ST/STM32_USB_Device_Library/Class/winUsb/Src/usbd_winUsb.c ****   /* Set Application Buffers */
 545:Middlewares/ST/STM32_USB_Device_Library/Class/winUsb/Src/usbd_winUsb.c ****   /* USBD_WinUsb_SetTxBuffer(&hUsbDeviceHS, WinUsbTxBufferFS, 0);
 546:Middlewares/ST/STM32_USB_Device_Library/Class/winUsb/Src/usbd_winUsb.c ****   USBD_WinUsb_SetRxBuffer(&hUsbDeviceHS, WinUsbRxBufferFS); */
 547:Middlewares/ST/STM32_USB_Device_Library/Class/winUsb/Src/usbd_winUsb.c ****   usbBuffer.pingPongIndex = 0;
 548:Middlewares/ST/STM32_USB_Device_Library/Class/winUsb/Src/usbd_winUsb.c ****   usbBuffer.receivedPacketLen = 0;
 549:Middlewares/ST/STM32_USB_Device_Library/Class/winUsb/Src/usbd_winUsb.c ****   usbBuffer.rxDataOffset = 0;
 550:Middlewares/ST/STM32_USB_Device_Library/Class/winUsb/Src/usbd_winUsb.c ****   USBD_WinUsb_SetTxBuffer(&hUsbDeviceHS, usbBuffer.extraDataTx, 0);
 551:Middlewares/ST/STM32_USB_Device_Library/Class/winUsb/Src/usbd_winUsb.c ****   USBD_WinUsb_SetRxBuffer(&hUsbDeviceHS, usbBuffer.rxData[usbBuffer.pingPongIndex]);
 552:Middlewares/ST/STM32_USB_Device_Library/Class/winUsb/Src/usbd_winUsb.c ****   return (USBD_OK);
 553:Middlewares/ST/STM32_USB_Device_Library/Class/winUsb/Src/usbd_winUsb.c ****   /* USER CODE END 3 */
 554:Middlewares/ST/STM32_USB_Device_Library/Class/winUsb/Src/usbd_winUsb.c **** }
 555:Middlewares/ST/STM32_USB_Device_Library/Class/winUsb/Src/usbd_winUsb.c **** static int8_t WinUsb_DeInit_FS(void)
 556:Middlewares/ST/STM32_USB_Device_Library/Class/winUsb/Src/usbd_winUsb.c **** {
  51              		.loc 1 556 1 is_stmt 1 view -0
  52              		.cfi_startproc
  53              		@ args = 0, pretend = 0, frame = 0
  54              		@ frame_needed = 0, uses_anonymous_args = 0
  55              		@ link register save eliminated.
 557:Middlewares/ST/STM32_USB_Device_Library/Class/winUsb/Src/usbd_winUsb.c ****   /* USER CODE BEGIN 4 */
 558:Middlewares/ST/STM32_USB_Device_Library/Class/winUsb/Src/usbd_winUsb.c ****   return (USBD_OK);
  56              		.loc 1 558 3 view .LVU5
 559:Middlewares/ST/STM32_USB_Device_Library/Class/winUsb/Src/usbd_winUsb.c ****   /* USER CODE END 4 */
 560:Middlewares/ST/STM32_USB_Device_Library/Class/winUsb/Src/usbd_winUsb.c **** }
  57              		.loc 1 560 1 is_stmt 0 view .LVU6
  58 0000 0020     		movs	r0, #0
  59 0002 7047     		bx	lr
  60              		.cfi_endproc
  61              	.LFE154:
  63              		.section	.text.WinUsb_TransmitCplt_FS,"ax",%progbits
  64              		.align	1
  65              		.syntax unified
  66              		.thumb
  67              		.thumb_func
  69              	WinUsb_TransmitCplt_FS:
  70              	.LVL2:
  71              	.LFB157:
 561:Middlewares/ST/STM32_USB_Device_Library/Class/winUsb/Src/usbd_winUsb.c **** uint8_t WinUsb_Transmit_FS(uint8_t* Buf, uint16_t Len)
ARM GAS  C:\Users\ADMINI~1\AppData\Local\Temp\ccslNEp2.s 			page 12


 562:Middlewares/ST/STM32_USB_Device_Library/Class/winUsb/Src/usbd_winUsb.c **** {
 563:Middlewares/ST/STM32_USB_Device_Library/Class/winUsb/Src/usbd_winUsb.c ****   uint8_t result = USBD_OK;
 564:Middlewares/ST/STM32_USB_Device_Library/Class/winUsb/Src/usbd_winUsb.c ****   /* USER CODE BEGIN 7 */
 565:Middlewares/ST/STM32_USB_Device_Library/Class/winUsb/Src/usbd_winUsb.c ****   USBD_WinUsb_HandleTypeDef *hcdc = (USBD_WinUsb_HandleTypeDef*)hUsbDeviceHS.pClassData;
 566:Middlewares/ST/STM32_USB_Device_Library/Class/winUsb/Src/usbd_winUsb.c ****   if (hcdc->TxState != 0){
 567:Middlewares/ST/STM32_USB_Device_Library/Class/winUsb/Src/usbd_winUsb.c ****     return USBD_BUSY;
 568:Middlewares/ST/STM32_USB_Device_Library/Class/winUsb/Src/usbd_winUsb.c ****   }
 569:Middlewares/ST/STM32_USB_Device_Library/Class/winUsb/Src/usbd_winUsb.c ****   USBD_WinUsb_SetTxBuffer(&hUsbDeviceHS, Buf, Len);
 570:Middlewares/ST/STM32_USB_Device_Library/Class/winUsb/Src/usbd_winUsb.c ****   result = USBD_WinUsb_TransmitPacket(&hUsbDeviceHS);
 571:Middlewares/ST/STM32_USB_Device_Library/Class/winUsb/Src/usbd_winUsb.c ****   /* USER CODE END 7 */
 572:Middlewares/ST/STM32_USB_Device_Library/Class/winUsb/Src/usbd_winUsb.c ****   return result;
 573:Middlewares/ST/STM32_USB_Device_Library/Class/winUsb/Src/usbd_winUsb.c **** }
 574:Middlewares/ST/STM32_USB_Device_Library/Class/winUsb/Src/usbd_winUsb.c **** static int8_t WinUsb_Receive_FS(uint8_t* Buf, uint32_t *Len)
 575:Middlewares/ST/STM32_USB_Device_Library/Class/winUsb/Src/usbd_winUsb.c **** {
 576:Middlewares/ST/STM32_USB_Device_Library/Class/winUsb/Src/usbd_winUsb.c ****   /* USER CODE BEGIN 6 */
 577:Middlewares/ST/STM32_USB_Device_Library/Class/winUsb/Src/usbd_winUsb.c ****   // int i;
 578:Middlewares/ST/STM32_USB_Device_Library/Class/winUsb/Src/usbd_winUsb.c ****   /*for(i=0 ; i<*Len; i++)
 579:Middlewares/ST/STM32_USB_Device_Library/Class/winUsb/Src/usbd_winUsb.c ****     printf("%.2x ",Buf[i]);
 580:Middlewares/ST/STM32_USB_Device_Library/Class/winUsb/Src/usbd_winUsb.c ****   printf("\r\n");*/
 581:Middlewares/ST/STM32_USB_Device_Library/Class/winUsb/Src/usbd_winUsb.c ****   // printf("len =%ld\r\n",*Len);
 582:Middlewares/ST/STM32_USB_Device_Library/Class/winUsb/Src/usbd_winUsb.c **** 
 583:Middlewares/ST/STM32_USB_Device_Library/Class/winUsb/Src/usbd_winUsb.c ****   usbBuffer.receivedPacketLen = *Len;
 584:Middlewares/ST/STM32_USB_Device_Library/Class/winUsb/Src/usbd_winUsb.c ****   if (usbBuffer.receivedPacketLen == 224)
 585:Middlewares/ST/STM32_USB_Device_Library/Class/winUsb/Src/usbd_winUsb.c ****   {
 586:Middlewares/ST/STM32_USB_Device_Library/Class/winUsb/Src/usbd_winUsb.c ****     //SwitchPingPongBuffer
 587:Middlewares/ST/STM32_USB_Device_Library/Class/winUsb/Src/usbd_winUsb.c ****     usbBuffer.pingPongIndex = (usbBuffer.pingPongIndex == 0 ? 1 : 0);
 588:Middlewares/ST/STM32_USB_Device_Library/Class/winUsb/Src/usbd_winUsb.c ****     usbBuffer.rxDataOffset = 0;
 589:Middlewares/ST/STM32_USB_Device_Library/Class/winUsb/Src/usbd_winUsb.c ****   }
 590:Middlewares/ST/STM32_USB_Device_Library/Class/winUsb/Src/usbd_winUsb.c ****   // Prepare next receive 
 591:Middlewares/ST/STM32_USB_Device_Library/Class/winUsb/Src/usbd_winUsb.c ****   if (usbBuffer.receivedPacketLen == 512)
 592:Middlewares/ST/STM32_USB_Device_Library/Class/winUsb/Src/usbd_winUsb.c ****   {
 593:Middlewares/ST/STM32_USB_Device_Library/Class/winUsb/Src/usbd_winUsb.c ****       usbBuffer.rxDataOffset += 512;
 594:Middlewares/ST/STM32_USB_Device_Library/Class/winUsb/Src/usbd_winUsb.c ****   }
 595:Middlewares/ST/STM32_USB_Device_Library/Class/winUsb/Src/usbd_winUsb.c ****   USBD_WinUsb_SetRxBuffer(&hUsbDeviceHS, &usbBuffer.rxData[usbBuffer.pingPongIndex][usbBuffer.rxDat
 596:Middlewares/ST/STM32_USB_Device_Library/Class/winUsb/Src/usbd_winUsb.c ****   USBD_WinUsb_ReceivePacket(&hUsbDeviceHS);
 597:Middlewares/ST/STM32_USB_Device_Library/Class/winUsb/Src/usbd_winUsb.c ****   return (USBD_OK);
 598:Middlewares/ST/STM32_USB_Device_Library/Class/winUsb/Src/usbd_winUsb.c ****   /* USER CODE END 6 */
 599:Middlewares/ST/STM32_USB_Device_Library/Class/winUsb/Src/usbd_winUsb.c **** }
 600:Middlewares/ST/STM32_USB_Device_Library/Class/winUsb/Src/usbd_winUsb.c **** static int8_t WinUsb_TransmitCplt_FS(uint8_t *Buf, uint32_t *Len, uint8_t epnum)
 601:Middlewares/ST/STM32_USB_Device_Library/Class/winUsb/Src/usbd_winUsb.c **** {
  72              		.loc 1 601 1 is_stmt 1 view -0
  73              		.cfi_startproc
  74              		@ args = 0, pretend = 0, frame = 0
  75              		@ frame_needed = 0, uses_anonymous_args = 0
  76              		@ link register save eliminated.
 602:Middlewares/ST/STM32_USB_Device_Library/Class/winUsb/Src/usbd_winUsb.c ****   uint8_t result = USBD_OK;
  77              		.loc 1 602 3 view .LVU8
 603:Middlewares/ST/STM32_USB_Device_Library/Class/winUsb/Src/usbd_winUsb.c ****   /* USER CODE BEGIN 13 */
 604:Middlewares/ST/STM32_USB_Device_Library/Class/winUsb/Src/usbd_winUsb.c ****   UNUSED(Buf);
  78              		.loc 1 604 3 view .LVU9
 605:Middlewares/ST/STM32_USB_Device_Library/Class/winUsb/Src/usbd_winUsb.c ****   UNUSED(Len);
  79              		.loc 1 605 3 view .LVU10
 606:Middlewares/ST/STM32_USB_Device_Library/Class/winUsb/Src/usbd_winUsb.c ****   UNUSED(epnum);
  80              		.loc 1 606 3 view .LVU11
 607:Middlewares/ST/STM32_USB_Device_Library/Class/winUsb/Src/usbd_winUsb.c ****   /* USER CODE END 13 */
 608:Middlewares/ST/STM32_USB_Device_Library/Class/winUsb/Src/usbd_winUsb.c ****   return result;
  81              		.loc 1 608 3 view .LVU12
ARM GAS  C:\Users\ADMINI~1\AppData\Local\Temp\ccslNEp2.s 			page 13


 609:Middlewares/ST/STM32_USB_Device_Library/Class/winUsb/Src/usbd_winUsb.c **** }
  82              		.loc 1 609 1 is_stmt 0 view .LVU13
  83 0000 0020     		movs	r0, #0
  84              	.LVL3:
  85              		.loc 1 609 1 view .LVU14
  86 0002 7047     		bx	lr
  87              		.cfi_endproc
  88              	.LFE157:
  90              		.section	.text.USBD_WinUsb_DataOut,"ax",%progbits
  91              		.align	1
  92              		.syntax unified
  93              		.thumb
  94              		.thumb_func
  96              	USBD_WinUsb_DataOut:
  97              	.LVL4:
  98              	.LFB147:
 431:Middlewares/ST/STM32_USB_Device_Library/Class/winUsb/Src/usbd_winUsb.c ****   USBD_WinUsb_HandleTypeDef *hcdc = (USBD_WinUsb_HandleTypeDef *)pdev->pClassDataCmsit[pdev->classI
  99              		.loc 1 431 1 is_stmt 1 view -0
 100              		.cfi_startproc
 101              		@ args = 0, pretend = 0, frame = 0
 102              		@ frame_needed = 0, uses_anonymous_args = 0
 431:Middlewares/ST/STM32_USB_Device_Library/Class/winUsb/Src/usbd_winUsb.c ****   USBD_WinUsb_HandleTypeDef *hcdc = (USBD_WinUsb_HandleTypeDef *)pdev->pClassDataCmsit[pdev->classI
 103              		.loc 1 431 1 is_stmt 0 view .LVU16
 104 0000 38B5     		push	{r3, r4, r5, lr}
 105              	.LCFI0:
 106              		.cfi_def_cfa_offset 16
 107              		.cfi_offset 3, -16
 108              		.cfi_offset 4, -12
 109              		.cfi_offset 5, -8
 110              		.cfi_offset 14, -4
 432:Middlewares/ST/STM32_USB_Device_Library/Class/winUsb/Src/usbd_winUsb.c **** 
 111              		.loc 1 432 3 is_stmt 1 view .LVU17
 432:Middlewares/ST/STM32_USB_Device_Library/Class/winUsb/Src/usbd_winUsb.c **** 
 112              		.loc 1 432 92 is_stmt 0 view .LVU18
 113 0002 D0F8F832 		ldr	r3, [r0, #760]
 432:Middlewares/ST/STM32_USB_Device_Library/Class/winUsb/Src/usbd_winUsb.c **** 
 114              		.loc 1 432 30 view .LVU19
 115 0006 B233     		adds	r3, r3, #178
 116 0008 00EB8303 		add	r3, r0, r3, lsl #2
 117 000c 5D68     		ldr	r5, [r3, #4]
 118              	.LVL5:
 434:Middlewares/ST/STM32_USB_Device_Library/Class/winUsb/Src/usbd_winUsb.c ****   {
 119              		.loc 1 434 3 is_stmt 1 view .LVU20
 434:Middlewares/ST/STM32_USB_Device_Library/Class/winUsb/Src/usbd_winUsb.c ****   {
 120              		.loc 1 434 6 is_stmt 0 view .LVU21
 121 000e 95B1     		cbz	r5, .L6
 122 0010 0446     		mov	r4, r0
 440:Middlewares/ST/STM32_USB_Device_Library/Class/winUsb/Src/usbd_winUsb.c **** 
 123              		.loc 1 440 3 is_stmt 1 view .LVU22
 440:Middlewares/ST/STM32_USB_Device_Library/Class/winUsb/Src/usbd_winUsb.c **** 
 124              		.loc 1 440 20 is_stmt 0 view .LVU23
 125 0012 FFF7FEFF 		bl	USBD_LL_GetRxDataSize
 126              	.LVL6:
 440:Middlewares/ST/STM32_USB_Device_Library/Class/winUsb/Src/usbd_winUsb.c **** 
 127              		.loc 1 440 18 view .LVU24
 128 0016 C5F80C02 		str	r0, [r5, #524]
 445:Middlewares/ST/STM32_USB_Device_Library/Class/winUsb/Src/usbd_winUsb.c **** 
ARM GAS  C:\Users\ADMINI~1\AppData\Local\Temp\ccslNEp2.s 			page 14


 129              		.loc 1 445 3 is_stmt 1 view .LVU25
 445:Middlewares/ST/STM32_USB_Device_Library/Class/winUsb/Src/usbd_winUsb.c **** 
 130              		.loc 1 445 50 is_stmt 0 view .LVU26
 131 001a D4F8F832 		ldr	r3, [r4, #760]
 445:Middlewares/ST/STM32_USB_Device_Library/Class/winUsb/Src/usbd_winUsb.c **** 
 132              		.loc 1 445 45 view .LVU27
 133 001e B633     		adds	r3, r3, #182
 134 0020 04EB8304 		add	r4, r4, r3, lsl #2
 135              	.LVL7:
 445:Middlewares/ST/STM32_USB_Device_Library/Class/winUsb/Src/usbd_winUsb.c **** 
 136              		.loc 1 445 45 view .LVU28
 137 0024 6368     		ldr	r3, [r4, #4]
 445:Middlewares/ST/STM32_USB_Device_Library/Class/winUsb/Src/usbd_winUsb.c **** 
 138              		.loc 1 445 61 view .LVU29
 139 0026 9B68     		ldr	r3, [r3, #8]
 445:Middlewares/ST/STM32_USB_Device_Library/Class/winUsb/Src/usbd_winUsb.c **** 
 140              		.loc 1 445 4 view .LVU30
 141 0028 05F50371 		add	r1, r5, #524
 142 002c D5F80402 		ldr	r0, [r5, #516]
 143 0030 9847     		blx	r3
 144              	.LVL8:
 447:Middlewares/ST/STM32_USB_Device_Library/Class/winUsb/Src/usbd_winUsb.c **** 
 145              		.loc 1 447 3 is_stmt 1 view .LVU31
 447:Middlewares/ST/STM32_USB_Device_Library/Class/winUsb/Src/usbd_winUsb.c **** 
 146              		.loc 1 447 10 is_stmt 0 view .LVU32
 147 0032 0020     		movs	r0, #0
 148              	.L5:
 449:Middlewares/ST/STM32_USB_Device_Library/Class/winUsb/Src/usbd_winUsb.c **** static uint8_t USBD_WinUsb_EP0_RxReady(USBD_HandleTypeDef *pdev)
 149              		.loc 1 449 1 view .LVU33
 150 0034 38BD     		pop	{r3, r4, r5, pc}
 151              	.LVL9:
 152              	.L6:
 436:Middlewares/ST/STM32_USB_Device_Library/Class/winUsb/Src/usbd_winUsb.c ****   }
 153              		.loc 1 436 12 view .LVU34
 154 0036 0320     		movs	r0, #3
 155              	.LVL10:
 436:Middlewares/ST/STM32_USB_Device_Library/Class/winUsb/Src/usbd_winUsb.c ****   }
 156              		.loc 1 436 12 view .LVU35
 157 0038 FCE7     		b	.L5
 158              		.cfi_endproc
 159              	.LFE147:
 161              		.section	.text.USBD_WinUsb_DataIn,"ax",%progbits
 162              		.align	1
 163              		.syntax unified
 164              		.thumb
 165              		.thumb_func
 167              	USBD_WinUsb_DataIn:
 168              	.LVL11:
 169              	.LFB146:
 396:Middlewares/ST/STM32_USB_Device_Library/Class/winUsb/Src/usbd_winUsb.c ****   USBD_WinUsb_HandleTypeDef *hcdc;
 170              		.loc 1 396 1 is_stmt 1 view -0
 171              		.cfi_startproc
 172              		@ args = 0, pretend = 0, frame = 0
 173              		@ frame_needed = 0, uses_anonymous_args = 0
 396:Middlewares/ST/STM32_USB_Device_Library/Class/winUsb/Src/usbd_winUsb.c ****   USBD_WinUsb_HandleTypeDef *hcdc;
 174              		.loc 1 396 1 is_stmt 0 view .LVU37
 175 0000 38B5     		push	{r3, r4, r5, lr}
ARM GAS  C:\Users\ADMINI~1\AppData\Local\Temp\ccslNEp2.s 			page 15


 176              	.LCFI1:
 177              		.cfi_def_cfa_offset 16
 178              		.cfi_offset 3, -16
 179              		.cfi_offset 4, -12
 180              		.cfi_offset 5, -8
 181              		.cfi_offset 14, -4
 397:Middlewares/ST/STM32_USB_Device_Library/Class/winUsb/Src/usbd_winUsb.c ****   PCD_HandleTypeDef *hpcd = (PCD_HandleTypeDef *)pdev->pData;
 182              		.loc 1 397 3 is_stmt 1 view .LVU38
 398:Middlewares/ST/STM32_USB_Device_Library/Class/winUsb/Src/usbd_winUsb.c **** 
 183              		.loc 1 398 3 view .LVU39
 398:Middlewares/ST/STM32_USB_Device_Library/Class/winUsb/Src/usbd_winUsb.c **** 
 184              		.loc 1 398 22 is_stmt 0 view .LVU40
 185 0002 D0F8EC52 		ldr	r5, [r0, #748]
 186              	.LVL12:
 400:Middlewares/ST/STM32_USB_Device_Library/Class/winUsb/Src/usbd_winUsb.c ****   {
 187              		.loc 1 400 3 is_stmt 1 view .LVU41
 400:Middlewares/ST/STM32_USB_Device_Library/Class/winUsb/Src/usbd_winUsb.c ****   {
 188              		.loc 1 400 33 is_stmt 0 view .LVU42
 189 0006 D0F8F832 		ldr	r3, [r0, #760]
 400:Middlewares/ST/STM32_USB_Device_Library/Class/winUsb/Src/usbd_winUsb.c ****   {
 190              		.loc 1 400 28 view .LVU43
 191 000a B233     		adds	r3, r3, #178
 192 000c 00EB8303 		add	r3, r0, r3, lsl #2
 193 0010 5C68     		ldr	r4, [r3, #4]
 400:Middlewares/ST/STM32_USB_Device_Library/Class/winUsb/Src/usbd_winUsb.c ****   {
 194              		.loc 1 400 6 view .LVU44
 195 0012 84B3     		cbz	r4, .L11
 405:Middlewares/ST/STM32_USB_Device_Library/Class/winUsb/Src/usbd_winUsb.c **** 
 196              		.loc 1 405 3 is_stmt 1 view .LVU45
 197              	.LVL13:
 407:Middlewares/ST/STM32_USB_Device_Library/Class/winUsb/Src/usbd_winUsb.c ****       ((pdev->ep_in[epnum & 0xFU].total_length % hpcd->IN_ep[epnum & 0xFU].maxpacket) == 0U))
 198              		.loc 1 407 3 view .LVU46
 407:Middlewares/ST/STM32_USB_Device_Library/Class/winUsb/Src/usbd_winUsb.c ****       ((pdev->ep_in[epnum & 0xFU].total_length % hpcd->IN_ep[epnum & 0xFU].maxpacket) == 0U))
 199              		.loc 1 407 26 is_stmt 0 view .LVU47
 200 0014 01F00F03 		and	r3, r1, #15
 407:Middlewares/ST/STM32_USB_Device_Library/Class/winUsb/Src/usbd_winUsb.c ****       ((pdev->ep_in[epnum & 0xFU].total_length % hpcd->IN_ep[epnum & 0xFU].maxpacket) == 0U))
 201              		.loc 1 407 33 view .LVU48
 202 0018 03EB8302 		add	r2, r3, r3, lsl #2
 203 001c 00EB8202 		add	r2, r0, r2, lsl #2
 204 0020 9269     		ldr	r2, [r2, #24]
 407:Middlewares/ST/STM32_USB_Device_Library/Class/winUsb/Src/usbd_winUsb.c ****       ((pdev->ep_in[epnum & 0xFU].total_length % hpcd->IN_ep[epnum & 0xFU].maxpacket) == 0U))
 205              		.loc 1 407 6 view .LVU49
 206 0022 4AB1     		cbz	r2, .L10
 408:Middlewares/ST/STM32_USB_Device_Library/Class/winUsb/Src/usbd_winUsb.c ****   {
 207              		.loc 1 408 75 discriminator 1 view .LVU50
 208 0024 03EBC30C 		add	ip, r3, r3, lsl #3
 209 0028 05EB8C05 		add	r5, r5, ip, lsl #2
 210              	.LVL14:
 408:Middlewares/ST/STM32_USB_Device_Library/Class/winUsb/Src/usbd_winUsb.c ****   {
 211              		.loc 1 408 75 discriminator 1 view .LVU51
 212 002c AD6C     		ldr	r5, [r5, #72]
 408:Middlewares/ST/STM32_USB_Device_Library/Class/winUsb/Src/usbd_winUsb.c ****   {
 213              		.loc 1 408 48 discriminator 1 view .LVU52
 214 002e B2FBF5FC 		udiv	ip, r2, r5
 215 0032 05FB1C22 		mls	r2, r5, ip, r2
 407:Middlewares/ST/STM32_USB_Device_Library/Class/winUsb/Src/usbd_winUsb.c ****       ((pdev->ep_in[epnum & 0xFU].total_length % hpcd->IN_ep[epnum & 0xFU].maxpacket) == 0U))
 216              		.loc 1 407 53 discriminator 1 view .LVU53
ARM GAS  C:\Users\ADMINI~1\AppData\Local\Temp\ccslNEp2.s 			page 16


 217 0036 92B1     		cbz	r2, .L14
 218              	.L10:
 418:Middlewares/ST/STM32_USB_Device_Library/Class/winUsb/Src/usbd_winUsb.c **** 
 219              		.loc 1 418 5 is_stmt 1 view .LVU54
 418:Middlewares/ST/STM32_USB_Device_Library/Class/winUsb/Src/usbd_winUsb.c **** 
 220              		.loc 1 418 19 is_stmt 0 view .LVU55
 221 0038 0023     		movs	r3, #0
 222 003a C4F81432 		str	r3, [r4, #532]
 223              	.LVL15:
 420:Middlewares/ST/STM32_USB_Device_Library/Class/winUsb/Src/usbd_winUsb.c ****     {
 224              		.loc 1 420 5 is_stmt 1 view .LVU56
 420:Middlewares/ST/STM32_USB_Device_Library/Class/winUsb/Src/usbd_winUsb.c ****     {
 225              		.loc 1 420 56 is_stmt 0 view .LVU57
 226 003e D0F8F832 		ldr	r3, [r0, #760]
 420:Middlewares/ST/STM32_USB_Device_Library/Class/winUsb/Src/usbd_winUsb.c ****     {
 227              		.loc 1 420 51 view .LVU58
 228 0042 B633     		adds	r3, r3, #182
 229 0044 00EB8300 		add	r0, r0, r3, lsl #2
 230              	.LVL16:
 420:Middlewares/ST/STM32_USB_Device_Library/Class/winUsb/Src/usbd_winUsb.c ****     {
 231              		.loc 1 420 51 view .LVU59
 232 0048 4368     		ldr	r3, [r0, #4]
 420:Middlewares/ST/STM32_USB_Device_Library/Class/winUsb/Src/usbd_winUsb.c ****     {
 233              		.loc 1 420 67 view .LVU60
 234 004a DB68     		ldr	r3, [r3, #12]
 420:Middlewares/ST/STM32_USB_Device_Library/Class/winUsb/Src/usbd_winUsb.c ****     {
 235              		.loc 1 420 8 view .LVU61
 236 004c ABB1     		cbz	r3, .L12
 422:Middlewares/ST/STM32_USB_Device_Library/Class/winUsb/Src/usbd_winUsb.c ****     }
 237              		.loc 1 422 7 is_stmt 1 view .LVU62
 422:Middlewares/ST/STM32_USB_Device_Library/Class/winUsb/Src/usbd_winUsb.c ****     }
 238              		.loc 1 422 8 is_stmt 0 view .LVU63
 239 004e 0A46     		mov	r2, r1
 240 0050 04F50471 		add	r1, r4, #528
 241              	.LVL17:
 422:Middlewares/ST/STM32_USB_Device_Library/Class/winUsb/Src/usbd_winUsb.c ****     }
 242              		.loc 1 422 8 view .LVU64
 243 0054 D4F80802 		ldr	r0, [r4, #520]
 244 0058 9847     		blx	r3
 245              	.LVL18:
 426:Middlewares/ST/STM32_USB_Device_Library/Class/winUsb/Src/usbd_winUsb.c **** 
 246              		.loc 1 426 10 view .LVU65
 247 005a 0020     		movs	r0, #0
 248              	.LVL19:
 249              	.L9:
 428:Middlewares/ST/STM32_USB_Device_Library/Class/winUsb/Src/usbd_winUsb.c **** 
 250              		.loc 1 428 1 view .LVU66
 251 005c 38BD     		pop	{r3, r4, r5, pc}
 252              	.LVL20:
 253              	.L14:
 411:Middlewares/ST/STM32_USB_Device_Library/Class/winUsb/Src/usbd_winUsb.c **** 
 254              		.loc 1 411 5 is_stmt 1 view .LVU67
 411:Middlewares/ST/STM32_USB_Device_Library/Class/winUsb/Src/usbd_winUsb.c **** 
 255              		.loc 1 411 44 is_stmt 0 view .LVU68
 256 005e 03EB8303 		add	r3, r3, r3, lsl #2
 257 0062 00EB8303 		add	r3, r0, r3, lsl #2
 258 0066 0024     		movs	r4, #0
ARM GAS  C:\Users\ADMINI~1\AppData\Local\Temp\ccslNEp2.s 			page 17


 259              	.LVL21:
 411:Middlewares/ST/STM32_USB_Device_Library/Class/winUsb/Src/usbd_winUsb.c **** 
 260              		.loc 1 411 44 view .LVU69
 261 0068 9C61     		str	r4, [r3, #24]
 262              	.LVL22:
 414:Middlewares/ST/STM32_USB_Device_Library/Class/winUsb/Src/usbd_winUsb.c ****   }
 263              		.loc 1 414 5 is_stmt 1 view .LVU70
 414:Middlewares/ST/STM32_USB_Device_Library/Class/winUsb/Src/usbd_winUsb.c ****   }
 264              		.loc 1 414 11 is_stmt 0 view .LVU71
 265 006a 2346     		mov	r3, r4
 266 006c 2246     		mov	r2, r4
 267 006e FFF7FEFF 		bl	USBD_LL_Transmit
 268              	.LVL23:
 426:Middlewares/ST/STM32_USB_Device_Library/Class/winUsb/Src/usbd_winUsb.c **** 
 269              		.loc 1 426 10 view .LVU72
 270 0072 2046     		mov	r0, r4
 414:Middlewares/ST/STM32_USB_Device_Library/Class/winUsb/Src/usbd_winUsb.c ****   }
 271              		.loc 1 414 5 view .LVU73
 272 0074 F2E7     		b	.L9
 273              	.LVL24:
 274              	.L11:
 402:Middlewares/ST/STM32_USB_Device_Library/Class/winUsb/Src/usbd_winUsb.c ****   }
 275              		.loc 1 402 12 view .LVU74
 276 0076 0320     		movs	r0, #3
 277              	.LVL25:
 402:Middlewares/ST/STM32_USB_Device_Library/Class/winUsb/Src/usbd_winUsb.c ****   }
 278              		.loc 1 402 12 view .LVU75
 279 0078 F0E7     		b	.L9
 280              	.LVL26:
 281              	.L12:
 426:Middlewares/ST/STM32_USB_Device_Library/Class/winUsb/Src/usbd_winUsb.c **** 
 282              		.loc 1 426 10 view .LVU76
 283 007a 0020     		movs	r0, #0
 284 007c EEE7     		b	.L9
 285              		.cfi_endproc
 286              	.LFE146:
 288              		.section	.text.USBD_WinUSBComm_SetupVendorDevice,"ax",%progbits
 289              		.align	1
 290              		.syntax unified
 291              		.thumb
 292              		.thumb_func
 294              	USBD_WinUSBComm_SetupVendorDevice:
 295              	.LVL27:
 296              	.LFB140:
 250:Middlewares/ST/STM32_USB_Device_Library/Class/winUsb/Src/usbd_winUsb.c ****   USBD_CtlError(pdev , req);
 297              		.loc 1 250 1 is_stmt 1 view -0
 298              		.cfi_startproc
 299              		@ args = 0, pretend = 0, frame = 0
 300              		@ frame_needed = 0, uses_anonymous_args = 0
 250:Middlewares/ST/STM32_USB_Device_Library/Class/winUsb/Src/usbd_winUsb.c ****   USBD_CtlError(pdev , req);
 301              		.loc 1 250 1 is_stmt 0 view .LVU78
 302 0000 08B5     		push	{r3, lr}
 303              	.LCFI2:
 304              		.cfi_def_cfa_offset 8
 305              		.cfi_offset 3, -8
 306              		.cfi_offset 14, -4
 251:Middlewares/ST/STM32_USB_Device_Library/Class/winUsb/Src/usbd_winUsb.c ****   return USBD_FAIL;
ARM GAS  C:\Users\ADMINI~1\AppData\Local\Temp\ccslNEp2.s 			page 18


 307              		.loc 1 251 3 is_stmt 1 view .LVU79
 308 0002 FFF7FEFF 		bl	USBD_CtlError
 309              	.LVL28:
 252:Middlewares/ST/STM32_USB_Device_Library/Class/winUsb/Src/usbd_winUsb.c **** }
 310              		.loc 1 252 3 view .LVU80
 253:Middlewares/ST/STM32_USB_Device_Library/Class/winUsb/Src/usbd_winUsb.c **** static uint8_t  USBD_WinUSBComm_SetupVendorInterface(USBD_HandleTypeDef *pdev, USBD_SetupReqTypedef
 311              		.loc 1 253 1 is_stmt 0 view .LVU81
 312 0006 0320     		movs	r0, #3
 313 0008 08BD     		pop	{r3, pc}
 314              		.cfi_endproc
 315              	.LFE140:
 317              		.section	.text.USBD_WinUSBComm_SetupVendorInterface,"ax",%progbits
 318              		.align	1
 319              		.syntax unified
 320              		.thumb
 321              		.thumb_func
 323              	USBD_WinUSBComm_SetupVendorInterface:
 324              	.LVL29:
 325              	.LFB141:
 255:Middlewares/ST/STM32_USB_Device_Library/Class/winUsb/Src/usbd_winUsb.c ****   USBD_CtlError(pdev , req);
 326              		.loc 1 255 1 is_stmt 1 view -0
 327              		.cfi_startproc
 328              		@ args = 0, pretend = 0, frame = 0
 329              		@ frame_needed = 0, uses_anonymous_args = 0
 255:Middlewares/ST/STM32_USB_Device_Library/Class/winUsb/Src/usbd_winUsb.c ****   USBD_CtlError(pdev , req);
 330              		.loc 1 255 1 is_stmt 0 view .LVU83
 331 0000 08B5     		push	{r3, lr}
 332              	.LCFI3:
 333              		.cfi_def_cfa_offset 8
 334              		.cfi_offset 3, -8
 335              		.cfi_offset 14, -4
 256:Middlewares/ST/STM32_USB_Device_Library/Class/winUsb/Src/usbd_winUsb.c ****   // TODO: check if this is important
 336              		.loc 1 256 3 is_stmt 1 view .LVU84
 337 0002 FFF7FEFF 		bl	USBD_CtlError
 338              	.LVL30:
 258:Middlewares/ST/STM32_USB_Device_Library/Class/winUsb/Src/usbd_winUsb.c **** }
 339              		.loc 1 258 3 view .LVU85
 259:Middlewares/ST/STM32_USB_Device_Library/Class/winUsb/Src/usbd_winUsb.c **** static uint8_t  USBD_WinUSBComm_SetupVendor(USBD_HandleTypeDef *pdev, USBD_SetupReqTypedef *req)
 340              		.loc 1 259 1 is_stmt 0 view .LVU86
 341 0006 0320     		movs	r0, #3
 342 0008 08BD     		pop	{r3, pc}
 343              		.cfi_endproc
 344              	.LFE141:
 346              		.section	.text.USBD_WinUSBComm_GetMSExtendedCompatIDOSDescriptor,"ax",%progbits
 347              		.align	1
 348              		.syntax unified
 349              		.thumb
 350              		.thumb_func
 352              	USBD_WinUSBComm_GetMSExtendedCompatIDOSDescriptor:
 353              	.LVL31:
 354              	.LFB138:
 215:Middlewares/ST/STM32_USB_Device_Library/Class/winUsb/Src/usbd_winUsb.c ****   switch (req->wIndex)
 355              		.loc 1 215 1 is_stmt 1 view -0
 356              		.cfi_startproc
 357              		@ args = 0, pretend = 0, frame = 0
 358              		@ frame_needed = 0, uses_anonymous_args = 0
 215:Middlewares/ST/STM32_USB_Device_Library/Class/winUsb/Src/usbd_winUsb.c ****   switch (req->wIndex)
ARM GAS  C:\Users\ADMINI~1\AppData\Local\Temp\ccslNEp2.s 			page 19


 359              		.loc 1 215 1 is_stmt 0 view .LVU88
 360 0000 08B5     		push	{r3, lr}
 361              	.LCFI4:
 362              		.cfi_def_cfa_offset 8
 363              		.cfi_offset 3, -8
 364              		.cfi_offset 14, -4
 216:Middlewares/ST/STM32_USB_Device_Library/Class/winUsb/Src/usbd_winUsb.c ****   {
 365              		.loc 1 216 3 is_stmt 1 view .LVU89
 216:Middlewares/ST/STM32_USB_Device_Library/Class/winUsb/Src/usbd_winUsb.c ****   {
 366              		.loc 1 216 14 is_stmt 0 view .LVU90
 367 0002 8B88     		ldrh	r3, [r1, #4]
 216:Middlewares/ST/STM32_USB_Device_Library/Class/winUsb/Src/usbd_winUsb.c ****   {
 368              		.loc 1 216 3 view .LVU91
 369 0004 042B     		cmp	r3, #4
 370 0006 03D0     		beq	.L23
 222:Middlewares/ST/STM32_USB_Device_Library/Class/winUsb/Src/usbd_winUsb.c ****    return USBD_FAIL;
 371              		.loc 1 222 4 is_stmt 1 view .LVU92
 372 0008 FFF7FEFF 		bl	USBD_CtlError
 373              	.LVL32:
 223:Middlewares/ST/STM32_USB_Device_Library/Class/winUsb/Src/usbd_winUsb.c ****   }
 374              		.loc 1 223 4 view .LVU93
 223:Middlewares/ST/STM32_USB_Device_Library/Class/winUsb/Src/usbd_winUsb.c ****   }
 375              		.loc 1 223 11 is_stmt 0 view .LVU94
 376 000c 0320     		movs	r0, #3
 377              	.L21:
 226:Middlewares/ST/STM32_USB_Device_Library/Class/winUsb/Src/usbd_winUsb.c **** static uint8_t  USBD_WinUSBComm_GetMSExtendedPropertiesOSDescriptor (USBD_HandleTypeDef *pdev, USBD
 378              		.loc 1 226 1 view .LVU95
 379 000e 08BD     		pop	{r3, pc}
 380              	.LVL33:
 381              	.L23:
 219:Middlewares/ST/STM32_USB_Device_Library/Class/winUsb/Src/usbd_winUsb.c ****     break;
 382              		.loc 1 219 5 is_stmt 1 view .LVU96
 383 0010 CA88     		ldrh	r2, [r1, #6]
 384 0012 0249     		ldr	r1, .L24
 385              	.LVL34:
 219:Middlewares/ST/STM32_USB_Device_Library/Class/winUsb/Src/usbd_winUsb.c ****     break;
 386              		.loc 1 219 5 is_stmt 0 view .LVU97
 387 0014 FFF7FEFF 		bl	USBD_CtlSendData
 388              	.LVL35:
 220:Middlewares/ST/STM32_USB_Device_Library/Class/winUsb/Src/usbd_winUsb.c ****   default:
 389              		.loc 1 220 5 is_stmt 1 view .LVU98
 225:Middlewares/ST/STM32_USB_Device_Library/Class/winUsb/Src/usbd_winUsb.c **** }
 390              		.loc 1 225 3 view .LVU99
 225:Middlewares/ST/STM32_USB_Device_Library/Class/winUsb/Src/usbd_winUsb.c **** }
 391              		.loc 1 225 10 is_stmt 0 view .LVU100
 392 0018 0020     		movs	r0, #0
 393 001a F8E7     		b	.L21
 394              	.L25:
 395              		.align	2
 396              	.L24:
 397 001c 00000000 		.word	.LANCHOR0
 398              		.cfi_endproc
 399              	.LFE138:
 401              		.section	.text.USBD_WinUSBComm_GetMSExtendedPropertiesOSDescriptor,"ax",%progbits
 402              		.align	1
 403              		.syntax unified
 404              		.thumb
ARM GAS  C:\Users\ADMINI~1\AppData\Local\Temp\ccslNEp2.s 			page 20


 405              		.thumb_func
 407              	USBD_WinUSBComm_GetMSExtendedPropertiesOSDescriptor:
 408              	.LVL36:
 409              	.LFB139:
 228:Middlewares/ST/STM32_USB_Device_Library/Class/winUsb/Src/usbd_winUsb.c ****   uint8_t byInterfaceIndex = (uint8_t)req->wValue;
 410              		.loc 1 228 1 is_stmt 1 view -0
 411              		.cfi_startproc
 412              		@ args = 0, pretend = 0, frame = 0
 413              		@ frame_needed = 0, uses_anonymous_args = 0
 228:Middlewares/ST/STM32_USB_Device_Library/Class/winUsb/Src/usbd_winUsb.c ****   uint8_t byInterfaceIndex = (uint8_t)req->wValue;
 414              		.loc 1 228 1 is_stmt 0 view .LVU102
 415 0000 10B5     		push	{r4, lr}
 416              	.LCFI5:
 417              		.cfi_def_cfa_offset 8
 418              		.cfi_offset 4, -8
 419              		.cfi_offset 14, -4
 229:Middlewares/ST/STM32_USB_Device_Library/Class/winUsb/Src/usbd_winUsb.c ****   if ( req->wIndex != 0x05 )
 420              		.loc 1 229 3 is_stmt 1 view .LVU103
 229:Middlewares/ST/STM32_USB_Device_Library/Class/winUsb/Src/usbd_winUsb.c ****   if ( req->wIndex != 0x05 )
 421              		.loc 1 229 11 is_stmt 0 view .LVU104
 422 0002 8C78     		ldrb	r4, [r1, #2]	@ zero_extendqisi2
 423              	.LVL37:
 230:Middlewares/ST/STM32_USB_Device_Library/Class/winUsb/Src/usbd_winUsb.c ****   {
 424              		.loc 1 230 3 is_stmt 1 view .LVU105
 230:Middlewares/ST/STM32_USB_Device_Library/Class/winUsb/Src/usbd_winUsb.c ****   {
 425              		.loc 1 230 11 is_stmt 0 view .LVU106
 426 0004 8B88     		ldrh	r3, [r1, #4]
 230:Middlewares/ST/STM32_USB_Device_Library/Class/winUsb/Src/usbd_winUsb.c ****   {
 427              		.loc 1 230 6 view .LVU107
 428 0006 052B     		cmp	r3, #5
 429 0008 06D1     		bne	.L31
 235:Middlewares/ST/STM32_USB_Device_Library/Class/winUsb/Src/usbd_winUsb.c ****   {
 430              		.loc 1 235 3 is_stmt 1 view .LVU108
 431 000a 4CB9     		cbnz	r4, .L29
 241:Middlewares/ST/STM32_USB_Device_Library/Class/winUsb/Src/usbd_winUsb.c ****     break;
 432              		.loc 1 241 5 view .LVU109
 433 000c CA88     		ldrh	r2, [r1, #6]
 434 000e 0649     		ldr	r1, .L32
 435              	.LVL38:
 241:Middlewares/ST/STM32_USB_Device_Library/Class/winUsb/Src/usbd_winUsb.c ****     break;
 436              		.loc 1 241 5 is_stmt 0 view .LVU110
 437 0010 FFF7FEFF 		bl	USBD_CtlSendData
 438              	.LVL39:
 242:Middlewares/ST/STM32_USB_Device_Library/Class/winUsb/Src/usbd_winUsb.c ****   default:
 439              		.loc 1 242 5 is_stmt 1 view .LVU111
 247:Middlewares/ST/STM32_USB_Device_Library/Class/winUsb/Src/usbd_winUsb.c **** }
 440              		.loc 1 247 3 view .LVU112
 441              	.L28:
 248:Middlewares/ST/STM32_USB_Device_Library/Class/winUsb/Src/usbd_winUsb.c **** static uint8_t  USBD_WinUSBComm_SetupVendorDevice(USBD_HandleTypeDef *pdev, USBD_SetupReqTypedef *r
 442              		.loc 1 248 1 is_stmt 0 view .LVU113
 443 0014 2046     		mov	r0, r4
 444 0016 10BD     		pop	{r4, pc}
 445              	.LVL40:
 446              	.L31:
 232:Middlewares/ST/STM32_USB_Device_Library/Class/winUsb/Src/usbd_winUsb.c ****     return USBD_FAIL;
 447              		.loc 1 232 5 is_stmt 1 view .LVU114
 448 0018 FFF7FEFF 		bl	USBD_CtlError
ARM GAS  C:\Users\ADMINI~1\AppData\Local\Temp\ccslNEp2.s 			page 21


 449              	.LVL41:
 233:Middlewares/ST/STM32_USB_Device_Library/Class/winUsb/Src/usbd_winUsb.c ****   }
 450              		.loc 1 233 5 view .LVU115
 233:Middlewares/ST/STM32_USB_Device_Library/Class/winUsb/Src/usbd_winUsb.c ****   }
 451              		.loc 1 233 12 is_stmt 0 view .LVU116
 452 001c 0324     		movs	r4, #3
 453              	.LVL42:
 233:Middlewares/ST/STM32_USB_Device_Library/Class/winUsb/Src/usbd_winUsb.c ****   }
 454              		.loc 1 233 12 view .LVU117
 455 001e F9E7     		b	.L28
 456              	.LVL43:
 457              	.L29:
 244:Middlewares/ST/STM32_USB_Device_Library/Class/winUsb/Src/usbd_winUsb.c ****     return USBD_FAIL;
 458              		.loc 1 244 5 is_stmt 1 view .LVU118
 459 0020 FFF7FEFF 		bl	USBD_CtlError
 460              	.LVL44:
 245:Middlewares/ST/STM32_USB_Device_Library/Class/winUsb/Src/usbd_winUsb.c ****   }
 461              		.loc 1 245 5 view .LVU119
 245:Middlewares/ST/STM32_USB_Device_Library/Class/winUsb/Src/usbd_winUsb.c ****   }
 462              		.loc 1 245 12 is_stmt 0 view .LVU120
 463 0024 0324     		movs	r4, #3
 464              	.LVL45:
 245:Middlewares/ST/STM32_USB_Device_Library/Class/winUsb/Src/usbd_winUsb.c ****   }
 465              		.loc 1 245 12 view .LVU121
 466 0026 F5E7     		b	.L28
 467              	.L33:
 468              		.align	2
 469              	.L32:
 470 0028 00000000 		.word	.LANCHOR1
 471              		.cfi_endproc
 472              	.LFE139:
 474              		.section	.text.USBD_WinUSBComm_SetupVendor,"ax",%progbits
 475              		.align	1
 476              		.syntax unified
 477              		.thumb
 478              		.thumb_func
 480              	USBD_WinUSBComm_SetupVendor:
 481              	.LVL46:
 482              	.LFB142:
 261:Middlewares/ST/STM32_USB_Device_Library/Class/winUsb/Src/usbd_winUsb.c ****   // printf("bmRequest=%.2x req->bRequest=%.2x\r\n",req->bmRequest,req->bRequest);
 483              		.loc 1 261 1 is_stmt 1 view -0
 484              		.cfi_startproc
 485              		@ args = 0, pretend = 0, frame = 0
 486              		@ frame_needed = 0, uses_anonymous_args = 0
 261:Middlewares/ST/STM32_USB_Device_Library/Class/winUsb/Src/usbd_winUsb.c ****   // printf("bmRequest=%.2x req->bRequest=%.2x\r\n",req->bmRequest,req->bRequest);
 487              		.loc 1 261 1 is_stmt 0 view .LVU123
 488 0000 08B5     		push	{r3, lr}
 489              	.LCFI6:
 490              		.cfi_def_cfa_offset 8
 491              		.cfi_offset 3, -8
 492              		.cfi_offset 14, -4
 263:Middlewares/ST/STM32_USB_Device_Library/Class/winUsb/Src/usbd_winUsb.c ****   {
 493              		.loc 1 263 3 is_stmt 1 view .LVU124
 263:Middlewares/ST/STM32_USB_Device_Library/Class/winUsb/Src/usbd_winUsb.c ****   {
 494              		.loc 1 263 15 is_stmt 0 view .LVU125
 495 0002 0B78     		ldrb	r3, [r1]	@ zero_extendqisi2
 263:Middlewares/ST/STM32_USB_Device_Library/Class/winUsb/Src/usbd_winUsb.c ****   {
ARM GAS  C:\Users\ADMINI~1\AppData\Local\Temp\ccslNEp2.s 			page 22


 496              		.loc 1 263 3 view .LVU126
 497 0004 13F00303 		ands	r3, r3, #3
 498 0008 05D0     		beq	.L35
 499 000a 012B     		cmp	r3, #1
 500 000c 0CD0     		beq	.L36
 272:Middlewares/ST/STM32_USB_Device_Library/Class/winUsb/Src/usbd_winUsb.c ****   }
 501              		.loc 1 272 5 is_stmt 1 view .LVU127
 274:Middlewares/ST/STM32_USB_Device_Library/Class/winUsb/Src/usbd_winUsb.c ****   return USBD_FAIL;
 502              		.loc 1 274 3 view .LVU128
 503 000e FFF7FEFF 		bl	USBD_CtlError
 504              	.LVL47:
 275:Middlewares/ST/STM32_USB_Device_Library/Class/winUsb/Src/usbd_winUsb.c **** }
 505              		.loc 1 275 3 view .LVU129
 275:Middlewares/ST/STM32_USB_Device_Library/Class/winUsb/Src/usbd_winUsb.c **** }
 506              		.loc 1 275 10 is_stmt 0 view .LVU130
 507 0012 0320     		movs	r0, #3
 508              	.L39:
 276:Middlewares/ST/STM32_USB_Device_Library/Class/winUsb/Src/usbd_winUsb.c **** static uint8_t WinUsbInEpAdd = WIN_USB_EPIN_ADDR;
 509              		.loc 1 276 1 view .LVU131
 510 0014 08BD     		pop	{r3, pc}
 511              	.LVL48:
 512              	.L35:
 266:Middlewares/ST/STM32_USB_Device_Library/Class/winUsb/Src/usbd_winUsb.c ****   case USB_REQ_RECIPIENT_INTERFACE:
 513              		.loc 1 266 5 is_stmt 1 view .LVU132
 266:Middlewares/ST/STM32_USB_Device_Library/Class/winUsb/Src/usbd_winUsb.c ****   case USB_REQ_RECIPIENT_INTERFACE:
 514              		.loc 1 266 34 is_stmt 0 view .LVU133
 515 0016 4B78     		ldrb	r3, [r1, #1]	@ zero_extendqisi2
 266:Middlewares/ST/STM32_USB_Device_Library/Class/winUsb/Src/usbd_winUsb.c ****   case USB_REQ_RECIPIENT_INTERFACE:
 516              		.loc 1 266 110 view .LVU134
 517 0018 502B     		cmp	r3, #80
 518 001a 02D0     		beq	.L43
 266:Middlewares/ST/STM32_USB_Device_Library/Class/winUsb/Src/usbd_winUsb.c ****   case USB_REQ_RECIPIENT_INTERFACE:
 519              		.loc 1 266 112 discriminator 2 view .LVU135
 520 001c FFF7FEFF 		bl	USBD_WinUSBComm_SetupVendorDevice
 521              	.LVL49:
 266:Middlewares/ST/STM32_USB_Device_Library/Class/winUsb/Src/usbd_winUsb.c ****   case USB_REQ_RECIPIENT_INTERFACE:
 522              		.loc 1 266 112 discriminator 2 view .LVU136
 523 0020 F8E7     		b	.L39
 524              	.LVL50:
 525              	.L43:
 266:Middlewares/ST/STM32_USB_Device_Library/Class/winUsb/Src/usbd_winUsb.c ****   case USB_REQ_RECIPIENT_INTERFACE:
 526              		.loc 1 266 49 discriminator 1 view .LVU137
 527 0022 FFF7FEFF 		bl	USBD_WinUSBComm_GetMSExtendedCompatIDOSDescriptor
 528              	.LVL51:
 266:Middlewares/ST/STM32_USB_Device_Library/Class/winUsb/Src/usbd_winUsb.c ****   case USB_REQ_RECIPIENT_INTERFACE:
 529              		.loc 1 266 49 discriminator 1 view .LVU138
 530 0026 F5E7     		b	.L39
 531              	.LVL52:
 532              	.L36:
 268:Middlewares/ST/STM32_USB_Device_Library/Class/winUsb/Src/usbd_winUsb.c ****   case USB_REQ_RECIPIENT_ENDPOINT:
 533              		.loc 1 268 5 is_stmt 1 view .LVU139
 268:Middlewares/ST/STM32_USB_Device_Library/Class/winUsb/Src/usbd_winUsb.c ****   case USB_REQ_RECIPIENT_ENDPOINT:
 534              		.loc 1 268 34 is_stmt 0 view .LVU140
 535 0028 4B78     		ldrb	r3, [r1, #1]	@ zero_extendqisi2
 268:Middlewares/ST/STM32_USB_Device_Library/Class/winUsb/Src/usbd_winUsb.c ****   case USB_REQ_RECIPIENT_ENDPOINT:
 536              		.loc 1 268 112 view .LVU141
 537 002a 502B     		cmp	r3, #80
ARM GAS  C:\Users\ADMINI~1\AppData\Local\Temp\ccslNEp2.s 			page 23


 538 002c 02D0     		beq	.L44
 268:Middlewares/ST/STM32_USB_Device_Library/Class/winUsb/Src/usbd_winUsb.c ****   case USB_REQ_RECIPIENT_ENDPOINT:
 539              		.loc 1 268 114 discriminator 2 view .LVU142
 540 002e FFF7FEFF 		bl	USBD_WinUSBComm_SetupVendorInterface
 541              	.LVL53:
 268:Middlewares/ST/STM32_USB_Device_Library/Class/winUsb/Src/usbd_winUsb.c ****   case USB_REQ_RECIPIENT_ENDPOINT:
 542              		.loc 1 268 114 discriminator 2 view .LVU143
 543 0032 EFE7     		b	.L39
 544              	.LVL54:
 545              	.L44:
 268:Middlewares/ST/STM32_USB_Device_Library/Class/winUsb/Src/usbd_winUsb.c ****   case USB_REQ_RECIPIENT_ENDPOINT:
 546              		.loc 1 268 49 discriminator 1 view .LVU144
 547 0034 FFF7FEFF 		bl	USBD_WinUSBComm_GetMSExtendedPropertiesOSDescriptor
 548              	.LVL55:
 268:Middlewares/ST/STM32_USB_Device_Library/Class/winUsb/Src/usbd_winUsb.c ****   case USB_REQ_RECIPIENT_ENDPOINT:
 549              		.loc 1 268 49 discriminator 1 view .LVU145
 550 0038 ECE7     		b	.L39
 551              		.cfi_endproc
 552              	.LFE142:
 554              		.section	.text.USBD_WinUsb_Setup,"ax",%progbits
 555              		.align	1
 556              		.syntax unified
 557              		.thumb
 558              		.thumb_func
 560              	USBD_WinUsb_Setup:
 561              	.LVL56:
 562              	.LFB145:
 369:Middlewares/ST/STM32_USB_Device_Library/Class/winUsb/Src/usbd_winUsb.c **** 	USBD_WinUsb_HandleTypeDef *hcdc = (USBD_WinUsb_HandleTypeDef *)pdev->pClassDataCmsit[pdev->classId
 563              		.loc 1 369 1 is_stmt 1 view -0
 564              		.cfi_startproc
 565              		@ args = 0, pretend = 0, frame = 0
 566              		@ frame_needed = 0, uses_anonymous_args = 0
 369:Middlewares/ST/STM32_USB_Device_Library/Class/winUsb/Src/usbd_winUsb.c **** 	USBD_WinUsb_HandleTypeDef *hcdc = (USBD_WinUsb_HandleTypeDef *)pdev->pClassDataCmsit[pdev->classId
 567              		.loc 1 369 1 is_stmt 0 view .LVU147
 568 0000 08B5     		push	{r3, lr}
 569              	.LCFI7:
 570              		.cfi_def_cfa_offset 8
 571              		.cfi_offset 3, -8
 572              		.cfi_offset 14, -4
 370:Middlewares/ST/STM32_USB_Device_Library/Class/winUsb/Src/usbd_winUsb.c ****    
 573              		.loc 1 370 2 is_stmt 1 view .LVU148
 370:Middlewares/ST/STM32_USB_Device_Library/Class/winUsb/Src/usbd_winUsb.c ****    
 574              		.loc 1 370 91 is_stmt 0 view .LVU149
 575 0002 D0F8F832 		ldr	r3, [r0, #760]
 370:Middlewares/ST/STM32_USB_Device_Library/Class/winUsb/Src/usbd_winUsb.c ****    
 576              		.loc 1 370 29 view .LVU150
 577 0006 B233     		adds	r3, r3, #178
 578 0008 00EB8303 		add	r3, r0, r3, lsl #2
 579 000c 5B68     		ldr	r3, [r3, #4]
 580              	.LVL57:
 372:Middlewares/ST/STM32_USB_Device_Library/Class/winUsb/Src/usbd_winUsb.c ****   
 581              		.loc 1 372 3 is_stmt 1 view .LVU151
 374:Middlewares/ST/STM32_USB_Device_Library/Class/winUsb/Src/usbd_winUsb.c ****   {
 582              		.loc 1 374 3 view .LVU152
 374:Middlewares/ST/STM32_USB_Device_Library/Class/winUsb/Src/usbd_winUsb.c ****   {
 583              		.loc 1 374 6 is_stmt 0 view .LVU153
 584 000e 63B1     		cbz	r3, .L48
ARM GAS  C:\Users\ADMINI~1\AppData\Local\Temp\ccslNEp2.s 			page 24


 379:Middlewares/ST/STM32_USB_Device_Library/Class/winUsb/Src/usbd_winUsb.c ****   {
 585              		.loc 1 379 2 is_stmt 1 view .LVU154
 379:Middlewares/ST/STM32_USB_Device_Library/Class/winUsb/Src/usbd_winUsb.c ****   {
 586              		.loc 1 379 13 is_stmt 0 view .LVU155
 587 0010 0B78     		ldrb	r3, [r1]	@ zero_extendqisi2
 588              	.LVL58:
 379:Middlewares/ST/STM32_USB_Device_Library/Class/winUsb/Src/usbd_winUsb.c ****   {
 589              		.loc 1 379 2 view .LVU156
 590 0012 03F06003 		and	r3, r3, #96
 591 0016 402B     		cmp	r3, #64
 592 0018 03D0     		beq	.L50
 387:Middlewares/ST/STM32_USB_Device_Library/Class/winUsb/Src/usbd_winUsb.c ****       ret = USBD_FAIL;
 593              		.loc 1 387 7 is_stmt 1 view .LVU157
 594 001a FFF7FEFF 		bl	USBD_CtlError
 595              	.LVL59:
 388:Middlewares/ST/STM32_USB_Device_Library/Class/winUsb/Src/usbd_winUsb.c ****       break;
 596              		.loc 1 388 7 view .LVU158
 389:Middlewares/ST/STM32_USB_Device_Library/Class/winUsb/Src/usbd_winUsb.c ****   }
 597              		.loc 1 389 7 view .LVU159
 388:Middlewares/ST/STM32_USB_Device_Library/Class/winUsb/Src/usbd_winUsb.c ****       break;
 598              		.loc 1 388 11 is_stmt 0 view .LVU160
 599 001e 0320     		movs	r0, #3
 600              	.LVL60:
 601              	.L46:
 394:Middlewares/ST/STM32_USB_Device_Library/Class/winUsb/Src/usbd_winUsb.c **** static uint8_t USBD_WinUsb_DataIn(USBD_HandleTypeDef *pdev, uint8_t epnum)
 602              		.loc 1 394 1 view .LVU161
 603 0020 08BD     		pop	{r3, pc}
 604              	.LVL61:
 605              	.L50:
 383:Middlewares/ST/STM32_USB_Device_Library/Class/winUsb/Src/usbd_winUsb.c ****       }break;
 606              		.loc 1 383 9 is_stmt 1 view .LVU162
 607 0022 FFF7FEFF 		bl	USBD_WinUSBComm_SetupVendor
 608              	.LVL62:
 384:Middlewares/ST/STM32_USB_Device_Library/Class/winUsb/Src/usbd_winUsb.c **** 
 609              		.loc 1 384 8 view .LVU163
 372:Middlewares/ST/STM32_USB_Device_Library/Class/winUsb/Src/usbd_winUsb.c ****   
 610              		.loc 1 372 22 is_stmt 0 view .LVU164
 611 0026 0020     		movs	r0, #0
 384:Middlewares/ST/STM32_USB_Device_Library/Class/winUsb/Src/usbd_winUsb.c **** 
 612              		.loc 1 384 7 view .LVU165
 613 0028 FAE7     		b	.L46
 614              	.LVL63:
 615              	.L48:
 376:Middlewares/ST/STM32_USB_Device_Library/Class/winUsb/Src/usbd_winUsb.c ****   }
 616              		.loc 1 376 12 view .LVU166
 617 002a 0320     		movs	r0, #3
 618              	.LVL64:
 376:Middlewares/ST/STM32_USB_Device_Library/Class/winUsb/Src/usbd_winUsb.c ****   }
 619              		.loc 1 376 12 view .LVU167
 620 002c F8E7     		b	.L46
 621              		.cfi_endproc
 622              	.LFE145:
 624              		.section	.text.USBD_WinUsb_DeInit,"ax",%progbits
 625              		.align	1
 626              		.syntax unified
 627              		.thumb
 628              		.thumb_func
ARM GAS  C:\Users\ADMINI~1\AppData\Local\Temp\ccslNEp2.s 			page 25


 630              	USBD_WinUsb_DeInit:
 631              	.LVL65:
 632              	.LFB144:
 347:Middlewares/ST/STM32_USB_Device_Library/Class/winUsb/Src/usbd_winUsb.c ****   UNUSED(cfgidx);
 633              		.loc 1 347 1 is_stmt 1 view -0
 634              		.cfi_startproc
 635              		@ args = 0, pretend = 0, frame = 0
 636              		@ frame_needed = 0, uses_anonymous_args = 0
 347:Middlewares/ST/STM32_USB_Device_Library/Class/winUsb/Src/usbd_winUsb.c ****   UNUSED(cfgidx);
 637              		.loc 1 347 1 is_stmt 0 view .LVU169
 638 0000 38B5     		push	{r3, r4, r5, lr}
 639              	.LCFI8:
 640              		.cfi_def_cfa_offset 16
 641              		.cfi_offset 3, -16
 642              		.cfi_offset 4, -12
 643              		.cfi_offset 5, -8
 644              		.cfi_offset 14, -4
 645 0002 0446     		mov	r4, r0
 348:Middlewares/ST/STM32_USB_Device_Library/Class/winUsb/Src/usbd_winUsb.c **** 	/* Close EP IN */
 646              		.loc 1 348 3 is_stmt 1 view .LVU170
 350:Middlewares/ST/STM32_USB_Device_Library/Class/winUsb/Src/usbd_winUsb.c ****   pdev->ep_out[WinUsbInEpAdd & 0xFU].is_used = 0U;  
 647              		.loc 1 350 3 view .LVU171
 648 0004 8321     		movs	r1, #131
 649              	.LVL66:
 350:Middlewares/ST/STM32_USB_Device_Library/Class/winUsb/Src/usbd_winUsb.c ****   pdev->ep_out[WinUsbInEpAdd & 0xFU].is_used = 0U;  
 650              		.loc 1 350 3 is_stmt 0 view .LVU172
 651 0006 FFF7FEFF 		bl	USBD_LL_CloseEP
 652              	.LVL67:
 351:Middlewares/ST/STM32_USB_Device_Library/Class/winUsb/Src/usbd_winUsb.c ****   /* Close EP OUT */
 653              		.loc 1 351 3 is_stmt 1 view .LVU173
 351:Middlewares/ST/STM32_USB_Device_Library/Class/winUsb/Src/usbd_winUsb.c ****   /* Close EP OUT */
 654              		.loc 1 351 46 is_stmt 0 view .LVU174
 655 000a 0025     		movs	r5, #0
 656 000c A4F8A051 		strh	r5, [r4, #416]	@ movhi
 353:Middlewares/ST/STM32_USB_Device_Library/Class/winUsb/Src/usbd_winUsb.c ****   pdev->ep_out[WinUsbOutEpAdd & 0xFU].is_used = 0U;
 657              		.loc 1 353 3 is_stmt 1 view .LVU175
 658 0010 0321     		movs	r1, #3
 659 0012 2046     		mov	r0, r4
 660 0014 FFF7FEFF 		bl	USBD_LL_CloseEP
 661              	.LVL68:
 354:Middlewares/ST/STM32_USB_Device_Library/Class/winUsb/Src/usbd_winUsb.c **** 
 662              		.loc 1 354 3 view .LVU176
 354:Middlewares/ST/STM32_USB_Device_Library/Class/winUsb/Src/usbd_winUsb.c **** 
 663              		.loc 1 354 47 is_stmt 0 view .LVU177
 664 0018 A4F8A051 		strh	r5, [r4, #416]	@ movhi
 358:Middlewares/ST/STM32_USB_Device_Library/Class/winUsb/Src/usbd_winUsb.c ****   {
 665              		.loc 1 358 3 is_stmt 1 view .LVU178
 358:Middlewares/ST/STM32_USB_Device_Library/Class/winUsb/Src/usbd_winUsb.c ****   {
 666              		.loc 1 358 33 is_stmt 0 view .LVU179
 667 001c D4F8F832 		ldr	r3, [r4, #760]
 358:Middlewares/ST/STM32_USB_Device_Library/Class/winUsb/Src/usbd_winUsb.c ****   {
 668              		.loc 1 358 28 view .LVU180
 669 0020 03F1B202 		add	r2, r3, #178
 670 0024 04EB8202 		add	r2, r4, r2, lsl #2
 671 0028 5268     		ldr	r2, [r2, #4]
 358:Middlewares/ST/STM32_USB_Device_Library/Class/winUsb/Src/usbd_winUsb.c ****   {
 672              		.loc 1 358 6 view .LVU181
ARM GAS  C:\Users\ADMINI~1\AppData\Local\Temp\ccslNEp2.s 			page 26


 673 002a AAB1     		cbz	r2, .L52
 360:Middlewares/ST/STM32_USB_Device_Library/Class/winUsb/Src/usbd_winUsb.c ****     (void)USBD_free(pdev->pClassDataCmsit[pdev->classId]);
 674              		.loc 1 360 5 is_stmt 1 view .LVU182
 360:Middlewares/ST/STM32_USB_Device_Library/Class/winUsb/Src/usbd_winUsb.c ****     (void)USBD_free(pdev->pClassDataCmsit[pdev->classId]);
 675              		.loc 1 360 47 is_stmt 0 view .LVU183
 676 002c B633     		adds	r3, r3, #182
 677 002e 04EB8303 		add	r3, r4, r3, lsl #2
 678 0032 5B68     		ldr	r3, [r3, #4]
 360:Middlewares/ST/STM32_USB_Device_Library/Class/winUsb/Src/usbd_winUsb.c ****     (void)USBD_free(pdev->pClassDataCmsit[pdev->classId]);
 679              		.loc 1 360 63 view .LVU184
 680 0034 5B68     		ldr	r3, [r3, #4]
 360:Middlewares/ST/STM32_USB_Device_Library/Class/winUsb/Src/usbd_winUsb.c ****     (void)USBD_free(pdev->pClassDataCmsit[pdev->classId]);
 681              		.loc 1 360 6 view .LVU185
 682 0036 9847     		blx	r3
 683              	.LVL69:
 361:Middlewares/ST/STM32_USB_Device_Library/Class/winUsb/Src/usbd_winUsb.c ****     pdev->pClassDataCmsit[pdev->classId] = NULL;
 684              		.loc 1 361 5 is_stmt 1 view .LVU186
 361:Middlewares/ST/STM32_USB_Device_Library/Class/winUsb/Src/usbd_winUsb.c ****     pdev->pClassDataCmsit[pdev->classId] = NULL;
 685              		.loc 1 361 47 is_stmt 0 view .LVU187
 686 0038 D4F8F832 		ldr	r3, [r4, #760]
 361:Middlewares/ST/STM32_USB_Device_Library/Class/winUsb/Src/usbd_winUsb.c ****     pdev->pClassDataCmsit[pdev->classId] = NULL;
 687              		.loc 1 361 5 view .LVU188
 688 003c B233     		adds	r3, r3, #178
 689 003e 04EB8303 		add	r3, r4, r3, lsl #2
 690 0042 5868     		ldr	r0, [r3, #4]
 691 0044 FFF7FEFF 		bl	free
 692              	.LVL70:
 362:Middlewares/ST/STM32_USB_Device_Library/Class/winUsb/Src/usbd_winUsb.c ****     pdev->pClassData = NULL;
 693              		.loc 1 362 5 is_stmt 1 view .LVU189
 362:Middlewares/ST/STM32_USB_Device_Library/Class/winUsb/Src/usbd_winUsb.c ****     pdev->pClassData = NULL;
 694              		.loc 1 362 31 is_stmt 0 view .LVU190
 695 0048 D4F8F832 		ldr	r3, [r4, #760]
 362:Middlewares/ST/STM32_USB_Device_Library/Class/winUsb/Src/usbd_winUsb.c ****     pdev->pClassData = NULL;
 696              		.loc 1 362 42 view .LVU191
 697 004c B233     		adds	r3, r3, #178
 698 004e 04EB8303 		add	r3, r4, r3, lsl #2
 699 0052 5D60     		str	r5, [r3, #4]
 363:Middlewares/ST/STM32_USB_Device_Library/Class/winUsb/Src/usbd_winUsb.c ****   }
 700              		.loc 1 363 5 is_stmt 1 view .LVU192
 363:Middlewares/ST/STM32_USB_Device_Library/Class/winUsb/Src/usbd_winUsb.c ****   }
 701              		.loc 1 363 22 is_stmt 0 view .LVU193
 702 0054 C4F8C852 		str	r5, [r4, #712]
 703              	.L52:
 365:Middlewares/ST/STM32_USB_Device_Library/Class/winUsb/Src/usbd_winUsb.c **** 
 704              		.loc 1 365 2 is_stmt 1 view .LVU194
 367:Middlewares/ST/STM32_USB_Device_Library/Class/winUsb/Src/usbd_winUsb.c **** static uint8_t USBD_WinUsb_Setup(USBD_HandleTypeDef *pdev, USBD_SetupReqTypedef *req)
 705              		.loc 1 367 1 is_stmt 0 view .LVU195
 706 0058 0020     		movs	r0, #0
 707 005a 38BD     		pop	{r3, r4, r5, pc}
 367:Middlewares/ST/STM32_USB_Device_Library/Class/winUsb/Src/usbd_winUsb.c **** static uint8_t USBD_WinUsb_Setup(USBD_HandleTypeDef *pdev, USBD_SetupReqTypedef *req)
 708              		.loc 1 367 1 view .LVU196
 709              		.cfi_endproc
 710              	.LFE144:
 712              		.section	.text.USBD_WinUsb_Init,"ax",%progbits
 713              		.align	1
 714              		.syntax unified
 715              		.thumb
ARM GAS  C:\Users\ADMINI~1\AppData\Local\Temp\ccslNEp2.s 			page 27


 716              		.thumb_func
 718              	USBD_WinUsb_Init:
 719              	.LVL71:
 720              	.LFB143:
 282:Middlewares/ST/STM32_USB_Device_Library/Class/winUsb/Src/usbd_winUsb.c ****   UNUSED(cfgidx);
 721              		.loc 1 282 1 is_stmt 1 view -0
 722              		.cfi_startproc
 723              		@ args = 0, pretend = 0, frame = 0
 724              		@ frame_needed = 0, uses_anonymous_args = 0
 282:Middlewares/ST/STM32_USB_Device_Library/Class/winUsb/Src/usbd_winUsb.c ****   UNUSED(cfgidx);
 725              		.loc 1 282 1 is_stmt 0 view .LVU198
 726 0000 70B5     		push	{r4, r5, r6, lr}
 727              	.LCFI9:
 728              		.cfi_def_cfa_offset 16
 729              		.cfi_offset 4, -16
 730              		.cfi_offset 5, -12
 731              		.cfi_offset 6, -8
 732              		.cfi_offset 14, -4
 733 0002 0446     		mov	r4, r0
 283:Middlewares/ST/STM32_USB_Device_Library/Class/winUsb/Src/usbd_winUsb.c ****   USBD_WinUsb_HandleTypeDef *hcdc;
 734              		.loc 1 283 3 is_stmt 1 view .LVU199
 284:Middlewares/ST/STM32_USB_Device_Library/Class/winUsb/Src/usbd_winUsb.c **** 
 735              		.loc 1 284 3 view .LVU200
 286:Middlewares/ST/STM32_USB_Device_Library/Class/winUsb/Src/usbd_winUsb.c **** 
 736              		.loc 1 286 3 view .LVU201
 286:Middlewares/ST/STM32_USB_Device_Library/Class/winUsb/Src/usbd_winUsb.c **** 
 737              		.loc 1 286 39 is_stmt 0 view .LVU202
 738 0004 4FF40770 		mov	r0, #540
 739              	.LVL72:
 286:Middlewares/ST/STM32_USB_Device_Library/Class/winUsb/Src/usbd_winUsb.c **** 
 740              		.loc 1 286 39 view .LVU203
 741 0008 FFF7FEFF 		bl	malloc
 742              	.LVL73:
 288:Middlewares/ST/STM32_USB_Device_Library/Class/winUsb/Src/usbd_winUsb.c ****   {
 743              		.loc 1 288 3 is_stmt 1 view .LVU204
 288:Middlewares/ST/STM32_USB_Device_Library/Class/winUsb/Src/usbd_winUsb.c ****   {
 744              		.loc 1 288 6 is_stmt 0 view .LVU205
 745 000c 0028     		cmp	r0, #0
 746 000e 3CD0     		beq	.L62
 747 0010 0546     		mov	r5, r0
 294:Middlewares/ST/STM32_USB_Device_Library/Class/winUsb/Src/usbd_winUsb.c **** 
 748              		.loc 1 294 3 is_stmt 1 view .LVU206
 294:Middlewares/ST/STM32_USB_Device_Library/Class/winUsb/Src/usbd_winUsb.c **** 
 749              		.loc 1 294 9 is_stmt 0 view .LVU207
 750 0012 4FF40772 		mov	r2, #540
 751 0016 0021     		movs	r1, #0
 752 0018 FFF7FEFF 		bl	memset
 753              	.LVL74:
 296:Middlewares/ST/STM32_USB_Device_Library/Class/winUsb/Src/usbd_winUsb.c ****   pdev->pClassData = pdev->pClassDataCmsit[pdev->classId];
 754              		.loc 1 296 3 is_stmt 1 view .LVU208
 296:Middlewares/ST/STM32_USB_Device_Library/Class/winUsb/Src/usbd_winUsb.c ****   pdev->pClassData = pdev->pClassDataCmsit[pdev->classId];
 755              		.loc 1 296 29 is_stmt 0 view .LVU209
 756 001c D4F8F832 		ldr	r3, [r4, #760]
 296:Middlewares/ST/STM32_USB_Device_Library/Class/winUsb/Src/usbd_winUsb.c ****   pdev->pClassData = pdev->pClassDataCmsit[pdev->classId];
 757              		.loc 1 296 40 view .LVU210
 758 0020 B233     		adds	r3, r3, #178
 759 0022 04EB8303 		add	r3, r4, r3, lsl #2
ARM GAS  C:\Users\ADMINI~1\AppData\Local\Temp\ccslNEp2.s 			page 28


 760 0026 5D60     		str	r5, [r3, #4]
 297:Middlewares/ST/STM32_USB_Device_Library/Class/winUsb/Src/usbd_winUsb.c ****   if (pdev->dev_speed == USBD_SPEED_HIGH)
 761              		.loc 1 297 3 is_stmt 1 view .LVU211
 297:Middlewares/ST/STM32_USB_Device_Library/Class/winUsb/Src/usbd_winUsb.c ****   if (pdev->dev_speed == USBD_SPEED_HIGH)
 762              		.loc 1 297 20 is_stmt 0 view .LVU212
 763 0028 C4F8C852 		str	r5, [r4, #712]
 298:Middlewares/ST/STM32_USB_Device_Library/Class/winUsb/Src/usbd_winUsb.c ****   {
 764              		.loc 1 298 3 is_stmt 1 view .LVU213
 298:Middlewares/ST/STM32_USB_Device_Library/Class/winUsb/Src/usbd_winUsb.c ****   {
 765              		.loc 1 298 11 is_stmt 0 view .LVU214
 766 002c 237C     		ldrb	r3, [r4, #16]	@ zero_extendqisi2
 298:Middlewares/ST/STM32_USB_Device_Library/Class/winUsb/Src/usbd_winUsb.c ****   {
 767              		.loc 1 298 6 view .LVU215
 768 002e ABBB     		cbnz	r3, .L57
 300:Middlewares/ST/STM32_USB_Device_Library/Class/winUsb/Src/usbd_winUsb.c ****     USBD_LL_OpenEP(pdev,WIN_USB_EPOUT_ADDR,USBD_EP_TYPE_BULK,WIN_DATA_HS_OUT_PACKET_SIZE);
 769              		.loc 1 300 5 is_stmt 1 view .LVU216
 770 0030 4FF40073 		mov	r3, #512
 771 0034 0222     		movs	r2, #2
 772 0036 8321     		movs	r1, #131
 773 0038 2046     		mov	r0, r4
 774 003a FFF7FEFF 		bl	USBD_LL_OpenEP
 775              	.LVL75:
 301:Middlewares/ST/STM32_USB_Device_Library/Class/winUsb/Src/usbd_winUsb.c ****   }
 776              		.loc 1 301 5 view .LVU217
 777 003e 4FF40073 		mov	r3, #512
 778 0042 0222     		movs	r2, #2
 779 0044 0321     		movs	r1, #3
 780 0046 2046     		mov	r0, r4
 781 0048 FFF7FEFF 		bl	USBD_LL_OpenEP
 782              	.LVL76:
 783              	.L58:
 311:Middlewares/ST/STM32_USB_Device_Library/Class/winUsb/Src/usbd_winUsb.c ****   pdev->ep_in[WinUsbOutEpAdd & 0xFU].is_used = 1U;
 784              		.loc 1 311 3 view .LVU218
 311:Middlewares/ST/STM32_USB_Device_Library/Class/winUsb/Src/usbd_winUsb.c ****   pdev->ep_in[WinUsbOutEpAdd & 0xFU].is_used = 1U;
 785              		.loc 1 311 45 is_stmt 0 view .LVU219
 786 004c 0123     		movs	r3, #1
 787 004e A4F86030 		strh	r3, [r4, #96]	@ movhi
 312:Middlewares/ST/STM32_USB_Device_Library/Class/winUsb/Src/usbd_winUsb.c **** 
 788              		.loc 1 312 3 is_stmt 1 view .LVU220
 315:Middlewares/ST/STM32_USB_Device_Library/Class/winUsb/Src/usbd_winUsb.c **** 
 789              		.loc 1 315 3 view .LVU221
 315:Middlewares/ST/STM32_USB_Device_Library/Class/winUsb/Src/usbd_winUsb.c **** 
 790              		.loc 1 315 18 is_stmt 0 view .LVU222
 791 0052 0026     		movs	r6, #0
 792 0054 C5F80462 		str	r6, [r5, #516]
 318:Middlewares/ST/STM32_USB_Device_Library/Class/winUsb/Src/usbd_winUsb.c **** 
 793              		.loc 1 318 3 is_stmt 1 view .LVU223
 318:Middlewares/ST/STM32_USB_Device_Library/Class/winUsb/Src/usbd_winUsb.c **** 
 794              		.loc 1 318 50 is_stmt 0 view .LVU224
 795 0058 D4F8F832 		ldr	r3, [r4, #760]
 318:Middlewares/ST/STM32_USB_Device_Library/Class/winUsb/Src/usbd_winUsb.c **** 
 796              		.loc 1 318 45 view .LVU225
 797 005c B633     		adds	r3, r3, #182
 798 005e 04EB8303 		add	r3, r4, r3, lsl #2
 799 0062 5B68     		ldr	r3, [r3, #4]
 318:Middlewares/ST/STM32_USB_Device_Library/Class/winUsb/Src/usbd_winUsb.c **** 
 800              		.loc 1 318 61 view .LVU226
ARM GAS  C:\Users\ADMINI~1\AppData\Local\Temp\ccslNEp2.s 			page 29


 801 0064 1B68     		ldr	r3, [r3]
 318:Middlewares/ST/STM32_USB_Device_Library/Class/winUsb/Src/usbd_winUsb.c **** 
 802              		.loc 1 318 4 view .LVU227
 803 0066 9847     		blx	r3
 804              	.LVL77:
 321:Middlewares/ST/STM32_USB_Device_Library/Class/winUsb/Src/usbd_winUsb.c ****   hcdc->RxState = 0U;
 805              		.loc 1 321 3 is_stmt 1 view .LVU228
 321:Middlewares/ST/STM32_USB_Device_Library/Class/winUsb/Src/usbd_winUsb.c ****   hcdc->RxState = 0U;
 806              		.loc 1 321 17 is_stmt 0 view .LVU229
 807 0068 C5F81462 		str	r6, [r5, #532]
 322:Middlewares/ST/STM32_USB_Device_Library/Class/winUsb/Src/usbd_winUsb.c **** 
 808              		.loc 1 322 3 is_stmt 1 view .LVU230
 322:Middlewares/ST/STM32_USB_Device_Library/Class/winUsb/Src/usbd_winUsb.c **** 
 809              		.loc 1 322 17 is_stmt 0 view .LVU231
 810 006c C5F81862 		str	r6, [r5, #536]
 324:Middlewares/ST/STM32_USB_Device_Library/Class/winUsb/Src/usbd_winUsb.c ****   {
 811              		.loc 1 324 3 is_stmt 1 view .LVU232
 324:Middlewares/ST/STM32_USB_Device_Library/Class/winUsb/Src/usbd_winUsb.c ****   {
 812              		.loc 1 324 11 is_stmt 0 view .LVU233
 813 0070 D5F80422 		ldr	r2, [r5, #516]
 324:Middlewares/ST/STM32_USB_Device_Library/Class/winUsb/Src/usbd_winUsb.c ****   {
 814              		.loc 1 324 6 view .LVU234
 815 0074 32B3     		cbz	r2, .L60
 328:Middlewares/ST/STM32_USB_Device_Library/Class/winUsb/Src/usbd_winUsb.c ****   {
 816              		.loc 1 328 3 is_stmt 1 view .LVU235
 328:Middlewares/ST/STM32_USB_Device_Library/Class/winUsb/Src/usbd_winUsb.c ****   {
 817              		.loc 1 328 11 is_stmt 0 view .LVU236
 818 0076 257C     		ldrb	r5, [r4, #16]	@ zero_extendqisi2
 819              	.LVL78:
 328:Middlewares/ST/STM32_USB_Device_Library/Class/winUsb/Src/usbd_winUsb.c ****   {
 820              		.loc 1 328 6 view .LVU237
 821 0078 EDB9     		cbnz	r5, .L59
 330:Middlewares/ST/STM32_USB_Device_Library/Class/winUsb/Src/usbd_winUsb.c ****                           WIN_USB_EPOUT_ADDR,
 822              		.loc 1 330 5 is_stmt 1 view .LVU238
 823 007a 4FF40073 		mov	r3, #512
 824 007e 0321     		movs	r1, #3
 825 0080 2046     		mov	r0, r4
 826 0082 FFF7FEFF 		bl	USBD_LL_PrepareReceive
 827              	.LVL79:
 828              	.L56:
 344:Middlewares/ST/STM32_USB_Device_Library/Class/winUsb/Src/usbd_winUsb.c **** 
 829              		.loc 1 344 1 is_stmt 0 view .LVU239
 830 0086 2846     		mov	r0, r5
 831 0088 70BD     		pop	{r4, r5, r6, pc}
 832              	.LVL80:
 833              	.L62:
 290:Middlewares/ST/STM32_USB_Device_Library/Class/winUsb/Src/usbd_winUsb.c ****     return (uint8_t)USBD_EMEM;
 834              		.loc 1 290 5 is_stmt 1 view .LVU240
 290:Middlewares/ST/STM32_USB_Device_Library/Class/winUsb/Src/usbd_winUsb.c ****     return (uint8_t)USBD_EMEM;
 835              		.loc 1 290 31 is_stmt 0 view .LVU241
 836 008a D4F8F832 		ldr	r3, [r4, #760]
 290:Middlewares/ST/STM32_USB_Device_Library/Class/winUsb/Src/usbd_winUsb.c ****     return (uint8_t)USBD_EMEM;
 837              		.loc 1 290 42 view .LVU242
 838 008e B233     		adds	r3, r3, #178
 839 0090 04EB8304 		add	r4, r4, r3, lsl #2
 840              	.LVL81:
 290:Middlewares/ST/STM32_USB_Device_Library/Class/winUsb/Src/usbd_winUsb.c ****     return (uint8_t)USBD_EMEM;
ARM GAS  C:\Users\ADMINI~1\AppData\Local\Temp\ccslNEp2.s 			page 30


 841              		.loc 1 290 42 view .LVU243
 842 0094 0023     		movs	r3, #0
 843 0096 6360     		str	r3, [r4, #4]
 291:Middlewares/ST/STM32_USB_Device_Library/Class/winUsb/Src/usbd_winUsb.c ****   }
 844              		.loc 1 291 5 is_stmt 1 view .LVU244
 291:Middlewares/ST/STM32_USB_Device_Library/Class/winUsb/Src/usbd_winUsb.c ****   }
 845              		.loc 1 291 12 is_stmt 0 view .LVU245
 846 0098 0225     		movs	r5, #2
 847 009a F4E7     		b	.L56
 848              	.LVL82:
 849              	.L57:
 305:Middlewares/ST/STM32_USB_Device_Library/Class/winUsb/Src/usbd_winUsb.c ****     USBD_LL_OpenEP(pdev,WIN_USB_EPOUT_ADDR,USBD_EP_TYPE_BULK,WIN_DATA_FS_OUT_PACKET_SIZE);
 850              		.loc 1 305 5 is_stmt 1 view .LVU246
 851 009c 4023     		movs	r3, #64
 852 009e 0222     		movs	r2, #2
 853 00a0 8321     		movs	r1, #131
 854 00a2 2046     		mov	r0, r4
 855 00a4 FFF7FEFF 		bl	USBD_LL_OpenEP
 856              	.LVL83:
 306:Middlewares/ST/STM32_USB_Device_Library/Class/winUsb/Src/usbd_winUsb.c **** 
 857              		.loc 1 306 5 view .LVU247
 858 00a8 4023     		movs	r3, #64
 859 00aa 0222     		movs	r2, #2
 860 00ac 0321     		movs	r1, #3
 861 00ae 2046     		mov	r0, r4
 862 00b0 FFF7FEFF 		bl	USBD_LL_OpenEP
 863              	.LVL84:
 864 00b4 CAE7     		b	.L58
 865              	.LVL85:
 866              	.L59:
 337:Middlewares/ST/STM32_USB_Device_Library/Class/winUsb/Src/usbd_winUsb.c ****                           WIN_USB_EPOUT_ADDR,
 867              		.loc 1 337 5 view .LVU248
 868 00b6 4023     		movs	r3, #64
 869 00b8 0321     		movs	r1, #3
 870 00ba 2046     		mov	r0, r4
 871 00bc FFF7FEFF 		bl	USBD_LL_PrepareReceive
 872              	.LVL86:
 342:Middlewares/ST/STM32_USB_Device_Library/Class/winUsb/Src/usbd_winUsb.c **** 
 873              		.loc 1 342 10 is_stmt 0 view .LVU249
 874 00c0 0025     		movs	r5, #0
 875 00c2 E0E7     		b	.L56
 876              	.LVL87:
 877              	.L60:
 326:Middlewares/ST/STM32_USB_Device_Library/Class/winUsb/Src/usbd_winUsb.c ****   }
 878              		.loc 1 326 12 view .LVU250
 879 00c4 0225     		movs	r5, #2
 880              	.LVL88:
 326:Middlewares/ST/STM32_USB_Device_Library/Class/winUsb/Src/usbd_winUsb.c ****   }
 881              		.loc 1 326 12 view .LVU251
 882 00c6 DEE7     		b	.L56
 883              		.cfi_endproc
 884              	.LFE143:
 886              		.section	.text.USBD_WinUsb_SetTxBuffer,"ax",%progbits
 887              		.align	1
 888              		.global	USBD_WinUsb_SetTxBuffer
 889              		.syntax unified
 890              		.thumb
ARM GAS  C:\Users\ADMINI~1\AppData\Local\Temp\ccslNEp2.s 			page 31


 891              		.thumb_func
 893              	USBD_WinUsb_SetTxBuffer:
 894              	.LVL89:
 895              	.LFB149:
 465:Middlewares/ST/STM32_USB_Device_Library/Class/winUsb/Src/usbd_winUsb.c ****   USBD_WinUsb_HandleTypeDef *hcdc = (USBD_WinUsb_HandleTypeDef *)pdev->pClassDataCmsit[pdev->classI
 896              		.loc 1 465 1 is_stmt 1 view -0
 897              		.cfi_startproc
 898              		@ args = 0, pretend = 0, frame = 0
 899              		@ frame_needed = 0, uses_anonymous_args = 0
 900              		@ link register save eliminated.
 466:Middlewares/ST/STM32_USB_Device_Library/Class/winUsb/Src/usbd_winUsb.c **** 
 901              		.loc 1 466 3 view .LVU253
 466:Middlewares/ST/STM32_USB_Device_Library/Class/winUsb/Src/usbd_winUsb.c **** 
 902              		.loc 1 466 92 is_stmt 0 view .LVU254
 903 0000 D0F8F832 		ldr	r3, [r0, #760]
 466:Middlewares/ST/STM32_USB_Device_Library/Class/winUsb/Src/usbd_winUsb.c **** 
 904              		.loc 1 466 30 view .LVU255
 905 0004 B233     		adds	r3, r3, #178
 906 0006 00EB8300 		add	r0, r0, r3, lsl #2
 907              	.LVL90:
 466:Middlewares/ST/STM32_USB_Device_Library/Class/winUsb/Src/usbd_winUsb.c **** 
 908              		.loc 1 466 30 view .LVU256
 909 000a 4368     		ldr	r3, [r0, #4]
 910              	.LVL91:
 468:Middlewares/ST/STM32_USB_Device_Library/Class/winUsb/Src/usbd_winUsb.c ****   {
 911              		.loc 1 468 3 is_stmt 1 view .LVU257
 468:Middlewares/ST/STM32_USB_Device_Library/Class/winUsb/Src/usbd_winUsb.c ****   {
 912              		.loc 1 468 6 is_stmt 0 view .LVU258
 913 000c 2BB1     		cbz	r3, .L65
 473:Middlewares/ST/STM32_USB_Device_Library/Class/winUsb/Src/usbd_winUsb.c ****   hcdc->TxLength = length;
 914              		.loc 1 473 3 is_stmt 1 view .LVU259
 473:Middlewares/ST/STM32_USB_Device_Library/Class/winUsb/Src/usbd_winUsb.c ****   hcdc->TxLength = length;
 915              		.loc 1 473 18 is_stmt 0 view .LVU260
 916 000e C3F80812 		str	r1, [r3, #520]
 474:Middlewares/ST/STM32_USB_Device_Library/Class/winUsb/Src/usbd_winUsb.c **** 
 917              		.loc 1 474 3 is_stmt 1 view .LVU261
 474:Middlewares/ST/STM32_USB_Device_Library/Class/winUsb/Src/usbd_winUsb.c **** 
 918              		.loc 1 474 18 is_stmt 0 view .LVU262
 919 0012 C3F81022 		str	r2, [r3, #528]
 476:Middlewares/ST/STM32_USB_Device_Library/Class/winUsb/Src/usbd_winUsb.c **** }
 920              		.loc 1 476 3 is_stmt 1 view .LVU263
 476:Middlewares/ST/STM32_USB_Device_Library/Class/winUsb/Src/usbd_winUsb.c **** }
 921              		.loc 1 476 10 is_stmt 0 view .LVU264
 922 0016 0020     		movs	r0, #0
 923 0018 7047     		bx	lr
 924              	.L65:
 470:Middlewares/ST/STM32_USB_Device_Library/Class/winUsb/Src/usbd_winUsb.c ****   }
 925              		.loc 1 470 12 view .LVU265
 926 001a 0320     		movs	r0, #3
 477:Middlewares/ST/STM32_USB_Device_Library/Class/winUsb/Src/usbd_winUsb.c **** uint8_t USBD_WinUsb_SetRxBuffer(USBD_HandleTypeDef *pdev, uint8_t *pbuff)
 927              		.loc 1 477 1 view .LVU266
 928 001c 7047     		bx	lr
 929              		.cfi_endproc
 930              	.LFE149:
 932              		.section	.text.USBD_WinUsb_SetRxBuffer,"ax",%progbits
 933              		.align	1
 934              		.global	USBD_WinUsb_SetRxBuffer
ARM GAS  C:\Users\ADMINI~1\AppData\Local\Temp\ccslNEp2.s 			page 32


 935              		.syntax unified
 936              		.thumb
 937              		.thumb_func
 939              	USBD_WinUsb_SetRxBuffer:
 940              	.LVL92:
 941              	.LFB150:
 479:Middlewares/ST/STM32_USB_Device_Library/Class/winUsb/Src/usbd_winUsb.c **** 	USBD_WinUsb_HandleTypeDef *hcdc = (USBD_WinUsb_HandleTypeDef *)pdev->pClassDataCmsit[pdev->classId
 942              		.loc 1 479 1 is_stmt 1 view -0
 943              		.cfi_startproc
 944              		@ args = 0, pretend = 0, frame = 0
 945              		@ frame_needed = 0, uses_anonymous_args = 0
 946              		@ link register save eliminated.
 480:Middlewares/ST/STM32_USB_Device_Library/Class/winUsb/Src/usbd_winUsb.c **** 
 947              		.loc 1 480 2 view .LVU268
 480:Middlewares/ST/STM32_USB_Device_Library/Class/winUsb/Src/usbd_winUsb.c **** 
 948              		.loc 1 480 91 is_stmt 0 view .LVU269
 949 0000 D0F8F832 		ldr	r3, [r0, #760]
 480:Middlewares/ST/STM32_USB_Device_Library/Class/winUsb/Src/usbd_winUsb.c **** 
 950              		.loc 1 480 29 view .LVU270
 951 0004 B233     		adds	r3, r3, #178
 952 0006 00EB8300 		add	r0, r0, r3, lsl #2
 953              	.LVL93:
 480:Middlewares/ST/STM32_USB_Device_Library/Class/winUsb/Src/usbd_winUsb.c **** 
 954              		.loc 1 480 29 view .LVU271
 955 000a 4368     		ldr	r3, [r0, #4]
 956              	.LVL94:
 482:Middlewares/ST/STM32_USB_Device_Library/Class/winUsb/Src/usbd_winUsb.c **** 	{
 957              		.loc 1 482 2 is_stmt 1 view .LVU272
 482:Middlewares/ST/STM32_USB_Device_Library/Class/winUsb/Src/usbd_winUsb.c **** 	{
 958              		.loc 1 482 5 is_stmt 0 view .LVU273
 959 000c 1BB1     		cbz	r3, .L68
 487:Middlewares/ST/STM32_USB_Device_Library/Class/winUsb/Src/usbd_winUsb.c **** 
 960              		.loc 1 487 2 is_stmt 1 view .LVU274
 487:Middlewares/ST/STM32_USB_Device_Library/Class/winUsb/Src/usbd_winUsb.c **** 
 961              		.loc 1 487 17 is_stmt 0 view .LVU275
 962 000e C3F80412 		str	r1, [r3, #516]
 489:Middlewares/ST/STM32_USB_Device_Library/Class/winUsb/Src/usbd_winUsb.c **** }
 963              		.loc 1 489 2 is_stmt 1 view .LVU276
 489:Middlewares/ST/STM32_USB_Device_Library/Class/winUsb/Src/usbd_winUsb.c **** }
 964              		.loc 1 489 9 is_stmt 0 view .LVU277
 965 0012 0020     		movs	r0, #0
 966 0014 7047     		bx	lr
 967              	.L68:
 484:Middlewares/ST/STM32_USB_Device_Library/Class/winUsb/Src/usbd_winUsb.c **** 	}
 968              		.loc 1 484 11 view .LVU278
 969 0016 0320     		movs	r0, #3
 490:Middlewares/ST/STM32_USB_Device_Library/Class/winUsb/Src/usbd_winUsb.c **** 
 970              		.loc 1 490 1 view .LVU279
 971 0018 7047     		bx	lr
 972              		.cfi_endproc
 973              	.LFE150:
 975              		.section	.text.WinUsb_Init_FS,"ax",%progbits
 976              		.align	1
 977              		.syntax unified
 978              		.thumb
 979              		.thumb_func
 981              	WinUsb_Init_FS:
ARM GAS  C:\Users\ADMINI~1\AppData\Local\Temp\ccslNEp2.s 			page 33


 982              	.LFB153:
 542:Middlewares/ST/STM32_USB_Device_Library/Class/winUsb/Src/usbd_winUsb.c ****   /* USER CODE BEGIN 3 */
 983              		.loc 1 542 1 is_stmt 1 view -0
 984              		.cfi_startproc
 985              		@ args = 0, pretend = 0, frame = 0
 986              		@ frame_needed = 0, uses_anonymous_args = 0
 987 0000 F8B5     		push	{r3, r4, r5, r6, r7, lr}
 988              	.LCFI10:
 989              		.cfi_def_cfa_offset 24
 990              		.cfi_offset 3, -24
 991              		.cfi_offset 4, -20
 992              		.cfi_offset 5, -16
 993              		.cfi_offset 6, -12
 994              		.cfi_offset 7, -8
 995              		.cfi_offset 14, -4
 547:Middlewares/ST/STM32_USB_Device_Library/Class/winUsb/Src/usbd_winUsb.c ****   usbBuffer.receivedPacketLen = 0;
 996              		.loc 1 547 3 view .LVU281
 547:Middlewares/ST/STM32_USB_Device_Library/Class/winUsb/Src/usbd_winUsb.c ****   usbBuffer.receivedPacketLen = 0;
 997              		.loc 1 547 27 is_stmt 0 view .LVU282
 998 0002 0E4E     		ldr	r6, .L71
 999 0004 06F5A835 		add	r5, r6, #86016
 1000 0008 0024     		movs	r4, #0
 1001 000a 85F8E241 		strb	r4, [r5, #482]
 548:Middlewares/ST/STM32_USB_Device_Library/Class/winUsb/Src/usbd_winUsb.c ****   usbBuffer.rxDataOffset = 0;
 1002              		.loc 1 548 3 is_stmt 1 view .LVU283
 548:Middlewares/ST/STM32_USB_Device_Library/Class/winUsb/Src/usbd_winUsb.c ****   usbBuffer.rxDataOffset = 0;
 1003              		.loc 1 548 31 is_stmt 0 view .LVU284
 1004 000e A5F8E041 		strh	r4, [r5, #480]	@ movhi
 549:Middlewares/ST/STM32_USB_Device_Library/Class/winUsb/Src/usbd_winUsb.c ****   USBD_WinUsb_SetTxBuffer(&hUsbDeviceHS, usbBuffer.extraDataTx, 0);
 1005              		.loc 1 549 3 is_stmt 1 view .LVU285
 549:Middlewares/ST/STM32_USB_Device_Library/Class/winUsb/Src/usbd_winUsb.c ****   USBD_WinUsb_SetTxBuffer(&hUsbDeviceHS, usbBuffer.extraDataTx, 0);
 1006              		.loc 1 549 26 is_stmt 0 view .LVU286
 1007 0012 C5F8E441 		str	r4, [r5, #484]
 550:Middlewares/ST/STM32_USB_Device_Library/Class/winUsb/Src/usbd_winUsb.c ****   USBD_WinUsb_SetRxBuffer(&hUsbDeviceHS, usbBuffer.rxData[usbBuffer.pingPongIndex]);
 1008              		.loc 1 550 3 is_stmt 1 view .LVU287
 1009 0016 0A4F     		ldr	r7, .L71+4
 1010 0018 2246     		mov	r2, r4
 1011 001a 3146     		mov	r1, r6
 1012 001c 3846     		mov	r0, r7
 1013 001e FFF7FEFF 		bl	USBD_WinUsb_SetTxBuffer
 1014              	.LVL95:
 551:Middlewares/ST/STM32_USB_Device_Library/Class/winUsb/Src/usbd_winUsb.c ****   return (USBD_OK);
 1015              		.loc 1 551 3 view .LVU288
 551:Middlewares/ST/STM32_USB_Device_Library/Class/winUsb/Src/usbd_winUsb.c ****   return (USBD_OK);
 1016              		.loc 1 551 68 is_stmt 0 view .LVU289
 1017 0022 95F8E231 		ldrb	r3, [r5, #482]	@ zero_extendqisi2
 551:Middlewares/ST/STM32_USB_Device_Library/Class/winUsb/Src/usbd_winUsb.c ****   return (USBD_OK);
 1018              		.loc 1 551 58 view .LVU290
 1019 0026 4AF6E001 		movw	r1, #43232
 1020 002a 03FB01F1 		mul	r1, r3, r1
 1021 002e 2031     		adds	r1, r1, #32
 551:Middlewares/ST/STM32_USB_Device_Library/Class/winUsb/Src/usbd_winUsb.c ****   return (USBD_OK);
 1022              		.loc 1 551 3 view .LVU291
 1023 0030 3144     		add	r1, r1, r6
 1024 0032 3846     		mov	r0, r7
 1025 0034 FFF7FEFF 		bl	USBD_WinUsb_SetRxBuffer
 1026              	.LVL96:
ARM GAS  C:\Users\ADMINI~1\AppData\Local\Temp\ccslNEp2.s 			page 34


 552:Middlewares/ST/STM32_USB_Device_Library/Class/winUsb/Src/usbd_winUsb.c ****   /* USER CODE END 3 */
 1027              		.loc 1 552 3 is_stmt 1 view .LVU292
 554:Middlewares/ST/STM32_USB_Device_Library/Class/winUsb/Src/usbd_winUsb.c **** static int8_t WinUsb_DeInit_FS(void)
 1028              		.loc 1 554 1 is_stmt 0 view .LVU293
 1029 0038 2046     		mov	r0, r4
 1030 003a F8BD     		pop	{r3, r4, r5, r6, r7, pc}
 1031              	.L72:
 1032              		.align	2
 1033              	.L71:
 1034 003c 00000000 		.word	usbBuffer
 1035 0040 00000000 		.word	hUsbDeviceHS
 1036              		.cfi_endproc
 1037              	.LFE153:
 1039              		.section	.text.USBD_WinUsb_ReceivePacket,"ax",%progbits
 1040              		.align	1
 1041              		.global	USBD_WinUsb_ReceivePacket
 1042              		.syntax unified
 1043              		.thumb
 1044              		.thumb_func
 1046              	USBD_WinUsb_ReceivePacket:
 1047              	.LVL97:
 1048              	.LFB151:
 493:Middlewares/ST/STM32_USB_Device_Library/Class/winUsb/Src/usbd_winUsb.c ****   USBD_WinUsb_HandleTypeDef *hcdc = (USBD_WinUsb_HandleTypeDef *)pdev->pClassDataCmsit[pdev->classI
 1049              		.loc 1 493 1 is_stmt 1 view -0
 1050              		.cfi_startproc
 1051              		@ args = 0, pretend = 0, frame = 0
 1052              		@ frame_needed = 0, uses_anonymous_args = 0
 493:Middlewares/ST/STM32_USB_Device_Library/Class/winUsb/Src/usbd_winUsb.c ****   USBD_WinUsb_HandleTypeDef *hcdc = (USBD_WinUsb_HandleTypeDef *)pdev->pClassDataCmsit[pdev->classI
 1053              		.loc 1 493 1 is_stmt 0 view .LVU295
 1054 0000 10B5     		push	{r4, lr}
 1055              	.LCFI11:
 1056              		.cfi_def_cfa_offset 8
 1057              		.cfi_offset 4, -8
 1058              		.cfi_offset 14, -4
 494:Middlewares/ST/STM32_USB_Device_Library/Class/winUsb/Src/usbd_winUsb.c **** 
 1059              		.loc 1 494 3 is_stmt 1 view .LVU296
 494:Middlewares/ST/STM32_USB_Device_Library/Class/winUsb/Src/usbd_winUsb.c **** 
 1060              		.loc 1 494 92 is_stmt 0 view .LVU297
 1061 0002 D0F8F832 		ldr	r3, [r0, #760]
 494:Middlewares/ST/STM32_USB_Device_Library/Class/winUsb/Src/usbd_winUsb.c **** 
 1062              		.loc 1 494 30 view .LVU298
 1063 0006 B233     		adds	r3, r3, #178
 1064 0008 00EB8303 		add	r3, r0, r3, lsl #2
 1065 000c 5A68     		ldr	r2, [r3, #4]
 1066              	.LVL98:
 496:Middlewares/ST/STM32_USB_Device_Library/Class/winUsb/Src/usbd_winUsb.c ****   {
 1067              		.loc 1 496 3 is_stmt 1 view .LVU299
 496:Middlewares/ST/STM32_USB_Device_Library/Class/winUsb/Src/usbd_winUsb.c ****   {
 1068              		.loc 1 496 6 is_stmt 0 view .LVU300
 1069 000e 92B1     		cbz	r2, .L76
 500:Middlewares/ST/STM32_USB_Device_Library/Class/winUsb/Src/usbd_winUsb.c ****   {
 1070              		.loc 1 500 3 is_stmt 1 view .LVU301
 500:Middlewares/ST/STM32_USB_Device_Library/Class/winUsb/Src/usbd_winUsb.c ****   {
 1071              		.loc 1 500 11 is_stmt 0 view .LVU302
 1072 0010 047C     		ldrb	r4, [r0, #16]	@ zero_extendqisi2
 500:Middlewares/ST/STM32_USB_Device_Library/Class/winUsb/Src/usbd_winUsb.c ****   {
 1073              		.loc 1 500 6 view .LVU303
ARM GAS  C:\Users\ADMINI~1\AppData\Local\Temp\ccslNEp2.s 			page 35


 1074 0012 44B9     		cbnz	r4, .L75
 503:Middlewares/ST/STM32_USB_Device_Library/Class/winUsb/Src/usbd_winUsb.c ****                                  WIN_DATA_HS_OUT_PACKET_SIZE);
 1075              		.loc 1 503 5 is_stmt 1 view .LVU304
 503:Middlewares/ST/STM32_USB_Device_Library/Class/winUsb/Src/usbd_winUsb.c ****                                  WIN_DATA_HS_OUT_PACKET_SIZE);
 1076              		.loc 1 503 11 is_stmt 0 view .LVU305
 1077 0014 4FF40073 		mov	r3, #512
 1078 0018 D2F80422 		ldr	r2, [r2, #516]
 1079              	.LVL99:
 503:Middlewares/ST/STM32_USB_Device_Library/Class/winUsb/Src/usbd_winUsb.c ****                                  WIN_DATA_HS_OUT_PACKET_SIZE);
 1080              		.loc 1 503 11 view .LVU306
 1081 001c 0321     		movs	r1, #3
 1082 001e FFF7FEFF 		bl	USBD_LL_PrepareReceive
 1083              	.LVL100:
 1084              	.L74:
 513:Middlewares/ST/STM32_USB_Device_Library/Class/winUsb/Src/usbd_winUsb.c **** 
 1085              		.loc 1 513 1 view .LVU307
 1086 0022 2046     		mov	r0, r4
 1087 0024 10BD     		pop	{r4, pc}
 1088              	.LVL101:
 1089              	.L75:
 509:Middlewares/ST/STM32_USB_Device_Library/Class/winUsb/Src/usbd_winUsb.c ****                                  WIN_DATA_FS_OUT_PACKET_SIZE);
 1090              		.loc 1 509 5 is_stmt 1 view .LVU308
 509:Middlewares/ST/STM32_USB_Device_Library/Class/winUsb/Src/usbd_winUsb.c ****                                  WIN_DATA_FS_OUT_PACKET_SIZE);
 1091              		.loc 1 509 11 is_stmt 0 view .LVU309
 1092 0026 4023     		movs	r3, #64
 1093 0028 D2F80422 		ldr	r2, [r2, #516]
 1094              	.LVL102:
 509:Middlewares/ST/STM32_USB_Device_Library/Class/winUsb/Src/usbd_winUsb.c ****                                  WIN_DATA_FS_OUT_PACKET_SIZE);
 1095              		.loc 1 509 11 view .LVU310
 1096 002c 0321     		movs	r1, #3
 1097 002e FFF7FEFF 		bl	USBD_LL_PrepareReceive
 1098              	.LVL103:
 512:Middlewares/ST/STM32_USB_Device_Library/Class/winUsb/Src/usbd_winUsb.c **** }
 1099              		.loc 1 512 9 view .LVU311
 1100 0032 0024     		movs	r4, #0
 1101 0034 F5E7     		b	.L74
 1102              	.LVL104:
 1103              	.L76:
 498:Middlewares/ST/STM32_USB_Device_Library/Class/winUsb/Src/usbd_winUsb.c ****   }
 1104              		.loc 1 498 12 view .LVU312
 1105 0036 0324     		movs	r4, #3
 1106 0038 F3E7     		b	.L74
 1107              		.cfi_endproc
 1108              	.LFE151:
 1110              		.section	.text.WinUsb_Receive_FS,"ax",%progbits
 1111              		.align	1
 1112              		.syntax unified
 1113              		.thumb
 1114              		.thumb_func
 1116              	WinUsb_Receive_FS:
 1117              	.LVL105:
 1118              	.LFB156:
 575:Middlewares/ST/STM32_USB_Device_Library/Class/winUsb/Src/usbd_winUsb.c ****   /* USER CODE BEGIN 6 */
 1119              		.loc 1 575 1 is_stmt 1 view -0
 1120              		.cfi_startproc
 1121              		@ args = 0, pretend = 0, frame = 0
 1122              		@ frame_needed = 0, uses_anonymous_args = 0
ARM GAS  C:\Users\ADMINI~1\AppData\Local\Temp\ccslNEp2.s 			page 36


 575:Middlewares/ST/STM32_USB_Device_Library/Class/winUsb/Src/usbd_winUsb.c ****   /* USER CODE BEGIN 6 */
 1123              		.loc 1 575 1 is_stmt 0 view .LVU314
 1124 0000 10B5     		push	{r4, lr}
 1125              	.LCFI12:
 1126              		.cfi_def_cfa_offset 8
 1127              		.cfi_offset 4, -8
 1128              		.cfi_offset 14, -4
 583:Middlewares/ST/STM32_USB_Device_Library/Class/winUsb/Src/usbd_winUsb.c ****   if (usbBuffer.receivedPacketLen == 224)
 1129              		.loc 1 583 3 is_stmt 1 view .LVU315
 583:Middlewares/ST/STM32_USB_Device_Library/Class/winUsb/Src/usbd_winUsb.c ****   if (usbBuffer.receivedPacketLen == 224)
 1130              		.loc 1 583 31 is_stmt 0 view .LVU316
 1131 0002 0A88     		ldrh	r2, [r1]
 1132 0004 1C4B     		ldr	r3, .L84
 1133 0006 A3F8E021 		strh	r2, [r3, #480]	@ movhi
 584:Middlewares/ST/STM32_USB_Device_Library/Class/winUsb/Src/usbd_winUsb.c ****   {
 1134              		.loc 1 584 3 is_stmt 1 view .LVU317
 584:Middlewares/ST/STM32_USB_Device_Library/Class/winUsb/Src/usbd_winUsb.c ****   {
 1135              		.loc 1 584 16 is_stmt 0 view .LVU318
 1136 000a B3F8E031 		ldrh	r3, [r3, #480]
 1137 000e 9BB2     		uxth	r3, r3
 584:Middlewares/ST/STM32_USB_Device_Library/Class/winUsb/Src/usbd_winUsb.c ****   {
 1138              		.loc 1 584 6 view .LVU319
 1139 0010 E02B     		cmp	r3, #224
 1140 0012 1CD0     		beq	.L82
 1141              	.L79:
 591:Middlewares/ST/STM32_USB_Device_Library/Class/winUsb/Src/usbd_winUsb.c ****   {
 1142              		.loc 1 591 3 is_stmt 1 view .LVU320
 591:Middlewares/ST/STM32_USB_Device_Library/Class/winUsb/Src/usbd_winUsb.c ****   {
 1143              		.loc 1 591 16 is_stmt 0 view .LVU321
 1144 0014 184B     		ldr	r3, .L84
 1145 0016 B3F8E031 		ldrh	r3, [r3, #480]
 1146 001a 9BB2     		uxth	r3, r3
 591:Middlewares/ST/STM32_USB_Device_Library/Class/winUsb/Src/usbd_winUsb.c ****   {
 1147              		.loc 1 591 6 view .LVU322
 1148 001c B3F5007F 		cmp	r3, #512
 1149 0020 21D0     		beq	.L83
 1150              	.L80:
 595:Middlewares/ST/STM32_USB_Device_Library/Class/winUsb/Src/usbd_winUsb.c ****   USBD_WinUsb_ReceivePacket(&hUsbDeviceHS);
 1151              		.loc 1 595 3 is_stmt 1 view .LVU323
 595:Middlewares/ST/STM32_USB_Device_Library/Class/winUsb/Src/usbd_winUsb.c ****   USBD_WinUsb_ReceivePacket(&hUsbDeviceHS);
 1152              		.loc 1 595 69 is_stmt 0 view .LVU324
 1153 0022 1649     		ldr	r1, .L84+4
 1154              	.LVL106:
 595:Middlewares/ST/STM32_USB_Device_Library/Class/winUsb/Src/usbd_winUsb.c ****   USBD_WinUsb_ReceivePacket(&hUsbDeviceHS);
 1155              		.loc 1 595 69 view .LVU325
 1156 0024 01F5A832 		add	r2, r1, #86016
 1157 0028 92F8E201 		ldrb	r0, [r2, #482]	@ zero_extendqisi2
 1158              	.LVL107:
 595:Middlewares/ST/STM32_USB_Device_Library/Class/winUsb/Src/usbd_winUsb.c ****   USBD_WinUsb_ReceivePacket(&hUsbDeviceHS);
 1159              		.loc 1 595 94 view .LVU326
 1160 002c D2F8E431 		ldr	r3, [r2, #484]
 595:Middlewares/ST/STM32_USB_Device_Library/Class/winUsb/Src/usbd_winUsb.c ****   USBD_WinUsb_ReceivePacket(&hUsbDeviceHS);
 1161              		.loc 1 595 3 view .LVU327
 1162 0030 4AF6E002 		movw	r2, #43232
 1163 0034 00FB0233 		mla	r3, r0, r2, r3
 1164 0038 2033     		adds	r3, r3, #32
 1165 003a 114C     		ldr	r4, .L84+8
ARM GAS  C:\Users\ADMINI~1\AppData\Local\Temp\ccslNEp2.s 			page 37


 1166 003c 1944     		add	r1, r1, r3
 1167 003e 2046     		mov	r0, r4
 1168 0040 FFF7FEFF 		bl	USBD_WinUsb_SetRxBuffer
 1169              	.LVL108:
 596:Middlewares/ST/STM32_USB_Device_Library/Class/winUsb/Src/usbd_winUsb.c ****   return (USBD_OK);
 1170              		.loc 1 596 3 is_stmt 1 view .LVU328
 1171 0044 2046     		mov	r0, r4
 1172 0046 FFF7FEFF 		bl	USBD_WinUsb_ReceivePacket
 1173              	.LVL109:
 597:Middlewares/ST/STM32_USB_Device_Library/Class/winUsb/Src/usbd_winUsb.c ****   /* USER CODE END 6 */
 1174              		.loc 1 597 3 view .LVU329
 599:Middlewares/ST/STM32_USB_Device_Library/Class/winUsb/Src/usbd_winUsb.c **** static int8_t WinUsb_TransmitCplt_FS(uint8_t *Buf, uint32_t *Len, uint8_t epnum)
 1175              		.loc 1 599 1 is_stmt 0 view .LVU330
 1176 004a 0020     		movs	r0, #0
 1177 004c 10BD     		pop	{r4, pc}
 1178              	.LVL110:
 1179              	.L82:
 587:Middlewares/ST/STM32_USB_Device_Library/Class/winUsb/Src/usbd_winUsb.c ****     usbBuffer.rxDataOffset = 0;
 1180              		.loc 1 587 5 is_stmt 1 view .LVU331
 587:Middlewares/ST/STM32_USB_Device_Library/Class/winUsb/Src/usbd_winUsb.c ****     usbBuffer.rxDataOffset = 0;
 1181              		.loc 1 587 41 is_stmt 0 view .LVU332
 1182 004e 0A4A     		ldr	r2, .L84
 1183 0050 92F8E231 		ldrb	r3, [r2, #482]	@ zero_extendqisi2
 587:Middlewares/ST/STM32_USB_Device_Library/Class/winUsb/Src/usbd_winUsb.c ****     usbBuffer.rxDataOffset = 0;
 1184              		.loc 1 587 65 view .LVU333
 1185 0054 B3FA83F3 		clz	r3, r3
 1186 0058 5B09     		lsrs	r3, r3, #5
 587:Middlewares/ST/STM32_USB_Device_Library/Class/winUsb/Src/usbd_winUsb.c ****     usbBuffer.rxDataOffset = 0;
 1187              		.loc 1 587 29 view .LVU334
 1188 005a 82F8E231 		strb	r3, [r2, #482]
 588:Middlewares/ST/STM32_USB_Device_Library/Class/winUsb/Src/usbd_winUsb.c ****   }
 1189              		.loc 1 588 5 is_stmt 1 view .LVU335
 588:Middlewares/ST/STM32_USB_Device_Library/Class/winUsb/Src/usbd_winUsb.c ****   }
 1190              		.loc 1 588 28 is_stmt 0 view .LVU336
 1191 005e 0023     		movs	r3, #0
 1192 0060 C2F8E431 		str	r3, [r2, #484]
 1193 0064 D6E7     		b	.L79
 1194              	.L83:
 593:Middlewares/ST/STM32_USB_Device_Library/Class/winUsb/Src/usbd_winUsb.c ****   }
 1195              		.loc 1 593 7 is_stmt 1 view .LVU337
 593:Middlewares/ST/STM32_USB_Device_Library/Class/winUsb/Src/usbd_winUsb.c ****   }
 1196              		.loc 1 593 30 is_stmt 0 view .LVU338
 1197 0066 044A     		ldr	r2, .L84
 1198 0068 D2F8E431 		ldr	r3, [r2, #484]
 1199 006c 03F50073 		add	r3, r3, #512
 1200 0070 C2F8E431 		str	r3, [r2, #484]
 1201 0074 D5E7     		b	.L80
 1202              	.L85:
 1203 0076 00BF     		.align	2
 1204              	.L84:
 1205 0078 00500100 		.word	usbBuffer+86016
 1206 007c 00000000 		.word	usbBuffer
 1207 0080 00000000 		.word	hUsbDeviceHS
 1208              		.cfi_endproc
 1209              	.LFE156:
 1211              		.section	.text.USBD_WinUsb_TransmitPacket,"ax",%progbits
 1212              		.align	1
ARM GAS  C:\Users\ADMINI~1\AppData\Local\Temp\ccslNEp2.s 			page 38


 1213              		.global	USBD_WinUsb_TransmitPacket
 1214              		.syntax unified
 1215              		.thumb
 1216              		.thumb_func
 1218              	USBD_WinUsb_TransmitPacket:
 1219              	.LVL111:
 1220              	.LFB152:
 516:Middlewares/ST/STM32_USB_Device_Library/Class/winUsb/Src/usbd_winUsb.c ****   USBD_WinUsb_HandleTypeDef *hcdc = (USBD_WinUsb_HandleTypeDef *)pdev->pClassDataCmsit[pdev->classI
 1221              		.loc 1 516 1 is_stmt 1 view -0
 1222              		.cfi_startproc
 1223              		@ args = 0, pretend = 0, frame = 0
 1224              		@ frame_needed = 0, uses_anonymous_args = 0
 516:Middlewares/ST/STM32_USB_Device_Library/Class/winUsb/Src/usbd_winUsb.c ****   USBD_WinUsb_HandleTypeDef *hcdc = (USBD_WinUsb_HandleTypeDef *)pdev->pClassDataCmsit[pdev->classI
 1225              		.loc 1 516 1 is_stmt 0 view .LVU340
 1226 0000 08B5     		push	{r3, lr}
 1227              	.LCFI13:
 1228              		.cfi_def_cfa_offset 8
 1229              		.cfi_offset 3, -8
 1230              		.cfi_offset 14, -4
 517:Middlewares/ST/STM32_USB_Device_Library/Class/winUsb/Src/usbd_winUsb.c ****   USBD_StatusTypeDef ret = USBD_BUSY;
 1231              		.loc 1 517 3 is_stmt 1 view .LVU341
 517:Middlewares/ST/STM32_USB_Device_Library/Class/winUsb/Src/usbd_winUsb.c ****   USBD_StatusTypeDef ret = USBD_BUSY;
 1232              		.loc 1 517 92 is_stmt 0 view .LVU342
 1233 0002 D0F8F832 		ldr	r3, [r0, #760]
 517:Middlewares/ST/STM32_USB_Device_Library/Class/winUsb/Src/usbd_winUsb.c ****   USBD_StatusTypeDef ret = USBD_BUSY;
 1234              		.loc 1 517 30 view .LVU343
 1235 0006 B233     		adds	r3, r3, #178
 1236 0008 00EB8303 		add	r3, r0, r3, lsl #2
 1237 000c 5A68     		ldr	r2, [r3, #4]
 1238              	.LVL112:
 518:Middlewares/ST/STM32_USB_Device_Library/Class/winUsb/Src/usbd_winUsb.c **** 
 1239              		.loc 1 518 3 is_stmt 1 view .LVU344
 520:Middlewares/ST/STM32_USB_Device_Library/Class/winUsb/Src/usbd_winUsb.c ****   {
 1240              		.loc 1 520 3 view .LVU345
 520:Middlewares/ST/STM32_USB_Device_Library/Class/winUsb/Src/usbd_winUsb.c ****   {
 1241              		.loc 1 520 6 is_stmt 0 view .LVU346
 1242 000e 9AB1     		cbz	r2, .L88
 525:Middlewares/ST/STM32_USB_Device_Library/Class/winUsb/Src/usbd_winUsb.c ****   {
 1243              		.loc 1 525 3 is_stmt 1 view .LVU347
 525:Middlewares/ST/STM32_USB_Device_Library/Class/winUsb/Src/usbd_winUsb.c ****   {
 1244              		.loc 1 525 11 is_stmt 0 view .LVU348
 1245 0010 D2F81432 		ldr	r3, [r2, #532]
 525:Middlewares/ST/STM32_USB_Device_Library/Class/winUsb/Src/usbd_winUsb.c ****   {
 1246              		.loc 1 525 6 view .LVU349
 1247 0014 0BB1     		cbz	r3, .L91
 518:Middlewares/ST/STM32_USB_Device_Library/Class/winUsb/Src/usbd_winUsb.c **** 
 1248              		.loc 1 518 22 view .LVU350
 1249 0016 0120     		movs	r0, #1
 1250              	.LVL113:
 1251              	.L87:
 540:Middlewares/ST/STM32_USB_Device_Library/Class/winUsb/Src/usbd_winUsb.c **** static int8_t WinUsb_Init_FS(void)
 1252              		.loc 1 540 1 view .LVU351
 1253 0018 08BD     		pop	{r3, pc}
 1254              	.LVL114:
 1255              	.L91:
 528:Middlewares/ST/STM32_USB_Device_Library/Class/winUsb/Src/usbd_winUsb.c **** 
 1256              		.loc 1 528 5 is_stmt 1 view .LVU352
ARM GAS  C:\Users\ADMINI~1\AppData\Local\Temp\ccslNEp2.s 			page 39


 528:Middlewares/ST/STM32_USB_Device_Library/Class/winUsb/Src/usbd_winUsb.c **** 
 1257              		.loc 1 528 19 is_stmt 0 view .LVU353
 1258 001a 0123     		movs	r3, #1
 1259 001c C2F81432 		str	r3, [r2, #532]
 531:Middlewares/ST/STM32_USB_Device_Library/Class/winUsb/Src/usbd_winUsb.c **** 
 1260              		.loc 1 531 5 is_stmt 1 view .LVU354
 531:Middlewares/ST/STM32_USB_Device_Library/Class/winUsb/Src/usbd_winUsb.c **** 
 1261              		.loc 1 531 58 is_stmt 0 view .LVU355
 1262 0020 D2F81032 		ldr	r3, [r2, #528]
 531:Middlewares/ST/STM32_USB_Device_Library/Class/winUsb/Src/usbd_winUsb.c **** 
 1263              		.loc 1 531 52 view .LVU356
 1264 0024 4365     		str	r3, [r0, #84]
 534:Middlewares/ST/STM32_USB_Device_Library/Class/winUsb/Src/usbd_winUsb.c **** 
 1265              		.loc 1 534 5 is_stmt 1 view .LVU357
 534:Middlewares/ST/STM32_USB_Device_Library/Class/winUsb/Src/usbd_winUsb.c **** 
 1266              		.loc 1 534 11 is_stmt 0 view .LVU358
 1267 0026 D2F81032 		ldr	r3, [r2, #528]
 1268 002a D2F80822 		ldr	r2, [r2, #520]
 1269              	.LVL115:
 534:Middlewares/ST/STM32_USB_Device_Library/Class/winUsb/Src/usbd_winUsb.c **** 
 1270              		.loc 1 534 11 view .LVU359
 1271 002e 8321     		movs	r1, #131
 1272 0030 FFF7FEFF 		bl	USBD_LL_Transmit
 1273              	.LVL116:
 536:Middlewares/ST/STM32_USB_Device_Library/Class/winUsb/Src/usbd_winUsb.c ****   }
 1274              		.loc 1 536 5 is_stmt 1 view .LVU360
 536:Middlewares/ST/STM32_USB_Device_Library/Class/winUsb/Src/usbd_winUsb.c ****   }
 1275              		.loc 1 536 9 is_stmt 0 view .LVU361
 1276 0034 0020     		movs	r0, #0
 1277 0036 EFE7     		b	.L87
 1278              	.LVL117:
 1279              	.L88:
 522:Middlewares/ST/STM32_USB_Device_Library/Class/winUsb/Src/usbd_winUsb.c ****   }
 1280              		.loc 1 522 12 view .LVU362
 1281 0038 0320     		movs	r0, #3
 1282              	.LVL118:
 522:Middlewares/ST/STM32_USB_Device_Library/Class/winUsb/Src/usbd_winUsb.c ****   }
 1283              		.loc 1 522 12 view .LVU363
 1284 003a EDE7     		b	.L87
 1285              		.cfi_endproc
 1286              	.LFE152:
 1288              		.section	.text.WinUsb_Transmit_FS,"ax",%progbits
 1289              		.align	1
 1290              		.global	WinUsb_Transmit_FS
 1291              		.syntax unified
 1292              		.thumb
 1293              		.thumb_func
 1295              	WinUsb_Transmit_FS:
 1296              	.LVL119:
 1297              	.LFB155:
 562:Middlewares/ST/STM32_USB_Device_Library/Class/winUsb/Src/usbd_winUsb.c ****   uint8_t result = USBD_OK;
 1298              		.loc 1 562 1 is_stmt 1 view -0
 1299              		.cfi_startproc
 1300              		@ args = 0, pretend = 0, frame = 0
 1301              		@ frame_needed = 0, uses_anonymous_args = 0
 563:Middlewares/ST/STM32_USB_Device_Library/Class/winUsb/Src/usbd_winUsb.c ****   /* USER CODE BEGIN 7 */
 1302              		.loc 1 563 3 view .LVU365
ARM GAS  C:\Users\ADMINI~1\AppData\Local\Temp\ccslNEp2.s 			page 40


 565:Middlewares/ST/STM32_USB_Device_Library/Class/winUsb/Src/usbd_winUsb.c ****   if (hcdc->TxState != 0){
 1303              		.loc 1 565 3 view .LVU366
 565:Middlewares/ST/STM32_USB_Device_Library/Class/winUsb/Src/usbd_winUsb.c ****   if (hcdc->TxState != 0){
 1304              		.loc 1 565 30 is_stmt 0 view .LVU367
 1305 0000 094B     		ldr	r3, .L100
 1306 0002 D3F8C832 		ldr	r3, [r3, #712]
 1307              	.LVL120:
 566:Middlewares/ST/STM32_USB_Device_Library/Class/winUsb/Src/usbd_winUsb.c ****     return USBD_BUSY;
 1308              		.loc 1 566 3 is_stmt 1 view .LVU368
 566:Middlewares/ST/STM32_USB_Device_Library/Class/winUsb/Src/usbd_winUsb.c ****     return USBD_BUSY;
 1309              		.loc 1 566 11 is_stmt 0 view .LVU369
 1310 0006 D3F81432 		ldr	r3, [r3, #532]
 1311              	.LVL121:
 566:Middlewares/ST/STM32_USB_Device_Library/Class/winUsb/Src/usbd_winUsb.c ****     return USBD_BUSY;
 1312              		.loc 1 566 6 view .LVU370
 1313 000a 0BB1     		cbz	r3, .L99
 567:Middlewares/ST/STM32_USB_Device_Library/Class/winUsb/Src/usbd_winUsb.c ****   }
 1314              		.loc 1 567 12 view .LVU371
 1315 000c 0120     		movs	r0, #1
 1316              	.LVL122:
 573:Middlewares/ST/STM32_USB_Device_Library/Class/winUsb/Src/usbd_winUsb.c **** static int8_t WinUsb_Receive_FS(uint8_t* Buf, uint32_t *Len)
 1317              		.loc 1 573 1 view .LVU372
 1318 000e 7047     		bx	lr
 1319              	.LVL123:
 1320              	.L99:
 562:Middlewares/ST/STM32_USB_Device_Library/Class/winUsb/Src/usbd_winUsb.c ****   uint8_t result = USBD_OK;
 1321              		.loc 1 562 1 view .LVU373
 1322 0010 10B5     		push	{r4, lr}
 1323              	.LCFI14:
 1324              		.cfi_def_cfa_offset 8
 1325              		.cfi_offset 4, -8
 1326              		.cfi_offset 14, -4
 569:Middlewares/ST/STM32_USB_Device_Library/Class/winUsb/Src/usbd_winUsb.c ****   result = USBD_WinUsb_TransmitPacket(&hUsbDeviceHS);
 1327              		.loc 1 569 3 is_stmt 1 view .LVU374
 1328 0012 054C     		ldr	r4, .L100
 1329              	.LVL124:
 569:Middlewares/ST/STM32_USB_Device_Library/Class/winUsb/Src/usbd_winUsb.c ****   result = USBD_WinUsb_TransmitPacket(&hUsbDeviceHS);
 1330              		.loc 1 569 3 is_stmt 0 view .LVU375
 1331 0014 0A46     		mov	r2, r1
 1332 0016 0146     		mov	r1, r0
 1333              	.LVL125:
 569:Middlewares/ST/STM32_USB_Device_Library/Class/winUsb/Src/usbd_winUsb.c ****   result = USBD_WinUsb_TransmitPacket(&hUsbDeviceHS);
 1334              		.loc 1 569 3 view .LVU376
 1335 0018 2046     		mov	r0, r4
 1336              	.LVL126:
 569:Middlewares/ST/STM32_USB_Device_Library/Class/winUsb/Src/usbd_winUsb.c ****   result = USBD_WinUsb_TransmitPacket(&hUsbDeviceHS);
 1337              		.loc 1 569 3 view .LVU377
 1338 001a FFF7FEFF 		bl	USBD_WinUsb_SetTxBuffer
 1339              	.LVL127:
 570:Middlewares/ST/STM32_USB_Device_Library/Class/winUsb/Src/usbd_winUsb.c ****   /* USER CODE END 7 */
 1340              		.loc 1 570 3 is_stmt 1 view .LVU378
 570:Middlewares/ST/STM32_USB_Device_Library/Class/winUsb/Src/usbd_winUsb.c ****   /* USER CODE END 7 */
 1341              		.loc 1 570 12 is_stmt 0 view .LVU379
 1342 001e 2046     		mov	r0, r4
 1343 0020 FFF7FEFF 		bl	USBD_WinUsb_TransmitPacket
 1344              	.LVL128:
 572:Middlewares/ST/STM32_USB_Device_Library/Class/winUsb/Src/usbd_winUsb.c **** }
ARM GAS  C:\Users\ADMINI~1\AppData\Local\Temp\ccslNEp2.s 			page 41


 1345              		.loc 1 572 3 is_stmt 1 view .LVU380
 573:Middlewares/ST/STM32_USB_Device_Library/Class/winUsb/Src/usbd_winUsb.c **** static int8_t WinUsb_Receive_FS(uint8_t* Buf, uint32_t *Len)
 1346              		.loc 1 573 1 is_stmt 0 view .LVU381
 1347 0024 10BD     		pop	{r4, pc}
 1348              	.L101:
 1349 0026 00BF     		.align	2
 1350              	.L100:
 1351 0028 00000000 		.word	hUsbDeviceHS
 1352              		.cfi_endproc
 1353              	.LFE155:
 1355              		.section	.text.USBD_WinUsb_RegisterInterface,"ax",%progbits
 1356              		.align	1
 1357              		.global	USBD_WinUsb_RegisterInterface
 1358              		.syntax unified
 1359              		.thumb
 1360              		.thumb_func
 1362              	USBD_WinUsb_RegisterInterface:
 1363              	.LVL129:
 1364              	.LFB158:
 610:Middlewares/ST/STM32_USB_Device_Library/Class/winUsb/Src/usbd_winUsb.c **** USBD_WinUsb_ItfTypeDef USBD_WinUsb_Interface_fops_FS =
 611:Middlewares/ST/STM32_USB_Device_Library/Class/winUsb/Src/usbd_winUsb.c **** {
 612:Middlewares/ST/STM32_USB_Device_Library/Class/winUsb/Src/usbd_winUsb.c ****   WinUsb_Init_FS,
 613:Middlewares/ST/STM32_USB_Device_Library/Class/winUsb/Src/usbd_winUsb.c ****   WinUsb_DeInit_FS, 
 614:Middlewares/ST/STM32_USB_Device_Library/Class/winUsb/Src/usbd_winUsb.c ****   WinUsb_Receive_FS,
 615:Middlewares/ST/STM32_USB_Device_Library/Class/winUsb/Src/usbd_winUsb.c ****   WinUsb_TransmitCplt_FS
 616:Middlewares/ST/STM32_USB_Device_Library/Class/winUsb/Src/usbd_winUsb.c **** };
 617:Middlewares/ST/STM32_USB_Device_Library/Class/winUsb/Src/usbd_winUsb.c **** 
 618:Middlewares/ST/STM32_USB_Device_Library/Class/winUsb/Src/usbd_winUsb.c **** 
 619:Middlewares/ST/STM32_USB_Device_Library/Class/winUsb/Src/usbd_winUsb.c **** uint8_t USBD_WinUsb_RegisterInterface(USBD_HandleTypeDef *pdev,
 620:Middlewares/ST/STM32_USB_Device_Library/Class/winUsb/Src/usbd_winUsb.c ****                                    USBD_WinUsb_ItfTypeDef *fops)
 621:Middlewares/ST/STM32_USB_Device_Library/Class/winUsb/Src/usbd_winUsb.c **** {
 1365              		.loc 1 621 1 is_stmt 1 view -0
 1366              		.cfi_startproc
 1367              		@ args = 0, pretend = 0, frame = 0
 1368              		@ frame_needed = 0, uses_anonymous_args = 0
 1369              		@ link register save eliminated.
 622:Middlewares/ST/STM32_USB_Device_Library/Class/winUsb/Src/usbd_winUsb.c ****   if (fops == NULL)
 1370              		.loc 1 622 3 view .LVU383
 1371              		.loc 1 622 6 is_stmt 0 view .LVU384
 1372 0000 81B1     		cbz	r1, .L104
 621:Middlewares/ST/STM32_USB_Device_Library/Class/winUsb/Src/usbd_winUsb.c ****   if (fops == NULL)
 1373              		.loc 1 621 1 view .LVU385
 1374 0002 10B4     		push	{r4}
 1375              	.LCFI15:
 1376              		.cfi_def_cfa_offset 4
 1377              		.cfi_offset 4, -4
 623:Middlewares/ST/STM32_USB_Device_Library/Class/winUsb/Src/usbd_winUsb.c ****   {
 624:Middlewares/ST/STM32_USB_Device_Library/Class/winUsb/Src/usbd_winUsb.c ****     return (uint8_t)USBD_FAIL;
 625:Middlewares/ST/STM32_USB_Device_Library/Class/winUsb/Src/usbd_winUsb.c ****   }
 626:Middlewares/ST/STM32_USB_Device_Library/Class/winUsb/Src/usbd_winUsb.c ****   
 627:Middlewares/ST/STM32_USB_Device_Library/Class/winUsb/Src/usbd_winUsb.c ****   pdev->classId --;
 1378              		.loc 1 627 3 is_stmt 1 view .LVU386
 1379              		.loc 1 627 7 is_stmt 0 view .LVU387
 1380 0004 D0F8F832 		ldr	r3, [r0, #760]
 1381              		.loc 1 627 17 view .LVU388
 1382 0008 5A1E     		subs	r2, r3, #1
 1383 000a C0F8F822 		str	r2, [r0, #760]
ARM GAS  C:\Users\ADMINI~1\AppData\Local\Temp\ccslNEp2.s 			page 42


 628:Middlewares/ST/STM32_USB_Device_Library/Class/winUsb/Src/usbd_winUsb.c ****   pdev->pUserData[pdev->classId] = fops;
 1384              		.loc 1 628 3 is_stmt 1 view .LVU389
 1385              		.loc 1 628 34 is_stmt 0 view .LVU390
 1386 000e 03F1B502 		add	r2, r3, #181
 1387 0012 00EB8202 		add	r2, r0, r2, lsl #2
 1388 0016 5160     		str	r1, [r2, #4]
 629:Middlewares/ST/STM32_USB_Device_Library/Class/winUsb/Src/usbd_winUsb.c ****  
 630:Middlewares/ST/STM32_USB_Device_Library/Class/winUsb/Src/usbd_winUsb.c ****   pdev->classId ++;
 1389              		.loc 1 630 3 is_stmt 1 view .LVU391
 1390              		.loc 1 630 17 is_stmt 0 view .LVU392
 1391 0018 C0F8F832 		str	r3, [r0, #760]
 631:Middlewares/ST/STM32_USB_Device_Library/Class/winUsb/Src/usbd_winUsb.c ****   return (uint8_t)USBD_OK;
 1392              		.loc 1 631 3 is_stmt 1 view .LVU393
 1393              		.loc 1 631 10 is_stmt 0 view .LVU394
 1394 001c 0020     		movs	r0, #0
 1395              	.LVL130:
 632:Middlewares/ST/STM32_USB_Device_Library/Class/winUsb/Src/usbd_winUsb.c **** }
 1396              		.loc 1 632 1 view .LVU395
 1397 001e 5DF8044B 		ldr	r4, [sp], #4
 1398              	.LCFI16:
 1399              		.cfi_restore 4
 1400              		.cfi_def_cfa_offset 0
 1401 0022 7047     		bx	lr
 1402              	.LVL131:
 1403              	.L104:
 624:Middlewares/ST/STM32_USB_Device_Library/Class/winUsb/Src/usbd_winUsb.c ****   }
 1404              		.loc 1 624 12 view .LVU396
 1405 0024 0320     		movs	r0, #3
 1406              	.LVL132:
 1407              		.loc 1 632 1 view .LVU397
 1408 0026 7047     		bx	lr
 1409              		.cfi_endproc
 1410              	.LFE158:
 1412              		.global	USBD_WinUsb_Interface_fops_FS
 1413              		.global	usbBuffer
 1414              		.global	USBD_WinUSBComm_Extended_Properties_OS_Desc
 1415              		.global	USBD_WinUSBComm_Extended_Compat_ID_OS_Desc
 1416              		.global	USBD_WinUsb
 1417              		.section	.bss.usbBuffer,"aw",%nobits
 1418              		.align	2
 1421              	usbBuffer:
 1422 0000 00000000 		.space	86504
 1422      00000000 
 1422      00000000 
 1422      00000000 
 1422      00000000 
 1423              		.section	.data.USBD_WinUSBComm_Extended_Compat_ID_OS_Desc,"aw"
 1424              		.align	2
 1425              		.set	.LANCHOR0,. + 0
 1428              	USBD_WinUSBComm_Extended_Compat_ID_OS_Desc:
 1429 0000 28000000 		.ascii	"(\000\000\000\000\001\004\000\001\000\000\000\000\000"
 1429      00010400 
 1429      01000000 
 1429      0000
 1430 000e 00000100 		.ascii	"\000\000\001\000WINUSB\000\000\000\000\000\000\000\000"
 1430      57494E55 
 1430      53420000 
ARM GAS  C:\Users\ADMINI~1\AppData\Local\Temp\ccslNEp2.s 			page 43


 1430      00000000 
 1430      0000
 1431 0020 00000000 		.ascii	"\000\000\000\000\000\000\000\000"
 1431      00000000 
 1432              		.section	.data.USBD_WinUSBComm_Extended_Properties_OS_Desc,"aw"
 1433              		.align	2
 1434              		.set	.LANCHOR1,. + 0
 1437              	USBD_WinUSBComm_Extended_Properties_OS_Desc:
 1438 0000 B6000000 		.ascii	"\266\000\000\000\000\001\005\000\002\000\204\000\000"
 1438      00010500 
 1438      02008400 
 1438      00
 1439 000d 00010000 		.ascii	"\000\001\000\000\000(\000D\000e\000v\000i\000c\000e"
 1439      00280044 
 1439      00650076 
 1439      00690063 
 1439      0065
 1440 001f 0049006E 		.ascii	"\000I\000n\000t\000e\000r\000f\000a\000c\000e\000G\000"
 1440      00740065 
 1440      00720066 
 1440      00610063 
 1440      00650047 
 1441 0034 55004900 		.ascii	"U\000I\000D\000\000\000N\000\000\000{\000E\000A\000"
 1441      44000000 
 1441      4E000000 
 1441      7B004500 
 1441      4100
 1442 0046 30004200 		.ascii	"0\000B\000D\0005\000C\0003\000-\0005\0000\000F\0003"
 1442      44003500 
 1442      43003300 
 1442      2D003500 
 1442      30004600 
 1443 005b 002D0034 		.ascii	"\000-\0004\0008\0008\0008\000-\0008\0004\000B\0004\000"
 1443      00380038 
 1443      0038002D 
 1443      00380034 
 1443      00420034 
 1444 0070 2D003700 		.ascii	"-\0007\0004\000E\0005\0000\000E\0001\0006\0004\0009"
 1444      34004500 
 1444      35003000 
 1444      45003100 
 1444      36003400 
 1445 0085 00440042 		.ascii	"\000D\000B\000}\000\000\000>\000\000\000\001\000\000"
 1445      007D0000 
 1445      003E0000 
 1445      00010000 
 1446 0095 000C004C 		.ascii	"\000\014\000L\000a\000b\000e\000l\000\000\000$\000\000"
 1446      00610062 
 1446      0065006C 
 1446      00000024 
 1446      0000
 1447 00a7 004F0044 		.ascii	"\000O\000D\000r\000i\000v\000e\000\000\000"
 1447      00720069 
 1447      00760065 
 1447      000000
 1448              		.section	.data.USBD_WinUsb,"aw"
 1449              		.align	2
ARM GAS  C:\Users\ADMINI~1\AppData\Local\Temp\ccslNEp2.s 			page 44


 1452              	USBD_WinUsb:
 1453 0000 00000000 		.word	USBD_WinUsb_Init
 1454 0004 00000000 		.word	USBD_WinUsb_DeInit
 1455 0008 00000000 		.word	USBD_WinUsb_Setup
 1456 000c 00000000 		.word	0
 1457 0010 00000000 		.word	USBD_WinUsb_EP0_RxReady
 1458 0014 00000000 		.word	USBD_WinUsb_DataIn
 1459 0018 00000000 		.word	USBD_WinUsb_DataOut
 1460 001c 00000000 		.word	0
 1461 0020 00000000 		.word	0
 1462 0024 00000000 		.word	0
 1463 0028 00000000 		.word	0
 1464 002c 00000000 		.word	0
 1465 0030 00000000 		.word	0
 1466 0034 00000000 		.word	0
 1467 0038 00000000 		.word	USBD_UsrStrDescriptor
 1468              		.section	.data.USBD_WinUsb_Interface_fops_FS,"aw"
 1469              		.align	2
 1472              	USBD_WinUsb_Interface_fops_FS:
 1473 0000 00000000 		.word	WinUsb_Init_FS
 1474 0004 00000000 		.word	WinUsb_DeInit_FS
 1475 0008 00000000 		.word	WinUsb_Receive_FS
 1476 000c 00000000 		.word	WinUsb_TransmitCplt_FS
 1477              		.text
 1478              	.Letext0:
 1479              		.file 2 "c:\\program files (x86)\\gnu arm embedded toolchain\\10 2021.10\\arm-none-eabi\\include\\
 1480              		.file 3 "c:\\program files (x86)\\gnu arm embedded toolchain\\10 2021.10\\arm-none-eabi\\include\\
 1481              		.file 4 "Drivers/CMSIS/Device/ST/STM32F4xx/Include/stm32f405xx.h"
 1482              		.file 5 "Drivers/STM32F4xx_HAL_Driver/Inc/stm32f4xx_hal_def.h"
 1483              		.file 6 "Drivers/STM32F4xx_HAL_Driver/Inc/stm32f4xx_ll_usb.h"
 1484              		.file 7 "Drivers/STM32F4xx_HAL_Driver/Inc/stm32f4xx_hal_pcd.h"
 1485              		.file 8 "Middlewares/ST/STM32_USB_Device_Library/Core/Inc/usbd_def.h"
 1486              		.file 9 "Middlewares/ST/STM32_USB_Device_Library/Class/winUsb/Inc/usbd_winUsb.h"
 1487              		.file 10 "user/common_inc.h"
 1488              		.file 11 "Middlewares/ST/STM32_USB_Device_Library/Core/Inc/usbd_core.h"
 1489              		.file 12 "Middlewares/ST/STM32_USB_Device_Library/Core/Inc/usbd_ctlreq.h"
 1490              		.file 13 "c:\\program files (x86)\\gnu arm embedded toolchain\\10 2021.10\\arm-none-eabi\\include\
 1491              		.file 14 "Middlewares/ST/STM32_USB_Device_Library/Core/Inc/usbd_ioreq.h"
 1492              		.file 15 "<built-in>"
ARM GAS  C:\Users\ADMINI~1\AppData\Local\Temp\ccslNEp2.s 			page 45


DEFINED SYMBOLS
                            *ABS*:00000000 usbd_winUsb.c
C:\Users\ADMINI~1\AppData\Local\Temp\ccslNEp2.s:20     .text.USBD_WinUsb_EP0_RxReady:00000000 $t
C:\Users\ADMINI~1\AppData\Local\Temp\ccslNEp2.s:25     .text.USBD_WinUsb_EP0_RxReady:00000000 USBD_WinUsb_EP0_RxReady
C:\Users\ADMINI~1\AppData\Local\Temp\ccslNEp2.s:44     .text.WinUsb_DeInit_FS:00000000 $t
C:\Users\ADMINI~1\AppData\Local\Temp\ccslNEp2.s:49     .text.WinUsb_DeInit_FS:00000000 WinUsb_DeInit_FS
C:\Users\ADMINI~1\AppData\Local\Temp\ccslNEp2.s:64     .text.WinUsb_TransmitCplt_FS:00000000 $t
C:\Users\ADMINI~1\AppData\Local\Temp\ccslNEp2.s:69     .text.WinUsb_TransmitCplt_FS:00000000 WinUsb_TransmitCplt_FS
C:\Users\ADMINI~1\AppData\Local\Temp\ccslNEp2.s:91     .text.USBD_WinUsb_DataOut:00000000 $t
C:\Users\ADMINI~1\AppData\Local\Temp\ccslNEp2.s:96     .text.USBD_WinUsb_DataOut:00000000 USBD_WinUsb_DataOut
C:\Users\ADMINI~1\AppData\Local\Temp\ccslNEp2.s:162    .text.USBD_WinUsb_DataIn:00000000 $t
C:\Users\ADMINI~1\AppData\Local\Temp\ccslNEp2.s:167    .text.USBD_WinUsb_DataIn:00000000 USBD_WinUsb_DataIn
C:\Users\ADMINI~1\AppData\Local\Temp\ccslNEp2.s:289    .text.USBD_WinUSBComm_SetupVendorDevice:00000000 $t
C:\Users\ADMINI~1\AppData\Local\Temp\ccslNEp2.s:294    .text.USBD_WinUSBComm_SetupVendorDevice:00000000 USBD_WinUSBComm_SetupVendorDevice
C:\Users\ADMINI~1\AppData\Local\Temp\ccslNEp2.s:318    .text.USBD_WinUSBComm_SetupVendorInterface:00000000 $t
C:\Users\ADMINI~1\AppData\Local\Temp\ccslNEp2.s:323    .text.USBD_WinUSBComm_SetupVendorInterface:00000000 USBD_WinUSBComm_SetupVendorInterface
C:\Users\ADMINI~1\AppData\Local\Temp\ccslNEp2.s:347    .text.USBD_WinUSBComm_GetMSExtendedCompatIDOSDescriptor:00000000 $t
C:\Users\ADMINI~1\AppData\Local\Temp\ccslNEp2.s:352    .text.USBD_WinUSBComm_GetMSExtendedCompatIDOSDescriptor:00000000 USBD_WinUSBComm_GetMSExtendedCompatIDOSDescriptor
C:\Users\ADMINI~1\AppData\Local\Temp\ccslNEp2.s:397    .text.USBD_WinUSBComm_GetMSExtendedCompatIDOSDescriptor:0000001c $d
C:\Users\ADMINI~1\AppData\Local\Temp\ccslNEp2.s:402    .text.USBD_WinUSBComm_GetMSExtendedPropertiesOSDescriptor:00000000 $t
C:\Users\ADMINI~1\AppData\Local\Temp\ccslNEp2.s:407    .text.USBD_WinUSBComm_GetMSExtendedPropertiesOSDescriptor:00000000 USBD_WinUSBComm_GetMSExtendedPropertiesOSDescriptor
C:\Users\ADMINI~1\AppData\Local\Temp\ccslNEp2.s:470    .text.USBD_WinUSBComm_GetMSExtendedPropertiesOSDescriptor:00000028 $d
C:\Users\ADMINI~1\AppData\Local\Temp\ccslNEp2.s:475    .text.USBD_WinUSBComm_SetupVendor:00000000 $t
C:\Users\ADMINI~1\AppData\Local\Temp\ccslNEp2.s:480    .text.USBD_WinUSBComm_SetupVendor:00000000 USBD_WinUSBComm_SetupVendor
C:\Users\ADMINI~1\AppData\Local\Temp\ccslNEp2.s:555    .text.USBD_WinUsb_Setup:00000000 $t
C:\Users\ADMINI~1\AppData\Local\Temp\ccslNEp2.s:560    .text.USBD_WinUsb_Setup:00000000 USBD_WinUsb_Setup
C:\Users\ADMINI~1\AppData\Local\Temp\ccslNEp2.s:625    .text.USBD_WinUsb_DeInit:00000000 $t
C:\Users\ADMINI~1\AppData\Local\Temp\ccslNEp2.s:630    .text.USBD_WinUsb_DeInit:00000000 USBD_WinUsb_DeInit
C:\Users\ADMINI~1\AppData\Local\Temp\ccslNEp2.s:713    .text.USBD_WinUsb_Init:00000000 $t
C:\Users\ADMINI~1\AppData\Local\Temp\ccslNEp2.s:718    .text.USBD_WinUsb_Init:00000000 USBD_WinUsb_Init
C:\Users\ADMINI~1\AppData\Local\Temp\ccslNEp2.s:887    .text.USBD_WinUsb_SetTxBuffer:00000000 $t
C:\Users\ADMINI~1\AppData\Local\Temp\ccslNEp2.s:893    .text.USBD_WinUsb_SetTxBuffer:00000000 USBD_WinUsb_SetTxBuffer
C:\Users\ADMINI~1\AppData\Local\Temp\ccslNEp2.s:933    .text.USBD_WinUsb_SetRxBuffer:00000000 $t
C:\Users\ADMINI~1\AppData\Local\Temp\ccslNEp2.s:939    .text.USBD_WinUsb_SetRxBuffer:00000000 USBD_WinUsb_SetRxBuffer
C:\Users\ADMINI~1\AppData\Local\Temp\ccslNEp2.s:976    .text.WinUsb_Init_FS:00000000 $t
C:\Users\ADMINI~1\AppData\Local\Temp\ccslNEp2.s:981    .text.WinUsb_Init_FS:00000000 WinUsb_Init_FS
C:\Users\ADMINI~1\AppData\Local\Temp\ccslNEp2.s:1034   .text.WinUsb_Init_FS:0000003c $d
C:\Users\ADMINI~1\AppData\Local\Temp\ccslNEp2.s:1421   .bss.usbBuffer:00000000 usbBuffer
C:\Users\ADMINI~1\AppData\Local\Temp\ccslNEp2.s:1040   .text.USBD_WinUsb_ReceivePacket:00000000 $t
C:\Users\ADMINI~1\AppData\Local\Temp\ccslNEp2.s:1046   .text.USBD_WinUsb_ReceivePacket:00000000 USBD_WinUsb_ReceivePacket
C:\Users\ADMINI~1\AppData\Local\Temp\ccslNEp2.s:1111   .text.WinUsb_Receive_FS:00000000 $t
C:\Users\ADMINI~1\AppData\Local\Temp\ccslNEp2.s:1116   .text.WinUsb_Receive_FS:00000000 WinUsb_Receive_FS
C:\Users\ADMINI~1\AppData\Local\Temp\ccslNEp2.s:1205   .text.WinUsb_Receive_FS:00000078 $d
C:\Users\ADMINI~1\AppData\Local\Temp\ccslNEp2.s:1212   .text.USBD_WinUsb_TransmitPacket:00000000 $t
C:\Users\ADMINI~1\AppData\Local\Temp\ccslNEp2.s:1218   .text.USBD_WinUsb_TransmitPacket:00000000 USBD_WinUsb_TransmitPacket
C:\Users\ADMINI~1\AppData\Local\Temp\ccslNEp2.s:1289   .text.WinUsb_Transmit_FS:00000000 $t
C:\Users\ADMINI~1\AppData\Local\Temp\ccslNEp2.s:1295   .text.WinUsb_Transmit_FS:00000000 WinUsb_Transmit_FS
C:\Users\ADMINI~1\AppData\Local\Temp\ccslNEp2.s:1351   .text.WinUsb_Transmit_FS:00000028 $d
C:\Users\ADMINI~1\AppData\Local\Temp\ccslNEp2.s:1356   .text.USBD_WinUsb_RegisterInterface:00000000 $t
C:\Users\ADMINI~1\AppData\Local\Temp\ccslNEp2.s:1362   .text.USBD_WinUsb_RegisterInterface:00000000 USBD_WinUsb_RegisterInterface
C:\Users\ADMINI~1\AppData\Local\Temp\ccslNEp2.s:1472   .data.USBD_WinUsb_Interface_fops_FS:00000000 USBD_WinUsb_Interface_fops_FS
C:\Users\ADMINI~1\AppData\Local\Temp\ccslNEp2.s:1437   .data.USBD_WinUSBComm_Extended_Properties_OS_Desc:00000000 USBD_WinUSBComm_Extended_Properties_OS_Desc
C:\Users\ADMINI~1\AppData\Local\Temp\ccslNEp2.s:1428   .data.USBD_WinUSBComm_Extended_Compat_ID_OS_Desc:00000000 USBD_WinUSBComm_Extended_Compat_ID_OS_Desc
C:\Users\ADMINI~1\AppData\Local\Temp\ccslNEp2.s:1452   .data.USBD_WinUsb:00000000 USBD_WinUsb
C:\Users\ADMINI~1\AppData\Local\Temp\ccslNEp2.s:1418   .bss.usbBuffer:00000000 $d
C:\Users\ADMINI~1\AppData\Local\Temp\ccslNEp2.s:1424   .data.USBD_WinUSBComm_Extended_Compat_ID_OS_Desc:00000000 $d
C:\Users\ADMINI~1\AppData\Local\Temp\ccslNEp2.s:1433   .data.USBD_WinUSBComm_Extended_Properties_OS_Desc:00000000 $d
ARM GAS  C:\Users\ADMINI~1\AppData\Local\Temp\ccslNEp2.s 			page 46


C:\Users\ADMINI~1\AppData\Local\Temp\ccslNEp2.s:1449   .data.USBD_WinUsb:00000000 $d
C:\Users\ADMINI~1\AppData\Local\Temp\ccslNEp2.s:1469   .data.USBD_WinUsb_Interface_fops_FS:00000000 $d

UNDEFINED SYMBOLS
USBD_LL_GetRxDataSize
USBD_LL_Transmit
USBD_CtlError
USBD_CtlSendData
USBD_LL_CloseEP
free
malloc
memset
USBD_LL_OpenEP
USBD_LL_PrepareReceive
hUsbDeviceHS
USBD_UsrStrDescriptor
