ARM GAS  C:\Users\ADMINI~1\AppData\Local\Temp\ccMoVhCc.s 			page 1


   1              		.cpu cortex-m4
   2              		.arch armv7e-m
   3              		.fpu fpv4-sp-d16
   4              		.eabi_attribute 27, 1
   5              		.eabi_attribute 28, 1
   6              		.eabi_attribute 20, 1
   7              		.eabi_attribute 21, 1
   8              		.eabi_attribute 23, 3
   9              		.eabi_attribute 24, 1
  10              		.eabi_attribute 25, 1
  11              		.eabi_attribute 26, 1
  12              		.eabi_attribute 30, 1
  13              		.eabi_attribute 34, 1
  14              		.eabi_attribute 18, 4
  15              		.file	"usbd_composite.c"
  16              		.text
  17              	.Ltext0:
  18              		.cfi_sections	.debug_frame
  19              		.section	.text.USBD_CMPSIT_FS_DeviceDescriptor,"ax",%progbits
  20              		.align	1
  21              		.global	USBD_CMPSIT_FS_DeviceDescriptor
  22              		.syntax unified
  23              		.thumb
  24              		.thumb_func
  26              	USBD_CMPSIT_FS_DeviceDescriptor:
  27              	.LVL0:
  28              	.LFB134:
  29              		.file 1 "Src/usbd_composite.c"
   1:Src/usbd_composite.c **** #include "usbd_composite.h"
   2:Src/usbd_composite.c **** #include "usbd_conf.h"
   3:Src/usbd_composite.c **** #include "usbd_def.h"
   4:Src/usbd_composite.c **** #include "usbd_msc.h"
   5:Src/usbd_composite.c **** #include "usbd_winUsb.h"
   6:Src/usbd_composite.c **** 
   7:Src/usbd_composite.c **** #include "usbd_core.h"
   8:Src/usbd_composite.c **** #include "usbd_desc.h"
   9:Src/usbd_composite.c **** 
  10:Src/usbd_composite.c **** 
  11:Src/usbd_composite.c **** 
  12:Src/usbd_composite.c **** #include <stdio.h>
  13:Src/usbd_composite.c **** 
  14:Src/usbd_composite.c **** #define USBD_PRODUCT_XSTR(s) USBD_PRODUCT_STR(s)
  15:Src/usbd_composite.c **** #define USBD_PRODUCT_STR(s) #s
  16:Src/usbd_composite.c **** 
  17:Src/usbd_composite.c **** 
  18:Src/usbd_composite.c **** #if 1
  19:Src/usbd_composite.c **** #define USBD_CMPSIT_VID     0x1214
  20:Src/usbd_composite.c **** #define USBD_CMPSIT_LANGID_STRING     1033
  21:Src/usbd_composite.c **** #define USBD_CMPSIT_MANUFACTURER_STRING     "wenyz@wolfGroup"
  22:Src/usbd_composite.c **** #define USBD_CMPSIT_PID_FS     0x0D3A
  23:Src/usbd_composite.c **** #define USBD_CMPSIT_PRODUCT_STRING_FS     "STM32 composite product"
  24:Src/usbd_composite.c **** #define USBD_CMPSIT_CONFIGURATION_STRING_FS     "Composite Config"
  25:Src/usbd_composite.c **** #define USBD_CMPSIT_INTERFACE_STRING_FS     "Composite Interface"
  26:Src/usbd_composite.c **** #else
  27:Src/usbd_composite.c **** #define USBD_CMPSIT_VID     1223
  28:Src/usbd_composite.c **** #define USBD_CMPSIT_LANGID_STRING     1033
  29:Src/usbd_composite.c **** #define USBD_CMPSIT_MANUFACTURER_STRING     "test"
ARM GAS  C:\Users\ADMINI~1\AppData\Local\Temp\ccMoVhCc.s 			page 2


  30:Src/usbd_composite.c **** #define USBD_CMPSIT_PID_FS     55663
  31:Src/usbd_composite.c **** #define USBD_CMPSIT_PRODUCT_STRING_FS     "test"
  32:Src/usbd_composite.c **** #define USBD_CMPSIT_CONFIGURATION_STRING_FS     "test Config"
  33:Src/usbd_composite.c **** #define USBD_CMPSIT_INTERFACE_STRING_FS     "test Interface"
  34:Src/usbd_composite.c **** #endif
  35:Src/usbd_composite.c **** 
  36:Src/usbd_composite.c **** #define USBD_MSC_INTERFACE_STRING_FS     "MSC Interface"
  37:Src/usbd_composite.c **** #define USBD_WIN_USB_INTERFACE_STRING_FS  Electronbot Native Interface
  38:Src/usbd_composite.c **** 
  39:Src/usbd_composite.c **** 
  40:Src/usbd_composite.c **** uint8_t * USBD_CMPSIT_FS_DeviceDescriptor(USBD_SpeedTypeDef speed, uint16_t *length);
  41:Src/usbd_composite.c **** uint8_t * USBD_CMPSIT_FS_LangIDStrDescriptor(USBD_SpeedTypeDef speed, uint16_t *length);
  42:Src/usbd_composite.c **** uint8_t * USBD_CMPSIT_FS_ManufacturerStrDescriptor(USBD_SpeedTypeDef speed, uint16_t *length);
  43:Src/usbd_composite.c **** uint8_t * USBD_CMPSIT_FS_ProductStrDescriptor(USBD_SpeedTypeDef speed, uint16_t *length);
  44:Src/usbd_composite.c **** uint8_t * USBD_CMPSIT_FS_SerialStrDescriptor(USBD_SpeedTypeDef speed, uint16_t *length);
  45:Src/usbd_composite.c **** uint8_t * USBD_CMPSIT_FS_ConfigStrDescriptor(USBD_SpeedTypeDef speed, uint16_t *length);
  46:Src/usbd_composite.c **** uint8_t * USBD_CMPSIT_FS_InterfaceStrDescriptor(USBD_SpeedTypeDef speed, uint16_t *length);
  47:Src/usbd_composite.c **** #if (USBD_LPM_ENABLED == 1)
  48:Src/usbd_composite.c **** uint8_t * USBD_CMPSIT_FS_USR_BOSDescriptor(USBD_SpeedTypeDef speed, uint16_t *length);
  49:Src/usbd_composite.c **** #endif /* (USBD_LPM_ENABLED == 1) */
  50:Src/usbd_composite.c **** 
  51:Src/usbd_composite.c **** 
  52:Src/usbd_composite.c **** USBD_DescriptorsTypeDef usbCmpsitFS_Desc =
  53:Src/usbd_composite.c **** {
  54:Src/usbd_composite.c ****   USBD_CMPSIT_FS_DeviceDescriptor
  55:Src/usbd_composite.c **** , USBD_CMPSIT_FS_LangIDStrDescriptor
  56:Src/usbd_composite.c **** , USBD_CMPSIT_FS_ManufacturerStrDescriptor
  57:Src/usbd_composite.c **** , USBD_CMPSIT_FS_ProductStrDescriptor
  58:Src/usbd_composite.c **** , USBD_CMPSIT_FS_SerialStrDescriptor
  59:Src/usbd_composite.c **** , USBD_CMPSIT_FS_ConfigStrDescriptor
  60:Src/usbd_composite.c **** , USBD_CMPSIT_FS_InterfaceStrDescriptor
  61:Src/usbd_composite.c **** #if (USBD_LPM_ENABLED == 1)
  62:Src/usbd_composite.c **** , USBD_CMPSIT_FS_USR_BOSDescriptor
  63:Src/usbd_composite.c **** #endif /* (USBD_LPM_ENABLED == 1) */
  64:Src/usbd_composite.c **** };
  65:Src/usbd_composite.c **** 
  66:Src/usbd_composite.c **** __ALIGN_BEGIN uint8_t USBD_CMPSIT_FS_DeviceDesc[USB_LEN_DEV_DESC] __ALIGN_END =
  67:Src/usbd_composite.c **** {
  68:Src/usbd_composite.c **** 	0x12,						/*bLength */
  69:Src/usbd_composite.c **** 	USB_DESC_TYPE_DEVICE, 	  /*bDescriptorType*/
  70:Src/usbd_composite.c **** #if (USBD_LPM_ENABLED == 1)
  71:Src/usbd_composite.c **** 	0x01, 					  /*bcdUSB */ /* changed to USB version 2.01
  72:Src/usbd_composite.c **** 											 in order to support LPM L1 suspend
  73:Src/usbd_composite.c **** 											 resume test of USBCV3.0*/
  74:Src/usbd_composite.c **** #else
  75:Src/usbd_composite.c **** 	0x00, 					  /*bcdUSB */
  76:Src/usbd_composite.c **** #endif /* (USBD_LPM_ENABLED == 1) */
  77:Src/usbd_composite.c **** 	0x02,
  78:Src/usbd_composite.c **** 	// Notify OS that this is a composite device
  79:Src/usbd_composite.c **** 	0xEF, 					  /*bDeviceClass*/
  80:Src/usbd_composite.c **** 	0x02, 					  /*bDeviceSubClass*/
  81:Src/usbd_composite.c **** 	0x01, 					  /*bDeviceProtocol*/
  82:Src/usbd_composite.c **** 	USB_MAX_EP0_SIZE, 		  /*bMaxPacketSize*/
  83:Src/usbd_composite.c **** 	LOBYTE(USBD_CMPSIT_VID), 		  /*idVendor*/
  84:Src/usbd_composite.c **** 	HIBYTE(USBD_CMPSIT_VID), 		  /*idVendor*/
  85:Src/usbd_composite.c **** 	LOBYTE(USBD_CMPSIT_PID_FS),		  /*idProduct*/
  86:Src/usbd_composite.c **** 	HIBYTE(USBD_CMPSIT_PID_FS),		  /*idProduct*/
ARM GAS  C:\Users\ADMINI~1\AppData\Local\Temp\ccMoVhCc.s 			page 3


  87:Src/usbd_composite.c **** 	0x00, 					  /*bcdDevice rel. 2.00*/
  88:Src/usbd_composite.c **** 	0x02, 					  
  89:Src/usbd_composite.c **** 	USBD_IDX_MFC_STR, 		  /*Index of manufacturer  string*/
  90:Src/usbd_composite.c **** 	USBD_IDX_PRODUCT_STR, 	  /*Index of product string*/
  91:Src/usbd_composite.c **** 	USBD_IDX_SERIAL_STR,		  /*Index of serial number string*/
  92:Src/usbd_composite.c **** 	USBD_MAX_NUM_CONFIGURATION  /*bNumConfigurations*/
  93:Src/usbd_composite.c **** 
  94:Src/usbd_composite.c **** };
  95:Src/usbd_composite.c **** 
  96:Src/usbd_composite.c **** #if (USBD_LPM_ENABLED == 1)
  97:Src/usbd_composite.c **** __ALIGN_BEGIN uint8_t USBD_CMPSIT_FS_BOSDesc[USB_SIZ_BOS_DESC] __ALIGN_END =
  98:Src/usbd_composite.c **** {
  99:Src/usbd_composite.c ****   0x5,
 100:Src/usbd_composite.c ****   USB_DESC_TYPE_BOS,
 101:Src/usbd_composite.c ****   0xC,
 102:Src/usbd_composite.c ****   0x0,
 103:Src/usbd_composite.c ****   0x1,  /* 1 device capability*/
 104:Src/usbd_composite.c ****         /* device capability*/
 105:Src/usbd_composite.c ****   0x7,
 106:Src/usbd_composite.c ****   USB_DEVICE_CAPABITY_TYPE,
 107:Src/usbd_composite.c ****   0x2,
 108:Src/usbd_composite.c ****   0x2,  /* LPM capability bit set*/
 109:Src/usbd_composite.c ****   0x0,
 110:Src/usbd_composite.c ****   0x0,
 111:Src/usbd_composite.c ****   0x0
 112:Src/usbd_composite.c **** };
 113:Src/usbd_composite.c **** #endif /* (USBD_LPM_ENABLED == 1) */
 114:Src/usbd_composite.c **** 
 115:Src/usbd_composite.c **** /** USB lang identifier descriptor. */
 116:Src/usbd_composite.c **** __ALIGN_BEGIN uint8_t USBD_CMPSIT_LangIDDesc[USB_LEN_LANGID_STR_DESC] __ALIGN_END =
 117:Src/usbd_composite.c **** {
 118:Src/usbd_composite.c ****      USB_LEN_LANGID_STR_DESC,
 119:Src/usbd_composite.c ****      USB_DESC_TYPE_STRING,
 120:Src/usbd_composite.c ****      LOBYTE(USBD_CMPSIT_LANGID_STRING),
 121:Src/usbd_composite.c ****      HIBYTE(USBD_CMPSIT_LANGID_STRING)
 122:Src/usbd_composite.c **** };
 123:Src/usbd_composite.c **** 
 124:Src/usbd_composite.c **** 
 125:Src/usbd_composite.c **** /* Internal string descriptor. */
 126:Src/usbd_composite.c **** __ALIGN_BEGIN uint8_t USBD_CMPSIT_StrDesc[USBD_MAX_STR_DESC_SIZ] __ALIGN_END;
 127:Src/usbd_composite.c **** 
 128:Src/usbd_composite.c **** 
 129:Src/usbd_composite.c **** __ALIGN_BEGIN uint8_t USBD_CMPSIT_StringSerial[USB_SIZ_STRING_SERIAL] __ALIGN_END = {
 130:Src/usbd_composite.c ****   USB_SIZ_STRING_SERIAL,
 131:Src/usbd_composite.c ****   USB_DESC_TYPE_STRING,
 132:Src/usbd_composite.c **** };
 133:Src/usbd_composite.c ****  
 134:Src/usbd_composite.c **** 
 135:Src/usbd_composite.c **** uint8_t * USBD_CMPSIT_FS_DeviceDescriptor(USBD_SpeedTypeDef speed, uint16_t *length)
 136:Src/usbd_composite.c **** {
  30              		.loc 1 136 1 view -0
  31              		.cfi_startproc
  32              		@ args = 0, pretend = 0, frame = 0
  33              		@ frame_needed = 0, uses_anonymous_args = 0
  34              		@ link register save eliminated.
 137:Src/usbd_composite.c ****   UNUSED(speed);
  35              		.loc 1 137 3 view .LVU1
ARM GAS  C:\Users\ADMINI~1\AppData\Local\Temp\ccMoVhCc.s 			page 4


 138:Src/usbd_composite.c ****   *length = sizeof(USBD_CMPSIT_FS_DeviceDesc);
  36              		.loc 1 138 3 view .LVU2
  37              		.loc 1 138 11 is_stmt 0 view .LVU3
  38 0000 1223     		movs	r3, #18
  39 0002 0B80     		strh	r3, [r1]	@ movhi
 139:Src/usbd_composite.c ****   return USBD_CMPSIT_FS_DeviceDesc;
  40              		.loc 1 139 3 is_stmt 1 view .LVU4
 140:Src/usbd_composite.c **** }
  41              		.loc 1 140 1 is_stmt 0 view .LVU5
  42 0004 0048     		ldr	r0, .L2
  43              	.LVL1:
  44              		.loc 1 140 1 view .LVU6
  45 0006 7047     		bx	lr
  46              	.L3:
  47              		.align	2
  48              	.L2:
  49 0008 00000000 		.word	.LANCHOR0
  50              		.cfi_endproc
  51              	.LFE134:
  53              		.section	.text.USBD_CMPSIT_FS_LangIDStrDescriptor,"ax",%progbits
  54              		.align	1
  55              		.global	USBD_CMPSIT_FS_LangIDStrDescriptor
  56              		.syntax unified
  57              		.thumb
  58              		.thumb_func
  60              	USBD_CMPSIT_FS_LangIDStrDescriptor:
  61              	.LVL2:
  62              	.LFB135:
 141:Src/usbd_composite.c **** 
 142:Src/usbd_composite.c **** uint8_t * USBD_CMPSIT_FS_LangIDStrDescriptor(USBD_SpeedTypeDef speed, uint16_t *length)
 143:Src/usbd_composite.c **** {
  63              		.loc 1 143 1 is_stmt 1 view -0
  64              		.cfi_startproc
  65              		@ args = 0, pretend = 0, frame = 0
  66              		@ frame_needed = 0, uses_anonymous_args = 0
  67              		@ link register save eliminated.
 144:Src/usbd_composite.c ****   UNUSED(speed);
  68              		.loc 1 144 3 view .LVU8
 145:Src/usbd_composite.c ****   *length = sizeof(USBD_CMPSIT_LangIDDesc);
  69              		.loc 1 145 3 view .LVU9
  70              		.loc 1 145 11 is_stmt 0 view .LVU10
  71 0000 0423     		movs	r3, #4
  72 0002 0B80     		strh	r3, [r1]	@ movhi
 146:Src/usbd_composite.c ****   return USBD_CMPSIT_LangIDDesc;
  73              		.loc 1 146 3 is_stmt 1 view .LVU11
 147:Src/usbd_composite.c **** }
  74              		.loc 1 147 1 is_stmt 0 view .LVU12
  75 0004 0048     		ldr	r0, .L5
  76              	.LVL3:
  77              		.loc 1 147 1 view .LVU13
  78 0006 7047     		bx	lr
  79              	.L6:
  80              		.align	2
  81              	.L5:
  82 0008 00000000 		.word	.LANCHOR1
  83              		.cfi_endproc
  84              	.LFE135:
ARM GAS  C:\Users\ADMINI~1\AppData\Local\Temp\ccMoVhCc.s 			page 5


  86              		.section	.text.IntToUnicode,"ax",%progbits
  87              		.align	1
  88              		.syntax unified
  89              		.thumb
  90              		.thumb_func
  92              	IntToUnicode:
  93              	.LVL4:
  94              	.LFB138:
 148:Src/usbd_composite.c **** uint8_t * USBD_CMPSIT_FS_ManufacturerStrDescriptor(USBD_SpeedTypeDef speed, uint16_t *length)
 149:Src/usbd_composite.c **** {
 150:Src/usbd_composite.c ****   UNUSED(speed);
 151:Src/usbd_composite.c ****   USBD_GetString((uint8_t *)USBD_CMPSIT_MANUFACTURER_STRING, USBD_CMPSIT_StrDesc, length);
 152:Src/usbd_composite.c ****   return USBD_CMPSIT_StrDesc;
 153:Src/usbd_composite.c **** }
 154:Src/usbd_composite.c **** 
 155:Src/usbd_composite.c **** uint8_t * USBD_CMPSIT_FS_ProductStrDescriptor(USBD_SpeedTypeDef speed, uint16_t *length)
 156:Src/usbd_composite.c **** {
 157:Src/usbd_composite.c ****   if(speed == 0)
 158:Src/usbd_composite.c ****   {
 159:Src/usbd_composite.c ****     USBD_GetString((uint8_t *)USBD_CMPSIT_PRODUCT_STRING_FS, USBD_CMPSIT_StrDesc, length);
 160:Src/usbd_composite.c ****   }
 161:Src/usbd_composite.c ****   else
 162:Src/usbd_composite.c ****   {
 163:Src/usbd_composite.c ****     USBD_GetString((uint8_t *)USBD_CMPSIT_PRODUCT_STRING_FS, USBD_CMPSIT_StrDesc, length);
 164:Src/usbd_composite.c ****   }
 165:Src/usbd_composite.c ****   return USBD_CMPSIT_StrDesc;
 166:Src/usbd_composite.c **** }
 167:Src/usbd_composite.c **** 
 168:Src/usbd_composite.c **** static void IntToUnicode(uint32_t value, uint8_t * pbuf, uint8_t len)
 169:Src/usbd_composite.c **** {
  95              		.loc 1 169 1 is_stmt 1 view -0
  96              		.cfi_startproc
  97              		@ args = 0, pretend = 0, frame = 0
  98              		@ frame_needed = 0, uses_anonymous_args = 0
 170:Src/usbd_composite.c ****   uint8_t idx = 0;
  99              		.loc 1 170 3 view .LVU15
 171:Src/usbd_composite.c **** 
 172:Src/usbd_composite.c ****   for (idx = 0; idx < len; idx++)
 100              		.loc 1 172 3 view .LVU16
 101              		.loc 1 172 12 is_stmt 0 view .LVU17
 102 0000 0023     		movs	r3, #0
 103              	.LVL5:
 104              		.loc 1 172 17 is_stmt 1 view .LVU18
 105              		.loc 1 172 3 is_stmt 0 view .LVU19
 106 0002 9342     		cmp	r3, r2
 107 0004 1ED2     		bcs	.L15
 169:Src/usbd_composite.c ****   uint8_t idx = 0;
 108              		.loc 1 169 1 view .LVU20
 109 0006 00B5     		push	{lr}
 110              	.LCFI0:
 111              		.cfi_def_cfa_offset 4
 112              		.cfi_offset 14, -4
 113 0008 10E0     		b	.L11
 114              	.L9:
 173:Src/usbd_composite.c ****   {
 174:Src/usbd_composite.c ****     if (((value >> 28)) < 0xA)
 175:Src/usbd_composite.c ****     {
ARM GAS  C:\Users\ADMINI~1\AppData\Local\Temp\ccMoVhCc.s 			page 6


 176:Src/usbd_composite.c ****       pbuf[2 * idx] = (value >> 28) + '0';
 177:Src/usbd_composite.c ****     }
 178:Src/usbd_composite.c ****     else
 179:Src/usbd_composite.c ****     {
 180:Src/usbd_composite.c ****       pbuf[2 * idx] = (value >> 28) + 'A' - 10;
 115              		.loc 1 180 7 is_stmt 1 view .LVU21
 116              		.loc 1 180 43 is_stmt 0 view .LVU22
 117 000a 0CF1370C 		add	ip, ip, #55
 118              		.loc 1 180 21 view .LVU23
 119 000e 01F813C0 		strb	ip, [r1, r3, lsl #1]
 120              	.L10:
 181:Src/usbd_composite.c ****     }
 182:Src/usbd_composite.c **** 
 183:Src/usbd_composite.c ****     value = value << 4;
 121              		.loc 1 183 5 is_stmt 1 discriminator 2 view .LVU24
 122              		.loc 1 183 11 is_stmt 0 discriminator 2 view .LVU25
 123 0012 0001     		lsls	r0, r0, #4
 124              	.LVL6:
 184:Src/usbd_composite.c **** 
 185:Src/usbd_composite.c ****     pbuf[2 * idx + 1] = 0;
 125              		.loc 1 185 5 is_stmt 1 discriminator 2 view .LVU26
 126              		.loc 1 185 12 is_stmt 0 discriminator 2 view .LVU27
 127 0014 4FEA430C 		lsl	ip, r3, #1
 128              		.loc 1 185 9 discriminator 2 view .LVU28
 129 0018 0CF1010C 		add	ip, ip, #1
 130              		.loc 1 185 23 discriminator 2 view .LVU29
 131 001c 4FF0000E 		mov	lr, #0
 132 0020 01F80CE0 		strb	lr, [r1, ip]
 172:Src/usbd_composite.c ****   {
 133              		.loc 1 172 28 is_stmt 1 discriminator 2 view .LVU30
 172:Src/usbd_composite.c ****   {
 134              		.loc 1 172 31 is_stmt 0 discriminator 2 view .LVU31
 135 0024 0133     		adds	r3, r3, #1
 136              	.LVL7:
 172:Src/usbd_composite.c ****   {
 137              		.loc 1 172 31 discriminator 2 view .LVU32
 138 0026 DBB2     		uxtb	r3, r3
 139              	.LVL8:
 172:Src/usbd_composite.c ****   {
 140              		.loc 1 172 17 is_stmt 1 discriminator 2 view .LVU33
 172:Src/usbd_composite.c ****   {
 141              		.loc 1 172 3 is_stmt 0 discriminator 2 view .LVU34
 142 0028 9342     		cmp	r3, r2
 143 002a 09D2     		bcs	.L16
 144              	.L11:
 174:Src/usbd_composite.c ****     {
 145              		.loc 1 174 5 is_stmt 1 view .LVU35
 174:Src/usbd_composite.c ****     {
 146              		.loc 1 174 17 is_stmt 0 view .LVU36
 147 002c 4FEA107C 		lsr	ip, r0, #28
 174:Src/usbd_composite.c ****     {
 148              		.loc 1 174 8 view .LVU37
 149 0030 B0F1204F 		cmp	r0, #-1610612736
 150 0034 E9D2     		bcs	.L9
 176:Src/usbd_composite.c ****     }
 151              		.loc 1 176 7 is_stmt 1 view .LVU38
 176:Src/usbd_composite.c ****     }
ARM GAS  C:\Users\ADMINI~1\AppData\Local\Temp\ccMoVhCc.s 			page 7


 152              		.loc 1 176 37 is_stmt 0 view .LVU39
 153 0036 0CF1300C 		add	ip, ip, #48
 176:Src/usbd_composite.c ****     }
 154              		.loc 1 176 21 view .LVU40
 155 003a 01F813C0 		strb	ip, [r1, r3, lsl #1]
 156 003e E8E7     		b	.L10
 157              	.L16:
 186:Src/usbd_composite.c ****   }
 187:Src/usbd_composite.c **** }
 158              		.loc 1 187 1 view .LVU41
 159 0040 5DF804FB 		ldr	pc, [sp], #4
 160              	.L15:
 161              	.LCFI1:
 162              		.cfi_def_cfa_offset 0
 163              		.cfi_restore 14
 164              		.loc 1 187 1 view .LVU42
 165 0044 7047     		bx	lr
 166              		.cfi_endproc
 167              	.LFE138:
 169              		.section	.text.Get_CMPSIT_SerialNum,"ax",%progbits
 170              		.align	1
 171              		.syntax unified
 172              		.thumb
 173              		.thumb_func
 175              	Get_CMPSIT_SerialNum:
 176              	.LFB139:
 188:Src/usbd_composite.c **** static void Get_CMPSIT_SerialNum(void)
 189:Src/usbd_composite.c **** {
 177              		.loc 1 189 1 is_stmt 1 view -0
 178              		.cfi_startproc
 179              		@ args = 0, pretend = 0, frame = 0
 180              		@ frame_needed = 0, uses_anonymous_args = 0
 181 0000 38B5     		push	{r3, r4, r5, lr}
 182              	.LCFI2:
 183              		.cfi_def_cfa_offset 16
 184              		.cfi_offset 3, -16
 185              		.cfi_offset 4, -12
 186              		.cfi_offset 5, -8
 187              		.cfi_offset 14, -4
 190:Src/usbd_composite.c ****   uint32_t deviceserial0, deviceserial1, deviceserial2;
 188              		.loc 1 190 3 view .LVU44
 191:Src/usbd_composite.c **** 
 192:Src/usbd_composite.c ****   deviceserial0 = *(uint32_t *) DEVICE_ID1;
 189              		.loc 1 192 3 view .LVU45
 190              		.loc 1 192 17 is_stmt 0 view .LVU46
 191 0002 0B4B     		ldr	r3, .L21
 192 0004 D3F8100A 		ldr	r0, [r3, #2576]
 193              	.LVL9:
 193:Src/usbd_composite.c ****   deviceserial1 = *(uint32_t *) DEVICE_ID2;
 194              		.loc 1 193 3 is_stmt 1 view .LVU47
 195              		.loc 1 193 17 is_stmt 0 view .LVU48
 196 0008 D3F8144A 		ldr	r4, [r3, #2580]
 197              	.LVL10:
 194:Src/usbd_composite.c ****   deviceserial2 = *(uint32_t *) DEVICE_ID3;
 198              		.loc 1 194 3 is_stmt 1 view .LVU49
 199              		.loc 1 194 17 is_stmt 0 view .LVU50
 200 000c D3F8183A 		ldr	r3, [r3, #2584]
ARM GAS  C:\Users\ADMINI~1\AppData\Local\Temp\ccMoVhCc.s 			page 8


 201              	.LVL11:
 195:Src/usbd_composite.c **** 
 196:Src/usbd_composite.c ****   deviceserial0 += deviceserial2;
 202              		.loc 1 196 3 is_stmt 1 view .LVU51
 197:Src/usbd_composite.c **** 
 198:Src/usbd_composite.c ****   if (deviceserial0 != 0)
 203              		.loc 1 198 3 view .LVU52
 204              		.loc 1 198 6 is_stmt 0 view .LVU53
 205 0010 C018     		adds	r0, r0, r3
 206              	.LVL12:
 207              		.loc 1 198 6 view .LVU54
 208 0012 00D1     		bne	.L20
 209              	.LVL13:
 210              	.L17:
 199:Src/usbd_composite.c ****   {
 200:Src/usbd_composite.c ****     IntToUnicode(deviceserial0, &USBD_CMPSIT_StringSerial[2], 8);
 201:Src/usbd_composite.c ****     IntToUnicode(deviceserial1, &USBD_CMPSIT_StringSerial[18], 4);
 202:Src/usbd_composite.c ****   }
 203:Src/usbd_composite.c **** }
 211              		.loc 1 203 1 view .LVU55
 212 0014 38BD     		pop	{r3, r4, r5, pc}
 213              	.LVL14:
 214              	.L20:
 200:Src/usbd_composite.c ****     IntToUnicode(deviceserial1, &USBD_CMPSIT_StringSerial[18], 4);
 215              		.loc 1 200 5 is_stmt 1 view .LVU56
 216 0016 074D     		ldr	r5, .L21+4
 217 0018 0822     		movs	r2, #8
 218 001a A91C     		adds	r1, r5, #2
 219 001c FFF7FEFF 		bl	IntToUnicode
 220              	.LVL15:
 201:Src/usbd_composite.c ****   }
 221              		.loc 1 201 5 view .LVU57
 222 0020 0422     		movs	r2, #4
 223 0022 05F11201 		add	r1, r5, #18
 224 0026 2046     		mov	r0, r4
 225 0028 FFF7FEFF 		bl	IntToUnicode
 226              	.LVL16:
 227              		.loc 1 203 1 is_stmt 0 view .LVU58
 228 002c F2E7     		b	.L17
 229              	.L22:
 230 002e 00BF     		.align	2
 231              	.L21:
 232 0030 0070FF1F 		.word	536834048
 233 0034 00000000 		.word	.LANCHOR2
 234              		.cfi_endproc
 235              	.LFE139:
 237              		.section	.text.USBD_CMPSIT_FS_SerialStrDescriptor,"ax",%progbits
 238              		.align	1
 239              		.global	USBD_CMPSIT_FS_SerialStrDescriptor
 240              		.syntax unified
 241              		.thumb
 242              		.thumb_func
 244              	USBD_CMPSIT_FS_SerialStrDescriptor:
 245              	.LVL17:
 246              	.LFB140:
 204:Src/usbd_composite.c **** uint8_t * USBD_CMPSIT_FS_SerialStrDescriptor(USBD_SpeedTypeDef speed, uint16_t *length)
 205:Src/usbd_composite.c **** {
ARM GAS  C:\Users\ADMINI~1\AppData\Local\Temp\ccMoVhCc.s 			page 9


 247              		.loc 1 205 1 is_stmt 1 view -0
 248              		.cfi_startproc
 249              		@ args = 0, pretend = 0, frame = 0
 250              		@ frame_needed = 0, uses_anonymous_args = 0
 251              		.loc 1 205 1 is_stmt 0 view .LVU60
 252 0000 08B5     		push	{r3, lr}
 253              	.LCFI3:
 254              		.cfi_def_cfa_offset 8
 255              		.cfi_offset 3, -8
 256              		.cfi_offset 14, -4
 206:Src/usbd_composite.c ****   UNUSED(speed);
 257              		.loc 1 206 3 is_stmt 1 view .LVU61
 207:Src/usbd_composite.c ****   *length = USB_SIZ_STRING_SERIAL;
 258              		.loc 1 207 3 view .LVU62
 259              		.loc 1 207 11 is_stmt 0 view .LVU63
 260 0002 1A23     		movs	r3, #26
 261 0004 0B80     		strh	r3, [r1]	@ movhi
 208:Src/usbd_composite.c **** 
 209:Src/usbd_composite.c ****   /* Update the serial number string descriptor with the data from the unique
 210:Src/usbd_composite.c ****    * ID */
 211:Src/usbd_composite.c ****   Get_CMPSIT_SerialNum();
 262              		.loc 1 211 3 is_stmt 1 view .LVU64
 263 0006 FFF7FEFF 		bl	Get_CMPSIT_SerialNum
 264              	.LVL18:
 212:Src/usbd_composite.c ****   /* USER CODE BEGIN USBD_FS_SerialStrDescriptor */
 213:Src/usbd_composite.c **** 
 214:Src/usbd_composite.c ****   /* USER CODE END USBD_FS_SerialStrDescriptor */
 215:Src/usbd_composite.c ****   return (uint8_t *) USBD_CMPSIT_StringSerial;
 265              		.loc 1 215 3 view .LVU65
 216:Src/usbd_composite.c **** }
 266              		.loc 1 216 1 is_stmt 0 view .LVU66
 267 000a 0148     		ldr	r0, .L25
 268 000c 08BD     		pop	{r3, pc}
 269              	.L26:
 270 000e 00BF     		.align	2
 271              	.L25:
 272 0010 00000000 		.word	.LANCHOR2
 273              		.cfi_endproc
 274              	.LFE140:
 276              		.section	.text.USBD_CMPSIT_GetDeviceQualifierDescriptor,"ax",%progbits
 277              		.align	1
 278              		.global	USBD_CMPSIT_GetDeviceQualifierDescriptor
 279              		.syntax unified
 280              		.thumb
 281              		.thumb_func
 283              	USBD_CMPSIT_GetDeviceQualifierDescriptor:
 284              	.LVL19:
 285              	.LFB149:
 217:Src/usbd_composite.c **** 
 218:Src/usbd_composite.c **** uint8_t * USBD_CMPSIT_FS_InterfaceStrDescriptor(USBD_SpeedTypeDef speed, uint16_t *length)
 219:Src/usbd_composite.c **** {
 220:Src/usbd_composite.c ****   if(speed == 0)
 221:Src/usbd_composite.c ****   {
 222:Src/usbd_composite.c ****     USBD_GetString((uint8_t *)USBD_CMPSIT_INTERFACE_STRING_FS, USBD_CMPSIT_StrDesc, length);
 223:Src/usbd_composite.c ****   }
 224:Src/usbd_composite.c ****   else
 225:Src/usbd_composite.c ****   {
ARM GAS  C:\Users\ADMINI~1\AppData\Local\Temp\ccMoVhCc.s 			page 10


 226:Src/usbd_composite.c ****     USBD_GetString((uint8_t *)USBD_CMPSIT_INTERFACE_STRING_FS, USBD_CMPSIT_StrDesc, length);
 227:Src/usbd_composite.c ****   }
 228:Src/usbd_composite.c ****   return USBD_CMPSIT_StrDesc;
 229:Src/usbd_composite.c **** }
 230:Src/usbd_composite.c **** 
 231:Src/usbd_composite.c **** 
 232:Src/usbd_composite.c **** uint8_t * USBD_CMPSIT_FS_ConfigStrDescriptor(USBD_SpeedTypeDef speed, uint16_t *length)
 233:Src/usbd_composite.c **** {
 234:Src/usbd_composite.c ****   if(speed == USBD_SPEED_HIGH)
 235:Src/usbd_composite.c ****   {
 236:Src/usbd_composite.c ****     USBD_GetString((uint8_t *)USBD_CMPSIT_CONFIGURATION_STRING_FS, USBD_CMPSIT_StrDesc, length);
 237:Src/usbd_composite.c ****   }
 238:Src/usbd_composite.c ****   else
 239:Src/usbd_composite.c ****   {
 240:Src/usbd_composite.c ****     USBD_GetString((uint8_t *)USBD_CMPSIT_CONFIGURATION_STRING_FS, USBD_CMPSIT_StrDesc, length);
 241:Src/usbd_composite.c ****   }
 242:Src/usbd_composite.c ****   return USBD_CMPSIT_StrDesc;
 243:Src/usbd_composite.c **** }
 244:Src/usbd_composite.c **** 
 245:Src/usbd_composite.c **** 
 246:Src/usbd_composite.c **** #if (USBD_LPM_ENABLED == 1)
 247:Src/usbd_composite.c **** /**
 248:Src/usbd_composite.c ****   * @brief  Return the BOS descriptor
 249:Src/usbd_composite.c ****   * @param  speed : Current device speed
 250:Src/usbd_composite.c ****   * @param  length : Pointer to data length variable
 251:Src/usbd_composite.c ****   * @retval Pointer to descriptor buffer
 252:Src/usbd_composite.c ****   */
 253:Src/usbd_composite.c **** uint8_t * USBD_CMPSIT_FS_USR_BOSDescriptor(USBD_SpeedTypeDef speed, uint16_t *length)
 254:Src/usbd_composite.c **** {
 255:Src/usbd_composite.c ****   UNUSED(speed);
 256:Src/usbd_composite.c ****   *length = sizeof(USBD_CMPSIT_FS_BOSDesc);
 257:Src/usbd_composite.c ****   return (uint8_t*)USBD_CMPSIT_FS_BOSDesc;
 258:Src/usbd_composite.c **** }
 259:Src/usbd_composite.c **** #endif /* (USBD_LPM_ENABLED == 1) */
 260:Src/usbd_composite.c **** 
 261:Src/usbd_composite.c **** 
 262:Src/usbd_composite.c **** __ALIGN_BEGIN static uint8_t USBD_CMPSIT_CfgDesc[USB_CMPSIT_CONFIG_DESC_SIZ] __ALIGN_END =
 263:Src/usbd_composite.c **** {
 264:Src/usbd_composite.c ****   /* Configuration Descriptor */
 265:Src/usbd_composite.c ****   //0
 266:Src/usbd_composite.c ****   0x09,                                       /* bLength: Configuration Descriptor size */
 267:Src/usbd_composite.c ****   USB_DESC_TYPE_CONFIGURATION,                /* bDescriptorType: Configuration */
 268:Src/usbd_composite.c ****   USB_CMPSIT_CONFIG_DESC_SIZ,                    /* wTotalLength */
 269:Src/usbd_composite.c ****   0x00,
 270:Src/usbd_composite.c ****   0x02,                                       /* bNumInterfaces: 2 interfaces */
 271:Src/usbd_composite.c ****   0x01,                                       /* bConfigurationValue: Configuration value */
 272:Src/usbd_composite.c ****   0x00,                                       /* iConfiguration: Index of string descriptor
 273:Src/usbd_composite.c ****                                                  describing the configuration */
 274:Src/usbd_composite.c **** #if (USBD_SELF_POWERED == 1U)
 275:Src/usbd_composite.c ****   0xC0,                                       /* bmAttributes: Bus Powered according to user config
 276:Src/usbd_composite.c **** #else
 277:Src/usbd_composite.c ****   0x80,                                       /* bmAttributes: Bus Powered according to user config
 278:Src/usbd_composite.c **** #endif /* USBD_SELF_POWERED */
 279:Src/usbd_composite.c ****   USBD_MAX_POWER,                             /* MaxPower (mA) */
 280:Src/usbd_composite.c **** 
 281:Src/usbd_composite.c ****   /*---------------------------------------------------------------------------*/
 282:Src/usbd_composite.c ****   //9
ARM GAS  C:\Users\ADMINI~1\AppData\Local\Temp\ccMoVhCc.s 			page 11


 283:Src/usbd_composite.c ****   /* Interface Association Descriptor: CDC device (virtual com port) */
 284:Src/usbd_composite.c ****   0x08,   /* bLength: IAD size */
 285:Src/usbd_composite.c ****   0x0B,   /* bDescriptorType: Interface Association Descriptor */
 286:Src/usbd_composite.c ****   0x00,   /* bFirstInterface */
 287:Src/usbd_composite.c ****   0x01,   /* bInterfaceCount */
 288:Src/usbd_composite.c ****   0x08,   /* bFunctionClass: Communication Interface Class */
 289:Src/usbd_composite.c ****   0x06,   /* bFunctionSubClass: Abstract Control Model */
 290:Src/usbd_composite.c ****   0x50,   /* bFunctionProtocol: Common AT commands */
 291:Src/usbd_composite.c ****   0x06,   /* iFunction */
 292:Src/usbd_composite.c ****   //17
 293:Src/usbd_composite.c ****   /* Interface Descriptor */
 294:Src/usbd_composite.c ****   /********************  Mass Storage interface ********************/
 295:Src/usbd_composite.c ****   0x09,                                            /* bLength: Interface Descriptor size */
 296:Src/usbd_composite.c ****   USB_DESC_TYPE_INTERFACE,                         /* bDescriptorType: */
 297:Src/usbd_composite.c ****   0x00,                                            /* bInterfaceNumber: Number of Interface */
 298:Src/usbd_composite.c ****   0x00,                                            /* bAlternateSetting: Alternate setting */
 299:Src/usbd_composite.c ****   0x02,                                            /* bNumEndpoints */
 300:Src/usbd_composite.c ****   0x08,                                            /* bInterfaceClass: MSC Class */
 301:Src/usbd_composite.c ****   0x06,                                            /* bInterfaceSubClass : SCSI transparent*/
 302:Src/usbd_composite.c ****   0x50,                                            /* nInterfaceProtocol */
 303:Src/usbd_composite.c ****   0x00,                                            /* iInterface: */
 304:Src/usbd_composite.c **** 
 305:Src/usbd_composite.c ****   
 306:Src/usbd_composite.c ****   //26 
 307:Src/usbd_composite.c ****    /********************  Mass Storage Endpoints ********************/
 308:Src/usbd_composite.c ****   0x07,                                            /* Endpoint descriptor length = 7 */
 309:Src/usbd_composite.c ****   0x05,                                            /* Endpoint descriptor type */
 310:Src/usbd_composite.c ****   MSC_EPIN_ADDR,                                   /* Endpoint address (IN, address 1) */
 311:Src/usbd_composite.c ****   0x02,                                            /* Bulk endpoint type */
 312:Src/usbd_composite.c ****   LOBYTE(MSC_MAX_FS_PACKET),
 313:Src/usbd_composite.c ****   HIBYTE(MSC_MAX_FS_PACKET),
 314:Src/usbd_composite.c ****   0x00,                                            /* Polling interval in milliseconds */
 315:Src/usbd_composite.c ****   //33
 316:Src/usbd_composite.c ****   0x07,                                            /* Endpoint descriptor length = 7 */
 317:Src/usbd_composite.c ****   0x05,                                            /* Endpoint descriptor type */
 318:Src/usbd_composite.c ****   MSC_EPOUT_ADDR,                                  /* Endpoint address (OUT, address 1) */
 319:Src/usbd_composite.c ****   0x02,                                            /* Bulk endpoint type */
 320:Src/usbd_composite.c ****   LOBYTE(MSC_MAX_FS_PACKET),
 321:Src/usbd_composite.c ****   HIBYTE(MSC_MAX_FS_PACKET),
 322:Src/usbd_composite.c ****   0x00,                                             /* Polling interval in milliseconds */
 323:Src/usbd_composite.c **** 
 324:Src/usbd_composite.c ****   
 325:Src/usbd_composite.c ****   //40
 326:Src/usbd_composite.c ****   /* Interface Association Descriptor: custom device */
 327:Src/usbd_composite.c ****   0x08,   /* bLength: IAD size */
 328:Src/usbd_composite.c ****   0x0B,   /* bDescriptorType: Interface Association Descriptor */
 329:Src/usbd_composite.c ****   0x01,   /* bFirstInterface */
 330:Src/usbd_composite.c ****   0x01,   /* bInterfaceCount */
 331:Src/usbd_composite.c ****   0x00,   /* bFunctionClass: */
 332:Src/usbd_composite.c ****   0x00,   /* bFunctionSubClass: */
 333:Src/usbd_composite.c ****   0x00,   /* bFunctionProtocol: */
 334:Src/usbd_composite.c ****   0x07,   /* iFunction */
 335:Src/usbd_composite.c ****   //48
 336:Src/usbd_composite.c ****   /********************  winUsb interface ********************/
 337:Src/usbd_composite.c ****    /*Data class interface descriptor*/
 338:Src/usbd_composite.c ****   0x09,   /* bLength: Endpoint Descriptor size */
 339:Src/usbd_composite.c ****   USB_DESC_TYPE_INTERFACE,  /* bDescriptorType: */
ARM GAS  C:\Users\ADMINI~1\AppData\Local\Temp\ccMoVhCc.s 			page 12


 340:Src/usbd_composite.c ****   0x01,   /* bInterfaceNumber: Number of Interface */
 341:Src/usbd_composite.c ****   0x00,   /* bAlternateSetting: Alternate setting */
 342:Src/usbd_composite.c ****   0x02,   /* bNumEndpoints: Two endpoints used */
 343:Src/usbd_composite.c ****   0x00,   /* bInterfaceClass: vendor specific */
 344:Src/usbd_composite.c ****   0x01,   /* bInterfaceSubClass: ODrive Communication */
 345:Src/usbd_composite.c ****   0x00,   /* bInterfaceProtocol: */
 346:Src/usbd_composite.c ****   0x00,   /* iInterface: */
 347:Src/usbd_composite.c ****   /********************  Mass Storage Endpoints ********************/
 348:Src/usbd_composite.c ****   //57
 349:Src/usbd_composite.c ****   0x07,                                            /* Endpoint descriptor length = 7 */
 350:Src/usbd_composite.c ****   USB_DESC_TYPE_ENDPOINT,                                            /* Endpoint descriptor type */
 351:Src/usbd_composite.c ****   WIN_USB_EPOUT_ADDR,                                   /* Endpoint address (IN, address 1) */
 352:Src/usbd_composite.c ****   0x02,                                            /* Bulk endpoint type */
 353:Src/usbd_composite.c ****   LOBYTE(WIN_DATA_FS_MAX_PACKET_SIZE),
 354:Src/usbd_composite.c ****   HIBYTE(WIN_DATA_FS_MAX_PACKET_SIZE),
 355:Src/usbd_composite.c ****   0x00,                                            /* Polling interval in milliseconds */
 356:Src/usbd_composite.c ****   //64
 357:Src/usbd_composite.c ****   0x07,                                            /* Endpoint descriptor length = 7 */
 358:Src/usbd_composite.c ****   USB_DESC_TYPE_ENDPOINT,                                            /* Endpoint descriptor type */
 359:Src/usbd_composite.c ****   WIN_USB_EPIN_ADDR,                                  /* Endpoint address (OUT, address 1) */
 360:Src/usbd_composite.c ****   0x02,                                            /* Bulk endpoint type */
 361:Src/usbd_composite.c ****   LOBYTE(WIN_DATA_FS_MAX_PACKET_SIZE),
 362:Src/usbd_composite.c ****   HIBYTE(WIN_DATA_FS_MAX_PACKET_SIZE),
 363:Src/usbd_composite.c ****   0x00                                             /* Polling interval in milliseconds */
 364:Src/usbd_composite.c ****   //71
 365:Src/usbd_composite.c **** };
 366:Src/usbd_composite.c **** __ALIGN_BEGIN static uint8_t USBD_CMPSIT_DeviceQualifierDesc[USB_LEN_DEV_QUALIFIER_DESC] __ALIGN_EN
 367:Src/usbd_composite.c **** {
 368:Src/usbd_composite.c ****   USB_LEN_DEV_QUALIFIER_DESC,
 369:Src/usbd_composite.c ****   USB_DESC_TYPE_DEVICE_QUALIFIER,
 370:Src/usbd_composite.c ****   0x00,
 371:Src/usbd_composite.c ****   0x02,
 372:Src/usbd_composite.c ****   0x00,
 373:Src/usbd_composite.c ****   0x00,
 374:Src/usbd_composite.c ****   0x00,
 375:Src/usbd_composite.c ****   0x40,
 376:Src/usbd_composite.c ****   0x01,
 377:Src/usbd_composite.c ****   0x00,
 378:Src/usbd_composite.c **** };
 379:Src/usbd_composite.c **** 
 380:Src/usbd_composite.c **** static uint8_t *USBD_CMPSIT_GetFSCfgDesc(uint16_t *length);
 381:Src/usbd_composite.c **** static uint8_t *USBD_CMPSIT_GetHSCfgDesc(uint16_t *length);
 382:Src/usbd_composite.c **** static uint8_t *USBD_CMPSIT_GetOtherSpeedCfgDesc(uint16_t *length);
 383:Src/usbd_composite.c **** uint8_t *USBD_CMPSIT_GetDeviceQualifierDescriptor(uint16_t *length);
 384:Src/usbd_composite.c **** 
 385:Src/usbd_composite.c **** 
 386:Src/usbd_composite.c **** 
 387:Src/usbd_composite.c **** USBD_ClassTypeDef USBD_CMPSIT=
 388:Src/usbd_composite.c **** {
 389:Src/usbd_composite.c ****   NULL,
 390:Src/usbd_composite.c ****   NULL,
 391:Src/usbd_composite.c ****   NULL,
 392:Src/usbd_composite.c ****   NULL,                 /* EP0_TxSent */
 393:Src/usbd_composite.c ****   NULL,
 394:Src/usbd_composite.c ****   NULL,
 395:Src/usbd_composite.c ****   NULL,
 396:Src/usbd_composite.c ****   NULL,
ARM GAS  C:\Users\ADMINI~1\AppData\Local\Temp\ccMoVhCc.s 			page 13


 397:Src/usbd_composite.c ****   NULL,
 398:Src/usbd_composite.c ****   NULL,
 399:Src/usbd_composite.c ****   USBD_CMPSIT_GetHSCfgDesc,
 400:Src/usbd_composite.c ****   USBD_CMPSIT_GetFSCfgDesc,  
 401:Src/usbd_composite.c ****   USBD_CMPSIT_GetOtherSpeedCfgDesc,
 402:Src/usbd_composite.c ****   USBD_CMPSIT_GetDeviceQualifierDescriptor  
 403:Src/usbd_composite.c **** };
 404:Src/usbd_composite.c **** 
 405:Src/usbd_composite.c **** #ifdef USE_USBD_COMPOSITE
 406:Src/usbd_composite.c **** void USBD_CMPSIT_AddClass(USBD_HandleTypeDef *pdev, USBD_ClassTypeDef *pclass, USBD_CompositeClassT
 407:Src/usbd_composite.c **** {
 408:Src/usbd_composite.c **** 	//printf("classId=%d  : %d\r\n",pdev->classId,classtype);
 409:Src/usbd_composite.c **** 	switch(classtype)
 410:Src/usbd_composite.c **** 	{
 411:Src/usbd_composite.c **** 		case CLASS_TYPE_MSC:{
 412:Src/usbd_composite.c **** 			pdev->tclasslist[pdev->classId].ClassType = CLASS_TYPE_MSC;
 413:Src/usbd_composite.c **** 			
 414:Src/usbd_composite.c **** 			pdev->tclasslist[pdev->classId].Active = 1U;
 415:Src/usbd_composite.c **** 			pdev->tclasslist[pdev->classId].NumEps = 2;
 416:Src/usbd_composite.c **** 			
 417:Src/usbd_composite.c **** 			pdev->tclasslist[pdev->classId].Eps[1].add = MSC_EPOUT_ADDR;
 418:Src/usbd_composite.c **** 			pdev->tclasslist[pdev->classId].Eps[1].type = USBD_EP_TYPE_BULK;
 419:Src/usbd_composite.c **** 			pdev->tclasslist[pdev->classId].Eps[1].size = MSC_MAX_FS_PACKET;
 420:Src/usbd_composite.c **** 			pdev->tclasslist[pdev->classId].Eps[1].is_used = 1U;
 421:Src/usbd_composite.c **** 			
 422:Src/usbd_composite.c **** 			pdev->tclasslist[pdev->classId].Eps[0].add = MSC_EPIN_ADDR;
 423:Src/usbd_composite.c **** 			pdev->tclasslist[pdev->classId].Eps[0].type = USBD_EP_TYPE_BULK;
 424:Src/usbd_composite.c **** 			pdev->tclasslist[pdev->classId].Eps[0].size = MSC_MAX_FS_PACKET;
 425:Src/usbd_composite.c **** 			pdev->tclasslist[pdev->classId].Eps[0].is_used = 1U;
 426:Src/usbd_composite.c **** 
 427:Src/usbd_composite.c **** 			pdev->tclasslist[pdev->classId].NumIf = 1;
 428:Src/usbd_composite.c **** 			pdev->tclasslist[pdev->classId].Ifs[0] = 0;			
 429:Src/usbd_composite.c **** 			
 430:Src/usbd_composite.c **** 		}break;
 431:Src/usbd_composite.c **** 
 432:Src/usbd_composite.c **** 		case CLASS_TYPE_WINUSB:{
 433:Src/usbd_composite.c **** 			pdev->tclasslist[pdev->classId].ClassType = CLASS_TYPE_WINUSB;
 434:Src/usbd_composite.c **** 			
 435:Src/usbd_composite.c **** 			pdev->tclasslist[pdev->classId].Active = 1U;
 436:Src/usbd_composite.c **** 			pdev->tclasslist[pdev->classId].NumEps = 2;
 437:Src/usbd_composite.c **** 			
 438:Src/usbd_composite.c **** 			pdev->tclasslist[pdev->classId].Eps[0].add = WIN_USB_EPOUT_ADDR;
 439:Src/usbd_composite.c **** 			pdev->tclasslist[pdev->classId].Eps[0].type = USBD_EP_TYPE_BULK;
 440:Src/usbd_composite.c **** 			pdev->tclasslist[pdev->classId].Eps[0].size = WIN_DATA_FS_MAX_PACKET_SIZE;
 441:Src/usbd_composite.c **** 			pdev->tclasslist[pdev->classId].Eps[0].is_used = 1U;
 442:Src/usbd_composite.c **** 			
 443:Src/usbd_composite.c **** 			pdev->tclasslist[pdev->classId].Eps[1].add = WIN_USB_EPIN_ADDR;
 444:Src/usbd_composite.c **** 			pdev->tclasslist[pdev->classId].Eps[1].type = USBD_EP_TYPE_BULK;
 445:Src/usbd_composite.c **** 			pdev->tclasslist[pdev->classId].Eps[1].size = WIN_DATA_FS_MAX_PACKET_SIZE;
 446:Src/usbd_composite.c **** 			pdev->tclasslist[pdev->classId].Eps[1].is_used = 1U;
 447:Src/usbd_composite.c **** 			
 448:Src/usbd_composite.c **** 
 449:Src/usbd_composite.c **** 			pdev->tclasslist[pdev->classId].NumIf = 1;
 450:Src/usbd_composite.c **** 			pdev->tclasslist[pdev->classId].Ifs[0] = 1;
 451:Src/usbd_composite.c **** 			
 452:Src/usbd_composite.c **** 		}break;
 453:Src/usbd_composite.c **** 		default:break;
ARM GAS  C:\Users\ADMINI~1\AppData\Local\Temp\ccMoVhCc.s 			page 14


 454:Src/usbd_composite.c **** 	}
 455:Src/usbd_composite.c **** 	pdev->tclasslist[pdev->classId].CurrPcktSze = 0U;
 456:Src/usbd_composite.c **** 		
 457:Src/usbd_composite.c **** }
 458:Src/usbd_composite.c **** void USBD_CMPST_ClearConfDesc(USBD_HandleTypeDef *pdev)
 459:Src/usbd_composite.c **** {
 460:Src/usbd_composite.c **** }
 461:Src/usbd_composite.c **** 
 462:Src/usbd_composite.c **** #endif
 463:Src/usbd_composite.c **** __ALIGN_BEGIN uint8_t USBD_MS_OS_StringDescriptor[]  __ALIGN_END =
 464:Src/usbd_composite.c **** {
 465:Src/usbd_composite.c ****   0x12,           //  bLength           1 0x12  Length of the descriptor
 466:Src/usbd_composite.c ****   0x03,           //  bDescriptorType   1 0x03  Descriptor type
 467:Src/usbd_composite.c ****                   //  qwSignature      14 ‘MSFT100’ Signature field
 468:Src/usbd_composite.c ****   0x4D, 0x00,     //  'M'
 469:Src/usbd_composite.c ****   0x53, 0x00,     //  'S'
 470:Src/usbd_composite.c ****   0x46, 0x00,     //  'F'
 471:Src/usbd_composite.c ****   0x54, 0x00,     //  'T'
 472:Src/usbd_composite.c ****   0x31, 0x00,     //  '1'
 473:Src/usbd_composite.c ****   0x30, 0x00,     //  '0'
 474:Src/usbd_composite.c ****   0x30, 0x00,     //  '0'
 475:Src/usbd_composite.c ****   MS_VendorCode,  //  bMS_VendorCode    1 Vendor-specific Vendor code
 476:Src/usbd_composite.c ****   0x00            //  bPad              1 0x00  Pad field
 477:Src/usbd_composite.c **** };
 478:Src/usbd_composite.c **** uint8_t * USBD_UsrStrDescriptor(struct _USBD_HandleTypeDef *pdev, uint8_t index,  uint16_t *length)
 479:Src/usbd_composite.c **** {
 480:Src/usbd_composite.c ****   *length = 0;  
 481:Src/usbd_composite.c ****   // printf("index=%x\r\n",index);
 482:Src/usbd_composite.c ****   if (USBD_IDX_MICROSOFT_DESC_STR == index) {
 483:Src/usbd_composite.c ****     *length = sizeof (USBD_MS_OS_StringDescriptor);
 484:Src/usbd_composite.c ****     return USBD_MS_OS_StringDescriptor;
 485:Src/usbd_composite.c ****   } else if (USBD_IDX_MSC_INTF_STR == index) {
 486:Src/usbd_composite.c ****     USBD_GetString((uint8_t *)USBD_MSC_INTERFACE_STRING_FS, USBD_CMPSIT_StrDesc, length);
 487:Src/usbd_composite.c ****     return USBD_CMPSIT_StrDesc;
 488:Src/usbd_composite.c ****   }  
 489:Src/usbd_composite.c ****   else if (USBD_IDX_WIN_USB_INTF_STR == index) {
 490:Src/usbd_composite.c ****     USBD_GetString((uint8_t *)USBD_PRODUCT_XSTR(USBD_WIN_USB_INTERFACE_STRING_FS), USBD_CMPSIT_StrD
 491:Src/usbd_composite.c ****     return USBD_CMPSIT_StrDesc;
 492:Src/usbd_composite.c ****   }  
 493:Src/usbd_composite.c ****   return NULL;
 494:Src/usbd_composite.c **** }
 495:Src/usbd_composite.c **** 
 496:Src/usbd_composite.c **** static uint8_t *USBD_CMPSIT_GetFSCfgDesc(uint16_t *length)
 497:Src/usbd_composite.c **** {
 498:Src/usbd_composite.c ****   USBD_EpDescTypeDef *pMscEpOutDesc = USBD_GetEpDesc(USBD_CMPSIT_CfgDesc, MSC_EPOUT_ADDR);
 499:Src/usbd_composite.c ****   USBD_EpDescTypeDef *pMscEpInDesc = USBD_GetEpDesc(USBD_CMPSIT_CfgDesc, MSC_EPIN_ADDR);
 500:Src/usbd_composite.c **** 
 501:Src/usbd_composite.c ****   USBD_EpDescTypeDef *pWinUsbEpOutDesc = USBD_GetEpDesc(USBD_CMPSIT_CfgDesc, WIN_USB_EPOUT_ADDR);
 502:Src/usbd_composite.c ****   USBD_EpDescTypeDef *pWinUsbEpInDesc = USBD_GetEpDesc(USBD_CMPSIT_CfgDesc, WIN_USB_EPIN_ADDR);
 503:Src/usbd_composite.c **** 
 504:Src/usbd_composite.c ****   
 505:Src/usbd_composite.c **** 
 506:Src/usbd_composite.c ****   if (pMscEpOutDesc != NULL)
 507:Src/usbd_composite.c ****   {
 508:Src/usbd_composite.c ****     pMscEpOutDesc->wMaxPacketSize = MSC_MAX_FS_PACKET;
 509:Src/usbd_composite.c ****   }
 510:Src/usbd_composite.c **** 
ARM GAS  C:\Users\ADMINI~1\AppData\Local\Temp\ccMoVhCc.s 			page 15


 511:Src/usbd_composite.c ****   if (pMscEpInDesc != NULL)
 512:Src/usbd_composite.c ****   {
 513:Src/usbd_composite.c ****     pMscEpInDesc->wMaxPacketSize = MSC_MAX_FS_PACKET;
 514:Src/usbd_composite.c ****   }
 515:Src/usbd_composite.c ****   if (pWinUsbEpOutDesc != NULL)
 516:Src/usbd_composite.c ****   {
 517:Src/usbd_composite.c ****     pWinUsbEpOutDesc->wMaxPacketSize = WIN_DATA_FS_MAX_PACKET_SIZE;
 518:Src/usbd_composite.c ****   }
 519:Src/usbd_composite.c **** 
 520:Src/usbd_composite.c ****   if (pWinUsbEpInDesc != NULL)
 521:Src/usbd_composite.c ****   {
 522:Src/usbd_composite.c ****     pWinUsbEpInDesc->wMaxPacketSize = WIN_DATA_FS_MAX_PACKET_SIZE;
 523:Src/usbd_composite.c ****   }
 524:Src/usbd_composite.c **** 	
 525:Src/usbd_composite.c **** 	*length = (uint16_t)sizeof(USBD_CMPSIT_CfgDesc);
 526:Src/usbd_composite.c **** 	return USBD_CMPSIT_CfgDesc;
 527:Src/usbd_composite.c **** }
 528:Src/usbd_composite.c **** static uint8_t *USBD_CMPSIT_GetHSCfgDesc(uint16_t *length)
 529:Src/usbd_composite.c **** {
 530:Src/usbd_composite.c ****   USBD_EpDescTypeDef *pMscEpOutDesc = USBD_GetEpDesc(USBD_CMPSIT_CfgDesc, MSC_EPOUT_ADDR);
 531:Src/usbd_composite.c ****   USBD_EpDescTypeDef *pMscEpInDesc = USBD_GetEpDesc(USBD_CMPSIT_CfgDesc, MSC_EPIN_ADDR);
 532:Src/usbd_composite.c **** 
 533:Src/usbd_composite.c ****   USBD_EpDescTypeDef *pWinUsbEpOutDesc = USBD_GetEpDesc(USBD_CMPSIT_CfgDesc, WIN_USB_EPOUT_ADDR);
 534:Src/usbd_composite.c ****   USBD_EpDescTypeDef *pWinUsbEpInDesc = USBD_GetEpDesc(USBD_CMPSIT_CfgDesc, WIN_USB_EPIN_ADDR);
 535:Src/usbd_composite.c **** 
 536:Src/usbd_composite.c ****   if (pMscEpOutDesc != NULL)
 537:Src/usbd_composite.c ****   {
 538:Src/usbd_composite.c ****     pMscEpOutDesc->wMaxPacketSize = MSC_MAX_HS_PACKET;
 539:Src/usbd_composite.c ****   }
 540:Src/usbd_composite.c **** 
 541:Src/usbd_composite.c ****   if (pMscEpInDesc != NULL)
 542:Src/usbd_composite.c ****   {
 543:Src/usbd_composite.c ****     pMscEpInDesc->wMaxPacketSize = MSC_MAX_HS_PACKET;
 544:Src/usbd_composite.c ****   }
 545:Src/usbd_composite.c ****   if (pWinUsbEpOutDesc != NULL)
 546:Src/usbd_composite.c ****   {
 547:Src/usbd_composite.c ****     pWinUsbEpOutDesc->wMaxPacketSize = WIN_DATA_HS_MAX_PACKET_SIZE;
 548:Src/usbd_composite.c ****   }
 549:Src/usbd_composite.c **** 
 550:Src/usbd_composite.c ****   if (pWinUsbEpInDesc != NULL)
 551:Src/usbd_composite.c ****   {
 552:Src/usbd_composite.c ****     pWinUsbEpInDesc->wMaxPacketSize = WIN_DATA_HS_MAX_PACKET_SIZE;
 553:Src/usbd_composite.c ****   }
 554:Src/usbd_composite.c **** 
 555:Src/usbd_composite.c ****   *length = (uint16_t)sizeof(USBD_CMPSIT_CfgDesc);
 556:Src/usbd_composite.c **** 	return USBD_CMPSIT_CfgDesc;
 557:Src/usbd_composite.c **** }
 558:Src/usbd_composite.c **** static uint8_t *USBD_CMPSIT_GetOtherSpeedCfgDesc(uint16_t *length)
 559:Src/usbd_composite.c **** {
 560:Src/usbd_composite.c ****   USBD_EpDescTypeDef *pMscEpOutDesc = USBD_GetEpDesc(USBD_CMPSIT_CfgDesc, MSC_EPOUT_ADDR);
 561:Src/usbd_composite.c ****   USBD_EpDescTypeDef *pMscEpInDesc = USBD_GetEpDesc(USBD_CMPSIT_CfgDesc, MSC_EPIN_ADDR);
 562:Src/usbd_composite.c **** 
 563:Src/usbd_composite.c ****   USBD_EpDescTypeDef *pWinUsbEpOutDesc = USBD_GetEpDesc(USBD_CMPSIT_CfgDesc, WIN_USB_EPOUT_ADDR);
 564:Src/usbd_composite.c ****   USBD_EpDescTypeDef *pWinUsbEpInDesc = USBD_GetEpDesc(USBD_CMPSIT_CfgDesc, WIN_USB_EPIN_ADDR);
 565:Src/usbd_composite.c **** 
 566:Src/usbd_composite.c ****   if (pMscEpOutDesc != NULL)
 567:Src/usbd_composite.c ****   {
ARM GAS  C:\Users\ADMINI~1\AppData\Local\Temp\ccMoVhCc.s 			page 16


 568:Src/usbd_composite.c ****     pMscEpOutDesc->wMaxPacketSize = MSC_MAX_FS_PACKET;
 569:Src/usbd_composite.c ****   }
 570:Src/usbd_composite.c **** 
 571:Src/usbd_composite.c ****   if (pMscEpInDesc != NULL)
 572:Src/usbd_composite.c ****   {
 573:Src/usbd_composite.c ****     pMscEpInDesc->wMaxPacketSize = MSC_MAX_FS_PACKET;
 574:Src/usbd_composite.c ****   }
 575:Src/usbd_composite.c ****   if (pWinUsbEpOutDesc != NULL)
 576:Src/usbd_composite.c ****   {
 577:Src/usbd_composite.c ****     pWinUsbEpOutDesc->wMaxPacketSize = WIN_DATA_FS_MAX_PACKET_SIZE;
 578:Src/usbd_composite.c ****   }
 579:Src/usbd_composite.c **** 
 580:Src/usbd_composite.c ****   if (pWinUsbEpInDesc != NULL)
 581:Src/usbd_composite.c ****   {
 582:Src/usbd_composite.c ****     pWinUsbEpInDesc->wMaxPacketSize = WIN_DATA_FS_MAX_PACKET_SIZE;
 583:Src/usbd_composite.c ****   }
 584:Src/usbd_composite.c ****   *length = (uint16_t)sizeof(USBD_CMPSIT_CfgDesc);
 585:Src/usbd_composite.c ****   return USBD_CMPSIT_CfgDesc;
 586:Src/usbd_composite.c **** }
 587:Src/usbd_composite.c **** uint8_t *USBD_CMPSIT_GetDeviceQualifierDescriptor(uint16_t *length)
 588:Src/usbd_composite.c **** {
 286              		.loc 1 588 1 is_stmt 1 view -0
 287              		.cfi_startproc
 288              		@ args = 0, pretend = 0, frame = 0
 289              		@ frame_needed = 0, uses_anonymous_args = 0
 290              		@ link register save eliminated.
 589:Src/usbd_composite.c ****   *length = (uint16_t)sizeof(USBD_CMPSIT_DeviceQualifierDesc);
 291              		.loc 1 589 3 view .LVU68
 292              		.loc 1 589 11 is_stmt 0 view .LVU69
 293 0000 0A23     		movs	r3, #10
 294 0002 0380     		strh	r3, [r0]	@ movhi
 590:Src/usbd_composite.c ****   return USBD_CMPSIT_DeviceQualifierDesc;
 295              		.loc 1 590 3 is_stmt 1 view .LVU70
 591:Src/usbd_composite.c **** }
 296              		.loc 1 591 1 is_stmt 0 view .LVU71
 297 0004 0048     		ldr	r0, .L28
 298              	.LVL20:
 299              		.loc 1 591 1 view .LVU72
 300 0006 7047     		bx	lr
 301              	.L29:
 302              		.align	2
 303              	.L28:
 304 0008 00000000 		.word	.LANCHOR3
 305              		.cfi_endproc
 306              	.LFE149:
 308              		.section	.rodata.USBD_CMPSIT_FS_ManufacturerStrDescriptor.str1.4,"aMS",%progbits,1
 309              		.align	2
 310              	.LC0:
 311 0000 77656E79 		.ascii	"wenyz@wolfGroup\000"
 311      7A40776F 
 311      6C664772 
 311      6F757000 
 312              		.section	.text.USBD_CMPSIT_FS_ManufacturerStrDescriptor,"ax",%progbits
 313              		.align	1
 314              		.global	USBD_CMPSIT_FS_ManufacturerStrDescriptor
 315              		.syntax unified
 316              		.thumb
ARM GAS  C:\Users\ADMINI~1\AppData\Local\Temp\ccMoVhCc.s 			page 17


 317              		.thumb_func
 319              	USBD_CMPSIT_FS_ManufacturerStrDescriptor:
 320              	.LVL21:
 321              	.LFB136:
 149:Src/usbd_composite.c ****   UNUSED(speed);
 322              		.loc 1 149 1 is_stmt 1 view -0
 323              		.cfi_startproc
 324              		@ args = 0, pretend = 0, frame = 0
 325              		@ frame_needed = 0, uses_anonymous_args = 0
 149:Src/usbd_composite.c ****   UNUSED(speed);
 326              		.loc 1 149 1 is_stmt 0 view .LVU74
 327 0000 10B5     		push	{r4, lr}
 328              	.LCFI4:
 329              		.cfi_def_cfa_offset 8
 330              		.cfi_offset 4, -8
 331              		.cfi_offset 14, -4
 332 0002 0A46     		mov	r2, r1
 150:Src/usbd_composite.c ****   USBD_GetString((uint8_t *)USBD_CMPSIT_MANUFACTURER_STRING, USBD_CMPSIT_StrDesc, length);
 333              		.loc 1 150 3 is_stmt 1 view .LVU75
 151:Src/usbd_composite.c ****   return USBD_CMPSIT_StrDesc;
 334              		.loc 1 151 3 view .LVU76
 335 0004 034C     		ldr	r4, .L32
 336 0006 2146     		mov	r1, r4
 337              	.LVL22:
 151:Src/usbd_composite.c ****   return USBD_CMPSIT_StrDesc;
 338              		.loc 1 151 3 is_stmt 0 view .LVU77
 339 0008 0348     		ldr	r0, .L32+4
 340              	.LVL23:
 151:Src/usbd_composite.c ****   return USBD_CMPSIT_StrDesc;
 341              		.loc 1 151 3 view .LVU78
 342 000a FFF7FEFF 		bl	USBD_GetString
 343              	.LVL24:
 152:Src/usbd_composite.c **** }
 344              		.loc 1 152 3 is_stmt 1 view .LVU79
 153:Src/usbd_composite.c **** 
 345              		.loc 1 153 1 is_stmt 0 view .LVU80
 346 000e 2046     		mov	r0, r4
 347 0010 10BD     		pop	{r4, pc}
 348              	.L33:
 349 0012 00BF     		.align	2
 350              	.L32:
 351 0014 00000000 		.word	.LANCHOR4
 352 0018 00000000 		.word	.LC0
 353              		.cfi_endproc
 354              	.LFE136:
 356              		.section	.rodata.USBD_CMPSIT_FS_ProductStrDescriptor.str1.4,"aMS",%progbits,1
 357              		.align	2
 358              	.LC1:
 359 0000 53544D33 		.ascii	"STM32 composite product\000"
 359      3220636F 
 359      6D706F73 
 359      69746520 
 359      70726F64 
 360              		.section	.text.USBD_CMPSIT_FS_ProductStrDescriptor,"ax",%progbits
 361              		.align	1
 362              		.global	USBD_CMPSIT_FS_ProductStrDescriptor
 363              		.syntax unified
ARM GAS  C:\Users\ADMINI~1\AppData\Local\Temp\ccMoVhCc.s 			page 18


 364              		.thumb
 365              		.thumb_func
 367              	USBD_CMPSIT_FS_ProductStrDescriptor:
 368              	.LVL25:
 369              	.LFB137:
 156:Src/usbd_composite.c ****   if(speed == 0)
 370              		.loc 1 156 1 is_stmt 1 view -0
 371              		.cfi_startproc
 372              		@ args = 0, pretend = 0, frame = 0
 373              		@ frame_needed = 0, uses_anonymous_args = 0
 156:Src/usbd_composite.c ****   if(speed == 0)
 374              		.loc 1 156 1 is_stmt 0 view .LVU82
 375 0000 08B5     		push	{r3, lr}
 376              	.LCFI5:
 377              		.cfi_def_cfa_offset 8
 378              		.cfi_offset 3, -8
 379              		.cfi_offset 14, -4
 380 0002 0A46     		mov	r2, r1
 157:Src/usbd_composite.c ****   {
 381              		.loc 1 157 3 is_stmt 1 view .LVU83
 157:Src/usbd_composite.c ****   {
 382              		.loc 1 157 5 is_stmt 0 view .LVU84
 383 0004 28B9     		cbnz	r0, .L35
 159:Src/usbd_composite.c ****   }
 384              		.loc 1 159 5 is_stmt 1 view .LVU85
 385 0006 0549     		ldr	r1, .L38
 386              	.LVL26:
 159:Src/usbd_composite.c ****   }
 387              		.loc 1 159 5 is_stmt 0 view .LVU86
 388 0008 0548     		ldr	r0, .L38+4
 389              	.LVL27:
 159:Src/usbd_composite.c ****   }
 390              		.loc 1 159 5 view .LVU87
 391 000a FFF7FEFF 		bl	USBD_GetString
 392              	.LVL28:
 393              	.L36:
 165:Src/usbd_composite.c **** }
 394              		.loc 1 165 3 is_stmt 1 view .LVU88
 166:Src/usbd_composite.c **** 
 395              		.loc 1 166 1 is_stmt 0 view .LVU89
 396 000e 0348     		ldr	r0, .L38
 397 0010 08BD     		pop	{r3, pc}
 398              	.LVL29:
 399              	.L35:
 163:Src/usbd_composite.c ****   }
 400              		.loc 1 163 5 is_stmt 1 view .LVU90
 401 0012 0249     		ldr	r1, .L38
 402              	.LVL30:
 163:Src/usbd_composite.c ****   }
 403              		.loc 1 163 5 is_stmt 0 view .LVU91
 404 0014 0248     		ldr	r0, .L38+4
 405              	.LVL31:
 163:Src/usbd_composite.c ****   }
 406              		.loc 1 163 5 view .LVU92
 407 0016 FFF7FEFF 		bl	USBD_GetString
 408              	.LVL32:
 163:Src/usbd_composite.c ****   }
ARM GAS  C:\Users\ADMINI~1\AppData\Local\Temp\ccMoVhCc.s 			page 19


 409              		.loc 1 163 5 view .LVU93
 410 001a F8E7     		b	.L36
 411              	.L39:
 412              		.align	2
 413              	.L38:
 414 001c 00000000 		.word	.LANCHOR4
 415 0020 00000000 		.word	.LC1
 416              		.cfi_endproc
 417              	.LFE137:
 419              		.section	.rodata.USBD_CMPSIT_FS_InterfaceStrDescriptor.str1.4,"aMS",%progbits,1
 420              		.align	2
 421              	.LC2:
 422 0000 436F6D70 		.ascii	"Composite Interface\000"
 422      6F736974 
 422      6520496E 
 422      74657266 
 422      61636500 
 423              		.section	.text.USBD_CMPSIT_FS_InterfaceStrDescriptor,"ax",%progbits
 424              		.align	1
 425              		.global	USBD_CMPSIT_FS_InterfaceStrDescriptor
 426              		.syntax unified
 427              		.thumb
 428              		.thumb_func
 430              	USBD_CMPSIT_FS_InterfaceStrDescriptor:
 431              	.LVL33:
 432              	.LFB141:
 219:Src/usbd_composite.c ****   if(speed == 0)
 433              		.loc 1 219 1 is_stmt 1 view -0
 434              		.cfi_startproc
 435              		@ args = 0, pretend = 0, frame = 0
 436              		@ frame_needed = 0, uses_anonymous_args = 0
 219:Src/usbd_composite.c ****   if(speed == 0)
 437              		.loc 1 219 1 is_stmt 0 view .LVU95
 438 0000 08B5     		push	{r3, lr}
 439              	.LCFI6:
 440              		.cfi_def_cfa_offset 8
 441              		.cfi_offset 3, -8
 442              		.cfi_offset 14, -4
 443 0002 0A46     		mov	r2, r1
 220:Src/usbd_composite.c ****   {
 444              		.loc 1 220 3 is_stmt 1 view .LVU96
 220:Src/usbd_composite.c ****   {
 445              		.loc 1 220 5 is_stmt 0 view .LVU97
 446 0004 28B9     		cbnz	r0, .L41
 222:Src/usbd_composite.c ****   }
 447              		.loc 1 222 5 is_stmt 1 view .LVU98
 448 0006 0549     		ldr	r1, .L44
 449              	.LVL34:
 222:Src/usbd_composite.c ****   }
 450              		.loc 1 222 5 is_stmt 0 view .LVU99
 451 0008 0548     		ldr	r0, .L44+4
 452              	.LVL35:
 222:Src/usbd_composite.c ****   }
 453              		.loc 1 222 5 view .LVU100
 454 000a FFF7FEFF 		bl	USBD_GetString
 455              	.LVL36:
 456              	.L42:
ARM GAS  C:\Users\ADMINI~1\AppData\Local\Temp\ccMoVhCc.s 			page 20


 228:Src/usbd_composite.c **** }
 457              		.loc 1 228 3 is_stmt 1 view .LVU101
 229:Src/usbd_composite.c **** 
 458              		.loc 1 229 1 is_stmt 0 view .LVU102
 459 000e 0348     		ldr	r0, .L44
 460 0010 08BD     		pop	{r3, pc}
 461              	.LVL37:
 462              	.L41:
 226:Src/usbd_composite.c ****   }
 463              		.loc 1 226 5 is_stmt 1 view .LVU103
 464 0012 0249     		ldr	r1, .L44
 465              	.LVL38:
 226:Src/usbd_composite.c ****   }
 466              		.loc 1 226 5 is_stmt 0 view .LVU104
 467 0014 0248     		ldr	r0, .L44+4
 468              	.LVL39:
 226:Src/usbd_composite.c ****   }
 469              		.loc 1 226 5 view .LVU105
 470 0016 FFF7FEFF 		bl	USBD_GetString
 471              	.LVL40:
 226:Src/usbd_composite.c ****   }
 472              		.loc 1 226 5 view .LVU106
 473 001a F8E7     		b	.L42
 474              	.L45:
 475              		.align	2
 476              	.L44:
 477 001c 00000000 		.word	.LANCHOR4
 478 0020 00000000 		.word	.LC2
 479              		.cfi_endproc
 480              	.LFE141:
 482              		.section	.rodata.USBD_CMPSIT_FS_ConfigStrDescriptor.str1.4,"aMS",%progbits,1
 483              		.align	2
 484              	.LC3:
 485 0000 436F6D70 		.ascii	"Composite Config\000"
 485      6F736974 
 485      6520436F 
 485      6E666967 
 485      00
 486              		.section	.text.USBD_CMPSIT_FS_ConfigStrDescriptor,"ax",%progbits
 487              		.align	1
 488              		.global	USBD_CMPSIT_FS_ConfigStrDescriptor
 489              		.syntax unified
 490              		.thumb
 491              		.thumb_func
 493              	USBD_CMPSIT_FS_ConfigStrDescriptor:
 494              	.LVL41:
 495              	.LFB142:
 233:Src/usbd_composite.c ****   if(speed == USBD_SPEED_HIGH)
 496              		.loc 1 233 1 is_stmt 1 view -0
 497              		.cfi_startproc
 498              		@ args = 0, pretend = 0, frame = 0
 499              		@ frame_needed = 0, uses_anonymous_args = 0
 233:Src/usbd_composite.c ****   if(speed == USBD_SPEED_HIGH)
 500              		.loc 1 233 1 is_stmt 0 view .LVU108
 501 0000 08B5     		push	{r3, lr}
 502              	.LCFI7:
 503              		.cfi_def_cfa_offset 8
ARM GAS  C:\Users\ADMINI~1\AppData\Local\Temp\ccMoVhCc.s 			page 21


 504              		.cfi_offset 3, -8
 505              		.cfi_offset 14, -4
 506 0002 0A46     		mov	r2, r1
 234:Src/usbd_composite.c ****   {
 507              		.loc 1 234 3 is_stmt 1 view .LVU109
 234:Src/usbd_composite.c ****   {
 508              		.loc 1 234 5 is_stmt 0 view .LVU110
 509 0004 28B9     		cbnz	r0, .L47
 236:Src/usbd_composite.c ****   }
 510              		.loc 1 236 5 is_stmt 1 view .LVU111
 511 0006 0549     		ldr	r1, .L50
 512              	.LVL42:
 236:Src/usbd_composite.c ****   }
 513              		.loc 1 236 5 is_stmt 0 view .LVU112
 514 0008 0548     		ldr	r0, .L50+4
 515              	.LVL43:
 236:Src/usbd_composite.c ****   }
 516              		.loc 1 236 5 view .LVU113
 517 000a FFF7FEFF 		bl	USBD_GetString
 518              	.LVL44:
 519              	.L48:
 242:Src/usbd_composite.c **** }
 520              		.loc 1 242 3 is_stmt 1 view .LVU114
 243:Src/usbd_composite.c **** 
 521              		.loc 1 243 1 is_stmt 0 view .LVU115
 522 000e 0348     		ldr	r0, .L50
 523 0010 08BD     		pop	{r3, pc}
 524              	.LVL45:
 525              	.L47:
 240:Src/usbd_composite.c ****   }
 526              		.loc 1 240 5 is_stmt 1 view .LVU116
 527 0012 0249     		ldr	r1, .L50
 528              	.LVL46:
 240:Src/usbd_composite.c ****   }
 529              		.loc 1 240 5 is_stmt 0 view .LVU117
 530 0014 0248     		ldr	r0, .L50+4
 531              	.LVL47:
 240:Src/usbd_composite.c ****   }
 532              		.loc 1 240 5 view .LVU118
 533 0016 FFF7FEFF 		bl	USBD_GetString
 534              	.LVL48:
 240:Src/usbd_composite.c ****   }
 535              		.loc 1 240 5 view .LVU119
 536 001a F8E7     		b	.L48
 537              	.L51:
 538              		.align	2
 539              	.L50:
 540 001c 00000000 		.word	.LANCHOR4
 541 0020 00000000 		.word	.LC3
 542              		.cfi_endproc
 543              	.LFE142:
 545              		.section	.text.USBD_CMPSIT_GetOtherSpeedCfgDesc,"ax",%progbits
 546              		.align	1
 547              		.syntax unified
 548              		.thumb
 549              		.thumb_func
 551              	USBD_CMPSIT_GetOtherSpeedCfgDesc:
ARM GAS  C:\Users\ADMINI~1\AppData\Local\Temp\ccMoVhCc.s 			page 22


 552              	.LVL49:
 553              	.LFB148:
 559:Src/usbd_composite.c ****   USBD_EpDescTypeDef *pMscEpOutDesc = USBD_GetEpDesc(USBD_CMPSIT_CfgDesc, MSC_EPOUT_ADDR);
 554              		.loc 1 559 1 is_stmt 1 view -0
 555              		.cfi_startproc
 556              		@ args = 0, pretend = 0, frame = 0
 557              		@ frame_needed = 0, uses_anonymous_args = 0
 559:Src/usbd_composite.c ****   USBD_EpDescTypeDef *pMscEpOutDesc = USBD_GetEpDesc(USBD_CMPSIT_CfgDesc, MSC_EPOUT_ADDR);
 558              		.loc 1 559 1 is_stmt 0 view .LVU121
 559 0000 2DE9F041 		push	{r4, r5, r6, r7, r8, lr}
 560              	.LCFI8:
 561              		.cfi_def_cfa_offset 24
 562              		.cfi_offset 4, -24
 563              		.cfi_offset 5, -20
 564              		.cfi_offset 6, -16
 565              		.cfi_offset 7, -12
 566              		.cfi_offset 8, -8
 567              		.cfi_offset 14, -4
 568 0004 0746     		mov	r7, r0
 560:Src/usbd_composite.c ****   USBD_EpDescTypeDef *pMscEpInDesc = USBD_GetEpDesc(USBD_CMPSIT_CfgDesc, MSC_EPIN_ADDR);
 569              		.loc 1 560 3 is_stmt 1 view .LVU122
 560:Src/usbd_composite.c ****   USBD_EpDescTypeDef *pMscEpInDesc = USBD_GetEpDesc(USBD_CMPSIT_CfgDesc, MSC_EPIN_ADDR);
 570              		.loc 1 560 39 is_stmt 0 view .LVU123
 571 0006 184E     		ldr	r6, .L58
 572 0008 0121     		movs	r1, #1
 573 000a 3046     		mov	r0, r6
 574              	.LVL50:
 560:Src/usbd_composite.c ****   USBD_EpDescTypeDef *pMscEpInDesc = USBD_GetEpDesc(USBD_CMPSIT_CfgDesc, MSC_EPIN_ADDR);
 575              		.loc 1 560 39 view .LVU124
 576 000c FFF7FEFF 		bl	USBD_GetEpDesc
 577              	.LVL51:
 578 0010 8046     		mov	r8, r0
 579              	.LVL52:
 561:Src/usbd_composite.c **** 
 580              		.loc 1 561 3 is_stmt 1 view .LVU125
 561:Src/usbd_composite.c **** 
 581              		.loc 1 561 38 is_stmt 0 view .LVU126
 582 0012 8121     		movs	r1, #129
 583 0014 3046     		mov	r0, r6
 584              	.LVL53:
 561:Src/usbd_composite.c **** 
 585              		.loc 1 561 38 view .LVU127
 586 0016 FFF7FEFF 		bl	USBD_GetEpDesc
 587              	.LVL54:
 588 001a 0546     		mov	r5, r0
 589              	.LVL55:
 563:Src/usbd_composite.c ****   USBD_EpDescTypeDef *pWinUsbEpInDesc = USBD_GetEpDesc(USBD_CMPSIT_CfgDesc, WIN_USB_EPIN_ADDR);
 590              		.loc 1 563 3 is_stmt 1 view .LVU128
 563:Src/usbd_composite.c ****   USBD_EpDescTypeDef *pWinUsbEpInDesc = USBD_GetEpDesc(USBD_CMPSIT_CfgDesc, WIN_USB_EPIN_ADDR);
 591              		.loc 1 563 42 is_stmt 0 view .LVU129
 592 001c 0321     		movs	r1, #3
 593 001e 3046     		mov	r0, r6
 594              	.LVL56:
 563:Src/usbd_composite.c ****   USBD_EpDescTypeDef *pWinUsbEpInDesc = USBD_GetEpDesc(USBD_CMPSIT_CfgDesc, WIN_USB_EPIN_ADDR);
 595              		.loc 1 563 42 view .LVU130
 596 0020 FFF7FEFF 		bl	USBD_GetEpDesc
 597              	.LVL57:
ARM GAS  C:\Users\ADMINI~1\AppData\Local\Temp\ccMoVhCc.s 			page 23


 598 0024 0446     		mov	r4, r0
 599              	.LVL58:
 564:Src/usbd_composite.c **** 
 600              		.loc 1 564 3 is_stmt 1 view .LVU131
 564:Src/usbd_composite.c **** 
 601              		.loc 1 564 41 is_stmt 0 view .LVU132
 602 0026 8321     		movs	r1, #131
 603 0028 3046     		mov	r0, r6
 604              	.LVL59:
 564:Src/usbd_composite.c **** 
 605              		.loc 1 564 41 view .LVU133
 606 002a FFF7FEFF 		bl	USBD_GetEpDesc
 607              	.LVL60:
 566:Src/usbd_composite.c ****   {
 608              		.loc 1 566 3 is_stmt 1 view .LVU134
 566:Src/usbd_composite.c ****   {
 609              		.loc 1 566 6 is_stmt 0 view .LVU135
 610 002e B8F1000F 		cmp	r8, #0
 611 0032 05D0     		beq	.L53
 568:Src/usbd_composite.c ****   }
 612              		.loc 1 568 5 is_stmt 1 view .LVU136
 568:Src/usbd_composite.c ****   }
 613              		.loc 1 568 35 is_stmt 0 view .LVU137
 614 0034 4022     		movs	r2, #64
 615 0036 88F80420 		strb	r2, [r8, #4]
 616 003a 0022     		movs	r2, #0
 617 003c 88F80520 		strb	r2, [r8, #5]
 618              	.L53:
 571:Src/usbd_composite.c ****   {
 619              		.loc 1 571 3 is_stmt 1 view .LVU138
 571:Src/usbd_composite.c ****   {
 620              		.loc 1 571 6 is_stmt 0 view .LVU139
 621 0040 1DB1     		cbz	r5, .L54
 573:Src/usbd_composite.c ****   }
 622              		.loc 1 573 5 is_stmt 1 view .LVU140
 573:Src/usbd_composite.c ****   }
 623              		.loc 1 573 34 is_stmt 0 view .LVU141
 624 0042 4022     		movs	r2, #64
 625 0044 2A71     		strb	r2, [r5, #4]
 626 0046 0022     		movs	r2, #0
 627 0048 6A71     		strb	r2, [r5, #5]
 628              	.L54:
 575:Src/usbd_composite.c ****   {
 629              		.loc 1 575 3 is_stmt 1 view .LVU142
 575:Src/usbd_composite.c ****   {
 630              		.loc 1 575 6 is_stmt 0 view .LVU143
 631 004a 1CB1     		cbz	r4, .L55
 577:Src/usbd_composite.c ****   }
 632              		.loc 1 577 5 is_stmt 1 view .LVU144
 577:Src/usbd_composite.c ****   }
 633              		.loc 1 577 38 is_stmt 0 view .LVU145
 634 004c 4022     		movs	r2, #64
 635 004e 2271     		strb	r2, [r4, #4]
 636 0050 0022     		movs	r2, #0
 637 0052 6271     		strb	r2, [r4, #5]
 638              	.L55:
 580:Src/usbd_composite.c ****   {
ARM GAS  C:\Users\ADMINI~1\AppData\Local\Temp\ccMoVhCc.s 			page 24


 639              		.loc 1 580 3 is_stmt 1 view .LVU146
 580:Src/usbd_composite.c ****   {
 640              		.loc 1 580 6 is_stmt 0 view .LVU147
 641 0054 18B1     		cbz	r0, .L56
 582:Src/usbd_composite.c ****   }
 642              		.loc 1 582 5 is_stmt 1 view .LVU148
 582:Src/usbd_composite.c ****   }
 643              		.loc 1 582 37 is_stmt 0 view .LVU149
 644 0056 4022     		movs	r2, #64
 645 0058 0271     		strb	r2, [r0, #4]
 646 005a 0022     		movs	r2, #0
 647 005c 4271     		strb	r2, [r0, #5]
 648              	.L56:
 584:Src/usbd_composite.c ****   return USBD_CMPSIT_CfgDesc;
 649              		.loc 1 584 3 is_stmt 1 view .LVU150
 584:Src/usbd_composite.c ****   return USBD_CMPSIT_CfgDesc;
 650              		.loc 1 584 11 is_stmt 0 view .LVU151
 651 005e 4723     		movs	r3, #71
 652 0060 3B80     		strh	r3, [r7]	@ movhi
 585:Src/usbd_composite.c **** }
 653              		.loc 1 585 3 is_stmt 1 view .LVU152
 586:Src/usbd_composite.c **** uint8_t *USBD_CMPSIT_GetDeviceQualifierDescriptor(uint16_t *length)
 654              		.loc 1 586 1 is_stmt 0 view .LVU153
 655 0062 0148     		ldr	r0, .L58
 656              	.LVL61:
 586:Src/usbd_composite.c **** uint8_t *USBD_CMPSIT_GetDeviceQualifierDescriptor(uint16_t *length)
 657              		.loc 1 586 1 view .LVU154
 658 0064 BDE8F081 		pop	{r4, r5, r6, r7, r8, pc}
 659              	.LVL62:
 660              	.L59:
 586:Src/usbd_composite.c **** uint8_t *USBD_CMPSIT_GetDeviceQualifierDescriptor(uint16_t *length)
 661              		.loc 1 586 1 view .LVU155
 662              		.align	2
 663              	.L58:
 664 0068 00000000 		.word	.LANCHOR5
 665              		.cfi_endproc
 666              	.LFE148:
 668              		.section	.text.USBD_CMPSIT_GetFSCfgDesc,"ax",%progbits
 669              		.align	1
 670              		.syntax unified
 671              		.thumb
 672              		.thumb_func
 674              	USBD_CMPSIT_GetFSCfgDesc:
 675              	.LVL63:
 676              	.LFB146:
 497:Src/usbd_composite.c ****   USBD_EpDescTypeDef *pMscEpOutDesc = USBD_GetEpDesc(USBD_CMPSIT_CfgDesc, MSC_EPOUT_ADDR);
 677              		.loc 1 497 1 is_stmt 1 view -0
 678              		.cfi_startproc
 679              		@ args = 0, pretend = 0, frame = 0
 680              		@ frame_needed = 0, uses_anonymous_args = 0
 497:Src/usbd_composite.c ****   USBD_EpDescTypeDef *pMscEpOutDesc = USBD_GetEpDesc(USBD_CMPSIT_CfgDesc, MSC_EPOUT_ADDR);
 681              		.loc 1 497 1 is_stmt 0 view .LVU157
 682 0000 2DE9F041 		push	{r4, r5, r6, r7, r8, lr}
 683              	.LCFI9:
 684              		.cfi_def_cfa_offset 24
 685              		.cfi_offset 4, -24
 686              		.cfi_offset 5, -20
ARM GAS  C:\Users\ADMINI~1\AppData\Local\Temp\ccMoVhCc.s 			page 25


 687              		.cfi_offset 6, -16
 688              		.cfi_offset 7, -12
 689              		.cfi_offset 8, -8
 690              		.cfi_offset 14, -4
 691 0004 0746     		mov	r7, r0
 498:Src/usbd_composite.c ****   USBD_EpDescTypeDef *pMscEpInDesc = USBD_GetEpDesc(USBD_CMPSIT_CfgDesc, MSC_EPIN_ADDR);
 692              		.loc 1 498 3 is_stmt 1 view .LVU158
 498:Src/usbd_composite.c ****   USBD_EpDescTypeDef *pMscEpInDesc = USBD_GetEpDesc(USBD_CMPSIT_CfgDesc, MSC_EPIN_ADDR);
 693              		.loc 1 498 39 is_stmt 0 view .LVU159
 694 0006 184E     		ldr	r6, .L66
 695 0008 0121     		movs	r1, #1
 696 000a 3046     		mov	r0, r6
 697              	.LVL64:
 498:Src/usbd_composite.c ****   USBD_EpDescTypeDef *pMscEpInDesc = USBD_GetEpDesc(USBD_CMPSIT_CfgDesc, MSC_EPIN_ADDR);
 698              		.loc 1 498 39 view .LVU160
 699 000c FFF7FEFF 		bl	USBD_GetEpDesc
 700              	.LVL65:
 701 0010 8046     		mov	r8, r0
 702              	.LVL66:
 499:Src/usbd_composite.c **** 
 703              		.loc 1 499 3 is_stmt 1 view .LVU161
 499:Src/usbd_composite.c **** 
 704              		.loc 1 499 38 is_stmt 0 view .LVU162
 705 0012 8121     		movs	r1, #129
 706 0014 3046     		mov	r0, r6
 707              	.LVL67:
 499:Src/usbd_composite.c **** 
 708              		.loc 1 499 38 view .LVU163
 709 0016 FFF7FEFF 		bl	USBD_GetEpDesc
 710              	.LVL68:
 711 001a 0546     		mov	r5, r0
 712              	.LVL69:
 501:Src/usbd_composite.c ****   USBD_EpDescTypeDef *pWinUsbEpInDesc = USBD_GetEpDesc(USBD_CMPSIT_CfgDesc, WIN_USB_EPIN_ADDR);
 713              		.loc 1 501 3 is_stmt 1 view .LVU164
 501:Src/usbd_composite.c ****   USBD_EpDescTypeDef *pWinUsbEpInDesc = USBD_GetEpDesc(USBD_CMPSIT_CfgDesc, WIN_USB_EPIN_ADDR);
 714              		.loc 1 501 42 is_stmt 0 view .LVU165
 715 001c 0321     		movs	r1, #3
 716 001e 3046     		mov	r0, r6
 717              	.LVL70:
 501:Src/usbd_composite.c ****   USBD_EpDescTypeDef *pWinUsbEpInDesc = USBD_GetEpDesc(USBD_CMPSIT_CfgDesc, WIN_USB_EPIN_ADDR);
 718              		.loc 1 501 42 view .LVU166
 719 0020 FFF7FEFF 		bl	USBD_GetEpDesc
 720              	.LVL71:
 721 0024 0446     		mov	r4, r0
 722              	.LVL72:
 502:Src/usbd_composite.c **** 
 723              		.loc 1 502 3 is_stmt 1 view .LVU167
 502:Src/usbd_composite.c **** 
 724              		.loc 1 502 41 is_stmt 0 view .LVU168
 725 0026 8321     		movs	r1, #131
 726 0028 3046     		mov	r0, r6
 727              	.LVL73:
 502:Src/usbd_composite.c **** 
 728              		.loc 1 502 41 view .LVU169
 729 002a FFF7FEFF 		bl	USBD_GetEpDesc
 730              	.LVL74:
 506:Src/usbd_composite.c ****   {
ARM GAS  C:\Users\ADMINI~1\AppData\Local\Temp\ccMoVhCc.s 			page 26


 731              		.loc 1 506 3 is_stmt 1 view .LVU170
 506:Src/usbd_composite.c ****   {
 732              		.loc 1 506 6 is_stmt 0 view .LVU171
 733 002e B8F1000F 		cmp	r8, #0
 734 0032 05D0     		beq	.L61
 508:Src/usbd_composite.c ****   }
 735              		.loc 1 508 5 is_stmt 1 view .LVU172
 508:Src/usbd_composite.c ****   }
 736              		.loc 1 508 35 is_stmt 0 view .LVU173
 737 0034 4022     		movs	r2, #64
 738 0036 88F80420 		strb	r2, [r8, #4]
 739 003a 0022     		movs	r2, #0
 740 003c 88F80520 		strb	r2, [r8, #5]
 741              	.L61:
 511:Src/usbd_composite.c ****   {
 742              		.loc 1 511 3 is_stmt 1 view .LVU174
 511:Src/usbd_composite.c ****   {
 743              		.loc 1 511 6 is_stmt 0 view .LVU175
 744 0040 1DB1     		cbz	r5, .L62
 513:Src/usbd_composite.c ****   }
 745              		.loc 1 513 5 is_stmt 1 view .LVU176
 513:Src/usbd_composite.c ****   }
 746              		.loc 1 513 34 is_stmt 0 view .LVU177
 747 0042 4022     		movs	r2, #64
 748 0044 2A71     		strb	r2, [r5, #4]
 749 0046 0022     		movs	r2, #0
 750 0048 6A71     		strb	r2, [r5, #5]
 751              	.L62:
 515:Src/usbd_composite.c ****   {
 752              		.loc 1 515 3 is_stmt 1 view .LVU178
 515:Src/usbd_composite.c ****   {
 753              		.loc 1 515 6 is_stmt 0 view .LVU179
 754 004a 1CB1     		cbz	r4, .L63
 517:Src/usbd_composite.c ****   }
 755              		.loc 1 517 5 is_stmt 1 view .LVU180
 517:Src/usbd_composite.c ****   }
 756              		.loc 1 517 38 is_stmt 0 view .LVU181
 757 004c 4022     		movs	r2, #64
 758 004e 2271     		strb	r2, [r4, #4]
 759 0050 0022     		movs	r2, #0
 760 0052 6271     		strb	r2, [r4, #5]
 761              	.L63:
 520:Src/usbd_composite.c ****   {
 762              		.loc 1 520 3 is_stmt 1 view .LVU182
 520:Src/usbd_composite.c ****   {
 763              		.loc 1 520 6 is_stmt 0 view .LVU183
 764 0054 18B1     		cbz	r0, .L64
 522:Src/usbd_composite.c ****   }
 765              		.loc 1 522 5 is_stmt 1 view .LVU184
 522:Src/usbd_composite.c ****   }
 766              		.loc 1 522 37 is_stmt 0 view .LVU185
 767 0056 4022     		movs	r2, #64
 768 0058 0271     		strb	r2, [r0, #4]
 769 005a 0022     		movs	r2, #0
 770 005c 4271     		strb	r2, [r0, #5]
 771              	.L64:
 525:Src/usbd_composite.c **** 	return USBD_CMPSIT_CfgDesc;
ARM GAS  C:\Users\ADMINI~1\AppData\Local\Temp\ccMoVhCc.s 			page 27


 772              		.loc 1 525 2 is_stmt 1 view .LVU186
 525:Src/usbd_composite.c **** 	return USBD_CMPSIT_CfgDesc;
 773              		.loc 1 525 10 is_stmt 0 view .LVU187
 774 005e 4723     		movs	r3, #71
 775 0060 3B80     		strh	r3, [r7]	@ movhi
 526:Src/usbd_composite.c **** }
 776              		.loc 1 526 2 is_stmt 1 view .LVU188
 527:Src/usbd_composite.c **** static uint8_t *USBD_CMPSIT_GetHSCfgDesc(uint16_t *length)
 777              		.loc 1 527 1 is_stmt 0 view .LVU189
 778 0062 0148     		ldr	r0, .L66
 779              	.LVL75:
 527:Src/usbd_composite.c **** static uint8_t *USBD_CMPSIT_GetHSCfgDesc(uint16_t *length)
 780              		.loc 1 527 1 view .LVU190
 781 0064 BDE8F081 		pop	{r4, r5, r6, r7, r8, pc}
 782              	.LVL76:
 783              	.L67:
 527:Src/usbd_composite.c **** static uint8_t *USBD_CMPSIT_GetHSCfgDesc(uint16_t *length)
 784              		.loc 1 527 1 view .LVU191
 785              		.align	2
 786              	.L66:
 787 0068 00000000 		.word	.LANCHOR5
 788              		.cfi_endproc
 789              	.LFE146:
 791              		.section	.text.USBD_CMPSIT_GetHSCfgDesc,"ax",%progbits
 792              		.align	1
 793              		.syntax unified
 794              		.thumb
 795              		.thumb_func
 797              	USBD_CMPSIT_GetHSCfgDesc:
 798              	.LVL77:
 799              	.LFB147:
 529:Src/usbd_composite.c ****   USBD_EpDescTypeDef *pMscEpOutDesc = USBD_GetEpDesc(USBD_CMPSIT_CfgDesc, MSC_EPOUT_ADDR);
 800              		.loc 1 529 1 is_stmt 1 view -0
 801              		.cfi_startproc
 802              		@ args = 0, pretend = 0, frame = 0
 803              		@ frame_needed = 0, uses_anonymous_args = 0
 529:Src/usbd_composite.c ****   USBD_EpDescTypeDef *pMscEpOutDesc = USBD_GetEpDesc(USBD_CMPSIT_CfgDesc, MSC_EPOUT_ADDR);
 804              		.loc 1 529 1 is_stmt 0 view .LVU193
 805 0000 2DE9F041 		push	{r4, r5, r6, r7, r8, lr}
 806              	.LCFI10:
 807              		.cfi_def_cfa_offset 24
 808              		.cfi_offset 4, -24
 809              		.cfi_offset 5, -20
 810              		.cfi_offset 6, -16
 811              		.cfi_offset 7, -12
 812              		.cfi_offset 8, -8
 813              		.cfi_offset 14, -4
 814 0004 0746     		mov	r7, r0
 530:Src/usbd_composite.c ****   USBD_EpDescTypeDef *pMscEpInDesc = USBD_GetEpDesc(USBD_CMPSIT_CfgDesc, MSC_EPIN_ADDR);
 815              		.loc 1 530 3 is_stmt 1 view .LVU194
 530:Src/usbd_composite.c ****   USBD_EpDescTypeDef *pMscEpInDesc = USBD_GetEpDesc(USBD_CMPSIT_CfgDesc, MSC_EPIN_ADDR);
 816              		.loc 1 530 39 is_stmt 0 view .LVU195
 817 0006 184E     		ldr	r6, .L74
 818 0008 0121     		movs	r1, #1
 819 000a 3046     		mov	r0, r6
 820              	.LVL78:
 530:Src/usbd_composite.c ****   USBD_EpDescTypeDef *pMscEpInDesc = USBD_GetEpDesc(USBD_CMPSIT_CfgDesc, MSC_EPIN_ADDR);
ARM GAS  C:\Users\ADMINI~1\AppData\Local\Temp\ccMoVhCc.s 			page 28


 821              		.loc 1 530 39 view .LVU196
 822 000c FFF7FEFF 		bl	USBD_GetEpDesc
 823              	.LVL79:
 824 0010 8046     		mov	r8, r0
 825              	.LVL80:
 531:Src/usbd_composite.c **** 
 826              		.loc 1 531 3 is_stmt 1 view .LVU197
 531:Src/usbd_composite.c **** 
 827              		.loc 1 531 38 is_stmt 0 view .LVU198
 828 0012 8121     		movs	r1, #129
 829 0014 3046     		mov	r0, r6
 830              	.LVL81:
 531:Src/usbd_composite.c **** 
 831              		.loc 1 531 38 view .LVU199
 832 0016 FFF7FEFF 		bl	USBD_GetEpDesc
 833              	.LVL82:
 834 001a 0546     		mov	r5, r0
 835              	.LVL83:
 533:Src/usbd_composite.c ****   USBD_EpDescTypeDef *pWinUsbEpInDesc = USBD_GetEpDesc(USBD_CMPSIT_CfgDesc, WIN_USB_EPIN_ADDR);
 836              		.loc 1 533 3 is_stmt 1 view .LVU200
 533:Src/usbd_composite.c ****   USBD_EpDescTypeDef *pWinUsbEpInDesc = USBD_GetEpDesc(USBD_CMPSIT_CfgDesc, WIN_USB_EPIN_ADDR);
 837              		.loc 1 533 42 is_stmt 0 view .LVU201
 838 001c 0321     		movs	r1, #3
 839 001e 3046     		mov	r0, r6
 840              	.LVL84:
 533:Src/usbd_composite.c ****   USBD_EpDescTypeDef *pWinUsbEpInDesc = USBD_GetEpDesc(USBD_CMPSIT_CfgDesc, WIN_USB_EPIN_ADDR);
 841              		.loc 1 533 42 view .LVU202
 842 0020 FFF7FEFF 		bl	USBD_GetEpDesc
 843              	.LVL85:
 844 0024 0446     		mov	r4, r0
 845              	.LVL86:
 534:Src/usbd_composite.c **** 
 846              		.loc 1 534 3 is_stmt 1 view .LVU203
 534:Src/usbd_composite.c **** 
 847              		.loc 1 534 41 is_stmt 0 view .LVU204
 848 0026 8321     		movs	r1, #131
 849 0028 3046     		mov	r0, r6
 850              	.LVL87:
 534:Src/usbd_composite.c **** 
 851              		.loc 1 534 41 view .LVU205
 852 002a FFF7FEFF 		bl	USBD_GetEpDesc
 853              	.LVL88:
 536:Src/usbd_composite.c ****   {
 854              		.loc 1 536 3 is_stmt 1 view .LVU206
 536:Src/usbd_composite.c ****   {
 855              		.loc 1 536 6 is_stmt 0 view .LVU207
 856 002e B8F1000F 		cmp	r8, #0
 857 0032 05D0     		beq	.L69
 538:Src/usbd_composite.c ****   }
 858              		.loc 1 538 5 is_stmt 1 view .LVU208
 538:Src/usbd_composite.c ****   }
 859              		.loc 1 538 35 is_stmt 0 view .LVU209
 860 0034 0022     		movs	r2, #0
 861 0036 88F80420 		strb	r2, [r8, #4]
 862 003a 0222     		movs	r2, #2
 863 003c 88F80520 		strb	r2, [r8, #5]
 864              	.L69:
ARM GAS  C:\Users\ADMINI~1\AppData\Local\Temp\ccMoVhCc.s 			page 29


 541:Src/usbd_composite.c ****   {
 865              		.loc 1 541 3 is_stmt 1 view .LVU210
 541:Src/usbd_composite.c ****   {
 866              		.loc 1 541 6 is_stmt 0 view .LVU211
 867 0040 1DB1     		cbz	r5, .L70
 543:Src/usbd_composite.c ****   }
 868              		.loc 1 543 5 is_stmt 1 view .LVU212
 543:Src/usbd_composite.c ****   }
 869              		.loc 1 543 34 is_stmt 0 view .LVU213
 870 0042 0022     		movs	r2, #0
 871 0044 2A71     		strb	r2, [r5, #4]
 872 0046 0222     		movs	r2, #2
 873 0048 6A71     		strb	r2, [r5, #5]
 874              	.L70:
 545:Src/usbd_composite.c ****   {
 875              		.loc 1 545 3 is_stmt 1 view .LVU214
 545:Src/usbd_composite.c ****   {
 876              		.loc 1 545 6 is_stmt 0 view .LVU215
 877 004a 1CB1     		cbz	r4, .L71
 547:Src/usbd_composite.c ****   }
 878              		.loc 1 547 5 is_stmt 1 view .LVU216
 547:Src/usbd_composite.c ****   }
 879              		.loc 1 547 38 is_stmt 0 view .LVU217
 880 004c 0022     		movs	r2, #0
 881 004e 2271     		strb	r2, [r4, #4]
 882 0050 0222     		movs	r2, #2
 883 0052 6271     		strb	r2, [r4, #5]
 884              	.L71:
 550:Src/usbd_composite.c ****   {
 885              		.loc 1 550 3 is_stmt 1 view .LVU218
 550:Src/usbd_composite.c ****   {
 886              		.loc 1 550 6 is_stmt 0 view .LVU219
 887 0054 18B1     		cbz	r0, .L72
 552:Src/usbd_composite.c ****   }
 888              		.loc 1 552 5 is_stmt 1 view .LVU220
 552:Src/usbd_composite.c ****   }
 889              		.loc 1 552 37 is_stmt 0 view .LVU221
 890 0056 0022     		movs	r2, #0
 891 0058 0271     		strb	r2, [r0, #4]
 892 005a 0222     		movs	r2, #2
 893 005c 4271     		strb	r2, [r0, #5]
 894              	.L72:
 555:Src/usbd_composite.c **** 	return USBD_CMPSIT_CfgDesc;
 895              		.loc 1 555 3 is_stmt 1 view .LVU222
 555:Src/usbd_composite.c **** 	return USBD_CMPSIT_CfgDesc;
 896              		.loc 1 555 11 is_stmt 0 view .LVU223
 897 005e 4723     		movs	r3, #71
 898 0060 3B80     		strh	r3, [r7]	@ movhi
 556:Src/usbd_composite.c **** }
 899              		.loc 1 556 2 is_stmt 1 view .LVU224
 557:Src/usbd_composite.c **** static uint8_t *USBD_CMPSIT_GetOtherSpeedCfgDesc(uint16_t *length)
 900              		.loc 1 557 1 is_stmt 0 view .LVU225
 901 0062 0148     		ldr	r0, .L74
 902              	.LVL89:
 557:Src/usbd_composite.c **** static uint8_t *USBD_CMPSIT_GetOtherSpeedCfgDesc(uint16_t *length)
 903              		.loc 1 557 1 view .LVU226
 904 0064 BDE8F081 		pop	{r4, r5, r6, r7, r8, pc}
ARM GAS  C:\Users\ADMINI~1\AppData\Local\Temp\ccMoVhCc.s 			page 30


 905              	.LVL90:
 906              	.L75:
 557:Src/usbd_composite.c **** static uint8_t *USBD_CMPSIT_GetOtherSpeedCfgDesc(uint16_t *length)
 907              		.loc 1 557 1 view .LVU227
 908              		.align	2
 909              	.L74:
 910 0068 00000000 		.word	.LANCHOR5
 911              		.cfi_endproc
 912              	.LFE147:
 914              		.section	.text.USBD_CMPSIT_AddClass,"ax",%progbits
 915              		.align	1
 916              		.global	USBD_CMPSIT_AddClass
 917              		.syntax unified
 918              		.thumb
 919              		.thumb_func
 921              	USBD_CMPSIT_AddClass:
 922              	.LVL91:
 923              	.LFB143:
 407:Src/usbd_composite.c **** 	//printf("classId=%d  : %d\r\n",pdev->classId,classtype);
 924              		.loc 1 407 1 is_stmt 1 view -0
 925              		.cfi_startproc
 926              		@ args = 0, pretend = 0, frame = 0
 927              		@ frame_needed = 0, uses_anonymous_args = 0
 407:Src/usbd_composite.c **** 	//printf("classId=%d  : %d\r\n",pdev->classId,classtype);
 928              		.loc 1 407 1 is_stmt 0 view .LVU229
 929 0000 10B5     		push	{r4, lr}
 930              	.LCFI11:
 931              		.cfi_def_cfa_offset 8
 932              		.cfi_offset 4, -8
 933              		.cfi_offset 14, -4
 409:Src/usbd_composite.c **** 	{
 934              		.loc 1 409 2 is_stmt 1 view .LVU230
 935 0002 032A     		cmp	r2, #3
 936 0004 0BD0     		beq	.L77
 937 0006 0D2A     		cmp	r2, #13
 938 0008 33D0     		beq	.L78
 939              	.LVL92:
 940              	.L79:
 455:Src/usbd_composite.c **** 		
 941              		.loc 1 455 2 view .LVU231
 455:Src/usbd_composite.c **** 		
 942              		.loc 1 455 23 is_stmt 0 view .LVU232
 943 000a D0F8F832 		ldr	r3, [r0, #760]
 455:Src/usbd_composite.c **** 		
 944              		.loc 1 455 46 view .LVU233
 945 000e C3EBC303 		rsb	r3, r3, r3, lsl #3
 946 0012 00EBC300 		add	r0, r0, r3, lsl #3
 947              	.LVL93:
 455:Src/usbd_composite.c **** 		
 948              		.loc 1 455 46 view .LVU234
 949 0016 0023     		movs	r3, #0
 950 0018 C0F83433 		str	r3, [r0, #820]
 457:Src/usbd_composite.c **** void USBD_CMPST_ClearConfDesc(USBD_HandleTypeDef *pdev)
 951              		.loc 1 457 1 view .LVU235
 952 001c 10BD     		pop	{r4, pc}
 953              	.LVL94:
 954              	.L77:
ARM GAS  C:\Users\ADMINI~1\AppData\Local\Temp\ccMoVhCc.s 			page 31


 412:Src/usbd_composite.c **** 			
 955              		.loc 1 412 4 is_stmt 1 view .LVU236
 412:Src/usbd_composite.c **** 			
 956              		.loc 1 412 25 is_stmt 0 view .LVU237
 957 001e D0F8F822 		ldr	r2, [r0, #760]
 958              	.LVL95:
 412:Src/usbd_composite.c **** 			
 959              		.loc 1 412 46 view .LVU238
 960 0022 C2EBC203 		rsb	r3, r2, r2, lsl #3
 961              	.LVL96:
 412:Src/usbd_composite.c **** 			
 962              		.loc 1 412 46 view .LVU239
 963 0026 00EBC303 		add	r3, r0, r3, lsl #3
 964 002a 0321     		movs	r1, #3
 965              	.LVL97:
 412:Src/usbd_composite.c **** 			
 966              		.loc 1 412 46 view .LVU240
 967 002c 83F80013 		strb	r1, [r3, #768]
 414:Src/usbd_composite.c **** 			pdev->tclasslist[pdev->classId].NumEps = 2;
 968              		.loc 1 414 4 is_stmt 1 view .LVU241
 414:Src/usbd_composite.c **** 			pdev->tclasslist[pdev->classId].NumEps = 2;
 969              		.loc 1 414 43 is_stmt 0 view .LVU242
 970 0030 0121     		movs	r1, #1
 971 0032 C3F80813 		str	r1, [r3, #776]
 415:Src/usbd_composite.c **** 			
 972              		.loc 1 415 4 is_stmt 1 view .LVU243
 415:Src/usbd_composite.c **** 			
 973              		.loc 1 415 43 is_stmt 0 view .LVU244
 974 0036 0224     		movs	r4, #2
 975 0038 C3F80C43 		str	r4, [r3, #780]
 417:Src/usbd_composite.c **** 			pdev->tclasslist[pdev->classId].Eps[1].type = USBD_EP_TYPE_BULK;
 976              		.loc 1 417 4 is_stmt 1 view .LVU245
 417:Src/usbd_composite.c **** 			pdev->tclasslist[pdev->classId].Eps[1].type = USBD_EP_TYPE_BULK;
 977              		.loc 1 417 47 is_stmt 0 view .LVU246
 978 003c 83F81413 		strb	r1, [r3, #788]
 418:Src/usbd_composite.c **** 			pdev->tclasslist[pdev->classId].Eps[1].size = MSC_MAX_FS_PACKET;
 979              		.loc 1 418 4 is_stmt 1 view .LVU247
 418:Src/usbd_composite.c **** 			pdev->tclasslist[pdev->classId].Eps[1].size = MSC_MAX_FS_PACKET;
 980              		.loc 1 418 48 is_stmt 0 view .LVU248
 981 0040 83F81543 		strb	r4, [r3, #789]
 419:Src/usbd_composite.c **** 			pdev->tclasslist[pdev->classId].Eps[1].is_used = 1U;
 982              		.loc 1 419 4 is_stmt 1 view .LVU249
 419:Src/usbd_composite.c **** 			pdev->tclasslist[pdev->classId].Eps[1].is_used = 1U;
 983              		.loc 1 419 48 is_stmt 0 view .LVU250
 984 0044 4FF0400C 		mov	ip, #64
 985 0048 83F816C3 		strb	ip, [r3, #790]
 420:Src/usbd_composite.c **** 			
 986              		.loc 1 420 4 is_stmt 1 view .LVU251
 420:Src/usbd_composite.c **** 			
 987              		.loc 1 420 51 is_stmt 0 view .LVU252
 988 004c 83F81713 		strb	r1, [r3, #791]
 422:Src/usbd_composite.c **** 			pdev->tclasslist[pdev->classId].Eps[0].type = USBD_EP_TYPE_BULK;
 989              		.loc 1 422 4 is_stmt 1 view .LVU253
 422:Src/usbd_composite.c **** 			pdev->tclasslist[pdev->classId].Eps[0].type = USBD_EP_TYPE_BULK;
 990              		.loc 1 422 47 is_stmt 0 view .LVU254
 991 0050 4FF0810E 		mov	lr, #129
 992 0054 83F810E3 		strb	lr, [r3, #784]
ARM GAS  C:\Users\ADMINI~1\AppData\Local\Temp\ccMoVhCc.s 			page 32


 423:Src/usbd_composite.c **** 			pdev->tclasslist[pdev->classId].Eps[0].size = MSC_MAX_FS_PACKET;
 993              		.loc 1 423 4 is_stmt 1 view .LVU255
 423:Src/usbd_composite.c **** 			pdev->tclasslist[pdev->classId].Eps[0].size = MSC_MAX_FS_PACKET;
 994              		.loc 1 423 48 is_stmt 0 view .LVU256
 995 0058 83F81143 		strb	r4, [r3, #785]
 424:Src/usbd_composite.c **** 			pdev->tclasslist[pdev->classId].Eps[0].is_used = 1U;
 996              		.loc 1 424 4 is_stmt 1 view .LVU257
 424:Src/usbd_composite.c **** 			pdev->tclasslist[pdev->classId].Eps[0].is_used = 1U;
 997              		.loc 1 424 48 is_stmt 0 view .LVU258
 998 005c 83F812C3 		strb	ip, [r3, #786]
 425:Src/usbd_composite.c **** 
 999              		.loc 1 425 4 is_stmt 1 view .LVU259
 425:Src/usbd_composite.c **** 
 1000              		.loc 1 425 51 is_stmt 0 view .LVU260
 1001 0060 83F81313 		strb	r1, [r3, #787]
 427:Src/usbd_composite.c **** 			pdev->tclasslist[pdev->classId].Ifs[0] = 0;			
 1002              		.loc 1 427 4 is_stmt 1 view .LVU261
 427:Src/usbd_composite.c **** 			pdev->tclasslist[pdev->classId].Ifs[0] = 0;			
 1003              		.loc 1 427 42 is_stmt 0 view .LVU262
 1004 0064 C3F82813 		str	r1, [r3, #808]
 428:Src/usbd_composite.c **** 			
 1005              		.loc 1 428 4 is_stmt 1 view .LVU263
 428:Src/usbd_composite.c **** 			
 1006              		.loc 1 428 43 is_stmt 0 view .LVU264
 1007 0068 1A46     		mov	r2, r3
 1008 006a 0023     		movs	r3, #0
 1009 006c 82F82C33 		strb	r3, [r2, #812]
 430:Src/usbd_composite.c **** 
 1010              		.loc 1 430 4 is_stmt 1 view .LVU265
 430:Src/usbd_composite.c **** 
 1011              		.loc 1 430 3 is_stmt 0 view .LVU266
 1012 0070 CBE7     		b	.L79
 1013              	.LVL98:
 1014              	.L78:
 433:Src/usbd_composite.c **** 			
 1015              		.loc 1 433 4 is_stmt 1 view .LVU267
 433:Src/usbd_composite.c **** 			
 1016              		.loc 1 433 25 is_stmt 0 view .LVU268
 1017 0072 D0F8F822 		ldr	r2, [r0, #760]
 1018              	.LVL99:
 433:Src/usbd_composite.c **** 			
 1019              		.loc 1 433 46 view .LVU269
 1020 0076 C2EBC203 		rsb	r3, r2, r2, lsl #3
 1021              	.LVL100:
 433:Src/usbd_composite.c **** 			
 1022              		.loc 1 433 46 view .LVU270
 1023 007a 00EBC303 		add	r3, r0, r3, lsl #3
 1024 007e 0D21     		movs	r1, #13
 1025              	.LVL101:
 433:Src/usbd_composite.c **** 			
 1026              		.loc 1 433 46 view .LVU271
 1027 0080 83F80013 		strb	r1, [r3, #768]
 435:Src/usbd_composite.c **** 			pdev->tclasslist[pdev->classId].NumEps = 2;
 1028              		.loc 1 435 4 is_stmt 1 view .LVU272
 435:Src/usbd_composite.c **** 			pdev->tclasslist[pdev->classId].NumEps = 2;
 1029              		.loc 1 435 43 is_stmt 0 view .LVU273
 1030 0084 0121     		movs	r1, #1
ARM GAS  C:\Users\ADMINI~1\AppData\Local\Temp\ccMoVhCc.s 			page 33


 1031 0086 C3F80813 		str	r1, [r3, #776]
 436:Src/usbd_composite.c **** 			
 1032              		.loc 1 436 4 is_stmt 1 view .LVU274
 436:Src/usbd_composite.c **** 			
 1033              		.loc 1 436 43 is_stmt 0 view .LVU275
 1034 008a 0224     		movs	r4, #2
 1035 008c C3F80C43 		str	r4, [r3, #780]
 438:Src/usbd_composite.c **** 			pdev->tclasslist[pdev->classId].Eps[0].type = USBD_EP_TYPE_BULK;
 1036              		.loc 1 438 4 is_stmt 1 view .LVU276
 438:Src/usbd_composite.c **** 			pdev->tclasslist[pdev->classId].Eps[0].type = USBD_EP_TYPE_BULK;
 1037              		.loc 1 438 47 is_stmt 0 view .LVU277
 1038 0090 4FF0030C 		mov	ip, #3
 1039 0094 83F810C3 		strb	ip, [r3, #784]
 439:Src/usbd_composite.c **** 			pdev->tclasslist[pdev->classId].Eps[0].size = WIN_DATA_FS_MAX_PACKET_SIZE;
 1040              		.loc 1 439 4 is_stmt 1 view .LVU278
 439:Src/usbd_composite.c **** 			pdev->tclasslist[pdev->classId].Eps[0].size = WIN_DATA_FS_MAX_PACKET_SIZE;
 1041              		.loc 1 439 48 is_stmt 0 view .LVU279
 1042 0098 83F81143 		strb	r4, [r3, #785]
 440:Src/usbd_composite.c **** 			pdev->tclasslist[pdev->classId].Eps[0].is_used = 1U;
 1043              		.loc 1 440 4 is_stmt 1 view .LVU280
 440:Src/usbd_composite.c **** 			pdev->tclasslist[pdev->classId].Eps[0].is_used = 1U;
 1044              		.loc 1 440 48 is_stmt 0 view .LVU281
 1045 009c 4FF0400C 		mov	ip, #64
 1046 00a0 83F812C3 		strb	ip, [r3, #786]
 441:Src/usbd_composite.c **** 			
 1047              		.loc 1 441 4 is_stmt 1 view .LVU282
 441:Src/usbd_composite.c **** 			
 1048              		.loc 1 441 51 is_stmt 0 view .LVU283
 1049 00a4 83F81313 		strb	r1, [r3, #787]
 443:Src/usbd_composite.c **** 			pdev->tclasslist[pdev->classId].Eps[1].type = USBD_EP_TYPE_BULK;
 1050              		.loc 1 443 4 is_stmt 1 view .LVU284
 443:Src/usbd_composite.c **** 			pdev->tclasslist[pdev->classId].Eps[1].type = USBD_EP_TYPE_BULK;
 1051              		.loc 1 443 47 is_stmt 0 view .LVU285
 1052 00a8 4FF0830E 		mov	lr, #131
 1053 00ac 83F814E3 		strb	lr, [r3, #788]
 444:Src/usbd_composite.c **** 			pdev->tclasslist[pdev->classId].Eps[1].size = WIN_DATA_FS_MAX_PACKET_SIZE;
 1054              		.loc 1 444 4 is_stmt 1 view .LVU286
 444:Src/usbd_composite.c **** 			pdev->tclasslist[pdev->classId].Eps[1].size = WIN_DATA_FS_MAX_PACKET_SIZE;
 1055              		.loc 1 444 48 is_stmt 0 view .LVU287
 1056 00b0 83F81543 		strb	r4, [r3, #789]
 445:Src/usbd_composite.c **** 			pdev->tclasslist[pdev->classId].Eps[1].is_used = 1U;
 1057              		.loc 1 445 4 is_stmt 1 view .LVU288
 445:Src/usbd_composite.c **** 			pdev->tclasslist[pdev->classId].Eps[1].is_used = 1U;
 1058              		.loc 1 445 48 is_stmt 0 view .LVU289
 1059 00b4 83F816C3 		strb	ip, [r3, #790]
 446:Src/usbd_composite.c **** 			
 1060              		.loc 1 446 4 is_stmt 1 view .LVU290
 446:Src/usbd_composite.c **** 			
 1061              		.loc 1 446 51 is_stmt 0 view .LVU291
 1062 00b8 83F81713 		strb	r1, [r3, #791]
 449:Src/usbd_composite.c **** 			pdev->tclasslist[pdev->classId].Ifs[0] = 1;
 1063              		.loc 1 449 4 is_stmt 1 view .LVU292
 449:Src/usbd_composite.c **** 			pdev->tclasslist[pdev->classId].Ifs[0] = 1;
 1064              		.loc 1 449 42 is_stmt 0 view .LVU293
 1065 00bc C3F82813 		str	r1, [r3, #808]
 450:Src/usbd_composite.c **** 			
 1066              		.loc 1 450 4 is_stmt 1 view .LVU294
ARM GAS  C:\Users\ADMINI~1\AppData\Local\Temp\ccMoVhCc.s 			page 34


 450:Src/usbd_composite.c **** 			
 1067              		.loc 1 450 43 is_stmt 0 view .LVU295
 1068 00c0 83F82C13 		strb	r1, [r3, #812]
 452:Src/usbd_composite.c **** 		default:break;
 1069              		.loc 1 452 4 is_stmt 1 view .LVU296
 452:Src/usbd_composite.c **** 		default:break;
 1070              		.loc 1 452 3 is_stmt 0 view .LVU297
 1071 00c4 A1E7     		b	.L79
 1072              		.cfi_endproc
 1073              	.LFE143:
 1075              		.section	.text.USBD_CMPST_ClearConfDesc,"ax",%progbits
 1076              		.align	1
 1077              		.global	USBD_CMPST_ClearConfDesc
 1078              		.syntax unified
 1079              		.thumb
 1080              		.thumb_func
 1082              	USBD_CMPST_ClearConfDesc:
 1083              	.LVL102:
 1084              	.LFB144:
 459:Src/usbd_composite.c **** }
 1085              		.loc 1 459 1 is_stmt 1 view -0
 1086              		.cfi_startproc
 1087              		@ args = 0, pretend = 0, frame = 0
 1088              		@ frame_needed = 0, uses_anonymous_args = 0
 1089              		@ link register save eliminated.
 460:Src/usbd_composite.c **** 
 1090              		.loc 1 460 1 view .LVU299
 1091 0000 7047     		bx	lr
 1092              		.cfi_endproc
 1093              	.LFE144:
 1095              		.section	.rodata.USBD_UsrStrDescriptor.str1.4,"aMS",%progbits,1
 1096              		.align	2
 1097              	.LC4:
 1098 0000 4D534320 		.ascii	"MSC Interface\000"
 1098      496E7465 
 1098      72666163 
 1098      6500
 1099 000e 0000     		.align	2
 1100              	.LC5:
 1101 0010 456C6563 		.ascii	"Electronbot Native Interface\000"
 1101      74726F6E 
 1101      626F7420 
 1101      4E617469 
 1101      76652049 
 1102              		.section	.text.USBD_UsrStrDescriptor,"ax",%progbits
 1103              		.align	1
 1104              		.global	USBD_UsrStrDescriptor
 1105              		.syntax unified
 1106              		.thumb
 1107              		.thumb_func
 1109              	USBD_UsrStrDescriptor:
 1110              	.LVL103:
 1111              	.LFB145:
 479:Src/usbd_composite.c ****   *length = 0;  
 1112              		.loc 1 479 1 view -0
 1113              		.cfi_startproc
 1114              		@ args = 0, pretend = 0, frame = 0
ARM GAS  C:\Users\ADMINI~1\AppData\Local\Temp\ccMoVhCc.s 			page 35


 1115              		@ frame_needed = 0, uses_anonymous_args = 0
 480:Src/usbd_composite.c ****   // printf("index=%x\r\n",index);
 1116              		.loc 1 480 3 view .LVU301
 480:Src/usbd_composite.c ****   // printf("index=%x\r\n",index);
 1117              		.loc 1 480 11 is_stmt 0 view .LVU302
 1118 0000 0023     		movs	r3, #0
 1119 0002 1380     		strh	r3, [r2]	@ movhi
 482:Src/usbd_composite.c ****     *length = sizeof (USBD_MS_OS_StringDescriptor);
 1120              		.loc 1 482 3 is_stmt 1 view .LVU303
 482:Src/usbd_composite.c ****     *length = sizeof (USBD_MS_OS_StringDescriptor);
 1121              		.loc 1 482 6 is_stmt 0 view .LVU304
 1122 0004 EE29     		cmp	r1, #238
 1123 0006 06D0     		beq	.L90
 479:Src/usbd_composite.c ****   *length = 0;  
 1124              		.loc 1 479 1 view .LVU305
 1125 0008 10B5     		push	{r4, lr}
 1126              	.LCFI12:
 1127              		.cfi_def_cfa_offset 8
 1128              		.cfi_offset 4, -8
 1129              		.cfi_offset 14, -4
 485:Src/usbd_composite.c ****     USBD_GetString((uint8_t *)USBD_MSC_INTERFACE_STRING_FS, USBD_CMPSIT_StrDesc, length);
 1130              		.loc 1 485 10 is_stmt 1 view .LVU306
 485:Src/usbd_composite.c ****     USBD_GetString((uint8_t *)USBD_MSC_INTERFACE_STRING_FS, USBD_CMPSIT_StrDesc, length);
 1131              		.loc 1 485 13 is_stmt 0 view .LVU307
 1132 000a 0629     		cmp	r1, #6
 1133 000c 07D0     		beq	.L91
 489:Src/usbd_composite.c ****     USBD_GetString((uint8_t *)USBD_PRODUCT_XSTR(USBD_WIN_USB_INTERFACE_STRING_FS), USBD_CMPSIT_StrD
 1134              		.loc 1 489 8 is_stmt 1 view .LVU308
 489:Src/usbd_composite.c ****     USBD_GetString((uint8_t *)USBD_PRODUCT_XSTR(USBD_WIN_USB_INTERFACE_STRING_FS), USBD_CMPSIT_StrD
 1135              		.loc 1 489 11 is_stmt 0 view .LVU309
 1136 000e 0729     		cmp	r1, #7
 1137 0010 0CD0     		beq	.L92
 493:Src/usbd_composite.c **** }
 1138              		.loc 1 493 10 view .LVU310
 1139 0012 0020     		movs	r0, #0
 1140              	.LVL104:
 1141              	.L82:
 494:Src/usbd_composite.c **** 
 1142              		.loc 1 494 1 view .LVU311
 1143 0014 10BD     		pop	{r4, pc}
 1144              	.LVL105:
 1145              	.L90:
 1146              	.LCFI13:
 1147              		.cfi_def_cfa_offset 0
 1148              		.cfi_restore 4
 1149              		.cfi_restore 14
 483:Src/usbd_composite.c ****     return USBD_MS_OS_StringDescriptor;
 1150              		.loc 1 483 5 is_stmt 1 view .LVU312
 483:Src/usbd_composite.c ****     return USBD_MS_OS_StringDescriptor;
 1151              		.loc 1 483 13 is_stmt 0 view .LVU313
 1152 0016 1223     		movs	r3, #18
 1153 0018 1380     		strh	r3, [r2]	@ movhi
 484:Src/usbd_composite.c ****   } else if (USBD_IDX_MSC_INTF_STR == index) {
 1154              		.loc 1 484 5 is_stmt 1 view .LVU314
 484:Src/usbd_composite.c ****   } else if (USBD_IDX_MSC_INTF_STR == index) {
 1155              		.loc 1 484 12 is_stmt 0 view .LVU315
 1156 001a 0848     		ldr	r0, .L93
ARM GAS  C:\Users\ADMINI~1\AppData\Local\Temp\ccMoVhCc.s 			page 36


 1157              	.LVL106:
 494:Src/usbd_composite.c **** 
 1158              		.loc 1 494 1 view .LVU316
 1159 001c 7047     		bx	lr
 1160              	.LVL107:
 1161              	.L91:
 1162              	.LCFI14:
 1163              		.cfi_def_cfa_offset 8
 1164              		.cfi_offset 4, -8
 1165              		.cfi_offset 14, -4
 486:Src/usbd_composite.c ****     return USBD_CMPSIT_StrDesc;
 1166              		.loc 1 486 5 is_stmt 1 view .LVU317
 1167 001e 084C     		ldr	r4, .L93+4
 1168 0020 2146     		mov	r1, r4
 1169              	.LVL108:
 486:Src/usbd_composite.c ****     return USBD_CMPSIT_StrDesc;
 1170              		.loc 1 486 5 is_stmt 0 view .LVU318
 1171 0022 0848     		ldr	r0, .L93+8
 1172              	.LVL109:
 486:Src/usbd_composite.c ****     return USBD_CMPSIT_StrDesc;
 1173              		.loc 1 486 5 view .LVU319
 1174 0024 FFF7FEFF 		bl	USBD_GetString
 1175              	.LVL110:
 487:Src/usbd_composite.c ****   }  
 1176              		.loc 1 487 5 is_stmt 1 view .LVU320
 487:Src/usbd_composite.c ****   }  
 1177              		.loc 1 487 12 is_stmt 0 view .LVU321
 1178 0028 2046     		mov	r0, r4
 1179 002a F3E7     		b	.L82
 1180              	.LVL111:
 1181              	.L92:
 490:Src/usbd_composite.c ****     return USBD_CMPSIT_StrDesc;
 1182              		.loc 1 490 5 is_stmt 1 view .LVU322
 1183 002c 044C     		ldr	r4, .L93+4
 1184 002e 2146     		mov	r1, r4
 1185              	.LVL112:
 490:Src/usbd_composite.c ****     return USBD_CMPSIT_StrDesc;
 1186              		.loc 1 490 5 is_stmt 0 view .LVU323
 1187 0030 0548     		ldr	r0, .L93+12
 1188              	.LVL113:
 490:Src/usbd_composite.c ****     return USBD_CMPSIT_StrDesc;
 1189              		.loc 1 490 5 view .LVU324
 1190 0032 FFF7FEFF 		bl	USBD_GetString
 1191              	.LVL114:
 491:Src/usbd_composite.c ****   }  
 1192              		.loc 1 491 5 is_stmt 1 view .LVU325
 491:Src/usbd_composite.c ****   }  
 1193              		.loc 1 491 12 is_stmt 0 view .LVU326
 1194 0036 2046     		mov	r0, r4
 1195 0038 ECE7     		b	.L82
 1196              	.L94:
 1197 003a 00BF     		.align	2
 1198              	.L93:
 1199 003c 00000000 		.word	.LANCHOR6
 1200 0040 00000000 		.word	.LANCHOR4
 1201 0044 00000000 		.word	.LC4
 1202 0048 10000000 		.word	.LC5
ARM GAS  C:\Users\ADMINI~1\AppData\Local\Temp\ccMoVhCc.s 			page 37


 1203              		.cfi_endproc
 1204              	.LFE145:
 1206              		.global	USBD_MS_OS_StringDescriptor
 1207              		.global	USBD_CMPSIT
 1208              		.global	USBD_CMPSIT_StringSerial
 1209              		.global	USBD_CMPSIT_StrDesc
 1210              		.global	USBD_CMPSIT_LangIDDesc
 1211              		.global	USBD_CMPSIT_FS_DeviceDesc
 1212              		.global	usbCmpsitFS_Desc
 1213              		.section	.bss.USBD_CMPSIT_StrDesc,"aw",%nobits
 1214              		.align	2
 1215              		.set	.LANCHOR4,. + 0
 1218              	USBD_CMPSIT_StrDesc:
 1219 0000 00000000 		.space	512
 1219      00000000 
 1219      00000000 
 1219      00000000 
 1219      00000000 
 1220              		.section	.data.USBD_CMPSIT,"aw"
 1221              		.align	2
 1224              	USBD_CMPSIT:
 1225 0000 00000000 		.word	0
 1226 0004 00000000 		.word	0
 1227 0008 00000000 		.word	0
 1228 000c 00000000 		.word	0
 1229 0010 00000000 		.word	0
 1230 0014 00000000 		.word	0
 1231 0018 00000000 		.word	0
 1232 001c 00000000 		.word	0
 1233 0020 00000000 		.word	0
 1234 0024 00000000 		.word	0
 1235 0028 00000000 		.word	USBD_CMPSIT_GetHSCfgDesc
 1236 002c 00000000 		.word	USBD_CMPSIT_GetFSCfgDesc
 1237 0030 00000000 		.word	USBD_CMPSIT_GetOtherSpeedCfgDesc
 1238 0034 00000000 		.word	USBD_CMPSIT_GetDeviceQualifierDescriptor
 1239 0038 00000000 		.space	4
 1240              		.section	.data.USBD_CMPSIT_CfgDesc,"aw"
 1241              		.align	2
 1242              		.set	.LANCHOR5,. + 0
 1245              	USBD_CMPSIT_CfgDesc:
 1246 0000 09024700 		.ascii	"\011\002G\000\002\001\000\3002\010\013\000\001\010\006"
 1246      020100C0 
 1246      32080B00 
 1246      010806
 1247 000f 50060904 		.ascii	"P\006\011\004\000\000\002\010\006P\000\007\005\201\002"
 1247      00000208 
 1247      06500007 
 1247      058102
 1248 001e 40000007 		.ascii	"@\000\000\007\005\001\002@\000\000\010\013\001\001\000"
 1248      05010240 
 1248      0000080B 
 1248      010100
 1249 002d 00000709 		.ascii	"\000\000\007\011\004\001\000\002\000\001\000\000\007"
 1249      04010002 
 1249      00010000 
 1249      07
 1250 003a 05030240 		.ascii	"\005\003\002@\000\000\007\005\203\002@\000\000"
ARM GAS  C:\Users\ADMINI~1\AppData\Local\Temp\ccMoVhCc.s 			page 38


 1250      00000705 
 1250      83024000 
 1250      00
 1251              		.section	.data.USBD_CMPSIT_DeviceQualifierDesc,"aw"
 1252              		.align	2
 1253              		.set	.LANCHOR3,. + 0
 1256              	USBD_CMPSIT_DeviceQualifierDesc:
 1257 0000 0A060002 		.ascii	"\012\006\000\002\000\000\000@\001\000"
 1257      00000040 
 1257      0100
 1258              		.section	.data.USBD_CMPSIT_FS_DeviceDesc,"aw"
 1259              		.align	2
 1260              		.set	.LANCHOR0,. + 0
 1263              	USBD_CMPSIT_FS_DeviceDesc:
 1264 0000 12010002 		.ascii	"\022\001\000\002\357\002\001@\024\022:\015\000\002\001"
 1264      EF020140 
 1264      14123A0D 
 1264      000201
 1265 000f 020301   		.ascii	"\002\003\001"
 1266              		.section	.data.USBD_CMPSIT_LangIDDesc,"aw"
 1267              		.align	2
 1268              		.set	.LANCHOR1,. + 0
 1271              	USBD_CMPSIT_LangIDDesc:
 1272 0000 04030904 		.ascii	"\004\003\011\004"
 1273              		.section	.data.USBD_CMPSIT_StringSerial,"aw"
 1274              		.align	2
 1275              		.set	.LANCHOR2,. + 0
 1278              	USBD_CMPSIT_StringSerial:
 1279 0000 1A0300   		.ascii	"\032\003\000"
 1280 0003 00000000 		.space	23
 1280      00000000 
 1280      00000000 
 1280      00000000 
 1280      00000000 
 1281              		.section	.data.USBD_MS_OS_StringDescriptor,"aw"
 1282              		.align	2
 1283              		.set	.LANCHOR6,. + 0
 1286              	USBD_MS_OS_StringDescriptor:
 1287 0000 12034D00 		.ascii	"\022\003M\000S\000F\000T\0001\0000\0000\000P\000"
 1287      53004600 
 1287      54003100 
 1287      30003000 
 1287      5000
 1288              		.section	.data.usbCmpsitFS_Desc,"aw"
 1289              		.align	2
 1292              	usbCmpsitFS_Desc:
 1293 0000 00000000 		.word	USBD_CMPSIT_FS_DeviceDescriptor
 1294 0004 00000000 		.word	USBD_CMPSIT_FS_LangIDStrDescriptor
 1295 0008 00000000 		.word	USBD_CMPSIT_FS_ManufacturerStrDescriptor
 1296 000c 00000000 		.word	USBD_CMPSIT_FS_ProductStrDescriptor
 1297 0010 00000000 		.word	USBD_CMPSIT_FS_SerialStrDescriptor
 1298 0014 00000000 		.word	USBD_CMPSIT_FS_ConfigStrDescriptor
 1299 0018 00000000 		.word	USBD_CMPSIT_FS_InterfaceStrDescriptor
 1300              		.text
 1301              	.Letext0:
 1302              		.file 2 "c:\\program files (x86)\\gnu arm embedded toolchain\\10 2021.10\\arm-none-eabi\\include\\
 1303              		.file 3 "c:\\program files (x86)\\gnu arm embedded toolchain\\10 2021.10\\arm-none-eabi\\include\\
ARM GAS  C:\Users\ADMINI~1\AppData\Local\Temp\ccMoVhCc.s 			page 39


 1304              		.file 4 "Middlewares/ST/STM32_USB_Device_Library/Core/Inc/usbd_def.h"
 1305              		.file 5 "Inc/usbd_composite.h"
 1306              		.file 6 "Middlewares/ST/STM32_USB_Device_Library/Core/Inc/usbd_core.h"
 1307              		.file 7 "Middlewares/ST/STM32_USB_Device_Library/Core/Inc/usbd_ctlreq.h"
ARM GAS  C:\Users\ADMINI~1\AppData\Local\Temp\ccMoVhCc.s 			page 40

