ARM GAS  C:\Users\ADMINI~1\AppData\Local\Temp\cc0ubKlL.s 			page 1


   1              		.cpu cortex-m4
   2              		.arch armv7e-m
   3              		.fpu fpv4-sp-d16
   4              		.eabi_attribute 27, 1
   5              		.eabi_attribute 28, 1
   6              		.eabi_attribute 20, 1
   7              		.eabi_attribute 21, 1
   8              		.eabi_attribute 23, 3
   9              		.eabi_attribute 24, 1
  10              		.eabi_attribute 25, 1
  11              		.eabi_attribute 26, 1
  12              		.eabi_attribute 30, 1
  13              		.eabi_attribute 34, 1
  14              		.eabi_attribute 18, 4
  15              		.file	"usbd_winUsb.c"
  16              		.text
  17              	.Ltext0:
  18              		.cfi_sections	.debug_frame
  19              		.section	.text.USBD_WinUsb_EP0_RxReady,"ax",%progbits
  20              		.align	1
  21              		.syntax unified
  22              		.thumb
  23              		.thumb_func
  25              	USBD_WinUsb_EP0_RxReady:
  26              	.LVL0:
  27              	.LFB144:
  28              		.file 1 "Middlewares/ST/STM32_USB_Device_Library/Class/winUsb/Src/usbd_winUsb.c"
   1:Middlewares/ST/STM32_USB_Device_Library/Class/winUsb/Src/usbd_winUsb.c **** /**
   2:Middlewares/ST/STM32_USB_Device_Library/Class/winUsb/Src/usbd_winUsb.c ****   ******************************************************************************
   3:Middlewares/ST/STM32_USB_Device_Library/Class/winUsb/Src/usbd_winUsb.c ****   * @file    usbd_cdc.c
   4:Middlewares/ST/STM32_USB_Device_Library/Class/winUsb/Src/usbd_winUsb.c ****   * @author  MCD Application Team
   5:Middlewares/ST/STM32_USB_Device_Library/Class/winUsb/Src/usbd_winUsb.c ****   * @brief   This file provides the high layer firmware functions to manage the
   6:Middlewares/ST/STM32_USB_Device_Library/Class/winUsb/Src/usbd_winUsb.c ****   *          following functionalities of the USB CDC Class:
   7:Middlewares/ST/STM32_USB_Device_Library/Class/winUsb/Src/usbd_winUsb.c ****   *           - Initialization and Configuration of high and low layer
   8:Middlewares/ST/STM32_USB_Device_Library/Class/winUsb/Src/usbd_winUsb.c ****   *           - Enumeration as CDC Device (and enumeration for each implemented memory interface)
   9:Middlewares/ST/STM32_USB_Device_Library/Class/winUsb/Src/usbd_winUsb.c ****   *           - OUT/IN data transfer
  10:Middlewares/ST/STM32_USB_Device_Library/Class/winUsb/Src/usbd_winUsb.c ****   *           - Command IN transfer (class requests management)
  11:Middlewares/ST/STM32_USB_Device_Library/Class/winUsb/Src/usbd_winUsb.c ****   *           - Error management
  12:Middlewares/ST/STM32_USB_Device_Library/Class/winUsb/Src/usbd_winUsb.c ****   *
  13:Middlewares/ST/STM32_USB_Device_Library/Class/winUsb/Src/usbd_winUsb.c ****   ******************************************************************************
  14:Middlewares/ST/STM32_USB_Device_Library/Class/winUsb/Src/usbd_winUsb.c ****   * @attention
  15:Middlewares/ST/STM32_USB_Device_Library/Class/winUsb/Src/usbd_winUsb.c ****   *
  16:Middlewares/ST/STM32_USB_Device_Library/Class/winUsb/Src/usbd_winUsb.c ****   * Copyright (c) 2015 STMicroelectronics.
  17:Middlewares/ST/STM32_USB_Device_Library/Class/winUsb/Src/usbd_winUsb.c ****   * All rights reserved.
  18:Middlewares/ST/STM32_USB_Device_Library/Class/winUsb/Src/usbd_winUsb.c ****   *
  19:Middlewares/ST/STM32_USB_Device_Library/Class/winUsb/Src/usbd_winUsb.c ****   * This software is licensed under terms that can be found in the LICENSE file
  20:Middlewares/ST/STM32_USB_Device_Library/Class/winUsb/Src/usbd_winUsb.c ****   * in the root directory of this software component.
  21:Middlewares/ST/STM32_USB_Device_Library/Class/winUsb/Src/usbd_winUsb.c ****   * If no LICENSE file comes with this software, it is provided AS-IS.
  22:Middlewares/ST/STM32_USB_Device_Library/Class/winUsb/Src/usbd_winUsb.c ****   *
  23:Middlewares/ST/STM32_USB_Device_Library/Class/winUsb/Src/usbd_winUsb.c ****   ******************************************************************************
  24:Middlewares/ST/STM32_USB_Device_Library/Class/winUsb/Src/usbd_winUsb.c ****   *  @verbatim
  25:Middlewares/ST/STM32_USB_Device_Library/Class/winUsb/Src/usbd_winUsb.c ****   *
  26:Middlewares/ST/STM32_USB_Device_Library/Class/winUsb/Src/usbd_winUsb.c ****   *          ===================================================================
  27:Middlewares/ST/STM32_USB_Device_Library/Class/winUsb/Src/usbd_winUsb.c ****   *                                CDC Class Driver Description
  28:Middlewares/ST/STM32_USB_Device_Library/Class/winUsb/Src/usbd_winUsb.c ****   *          ===================================================================
  29:Middlewares/ST/STM32_USB_Device_Library/Class/winUsb/Src/usbd_winUsb.c ****   *           This driver manages the "Universal Serial Bus Class Definitions for Communications De
  30:Middlewares/ST/STM32_USB_Device_Library/Class/winUsb/Src/usbd_winUsb.c ****   *           Revision 1.2 November 16, 2007" and the sub-protocol specification of "Universal Seri
ARM GAS  C:\Users\ADMINI~1\AppData\Local\Temp\cc0ubKlL.s 			page 2


  31:Middlewares/ST/STM32_USB_Device_Library/Class/winUsb/Src/usbd_winUsb.c ****   *           Communications Class Subclass Specification for PSTN Devices Revision 1.2 February 9,
  32:Middlewares/ST/STM32_USB_Device_Library/Class/winUsb/Src/usbd_winUsb.c ****   *           This driver implements the following aspects of the specification:
  33:Middlewares/ST/STM32_USB_Device_Library/Class/winUsb/Src/usbd_winUsb.c ****   *             - Device descriptor management
  34:Middlewares/ST/STM32_USB_Device_Library/Class/winUsb/Src/usbd_winUsb.c ****   *             - Configuration descriptor management
  35:Middlewares/ST/STM32_USB_Device_Library/Class/winUsb/Src/usbd_winUsb.c ****   *             - Enumeration as CDC device with 2 data endpoints (IN and OUT) and 1 command endpoi
  36:Middlewares/ST/STM32_USB_Device_Library/Class/winUsb/Src/usbd_winUsb.c ****   *             - Requests management (as described in section 6.2 in specification)
  37:Middlewares/ST/STM32_USB_Device_Library/Class/winUsb/Src/usbd_winUsb.c ****   *             - Abstract Control Model compliant
  38:Middlewares/ST/STM32_USB_Device_Library/Class/winUsb/Src/usbd_winUsb.c ****   *             - Union Functional collection (using 1 IN endpoint for control)
  39:Middlewares/ST/STM32_USB_Device_Library/Class/winUsb/Src/usbd_winUsb.c ****   *             - Data interface class
  40:Middlewares/ST/STM32_USB_Device_Library/Class/winUsb/Src/usbd_winUsb.c ****   *
  41:Middlewares/ST/STM32_USB_Device_Library/Class/winUsb/Src/usbd_winUsb.c ****   *           These aspects may be enriched or modified for a specific user application.
  42:Middlewares/ST/STM32_USB_Device_Library/Class/winUsb/Src/usbd_winUsb.c ****   *
  43:Middlewares/ST/STM32_USB_Device_Library/Class/winUsb/Src/usbd_winUsb.c ****   *            This driver doesn't implement the following aspects of the specification
  44:Middlewares/ST/STM32_USB_Device_Library/Class/winUsb/Src/usbd_winUsb.c ****   *            (but it is possible to manage these features with some modifications on this driver)
  45:Middlewares/ST/STM32_USB_Device_Library/Class/winUsb/Src/usbd_winUsb.c ****   *             - Any class-specific aspect relative to communication classes should be managed by 
  46:Middlewares/ST/STM32_USB_Device_Library/Class/winUsb/Src/usbd_winUsb.c ****   *             - All communication classes other than PSTN are not managed
  47:Middlewares/ST/STM32_USB_Device_Library/Class/winUsb/Src/usbd_winUsb.c ****   *
  48:Middlewares/ST/STM32_USB_Device_Library/Class/winUsb/Src/usbd_winUsb.c ****   *  @endverbatim
  49:Middlewares/ST/STM32_USB_Device_Library/Class/winUsb/Src/usbd_winUsb.c ****   *
  50:Middlewares/ST/STM32_USB_Device_Library/Class/winUsb/Src/usbd_winUsb.c ****   ******************************************************************************
  51:Middlewares/ST/STM32_USB_Device_Library/Class/winUsb/Src/usbd_winUsb.c ****   */
  52:Middlewares/ST/STM32_USB_Device_Library/Class/winUsb/Src/usbd_winUsb.c **** 
  53:Middlewares/ST/STM32_USB_Device_Library/Class/winUsb/Src/usbd_winUsb.c **** /* BSPDependencies
  54:Middlewares/ST/STM32_USB_Device_Library/Class/winUsb/Src/usbd_winUsb.c **** - "stm32xxxxx_{eval}{discovery}{nucleo_144}.c"
  55:Middlewares/ST/STM32_USB_Device_Library/Class/winUsb/Src/usbd_winUsb.c **** - "stm32xxxxx_{eval}{discovery}_io.c"
  56:Middlewares/ST/STM32_USB_Device_Library/Class/winUsb/Src/usbd_winUsb.c **** EndBSPDependencies */
  57:Middlewares/ST/STM32_USB_Device_Library/Class/winUsb/Src/usbd_winUsb.c **** 
  58:Middlewares/ST/STM32_USB_Device_Library/Class/winUsb/Src/usbd_winUsb.c **** /* Includes ------------------------------------------------------------------*/
  59:Middlewares/ST/STM32_USB_Device_Library/Class/winUsb/Src/usbd_winUsb.c **** #include "usbd_winUsb.h"
  60:Middlewares/ST/STM32_USB_Device_Library/Class/winUsb/Src/usbd_winUsb.c **** #include "usbd_ctlreq.h"
  61:Middlewares/ST/STM32_USB_Device_Library/Class/winUsb/Src/usbd_winUsb.c **** #include "usbd_desc.h"
  62:Middlewares/ST/STM32_USB_Device_Library/Class/winUsb/Src/usbd_winUsb.c **** #include <stdio.h>
  63:Middlewares/ST/STM32_USB_Device_Library/Class/winUsb/Src/usbd_winUsb.c **** 
  64:Middlewares/ST/STM32_USB_Device_Library/Class/winUsb/Src/usbd_winUsb.c **** /** @addtogroup STM32_USB_DEVICE_LIBRARY
  65:Middlewares/ST/STM32_USB_Device_Library/Class/winUsb/Src/usbd_winUsb.c ****   * @{
  66:Middlewares/ST/STM32_USB_Device_Library/Class/winUsb/Src/usbd_winUsb.c ****   */
  67:Middlewares/ST/STM32_USB_Device_Library/Class/winUsb/Src/usbd_winUsb.c **** static uint8_t USBD_WinUsb_Init(USBD_HandleTypeDef *pdev, uint8_t cfgidx);
  68:Middlewares/ST/STM32_USB_Device_Library/Class/winUsb/Src/usbd_winUsb.c **** static uint8_t USBD_WinUsb_DeInit(USBD_HandleTypeDef *pdev, uint8_t cfgidx);
  69:Middlewares/ST/STM32_USB_Device_Library/Class/winUsb/Src/usbd_winUsb.c **** static uint8_t USBD_WinUsb_Setup(USBD_HandleTypeDef *pdev, USBD_SetupReqTypedef *req);
  70:Middlewares/ST/STM32_USB_Device_Library/Class/winUsb/Src/usbd_winUsb.c **** static uint8_t USBD_WinUsb_DataIn(USBD_HandleTypeDef *pdev, uint8_t epnum);
  71:Middlewares/ST/STM32_USB_Device_Library/Class/winUsb/Src/usbd_winUsb.c **** static uint8_t USBD_WinUsb_DataOut(USBD_HandleTypeDef *pdev, uint8_t epnum);
  72:Middlewares/ST/STM32_USB_Device_Library/Class/winUsb/Src/usbd_winUsb.c **** static uint8_t USBD_WinUsb_EP0_RxReady(USBD_HandleTypeDef *pdev);
  73:Middlewares/ST/STM32_USB_Device_Library/Class/winUsb/Src/usbd_winUsb.c **** 
  74:Middlewares/ST/STM32_USB_Device_Library/Class/winUsb/Src/usbd_winUsb.c **** 
  75:Middlewares/ST/STM32_USB_Device_Library/Class/winUsb/Src/usbd_winUsb.c **** /** @defgroup USBD_CDC
  76:Middlewares/ST/STM32_USB_Device_Library/Class/winUsb/Src/usbd_winUsb.c ****   * @brief usbd core module
  77:Middlewares/ST/STM32_USB_Device_Library/Class/winUsb/Src/usbd_winUsb.c ****   * @{
  78:Middlewares/ST/STM32_USB_Device_Library/Class/winUsb/Src/usbd_winUsb.c ****   */
  79:Middlewares/ST/STM32_USB_Device_Library/Class/winUsb/Src/usbd_winUsb.c **** 
  80:Middlewares/ST/STM32_USB_Device_Library/Class/winUsb/Src/usbd_winUsb.c **** USBD_ClassTypeDef  USBD_WinUsb =
  81:Middlewares/ST/STM32_USB_Device_Library/Class/winUsb/Src/usbd_winUsb.c **** {
  82:Middlewares/ST/STM32_USB_Device_Library/Class/winUsb/Src/usbd_winUsb.c ****   USBD_WinUsb_Init,
  83:Middlewares/ST/STM32_USB_Device_Library/Class/winUsb/Src/usbd_winUsb.c ****   USBD_WinUsb_DeInit,
  84:Middlewares/ST/STM32_USB_Device_Library/Class/winUsb/Src/usbd_winUsb.c ****   USBD_WinUsb_Setup,
  85:Middlewares/ST/STM32_USB_Device_Library/Class/winUsb/Src/usbd_winUsb.c ****   NULL,                 /* EP0_TxSent */
  86:Middlewares/ST/STM32_USB_Device_Library/Class/winUsb/Src/usbd_winUsb.c ****   USBD_WinUsb_EP0_RxReady,
  87:Middlewares/ST/STM32_USB_Device_Library/Class/winUsb/Src/usbd_winUsb.c ****   USBD_WinUsb_DataIn,
ARM GAS  C:\Users\ADMINI~1\AppData\Local\Temp\cc0ubKlL.s 			page 3


  88:Middlewares/ST/STM32_USB_Device_Library/Class/winUsb/Src/usbd_winUsb.c ****   USBD_WinUsb_DataOut,
  89:Middlewares/ST/STM32_USB_Device_Library/Class/winUsb/Src/usbd_winUsb.c ****   NULL,
  90:Middlewares/ST/STM32_USB_Device_Library/Class/winUsb/Src/usbd_winUsb.c ****   NULL,
  91:Middlewares/ST/STM32_USB_Device_Library/Class/winUsb/Src/usbd_winUsb.c ****   NULL,
  92:Middlewares/ST/STM32_USB_Device_Library/Class/winUsb/Src/usbd_winUsb.c **** #ifdef USE_USBD_COMPOSITE
  93:Middlewares/ST/STM32_USB_Device_Library/Class/winUsb/Src/usbd_winUsb.c ****   NULL,
  94:Middlewares/ST/STM32_USB_Device_Library/Class/winUsb/Src/usbd_winUsb.c ****   NULL,
  95:Middlewares/ST/STM32_USB_Device_Library/Class/winUsb/Src/usbd_winUsb.c ****   NULL,
  96:Middlewares/ST/STM32_USB_Device_Library/Class/winUsb/Src/usbd_winUsb.c ****   NULL,
  97:Middlewares/ST/STM32_USB_Device_Library/Class/winUsb/Src/usbd_winUsb.c **** #else
  98:Middlewares/ST/STM32_USB_Device_Library/Class/winUsb/Src/usbd_winUsb.c ****   NULL,
  99:Middlewares/ST/STM32_USB_Device_Library/Class/winUsb/Src/usbd_winUsb.c ****   NULL,
 100:Middlewares/ST/STM32_USB_Device_Library/Class/winUsb/Src/usbd_winUsb.c ****   NULL,
 101:Middlewares/ST/STM32_USB_Device_Library/Class/winUsb/Src/usbd_winUsb.c ****   NULL,
 102:Middlewares/ST/STM32_USB_Device_Library/Class/winUsb/Src/usbd_winUsb.c ****  /*  USBD_WinUsb_GetHSCfgDesc,
 103:Middlewares/ST/STM32_USB_Device_Library/Class/winUsb/Src/usbd_winUsb.c ****   USBD_WinUsb_GetFSCfgDesc,
 104:Middlewares/ST/STM32_USB_Device_Library/Class/winUsb/Src/usbd_winUsb.c ****   USBD_WinUsb_GetOtherSpeedCfgDesc,
 105:Middlewares/ST/STM32_USB_Device_Library/Class/winUsb/Src/usbd_winUsb.c ****   USBD_WinUsb_GetDeviceQualifierDescriptor, */
 106:Middlewares/ST/STM32_USB_Device_Library/Class/winUsb/Src/usbd_winUsb.c **** #endif /* USE_USBD_COMPOSITE  */
 107:Middlewares/ST/STM32_USB_Device_Library/Class/winUsb/Src/usbd_winUsb.c ****   USBD_UsrStrDescriptor
 108:Middlewares/ST/STM32_USB_Device_Library/Class/winUsb/Src/usbd_winUsb.c **** };
 109:Middlewares/ST/STM32_USB_Device_Library/Class/winUsb/Src/usbd_winUsb.c **** 
 110:Middlewares/ST/STM32_USB_Device_Library/Class/winUsb/Src/usbd_winUsb.c **** 
 111:Middlewares/ST/STM32_USB_Device_Library/Class/winUsb/Src/usbd_winUsb.c **** #define NUM_INTERFACES 1
 112:Middlewares/ST/STM32_USB_Device_Library/Class/winUsb/Src/usbd_winUsb.c **** 
 113:Middlewares/ST/STM32_USB_Device_Library/Class/winUsb/Src/usbd_winUsb.c **** #if NUM_INTERFACES == 2
 114:Middlewares/ST/STM32_USB_Device_Library/Class/winUsb/Src/usbd_winUsb.c **** #define USB_WINUSBCOMM_COMPAT_ID_OS_DESC_SIZ       (16 + 24 + 24)
 115:Middlewares/ST/STM32_USB_Device_Library/Class/winUsb/Src/usbd_winUsb.c **** #else
 116:Middlewares/ST/STM32_USB_Device_Library/Class/winUsb/Src/usbd_winUsb.c **** #define USB_WINUSBCOMM_COMPAT_ID_OS_DESC_SIZ       (16 + 24)
 117:Middlewares/ST/STM32_USB_Device_Library/Class/winUsb/Src/usbd_winUsb.c **** #endif
 118:Middlewares/ST/STM32_USB_Device_Library/Class/winUsb/Src/usbd_winUsb.c **** 
 119:Middlewares/ST/STM32_USB_Device_Library/Class/winUsb/Src/usbd_winUsb.c **** 
 120:Middlewares/ST/STM32_USB_Device_Library/Class/winUsb/Src/usbd_winUsb.c **** // This associates winusb driver with the device
 121:Middlewares/ST/STM32_USB_Device_Library/Class/winUsb/Src/usbd_winUsb.c **** __ALIGN_BEGIN uint8_t USBD_WinUSBComm_Extended_Compat_ID_OS_Desc[USB_WINUSBCOMM_COMPAT_ID_OS_DESC_S
 122:Middlewares/ST/STM32_USB_Device_Library/Class/winUsb/Src/usbd_winUsb.c **** {
 123:Middlewares/ST/STM32_USB_Device_Library/Class/winUsb/Src/usbd_winUsb.c ****                                                     //    +-- Offset in descriptor
 124:Middlewares/ST/STM32_USB_Device_Library/Class/winUsb/Src/usbd_winUsb.c ****                                                     //    |             +-- Size
 125:Middlewares/ST/STM32_USB_Device_Library/Class/winUsb/Src/usbd_winUsb.c ****                                                     //    v             v
 126:Middlewares/ST/STM32_USB_Device_Library/Class/winUsb/Src/usbd_winUsb.c ****   USB_WINUSBCOMM_COMPAT_ID_OS_DESC_SIZ, 0, 0, 0,    //    0 dwLength    4 DWORD The length, in byte
 127:Middlewares/ST/STM32_USB_Device_Library/Class/winUsb/Src/usbd_winUsb.c ****   0x00, 0x01,                                       //    4 bcdVersion  2 BCD The descriptor’s ve
 128:Middlewares/ST/STM32_USB_Device_Library/Class/winUsb/Src/usbd_winUsb.c ****   0x04, 0x00,                                       //    6 wIndex      2 WORD  An index that ident
 129:Middlewares/ST/STM32_USB_Device_Library/Class/winUsb/Src/usbd_winUsb.c ****   NUM_INTERFACES,                                   //    8 bCount      1 BYTE  The number of custo
 130:Middlewares/ST/STM32_USB_Device_Library/Class/winUsb/Src/usbd_winUsb.c ****   0, 0, 0, 0, 0, 0, 0,                              //    9 RESERVED    7 BYTEs Reserved
 131:Middlewares/ST/STM32_USB_Device_Library/Class/winUsb/Src/usbd_winUsb.c ****                                                     //    =====================
 132:Middlewares/ST/STM32_USB_Device_Library/Class/winUsb/Src/usbd_winUsb.c ****                                                     //                 16
 133:Middlewares/ST/STM32_USB_Device_Library/Class/winUsb/Src/usbd_winUsb.c **** 
 134:Middlewares/ST/STM32_USB_Device_Library/Class/winUsb/Src/usbd_winUsb.c ****                                                     //   +-- Offset from function section start
 135:Middlewares/ST/STM32_USB_Device_Library/Class/winUsb/Src/usbd_winUsb.c ****                                                     //   |                        +-- Size
 136:Middlewares/ST/STM32_USB_Device_Library/Class/winUsb/Src/usbd_winUsb.c ****                                                     //   v                        v
 137:Middlewares/ST/STM32_USB_Device_Library/Class/winUsb/Src/usbd_winUsb.c ****   2,                                                //   0  bFirstInterfaceNumber 1 BYTE  The inter
 138:Middlewares/ST/STM32_USB_Device_Library/Class/winUsb/Src/usbd_winUsb.c ****   0,                                                //   1  RESERVED              1 BYTE  Reserved
 139:Middlewares/ST/STM32_USB_Device_Library/Class/winUsb/Src/usbd_winUsb.c ****   0x57, 0x49, 0x4E, 0x55, 0x53, 0x42, 0x00, 0x00,   //   2  compatibleID          8 BYTEs The funct
 140:Middlewares/ST/STM32_USB_Device_Library/Class/winUsb/Src/usbd_winUsb.c ****   0, 0, 0, 0, 0, 0, 0, 0,                           //  10  subCompatibleID       8 BYTEs The funct
 141:Middlewares/ST/STM32_USB_Device_Library/Class/winUsb/Src/usbd_winUsb.c ****   0, 0, 0, 0, 0, 0,                                 //  18  RESERVED              6 BYTEs Reserved
 142:Middlewares/ST/STM32_USB_Device_Library/Class/winUsb/Src/usbd_winUsb.c ****                                                     //  =================================
 143:Middlewares/ST/STM32_USB_Device_Library/Class/winUsb/Src/usbd_winUsb.c ****                                                     //                           24
 144:Middlewares/ST/STM32_USB_Device_Library/Class/winUsb/Src/usbd_winUsb.c **** #if NUM_INTERFACES == 2
ARM GAS  C:\Users\ADMINI~1\AppData\Local\Temp\cc0ubKlL.s 			page 4


 145:Middlewares/ST/STM32_USB_Device_Library/Class/winUsb/Src/usbd_winUsb.c ****                                                     //   +-- Offset from function section start
 146:Middlewares/ST/STM32_USB_Device_Library/Class/winUsb/Src/usbd_winUsb.c ****                                                     //   |                        +-- Size
 147:Middlewares/ST/STM32_USB_Device_Library/Class/winUsb/Src/usbd_winUsb.c ****                                                     //   v                        v
 148:Middlewares/ST/STM32_USB_Device_Library/Class/winUsb/Src/usbd_winUsb.c ****   2,                                                //   0  bFirstInterfaceNumber 1 BYTE  The inter
 149:Middlewares/ST/STM32_USB_Device_Library/Class/winUsb/Src/usbd_winUsb.c ****   0,                                                //   1  RESERVED              1 BYTE  Reserved
 150:Middlewares/ST/STM32_USB_Device_Library/Class/winUsb/Src/usbd_winUsb.c ****   0x57, 0x49, 0x4E, 0x55, 0x53, 0x42, 0x00, 0x00,   //   2  compatibleID          8 BYTEs The funct
 151:Middlewares/ST/STM32_USB_Device_Library/Class/winUsb/Src/usbd_winUsb.c ****   0, 0, 0, 0, 0, 0, 0, 0,                           //  10  subCompatibleID       8 BYTEs The funct
 152:Middlewares/ST/STM32_USB_Device_Library/Class/winUsb/Src/usbd_winUsb.c ****   0, 0, 0, 0, 0, 0,                                 //  18  RESERVED              6 BYTEs Reserved
 153:Middlewares/ST/STM32_USB_Device_Library/Class/winUsb/Src/usbd_winUsb.c ****                                                     //  =================================
 154:Middlewares/ST/STM32_USB_Device_Library/Class/winUsb/Src/usbd_winUsb.c ****                                                     //                           24
 155:Middlewares/ST/STM32_USB_Device_Library/Class/winUsb/Src/usbd_winUsb.c **** #endif
 156:Middlewares/ST/STM32_USB_Device_Library/Class/winUsb/Src/usbd_winUsb.c **** };
 157:Middlewares/ST/STM32_USB_Device_Library/Class/winUsb/Src/usbd_winUsb.c **** // Properties are added to:
 158:Middlewares/ST/STM32_USB_Device_Library/Class/winUsb/Src/usbd_winUsb.c **** // HKEY_LOCAL_MACHINE\SYSTEM\CurrentControlSet\Enum\USB\VID_xxxx&PID_xxxx\sssssssss\Device Paramete
 159:Middlewares/ST/STM32_USB_Device_Library/Class/winUsb/Src/usbd_winUsb.c **** // Use USBDeview or similar to uninstall
 160:Middlewares/ST/STM32_USB_Device_Library/Class/winUsb/Src/usbd_winUsb.c **** 
 161:Middlewares/ST/STM32_USB_Device_Library/Class/winUsb/Src/usbd_winUsb.c **** __ALIGN_BEGIN uint8_t USBD_WinUSBComm_Extended_Properties_OS_Desc[0xB6]  __ALIGN_END =
 162:Middlewares/ST/STM32_USB_Device_Library/Class/winUsb/Src/usbd_winUsb.c **** {
 163:Middlewares/ST/STM32_USB_Device_Library/Class/winUsb/Src/usbd_winUsb.c ****   0xB6, 0x00, 0x00, 0x00,   // 0 dwLength   4 DWORD The length, in bytes, of the complete extended 
 164:Middlewares/ST/STM32_USB_Device_Library/Class/winUsb/Src/usbd_winUsb.c ****   0x00, 0x01,               // 4 bcdVersion 2 BCD   The descriptor’s version number, in binary co
 165:Middlewares/ST/STM32_USB_Device_Library/Class/winUsb/Src/usbd_winUsb.c ****   0x05, 0x00,               // 6 wIndex     2 WORD  The index for extended properties OS descriptor
 166:Middlewares/ST/STM32_USB_Device_Library/Class/winUsb/Src/usbd_winUsb.c ****   0x02, 0x00,               // 8 wCount     2 WORD  The number of custom property sections that fol
 167:Middlewares/ST/STM32_USB_Device_Library/Class/winUsb/Src/usbd_winUsb.c ****                             // ====================
 168:Middlewares/ST/STM32_USB_Device_Library/Class/winUsb/Src/usbd_winUsb.c ****                             //             10
 169:Middlewares/ST/STM32_USB_Device_Library/Class/winUsb/Src/usbd_winUsb.c **** ///////////////////////////////////////////////////////////////////////////////////////////////////
 170:Middlewares/ST/STM32_USB_Device_Library/Class/winUsb/Src/usbd_winUsb.c ****   0x84, 0x00, 0x00, 0x00,   //  0       dwSize                  4 DWORD             The size of thi
 171:Middlewares/ST/STM32_USB_Device_Library/Class/winUsb/Src/usbd_winUsb.c ****   0x01, 0x00, 0x00, 0x00,   //  4       dwPropertyDataType      4 DWORD             Property data f
 172:Middlewares/ST/STM32_USB_Device_Library/Class/winUsb/Src/usbd_winUsb.c ****   0x28, 0x00,               //  8       wPropertyNameLength     2 DWORD             Property name l
 173:Middlewares/ST/STM32_USB_Device_Library/Class/winUsb/Src/usbd_winUsb.c ****                             // ========================================
 174:Middlewares/ST/STM32_USB_Device_Library/Class/winUsb/Src/usbd_winUsb.c ****                             //                                 10
 175:Middlewares/ST/STM32_USB_Device_Library/Class/winUsb/Src/usbd_winUsb.c ****                             // 10       bPropertyName         PNL WCHAR[]           The property na
 176:Middlewares/ST/STM32_USB_Device_Library/Class/winUsb/Src/usbd_winUsb.c ****   'D',0, 'e',0, 'v',0, 'i',0, 'c',0, 'e',0, 'I',0, 'n',0,
 177:Middlewares/ST/STM32_USB_Device_Library/Class/winUsb/Src/usbd_winUsb.c ****   't',0, 'e',0, 'r',0, 'f',0, 'a',0, 'c',0, 'e',0, 'G',0,
 178:Middlewares/ST/STM32_USB_Device_Library/Class/winUsb/Src/usbd_winUsb.c ****   'U',0, 'I',0, 'D',0, 0,0,
 179:Middlewares/ST/STM32_USB_Device_Library/Class/winUsb/Src/usbd_winUsb.c ****                             // ========================================
 180:Middlewares/ST/STM32_USB_Device_Library/Class/winUsb/Src/usbd_winUsb.c ****                             //                                 40 (0x28)
 181:Middlewares/ST/STM32_USB_Device_Library/Class/winUsb/Src/usbd_winUsb.c **** 
 182:Middlewares/ST/STM32_USB_Device_Library/Class/winUsb/Src/usbd_winUsb.c ****   0x4E, 0x00, 0x00, 0x00,   // 10 + PNL dwPropertyDataLength    4 DWORD             Length of the b
 183:Middlewares/ST/STM32_USB_Device_Library/Class/winUsb/Src/usbd_winUsb.c ****                             // ========================================
 184:Middlewares/ST/STM32_USB_Device_Library/Class/winUsb/Src/usbd_winUsb.c ****                             //                                  4
 185:Middlewares/ST/STM32_USB_Device_Library/Class/winUsb/Src/usbd_winUsb.c ****     // 14 + PNL bPropertyData         PDL Format-dependent  Property data
 186:Middlewares/ST/STM32_USB_Device_Library/Class/winUsb/Src/usbd_winUsb.c ****   '{',0, 'E',0, 'A',0, '0',0, 'B',0, 'D',0, '5',0, 'C',0,
 187:Middlewares/ST/STM32_USB_Device_Library/Class/winUsb/Src/usbd_winUsb.c ****   '3',0, '-',0, '5',0, '0',0, 'F',0, '3',0, '-',0, '4',0,
 188:Middlewares/ST/STM32_USB_Device_Library/Class/winUsb/Src/usbd_winUsb.c ****   '8',0, '8',0, '8',0, '-',0, '8',0, '4',0, 'B',0, '4',0,
 189:Middlewares/ST/STM32_USB_Device_Library/Class/winUsb/Src/usbd_winUsb.c ****   '-',0, '7',0, '4',0, 'E',0, '5',0, '0',0, 'E',0, '1',0,
 190:Middlewares/ST/STM32_USB_Device_Library/Class/winUsb/Src/usbd_winUsb.c ****   '6',0, '4',0, '9',0, 'D',0, 'B',0, '}',0,  0 ,0,
 191:Middlewares/ST/STM32_USB_Device_Library/Class/winUsb/Src/usbd_winUsb.c ****                             // ========================================
 192:Middlewares/ST/STM32_USB_Device_Library/Class/winUsb/Src/usbd_winUsb.c ****                             //                                 78 (0x4E)
 193:Middlewares/ST/STM32_USB_Device_Library/Class/winUsb/Src/usbd_winUsb.c **** ///////////////////////////////////////////////////////////////////////////////////////////////////
 194:Middlewares/ST/STM32_USB_Device_Library/Class/winUsb/Src/usbd_winUsb.c ****   0x3E, 0x00, 0x00, 0x00,   //  0 dwSize 0x00000030 (62 bytes)
 195:Middlewares/ST/STM32_USB_Device_Library/Class/winUsb/Src/usbd_winUsb.c ****   0x01, 0x00, 0x00, 0x00,   //  4 dwPropertyDataType 0x00000001 (Unicode string)
 196:Middlewares/ST/STM32_USB_Device_Library/Class/winUsb/Src/usbd_winUsb.c ****   0x0C, 0x00,               //  8 wPropertyNameLength 0x000C (12 bytes)
 197:Middlewares/ST/STM32_USB_Device_Library/Class/winUsb/Src/usbd_winUsb.c ****                             // ========================================
 198:Middlewares/ST/STM32_USB_Device_Library/Class/winUsb/Src/usbd_winUsb.c ****                             //                                  10
 199:Middlewares/ST/STM32_USB_Device_Library/Class/winUsb/Src/usbd_winUsb.c ****   'L',0, 'a',0, 'b',0, 'e',0, 'l',0, 0,0,
 200:Middlewares/ST/STM32_USB_Device_Library/Class/winUsb/Src/usbd_winUsb.c ****                             // 10 bPropertyName “Label”
 201:Middlewares/ST/STM32_USB_Device_Library/Class/winUsb/Src/usbd_winUsb.c ****                             // ========================================
ARM GAS  C:\Users\ADMINI~1\AppData\Local\Temp\cc0ubKlL.s 			page 5


 202:Middlewares/ST/STM32_USB_Device_Library/Class/winUsb/Src/usbd_winUsb.c ****                             //                                  12
 203:Middlewares/ST/STM32_USB_Device_Library/Class/winUsb/Src/usbd_winUsb.c ****   0x24, 0x00, 0x00, 0x00,   // 22 dwPropertyDataLength 0x00000016 (36 bytes)
 204:Middlewares/ST/STM32_USB_Device_Library/Class/winUsb/Src/usbd_winUsb.c ****                             // ========================================
 205:Middlewares/ST/STM32_USB_Device_Library/Class/winUsb/Src/usbd_winUsb.c ****                             //                                  4
 206:Middlewares/ST/STM32_USB_Device_Library/Class/winUsb/Src/usbd_winUsb.c ****   'O',0, 'D',0, 'r',0, 'i',0, 'v',0, 'e',0, 0,0
 207:Middlewares/ST/STM32_USB_Device_Library/Class/winUsb/Src/usbd_winUsb.c ****                             // 26 bPropertyData “ODrive”
 208:Middlewares/ST/STM32_USB_Device_Library/Class/winUsb/Src/usbd_winUsb.c ****                             // ========================================
 209:Middlewares/ST/STM32_USB_Device_Library/Class/winUsb/Src/usbd_winUsb.c ****                             //                                  14
 210:Middlewares/ST/STM32_USB_Device_Library/Class/winUsb/Src/usbd_winUsb.c **** 
 211:Middlewares/ST/STM32_USB_Device_Library/Class/winUsb/Src/usbd_winUsb.c **** };
 212:Middlewares/ST/STM32_USB_Device_Library/Class/winUsb/Src/usbd_winUsb.c **** 
 213:Middlewares/ST/STM32_USB_Device_Library/Class/winUsb/Src/usbd_winUsb.c **** static uint8_t  USBD_WinUSBComm_GetMSExtendedCompatIDOSDescriptor (USBD_HandleTypeDef *pdev, USBD_S
 214:Middlewares/ST/STM32_USB_Device_Library/Class/winUsb/Src/usbd_winUsb.c **** {
 215:Middlewares/ST/STM32_USB_Device_Library/Class/winUsb/Src/usbd_winUsb.c ****   switch (req->wIndex)
 216:Middlewares/ST/STM32_USB_Device_Library/Class/winUsb/Src/usbd_winUsb.c ****   {
 217:Middlewares/ST/STM32_USB_Device_Library/Class/winUsb/Src/usbd_winUsb.c ****   case 0x04:
 218:Middlewares/ST/STM32_USB_Device_Library/Class/winUsb/Src/usbd_winUsb.c ****     USBD_CtlSendData (pdev, USBD_WinUSBComm_Extended_Compat_ID_OS_Desc, req->wLength);
 219:Middlewares/ST/STM32_USB_Device_Library/Class/winUsb/Src/usbd_winUsb.c ****     break;
 220:Middlewares/ST/STM32_USB_Device_Library/Class/winUsb/Src/usbd_winUsb.c ****   default:
 221:Middlewares/ST/STM32_USB_Device_Library/Class/winUsb/Src/usbd_winUsb.c ****    USBD_CtlError(pdev , req);
 222:Middlewares/ST/STM32_USB_Device_Library/Class/winUsb/Src/usbd_winUsb.c ****    return USBD_FAIL;
 223:Middlewares/ST/STM32_USB_Device_Library/Class/winUsb/Src/usbd_winUsb.c ****   }
 224:Middlewares/ST/STM32_USB_Device_Library/Class/winUsb/Src/usbd_winUsb.c ****   return USBD_OK;
 225:Middlewares/ST/STM32_USB_Device_Library/Class/winUsb/Src/usbd_winUsb.c **** }
 226:Middlewares/ST/STM32_USB_Device_Library/Class/winUsb/Src/usbd_winUsb.c **** static uint8_t  USBD_WinUSBComm_GetMSExtendedPropertiesOSDescriptor (USBD_HandleTypeDef *pdev, USBD
 227:Middlewares/ST/STM32_USB_Device_Library/Class/winUsb/Src/usbd_winUsb.c **** {
 228:Middlewares/ST/STM32_USB_Device_Library/Class/winUsb/Src/usbd_winUsb.c ****   uint8_t byInterfaceIndex = (uint8_t)req->wValue;
 229:Middlewares/ST/STM32_USB_Device_Library/Class/winUsb/Src/usbd_winUsb.c ****   if ( req->wIndex != 0x05 )
 230:Middlewares/ST/STM32_USB_Device_Library/Class/winUsb/Src/usbd_winUsb.c ****   {
 231:Middlewares/ST/STM32_USB_Device_Library/Class/winUsb/Src/usbd_winUsb.c ****     USBD_CtlError(pdev , req);
 232:Middlewares/ST/STM32_USB_Device_Library/Class/winUsb/Src/usbd_winUsb.c ****     return USBD_FAIL;
 233:Middlewares/ST/STM32_USB_Device_Library/Class/winUsb/Src/usbd_winUsb.c ****   }
 234:Middlewares/ST/STM32_USB_Device_Library/Class/winUsb/Src/usbd_winUsb.c ****   switch ( byInterfaceIndex )
 235:Middlewares/ST/STM32_USB_Device_Library/Class/winUsb/Src/usbd_winUsb.c ****   {
 236:Middlewares/ST/STM32_USB_Device_Library/Class/winUsb/Src/usbd_winUsb.c ****   case 0:
 237:Middlewares/ST/STM32_USB_Device_Library/Class/winUsb/Src/usbd_winUsb.c **** #if NUM_INTERFACES == 2
 238:Middlewares/ST/STM32_USB_Device_Library/Class/winUsb/Src/usbd_winUsb.c ****   case 1:
 239:Middlewares/ST/STM32_USB_Device_Library/Class/winUsb/Src/usbd_winUsb.c **** #endif
 240:Middlewares/ST/STM32_USB_Device_Library/Class/winUsb/Src/usbd_winUsb.c ****     USBD_CtlSendData (pdev, USBD_WinUSBComm_Extended_Properties_OS_Desc, req->wLength);
 241:Middlewares/ST/STM32_USB_Device_Library/Class/winUsb/Src/usbd_winUsb.c ****     break;
 242:Middlewares/ST/STM32_USB_Device_Library/Class/winUsb/Src/usbd_winUsb.c ****   default:
 243:Middlewares/ST/STM32_USB_Device_Library/Class/winUsb/Src/usbd_winUsb.c ****     USBD_CtlError(pdev , req);
 244:Middlewares/ST/STM32_USB_Device_Library/Class/winUsb/Src/usbd_winUsb.c ****     return USBD_FAIL;
 245:Middlewares/ST/STM32_USB_Device_Library/Class/winUsb/Src/usbd_winUsb.c ****   }
 246:Middlewares/ST/STM32_USB_Device_Library/Class/winUsb/Src/usbd_winUsb.c ****   return USBD_OK;
 247:Middlewares/ST/STM32_USB_Device_Library/Class/winUsb/Src/usbd_winUsb.c **** }
 248:Middlewares/ST/STM32_USB_Device_Library/Class/winUsb/Src/usbd_winUsb.c **** static uint8_t  USBD_WinUSBComm_SetupVendorDevice(USBD_HandleTypeDef *pdev, USBD_SetupReqTypedef *r
 249:Middlewares/ST/STM32_USB_Device_Library/Class/winUsb/Src/usbd_winUsb.c **** {
 250:Middlewares/ST/STM32_USB_Device_Library/Class/winUsb/Src/usbd_winUsb.c ****   USBD_CtlError(pdev , req);
 251:Middlewares/ST/STM32_USB_Device_Library/Class/winUsb/Src/usbd_winUsb.c ****   return USBD_FAIL;
 252:Middlewares/ST/STM32_USB_Device_Library/Class/winUsb/Src/usbd_winUsb.c **** }
 253:Middlewares/ST/STM32_USB_Device_Library/Class/winUsb/Src/usbd_winUsb.c **** static uint8_t  USBD_WinUSBComm_SetupVendorInterface(USBD_HandleTypeDef *pdev, USBD_SetupReqTypedef
 254:Middlewares/ST/STM32_USB_Device_Library/Class/winUsb/Src/usbd_winUsb.c **** {
 255:Middlewares/ST/STM32_USB_Device_Library/Class/winUsb/Src/usbd_winUsb.c ****   USBD_CtlError(pdev , req);
 256:Middlewares/ST/STM32_USB_Device_Library/Class/winUsb/Src/usbd_winUsb.c ****   // TODO: check if this is important
 257:Middlewares/ST/STM32_USB_Device_Library/Class/winUsb/Src/usbd_winUsb.c ****   return USBD_FAIL;
 258:Middlewares/ST/STM32_USB_Device_Library/Class/winUsb/Src/usbd_winUsb.c **** }
ARM GAS  C:\Users\ADMINI~1\AppData\Local\Temp\cc0ubKlL.s 			page 6


 259:Middlewares/ST/STM32_USB_Device_Library/Class/winUsb/Src/usbd_winUsb.c **** static uint8_t  USBD_WinUSBComm_SetupVendor(USBD_HandleTypeDef *pdev, USBD_SetupReqTypedef *req)
 260:Middlewares/ST/STM32_USB_Device_Library/Class/winUsb/Src/usbd_winUsb.c **** {
 261:Middlewares/ST/STM32_USB_Device_Library/Class/winUsb/Src/usbd_winUsb.c ****   switch ( req->bmRequest & USB_REQ_RECIPIENT_MASK )
 262:Middlewares/ST/STM32_USB_Device_Library/Class/winUsb/Src/usbd_winUsb.c ****   {
 263:Middlewares/ST/STM32_USB_Device_Library/Class/winUsb/Src/usbd_winUsb.c ****   case USB_REQ_RECIPIENT_DEVICE:
 264:Middlewares/ST/STM32_USB_Device_Library/Class/winUsb/Src/usbd_winUsb.c ****     return ( MS_VendorCode == req->bRequest ) ? USBD_WinUSBComm_GetMSExtendedCompatIDOSDescriptor(p
 265:Middlewares/ST/STM32_USB_Device_Library/Class/winUsb/Src/usbd_winUsb.c ****   case USB_REQ_RECIPIENT_INTERFACE:
 266:Middlewares/ST/STM32_USB_Device_Library/Class/winUsb/Src/usbd_winUsb.c ****     return ( MS_VendorCode == req->bRequest ) ? USBD_WinUSBComm_GetMSExtendedPropertiesOSDescriptor
 267:Middlewares/ST/STM32_USB_Device_Library/Class/winUsb/Src/usbd_winUsb.c ****   case USB_REQ_RECIPIENT_ENDPOINT:
 268:Middlewares/ST/STM32_USB_Device_Library/Class/winUsb/Src/usbd_winUsb.c ****     // fall through
 269:Middlewares/ST/STM32_USB_Device_Library/Class/winUsb/Src/usbd_winUsb.c ****   default:
 270:Middlewares/ST/STM32_USB_Device_Library/Class/winUsb/Src/usbd_winUsb.c ****     break;
 271:Middlewares/ST/STM32_USB_Device_Library/Class/winUsb/Src/usbd_winUsb.c ****   }
 272:Middlewares/ST/STM32_USB_Device_Library/Class/winUsb/Src/usbd_winUsb.c ****   USBD_CtlError(pdev , req);
 273:Middlewares/ST/STM32_USB_Device_Library/Class/winUsb/Src/usbd_winUsb.c ****   return USBD_FAIL;
 274:Middlewares/ST/STM32_USB_Device_Library/Class/winUsb/Src/usbd_winUsb.c **** }
 275:Middlewares/ST/STM32_USB_Device_Library/Class/winUsb/Src/usbd_winUsb.c **** static uint8_t WinUsbInEpAdd = WIN_USB_EPIN_ADDR;
 276:Middlewares/ST/STM32_USB_Device_Library/Class/winUsb/Src/usbd_winUsb.c **** static uint8_t WinUsbOutEpAdd = WIN_USB_EPOUT_ADDR;
 277:Middlewares/ST/STM32_USB_Device_Library/Class/winUsb/Src/usbd_winUsb.c **** 
 278:Middlewares/ST/STM32_USB_Device_Library/Class/winUsb/Src/usbd_winUsb.c **** 
 279:Middlewares/ST/STM32_USB_Device_Library/Class/winUsb/Src/usbd_winUsb.c **** static uint8_t USBD_WinUsb_Init(USBD_HandleTypeDef *pdev, uint8_t cfgidx)
 280:Middlewares/ST/STM32_USB_Device_Library/Class/winUsb/Src/usbd_winUsb.c **** {
 281:Middlewares/ST/STM32_USB_Device_Library/Class/winUsb/Src/usbd_winUsb.c ****   UNUSED(cfgidx);
 282:Middlewares/ST/STM32_USB_Device_Library/Class/winUsb/Src/usbd_winUsb.c ****   USBD_WinUsb_HandleTypeDef *hcdc;
 283:Middlewares/ST/STM32_USB_Device_Library/Class/winUsb/Src/usbd_winUsb.c **** 
 284:Middlewares/ST/STM32_USB_Device_Library/Class/winUsb/Src/usbd_winUsb.c ****   hcdc = (USBD_WinUsb_HandleTypeDef *)USBD_malloc(sizeof(USBD_WinUsb_HandleTypeDef));
 285:Middlewares/ST/STM32_USB_Device_Library/Class/winUsb/Src/usbd_winUsb.c **** 
 286:Middlewares/ST/STM32_USB_Device_Library/Class/winUsb/Src/usbd_winUsb.c ****   if (hcdc == NULL)
 287:Middlewares/ST/STM32_USB_Device_Library/Class/winUsb/Src/usbd_winUsb.c ****   {
 288:Middlewares/ST/STM32_USB_Device_Library/Class/winUsb/Src/usbd_winUsb.c ****     pdev->pClassDataCmsit[pdev->classId] = NULL;
 289:Middlewares/ST/STM32_USB_Device_Library/Class/winUsb/Src/usbd_winUsb.c ****     return (uint8_t)USBD_EMEM;
 290:Middlewares/ST/STM32_USB_Device_Library/Class/winUsb/Src/usbd_winUsb.c ****   }
 291:Middlewares/ST/STM32_USB_Device_Library/Class/winUsb/Src/usbd_winUsb.c **** 
 292:Middlewares/ST/STM32_USB_Device_Library/Class/winUsb/Src/usbd_winUsb.c ****   (void)USBD_memset(hcdc, 0, sizeof(USBD_WinUsb_HandleTypeDef));
 293:Middlewares/ST/STM32_USB_Device_Library/Class/winUsb/Src/usbd_winUsb.c **** 
 294:Middlewares/ST/STM32_USB_Device_Library/Class/winUsb/Src/usbd_winUsb.c ****   pdev->pClassDataCmsit[pdev->classId] = (void *)hcdc;
 295:Middlewares/ST/STM32_USB_Device_Library/Class/winUsb/Src/usbd_winUsb.c ****   pdev->pClassData = pdev->pClassDataCmsit[pdev->classId];
 296:Middlewares/ST/STM32_USB_Device_Library/Class/winUsb/Src/usbd_winUsb.c ****   if (pdev->dev_speed == USBD_SPEED_HIGH)
 297:Middlewares/ST/STM32_USB_Device_Library/Class/winUsb/Src/usbd_winUsb.c ****   {
 298:Middlewares/ST/STM32_USB_Device_Library/Class/winUsb/Src/usbd_winUsb.c ****     USBD_LL_OpenEP(pdev,WIN_USB_EPIN_ADDR,USBD_EP_TYPE_BULK,WIN_DATA_HS_IN_PACKET_SIZE);
 299:Middlewares/ST/STM32_USB_Device_Library/Class/winUsb/Src/usbd_winUsb.c ****     USBD_LL_OpenEP(pdev,WIN_USB_EPOUT_ADDR,USBD_EP_TYPE_BULK,WIN_DATA_HS_OUT_PACKET_SIZE);
 300:Middlewares/ST/STM32_USB_Device_Library/Class/winUsb/Src/usbd_winUsb.c ****   }
 301:Middlewares/ST/STM32_USB_Device_Library/Class/winUsb/Src/usbd_winUsb.c ****   else
 302:Middlewares/ST/STM32_USB_Device_Library/Class/winUsb/Src/usbd_winUsb.c ****   {
 303:Middlewares/ST/STM32_USB_Device_Library/Class/winUsb/Src/usbd_winUsb.c ****     USBD_LL_OpenEP(pdev,WIN_USB_EPIN_ADDR,USBD_EP_TYPE_BULK,WIN_DATA_FS_IN_PACKET_SIZE);
 304:Middlewares/ST/STM32_USB_Device_Library/Class/winUsb/Src/usbd_winUsb.c ****     USBD_LL_OpenEP(pdev,WIN_USB_EPOUT_ADDR,USBD_EP_TYPE_BULK,WIN_DATA_FS_OUT_PACKET_SIZE);
 305:Middlewares/ST/STM32_USB_Device_Library/Class/winUsb/Src/usbd_winUsb.c **** 
 306:Middlewares/ST/STM32_USB_Device_Library/Class/winUsb/Src/usbd_winUsb.c ****   }
 307:Middlewares/ST/STM32_USB_Device_Library/Class/winUsb/Src/usbd_winUsb.c ****   
 308:Middlewares/ST/STM32_USB_Device_Library/Class/winUsb/Src/usbd_winUsb.c ****   
 309:Middlewares/ST/STM32_USB_Device_Library/Class/winUsb/Src/usbd_winUsb.c ****   pdev->ep_in[WinUsbInEpAdd & 0xFU].is_used = 1U;
 310:Middlewares/ST/STM32_USB_Device_Library/Class/winUsb/Src/usbd_winUsb.c ****   pdev->ep_in[WinUsbOutEpAdd & 0xFU].is_used = 1U;
 311:Middlewares/ST/STM32_USB_Device_Library/Class/winUsb/Src/usbd_winUsb.c **** 
 312:Middlewares/ST/STM32_USB_Device_Library/Class/winUsb/Src/usbd_winUsb.c **** 
 313:Middlewares/ST/STM32_USB_Device_Library/Class/winUsb/Src/usbd_winUsb.c ****   hcdc->RxBuffer = NULL;
 314:Middlewares/ST/STM32_USB_Device_Library/Class/winUsb/Src/usbd_winUsb.c **** 
 315:Middlewares/ST/STM32_USB_Device_Library/Class/winUsb/Src/usbd_winUsb.c ****   /* Init  physical Interface components */
ARM GAS  C:\Users\ADMINI~1\AppData\Local\Temp\cc0ubKlL.s 			page 7


 316:Middlewares/ST/STM32_USB_Device_Library/Class/winUsb/Src/usbd_winUsb.c ****   ((USBD_WinUsb_ItfTypeDef *)pdev->pUserData[pdev->classId])->Init();
 317:Middlewares/ST/STM32_USB_Device_Library/Class/winUsb/Src/usbd_winUsb.c **** 
 318:Middlewares/ST/STM32_USB_Device_Library/Class/winUsb/Src/usbd_winUsb.c ****   /* Init Xfer states */
 319:Middlewares/ST/STM32_USB_Device_Library/Class/winUsb/Src/usbd_winUsb.c ****   hcdc->TxState = 0U;
 320:Middlewares/ST/STM32_USB_Device_Library/Class/winUsb/Src/usbd_winUsb.c ****   hcdc->RxState = 0U;
 321:Middlewares/ST/STM32_USB_Device_Library/Class/winUsb/Src/usbd_winUsb.c **** 
 322:Middlewares/ST/STM32_USB_Device_Library/Class/winUsb/Src/usbd_winUsb.c ****   if (hcdc->RxBuffer == NULL)
 323:Middlewares/ST/STM32_USB_Device_Library/Class/winUsb/Src/usbd_winUsb.c ****   {
 324:Middlewares/ST/STM32_USB_Device_Library/Class/winUsb/Src/usbd_winUsb.c ****     return (uint8_t)USBD_EMEM;
 325:Middlewares/ST/STM32_USB_Device_Library/Class/winUsb/Src/usbd_winUsb.c ****   }
 326:Middlewares/ST/STM32_USB_Device_Library/Class/winUsb/Src/usbd_winUsb.c ****   if (pdev->dev_speed == USBD_SPEED_HIGH)
 327:Middlewares/ST/STM32_USB_Device_Library/Class/winUsb/Src/usbd_winUsb.c ****   {
 328:Middlewares/ST/STM32_USB_Device_Library/Class/winUsb/Src/usbd_winUsb.c ****     USBD_LL_PrepareReceive(pdev,
 329:Middlewares/ST/STM32_USB_Device_Library/Class/winUsb/Src/usbd_winUsb.c ****                           WIN_USB_EPOUT_ADDR,
 330:Middlewares/ST/STM32_USB_Device_Library/Class/winUsb/Src/usbd_winUsb.c ****                           hcdc->RxBuffer,
 331:Middlewares/ST/STM32_USB_Device_Library/Class/winUsb/Src/usbd_winUsb.c ****                           WIN_DATA_HS_OUT_PACKET_SIZE);
 332:Middlewares/ST/STM32_USB_Device_Library/Class/winUsb/Src/usbd_winUsb.c ****   }
 333:Middlewares/ST/STM32_USB_Device_Library/Class/winUsb/Src/usbd_winUsb.c ****   else
 334:Middlewares/ST/STM32_USB_Device_Library/Class/winUsb/Src/usbd_winUsb.c ****   {
 335:Middlewares/ST/STM32_USB_Device_Library/Class/winUsb/Src/usbd_winUsb.c ****     USBD_LL_PrepareReceive(pdev,
 336:Middlewares/ST/STM32_USB_Device_Library/Class/winUsb/Src/usbd_winUsb.c ****                           WIN_USB_EPOUT_ADDR,
 337:Middlewares/ST/STM32_USB_Device_Library/Class/winUsb/Src/usbd_winUsb.c ****                           hcdc->RxBuffer,
 338:Middlewares/ST/STM32_USB_Device_Library/Class/winUsb/Src/usbd_winUsb.c ****                           WIN_DATA_FS_OUT_PACKET_SIZE);
 339:Middlewares/ST/STM32_USB_Device_Library/Class/winUsb/Src/usbd_winUsb.c ****   }
 340:Middlewares/ST/STM32_USB_Device_Library/Class/winUsb/Src/usbd_winUsb.c ****   return (uint8_t)USBD_OK;
 341:Middlewares/ST/STM32_USB_Device_Library/Class/winUsb/Src/usbd_winUsb.c **** 
 342:Middlewares/ST/STM32_USB_Device_Library/Class/winUsb/Src/usbd_winUsb.c **** }
 343:Middlewares/ST/STM32_USB_Device_Library/Class/winUsb/Src/usbd_winUsb.c **** 
 344:Middlewares/ST/STM32_USB_Device_Library/Class/winUsb/Src/usbd_winUsb.c **** static uint8_t USBD_WinUsb_DeInit(USBD_HandleTypeDef *pdev, uint8_t cfgidx)
 345:Middlewares/ST/STM32_USB_Device_Library/Class/winUsb/Src/usbd_winUsb.c **** {
 346:Middlewares/ST/STM32_USB_Device_Library/Class/winUsb/Src/usbd_winUsb.c ****   UNUSED(cfgidx);
 347:Middlewares/ST/STM32_USB_Device_Library/Class/winUsb/Src/usbd_winUsb.c **** 	/* Close EP IN */
 348:Middlewares/ST/STM32_USB_Device_Library/Class/winUsb/Src/usbd_winUsb.c ****   USBD_LL_CloseEP(pdev,WinUsbInEpAdd);
 349:Middlewares/ST/STM32_USB_Device_Library/Class/winUsb/Src/usbd_winUsb.c ****   pdev->ep_out[WinUsbInEpAdd & 0xFU].is_used = 0U;  
 350:Middlewares/ST/STM32_USB_Device_Library/Class/winUsb/Src/usbd_winUsb.c ****   /* Close EP OUT */
 351:Middlewares/ST/STM32_USB_Device_Library/Class/winUsb/Src/usbd_winUsb.c ****   USBD_LL_CloseEP(pdev,WinUsbOutEpAdd); 
 352:Middlewares/ST/STM32_USB_Device_Library/Class/winUsb/Src/usbd_winUsb.c ****   pdev->ep_out[WinUsbOutEpAdd & 0xFU].is_used = 0U;
 353:Middlewares/ST/STM32_USB_Device_Library/Class/winUsb/Src/usbd_winUsb.c **** 
 354:Middlewares/ST/STM32_USB_Device_Library/Class/winUsb/Src/usbd_winUsb.c **** 
 355:Middlewares/ST/STM32_USB_Device_Library/Class/winUsb/Src/usbd_winUsb.c ****   /* DeInit  physical Interface components */
 356:Middlewares/ST/STM32_USB_Device_Library/Class/winUsb/Src/usbd_winUsb.c ****   if (pdev->pClassDataCmsit[pdev->classId] != NULL)
 357:Middlewares/ST/STM32_USB_Device_Library/Class/winUsb/Src/usbd_winUsb.c ****   {
 358:Middlewares/ST/STM32_USB_Device_Library/Class/winUsb/Src/usbd_winUsb.c ****     ((USBD_WinUsb_ItfTypeDef *)pdev->pUserData[pdev->classId])->DeInit();
 359:Middlewares/ST/STM32_USB_Device_Library/Class/winUsb/Src/usbd_winUsb.c ****     (void)USBD_free(pdev->pClassDataCmsit[pdev->classId]);
 360:Middlewares/ST/STM32_USB_Device_Library/Class/winUsb/Src/usbd_winUsb.c ****     pdev->pClassDataCmsit[pdev->classId] = NULL;
 361:Middlewares/ST/STM32_USB_Device_Library/Class/winUsb/Src/usbd_winUsb.c ****     pdev->pClassData = NULL;
 362:Middlewares/ST/STM32_USB_Device_Library/Class/winUsb/Src/usbd_winUsb.c ****   }
 363:Middlewares/ST/STM32_USB_Device_Library/Class/winUsb/Src/usbd_winUsb.c **** 	return (uint8_t)USBD_OK;
 364:Middlewares/ST/STM32_USB_Device_Library/Class/winUsb/Src/usbd_winUsb.c **** 
 365:Middlewares/ST/STM32_USB_Device_Library/Class/winUsb/Src/usbd_winUsb.c **** }
 366:Middlewares/ST/STM32_USB_Device_Library/Class/winUsb/Src/usbd_winUsb.c **** static uint8_t USBD_WinUsb_Setup(USBD_HandleTypeDef *pdev, USBD_SetupReqTypedef *req)
 367:Middlewares/ST/STM32_USB_Device_Library/Class/winUsb/Src/usbd_winUsb.c **** {
 368:Middlewares/ST/STM32_USB_Device_Library/Class/winUsb/Src/usbd_winUsb.c **** 	USBD_WinUsb_HandleTypeDef *hcdc = (USBD_WinUsb_HandleTypeDef *)pdev->pClassDataCmsit[pdev->classId
 369:Middlewares/ST/STM32_USB_Device_Library/Class/winUsb/Src/usbd_winUsb.c ****    
 370:Middlewares/ST/STM32_USB_Device_Library/Class/winUsb/Src/usbd_winUsb.c ****   USBD_StatusTypeDef ret = USBD_OK;
 371:Middlewares/ST/STM32_USB_Device_Library/Class/winUsb/Src/usbd_winUsb.c ****   uint16_t status_info = 0U;
 372:Middlewares/ST/STM32_USB_Device_Library/Class/winUsb/Src/usbd_winUsb.c ****   if (hcdc == NULL)
ARM GAS  C:\Users\ADMINI~1\AppData\Local\Temp\cc0ubKlL.s 			page 8


 373:Middlewares/ST/STM32_USB_Device_Library/Class/winUsb/Src/usbd_winUsb.c ****   {
 374:Middlewares/ST/STM32_USB_Device_Library/Class/winUsb/Src/usbd_winUsb.c ****     return (uint8_t)USBD_FAIL;
 375:Middlewares/ST/STM32_USB_Device_Library/Class/winUsb/Src/usbd_winUsb.c ****   }
 376:Middlewares/ST/STM32_USB_Device_Library/Class/winUsb/Src/usbd_winUsb.c **** //  printf("winusb bmRequest=%x\r\n",req->bmRequest);
 377:Middlewares/ST/STM32_USB_Device_Library/Class/winUsb/Src/usbd_winUsb.c ****  switch (req->bmRequest & USB_REQ_TYPE_MASK)
 378:Middlewares/ST/STM32_USB_Device_Library/Class/winUsb/Src/usbd_winUsb.c ****   {
 379:Middlewares/ST/STM32_USB_Device_Library/Class/winUsb/Src/usbd_winUsb.c **** 
 380:Middlewares/ST/STM32_USB_Device_Library/Class/winUsb/Src/usbd_winUsb.c ****     case USB_REQ_TYPE_STANDARD:
 381:Middlewares/ST/STM32_USB_Device_Library/Class/winUsb/Src/usbd_winUsb.c ****       switch (req->bRequest)
 382:Middlewares/ST/STM32_USB_Device_Library/Class/winUsb/Src/usbd_winUsb.c ****       {
 383:Middlewares/ST/STM32_USB_Device_Library/Class/winUsb/Src/usbd_winUsb.c ****         case USB_REQ_GET_STATUS:
 384:Middlewares/ST/STM32_USB_Device_Library/Class/winUsb/Src/usbd_winUsb.c ****           if (pdev->dev_state == USBD_STATE_CONFIGURED)
 385:Middlewares/ST/STM32_USB_Device_Library/Class/winUsb/Src/usbd_winUsb.c ****           {
 386:Middlewares/ST/STM32_USB_Device_Library/Class/winUsb/Src/usbd_winUsb.c ****             (void)USBD_CtlSendData(pdev, (uint8_t *)&status_info, 2U);
 387:Middlewares/ST/STM32_USB_Device_Library/Class/winUsb/Src/usbd_winUsb.c ****           }
 388:Middlewares/ST/STM32_USB_Device_Library/Class/winUsb/Src/usbd_winUsb.c ****           else
 389:Middlewares/ST/STM32_USB_Device_Library/Class/winUsb/Src/usbd_winUsb.c ****           {
 390:Middlewares/ST/STM32_USB_Device_Library/Class/winUsb/Src/usbd_winUsb.c ****             USBD_CtlError(pdev, req);
 391:Middlewares/ST/STM32_USB_Device_Library/Class/winUsb/Src/usbd_winUsb.c ****             ret = USBD_FAIL;
 392:Middlewares/ST/STM32_USB_Device_Library/Class/winUsb/Src/usbd_winUsb.c ****           }
 393:Middlewares/ST/STM32_USB_Device_Library/Class/winUsb/Src/usbd_winUsb.c ****           break;
 394:Middlewares/ST/STM32_USB_Device_Library/Class/winUsb/Src/usbd_winUsb.c **** 
 395:Middlewares/ST/STM32_USB_Device_Library/Class/winUsb/Src/usbd_winUsb.c ****         case USB_REQ_GET_INTERFACE:
 396:Middlewares/ST/STM32_USB_Device_Library/Class/winUsb/Src/usbd_winUsb.c ****           if (pdev->dev_state == USBD_STATE_CONFIGURED)
 397:Middlewares/ST/STM32_USB_Device_Library/Class/winUsb/Src/usbd_winUsb.c ****           {
 398:Middlewares/ST/STM32_USB_Device_Library/Class/winUsb/Src/usbd_winUsb.c ****             //(void)USBD_CtlSendData(pdev, (uint8_t *)&hmsc->interface, 1U);
 399:Middlewares/ST/STM32_USB_Device_Library/Class/winUsb/Src/usbd_winUsb.c ****           }
 400:Middlewares/ST/STM32_USB_Device_Library/Class/winUsb/Src/usbd_winUsb.c ****           else
 401:Middlewares/ST/STM32_USB_Device_Library/Class/winUsb/Src/usbd_winUsb.c ****           {
 402:Middlewares/ST/STM32_USB_Device_Library/Class/winUsb/Src/usbd_winUsb.c ****             USBD_CtlError(pdev, req);
 403:Middlewares/ST/STM32_USB_Device_Library/Class/winUsb/Src/usbd_winUsb.c ****             ret = USBD_FAIL;
 404:Middlewares/ST/STM32_USB_Device_Library/Class/winUsb/Src/usbd_winUsb.c ****           }
 405:Middlewares/ST/STM32_USB_Device_Library/Class/winUsb/Src/usbd_winUsb.c ****           break;
 406:Middlewares/ST/STM32_USB_Device_Library/Class/winUsb/Src/usbd_winUsb.c **** 
 407:Middlewares/ST/STM32_USB_Device_Library/Class/winUsb/Src/usbd_winUsb.c ****         case USB_REQ_SET_INTERFACE:
 408:Middlewares/ST/STM32_USB_Device_Library/Class/winUsb/Src/usbd_winUsb.c ****           if (pdev->dev_state == USBD_STATE_CONFIGURED)
 409:Middlewares/ST/STM32_USB_Device_Library/Class/winUsb/Src/usbd_winUsb.c ****           {
 410:Middlewares/ST/STM32_USB_Device_Library/Class/winUsb/Src/usbd_winUsb.c ****             //hmsc->interface = (uint8_t)(req->wValue);
 411:Middlewares/ST/STM32_USB_Device_Library/Class/winUsb/Src/usbd_winUsb.c ****           }
 412:Middlewares/ST/STM32_USB_Device_Library/Class/winUsb/Src/usbd_winUsb.c ****           else
 413:Middlewares/ST/STM32_USB_Device_Library/Class/winUsb/Src/usbd_winUsb.c ****           {
 414:Middlewares/ST/STM32_USB_Device_Library/Class/winUsb/Src/usbd_winUsb.c ****             USBD_CtlError(pdev, req);
 415:Middlewares/ST/STM32_USB_Device_Library/Class/winUsb/Src/usbd_winUsb.c ****             ret = USBD_FAIL;
 416:Middlewares/ST/STM32_USB_Device_Library/Class/winUsb/Src/usbd_winUsb.c ****           }
 417:Middlewares/ST/STM32_USB_Device_Library/Class/winUsb/Src/usbd_winUsb.c ****           break;
 418:Middlewares/ST/STM32_USB_Device_Library/Class/winUsb/Src/usbd_winUsb.c **** 
 419:Middlewares/ST/STM32_USB_Device_Library/Class/winUsb/Src/usbd_winUsb.c ****         case USB_REQ_CLEAR_FEATURE:
 420:Middlewares/ST/STM32_USB_Device_Library/Class/winUsb/Src/usbd_winUsb.c ****           if (pdev->dev_state == USBD_STATE_CONFIGURED)
 421:Middlewares/ST/STM32_USB_Device_Library/Class/winUsb/Src/usbd_winUsb.c ****           {
 422:Middlewares/ST/STM32_USB_Device_Library/Class/winUsb/Src/usbd_winUsb.c ****             if (req->wValue == USB_FEATURE_EP_HALT)
 423:Middlewares/ST/STM32_USB_Device_Library/Class/winUsb/Src/usbd_winUsb.c ****             {
 424:Middlewares/ST/STM32_USB_Device_Library/Class/winUsb/Src/usbd_winUsb.c ****               /* Flush the FIFO */
 425:Middlewares/ST/STM32_USB_Device_Library/Class/winUsb/Src/usbd_winUsb.c ****               (void)USBD_LL_FlushEP(pdev, (uint8_t)req->wIndex);
 426:Middlewares/ST/STM32_USB_Device_Library/Class/winUsb/Src/usbd_winUsb.c **** 
 427:Middlewares/ST/STM32_USB_Device_Library/Class/winUsb/Src/usbd_winUsb.c ****               /* Handle BOT error */
 428:Middlewares/ST/STM32_USB_Device_Library/Class/winUsb/Src/usbd_winUsb.c ****               //MSC_BOT_CplClrFeature(pdev, (uint8_t)req->wIndex);
 429:Middlewares/ST/STM32_USB_Device_Library/Class/winUsb/Src/usbd_winUsb.c ****             }
ARM GAS  C:\Users\ADMINI~1\AppData\Local\Temp\cc0ubKlL.s 			page 9


 430:Middlewares/ST/STM32_USB_Device_Library/Class/winUsb/Src/usbd_winUsb.c ****           }
 431:Middlewares/ST/STM32_USB_Device_Library/Class/winUsb/Src/usbd_winUsb.c ****           break;
 432:Middlewares/ST/STM32_USB_Device_Library/Class/winUsb/Src/usbd_winUsb.c ****       }
 433:Middlewares/ST/STM32_USB_Device_Library/Class/winUsb/Src/usbd_winUsb.c ****     case USB_REQ_TYPE_VENDOR:{
 434:Middlewares/ST/STM32_USB_Device_Library/Class/winUsb/Src/usbd_winUsb.c ****         USBD_WinUSBComm_SetupVendor(pdev, req);
 435:Middlewares/ST/STM32_USB_Device_Library/Class/winUsb/Src/usbd_winUsb.c ****       }break;
 436:Middlewares/ST/STM32_USB_Device_Library/Class/winUsb/Src/usbd_winUsb.c **** 
 437:Middlewares/ST/STM32_USB_Device_Library/Class/winUsb/Src/usbd_winUsb.c ****     default:
 438:Middlewares/ST/STM32_USB_Device_Library/Class/winUsb/Src/usbd_winUsb.c ****       USBD_CtlError(pdev, req);
 439:Middlewares/ST/STM32_USB_Device_Library/Class/winUsb/Src/usbd_winUsb.c ****       ret = USBD_FAIL;
 440:Middlewares/ST/STM32_USB_Device_Library/Class/winUsb/Src/usbd_winUsb.c ****       break;
 441:Middlewares/ST/STM32_USB_Device_Library/Class/winUsb/Src/usbd_winUsb.c ****   }
 442:Middlewares/ST/STM32_USB_Device_Library/Class/winUsb/Src/usbd_winUsb.c **** 
 443:Middlewares/ST/STM32_USB_Device_Library/Class/winUsb/Src/usbd_winUsb.c ****   return (uint8_t)ret;
 444:Middlewares/ST/STM32_USB_Device_Library/Class/winUsb/Src/usbd_winUsb.c **** 
 445:Middlewares/ST/STM32_USB_Device_Library/Class/winUsb/Src/usbd_winUsb.c **** }
 446:Middlewares/ST/STM32_USB_Device_Library/Class/winUsb/Src/usbd_winUsb.c **** static uint8_t USBD_WinUsb_DataIn(USBD_HandleTypeDef *pdev, uint8_t epnum)
 447:Middlewares/ST/STM32_USB_Device_Library/Class/winUsb/Src/usbd_winUsb.c **** {
 448:Middlewares/ST/STM32_USB_Device_Library/Class/winUsb/Src/usbd_winUsb.c ****   USBD_WinUsb_HandleTypeDef *hcdc;
 449:Middlewares/ST/STM32_USB_Device_Library/Class/winUsb/Src/usbd_winUsb.c ****   PCD_HandleTypeDef *hpcd = (PCD_HandleTypeDef *)pdev->pData;
 450:Middlewares/ST/STM32_USB_Device_Library/Class/winUsb/Src/usbd_winUsb.c **** 
 451:Middlewares/ST/STM32_USB_Device_Library/Class/winUsb/Src/usbd_winUsb.c ****   if (pdev->pClassDataCmsit[pdev->classId] == NULL)
 452:Middlewares/ST/STM32_USB_Device_Library/Class/winUsb/Src/usbd_winUsb.c ****   {
 453:Middlewares/ST/STM32_USB_Device_Library/Class/winUsb/Src/usbd_winUsb.c ****     return (uint8_t)USBD_FAIL;
 454:Middlewares/ST/STM32_USB_Device_Library/Class/winUsb/Src/usbd_winUsb.c ****   }
 455:Middlewares/ST/STM32_USB_Device_Library/Class/winUsb/Src/usbd_winUsb.c **** 
 456:Middlewares/ST/STM32_USB_Device_Library/Class/winUsb/Src/usbd_winUsb.c ****   hcdc = (USBD_WinUsb_HandleTypeDef *)pdev->pClassDataCmsit[pdev->classId];
 457:Middlewares/ST/STM32_USB_Device_Library/Class/winUsb/Src/usbd_winUsb.c **** 
 458:Middlewares/ST/STM32_USB_Device_Library/Class/winUsb/Src/usbd_winUsb.c ****   if ((pdev->ep_in[epnum & 0xFU].total_length > 0U) &&
 459:Middlewares/ST/STM32_USB_Device_Library/Class/winUsb/Src/usbd_winUsb.c ****       ((pdev->ep_in[epnum & 0xFU].total_length % hpcd->IN_ep[epnum & 0xFU].maxpacket) == 0U))
 460:Middlewares/ST/STM32_USB_Device_Library/Class/winUsb/Src/usbd_winUsb.c ****   {
 461:Middlewares/ST/STM32_USB_Device_Library/Class/winUsb/Src/usbd_winUsb.c ****     /* Update the packet total length */
 462:Middlewares/ST/STM32_USB_Device_Library/Class/winUsb/Src/usbd_winUsb.c ****     pdev->ep_in[epnum & 0xFU].total_length = 0U;
 463:Middlewares/ST/STM32_USB_Device_Library/Class/winUsb/Src/usbd_winUsb.c **** 
 464:Middlewares/ST/STM32_USB_Device_Library/Class/winUsb/Src/usbd_winUsb.c ****     /* Send ZLP */
 465:Middlewares/ST/STM32_USB_Device_Library/Class/winUsb/Src/usbd_winUsb.c ****     (void)USBD_LL_Transmit(pdev, epnum, NULL, 0U);
 466:Middlewares/ST/STM32_USB_Device_Library/Class/winUsb/Src/usbd_winUsb.c ****   }
 467:Middlewares/ST/STM32_USB_Device_Library/Class/winUsb/Src/usbd_winUsb.c ****   else
 468:Middlewares/ST/STM32_USB_Device_Library/Class/winUsb/Src/usbd_winUsb.c ****   {
 469:Middlewares/ST/STM32_USB_Device_Library/Class/winUsb/Src/usbd_winUsb.c ****     hcdc->TxState = 0U;
 470:Middlewares/ST/STM32_USB_Device_Library/Class/winUsb/Src/usbd_winUsb.c **** 
 471:Middlewares/ST/STM32_USB_Device_Library/Class/winUsb/Src/usbd_winUsb.c ****     if (((USBD_WinUsb_ItfTypeDef *)pdev->pUserData[pdev->classId])->TransmitCplt != NULL)
 472:Middlewares/ST/STM32_USB_Device_Library/Class/winUsb/Src/usbd_winUsb.c ****     {
 473:Middlewares/ST/STM32_USB_Device_Library/Class/winUsb/Src/usbd_winUsb.c ****       ((USBD_WinUsb_ItfTypeDef *)pdev->pUserData[pdev->classId])->TransmitCplt(hcdc->TxBuffer, &hcd
 474:Middlewares/ST/STM32_USB_Device_Library/Class/winUsb/Src/usbd_winUsb.c ****     }
 475:Middlewares/ST/STM32_USB_Device_Library/Class/winUsb/Src/usbd_winUsb.c ****   }
 476:Middlewares/ST/STM32_USB_Device_Library/Class/winUsb/Src/usbd_winUsb.c **** 
 477:Middlewares/ST/STM32_USB_Device_Library/Class/winUsb/Src/usbd_winUsb.c ****   return (uint8_t)USBD_OK;	
 478:Middlewares/ST/STM32_USB_Device_Library/Class/winUsb/Src/usbd_winUsb.c **** 
 479:Middlewares/ST/STM32_USB_Device_Library/Class/winUsb/Src/usbd_winUsb.c **** }
 480:Middlewares/ST/STM32_USB_Device_Library/Class/winUsb/Src/usbd_winUsb.c **** 
 481:Middlewares/ST/STM32_USB_Device_Library/Class/winUsb/Src/usbd_winUsb.c **** static uint8_t USBD_WinUsb_DataOut(USBD_HandleTypeDef *pdev, uint8_t epnum)
 482:Middlewares/ST/STM32_USB_Device_Library/Class/winUsb/Src/usbd_winUsb.c **** {
 483:Middlewares/ST/STM32_USB_Device_Library/Class/winUsb/Src/usbd_winUsb.c ****   USBD_WinUsb_HandleTypeDef *hcdc = (USBD_WinUsb_HandleTypeDef *)pdev->pClassDataCmsit[pdev->classI
 484:Middlewares/ST/STM32_USB_Device_Library/Class/winUsb/Src/usbd_winUsb.c **** 
 485:Middlewares/ST/STM32_USB_Device_Library/Class/winUsb/Src/usbd_winUsb.c ****   if (pdev->pClassDataCmsit[pdev->classId] == NULL)
 486:Middlewares/ST/STM32_USB_Device_Library/Class/winUsb/Src/usbd_winUsb.c ****   {
ARM GAS  C:\Users\ADMINI~1\AppData\Local\Temp\cc0ubKlL.s 			page 10


 487:Middlewares/ST/STM32_USB_Device_Library/Class/winUsb/Src/usbd_winUsb.c ****     return (uint8_t)USBD_FAIL;
 488:Middlewares/ST/STM32_USB_Device_Library/Class/winUsb/Src/usbd_winUsb.c ****   }
 489:Middlewares/ST/STM32_USB_Device_Library/Class/winUsb/Src/usbd_winUsb.c **** 
 490:Middlewares/ST/STM32_USB_Device_Library/Class/winUsb/Src/usbd_winUsb.c ****   /* Get the received data length */
 491:Middlewares/ST/STM32_USB_Device_Library/Class/winUsb/Src/usbd_winUsb.c ****   hcdc->RxLength = USBD_LL_GetRxDataSize(pdev, epnum);
 492:Middlewares/ST/STM32_USB_Device_Library/Class/winUsb/Src/usbd_winUsb.c **** 
 493:Middlewares/ST/STM32_USB_Device_Library/Class/winUsb/Src/usbd_winUsb.c ****   /* USB data will be immediately processed, this allow next USB traffic being
 494:Middlewares/ST/STM32_USB_Device_Library/Class/winUsb/Src/usbd_winUsb.c ****   NAKed till the end of the application Xfer */
 495:Middlewares/ST/STM32_USB_Device_Library/Class/winUsb/Src/usbd_winUsb.c **** 
 496:Middlewares/ST/STM32_USB_Device_Library/Class/winUsb/Src/usbd_winUsb.c ****   ((USBD_WinUsb_ItfTypeDef *)pdev->pUserData[pdev->classId])->Receive(hcdc->RxBuffer, &hcdc->RxLeng
 497:Middlewares/ST/STM32_USB_Device_Library/Class/winUsb/Src/usbd_winUsb.c **** 
 498:Middlewares/ST/STM32_USB_Device_Library/Class/winUsb/Src/usbd_winUsb.c ****   return (uint8_t)USBD_OK;
 499:Middlewares/ST/STM32_USB_Device_Library/Class/winUsb/Src/usbd_winUsb.c **** 
 500:Middlewares/ST/STM32_USB_Device_Library/Class/winUsb/Src/usbd_winUsb.c **** }
 501:Middlewares/ST/STM32_USB_Device_Library/Class/winUsb/Src/usbd_winUsb.c **** static uint8_t USBD_WinUsb_EP0_RxReady(USBD_HandleTypeDef *pdev)
 502:Middlewares/ST/STM32_USB_Device_Library/Class/winUsb/Src/usbd_winUsb.c **** {
  29              		.loc 1 502 1 view -0
  30              		.cfi_startproc
  31              		@ args = 0, pretend = 0, frame = 0
  32              		@ frame_needed = 0, uses_anonymous_args = 0
  33              		@ link register save eliminated.
 503:Middlewares/ST/STM32_USB_Device_Library/Class/winUsb/Src/usbd_winUsb.c **** 	return (uint8_t)USBD_OK;
  34              		.loc 1 503 2 view .LVU1
 504:Middlewares/ST/STM32_USB_Device_Library/Class/winUsb/Src/usbd_winUsb.c **** 
 505:Middlewares/ST/STM32_USB_Device_Library/Class/winUsb/Src/usbd_winUsb.c **** }
  35              		.loc 1 505 1 is_stmt 0 view .LVU2
  36 0000 0020     		movs	r0, #0
  37              	.LVL1:
  38              		.loc 1 505 1 view .LVU3
  39 0002 7047     		bx	lr
  40              		.cfi_endproc
  41              	.LFE144:
  43              		.section	.text.WinUsb_DeInit_FS,"ax",%progbits
  44              		.align	1
  45              		.syntax unified
  46              		.thumb
  47              		.thumb_func
  49              	WinUsb_DeInit_FS:
  50              	.LFB150:
 506:Middlewares/ST/STM32_USB_Device_Library/Class/winUsb/Src/usbd_winUsb.c **** 
 507:Middlewares/ST/STM32_USB_Device_Library/Class/winUsb/Src/usbd_winUsb.c **** uint8_t WinUsbRxBufferFS[winAPP_RX_DATA_SIZE];
 508:Middlewares/ST/STM32_USB_Device_Library/Class/winUsb/Src/usbd_winUsb.c **** uint8_t WinUsbTxBufferFS[winAPP_TX_DATA_SIZE];
 509:Middlewares/ST/STM32_USB_Device_Library/Class/winUsb/Src/usbd_winUsb.c **** // extern USBD_HandleTypeDef hUsbDeviceFS;
 510:Middlewares/ST/STM32_USB_Device_Library/Class/winUsb/Src/usbd_winUsb.c **** extern USBD_HandleTypeDef hUsbDeviceHS;
 511:Middlewares/ST/STM32_USB_Device_Library/Class/winUsb/Src/usbd_winUsb.c **** uint8_t USBD_WinUsb_SetTxBuffer(USBD_HandleTypeDef *pdev,
 512:Middlewares/ST/STM32_USB_Device_Library/Class/winUsb/Src/usbd_winUsb.c ****                              uint8_t *pbuff, uint32_t length)
 513:Middlewares/ST/STM32_USB_Device_Library/Class/winUsb/Src/usbd_winUsb.c **** {
 514:Middlewares/ST/STM32_USB_Device_Library/Class/winUsb/Src/usbd_winUsb.c ****   USBD_WinUsb_HandleTypeDef *hcdc = (USBD_WinUsb_HandleTypeDef *)pdev->pClassDataCmsit[pdev->classI
 515:Middlewares/ST/STM32_USB_Device_Library/Class/winUsb/Src/usbd_winUsb.c **** 
 516:Middlewares/ST/STM32_USB_Device_Library/Class/winUsb/Src/usbd_winUsb.c ****   if (hcdc == NULL)
 517:Middlewares/ST/STM32_USB_Device_Library/Class/winUsb/Src/usbd_winUsb.c ****   {
 518:Middlewares/ST/STM32_USB_Device_Library/Class/winUsb/Src/usbd_winUsb.c ****     return (uint8_t)USBD_FAIL;
 519:Middlewares/ST/STM32_USB_Device_Library/Class/winUsb/Src/usbd_winUsb.c ****   }
 520:Middlewares/ST/STM32_USB_Device_Library/Class/winUsb/Src/usbd_winUsb.c **** 
 521:Middlewares/ST/STM32_USB_Device_Library/Class/winUsb/Src/usbd_winUsb.c ****   hcdc->TxBuffer = pbuff;
 522:Middlewares/ST/STM32_USB_Device_Library/Class/winUsb/Src/usbd_winUsb.c ****   hcdc->TxLength = length;
 523:Middlewares/ST/STM32_USB_Device_Library/Class/winUsb/Src/usbd_winUsb.c **** 
ARM GAS  C:\Users\ADMINI~1\AppData\Local\Temp\cc0ubKlL.s 			page 11


 524:Middlewares/ST/STM32_USB_Device_Library/Class/winUsb/Src/usbd_winUsb.c ****   return (uint8_t)USBD_OK;
 525:Middlewares/ST/STM32_USB_Device_Library/Class/winUsb/Src/usbd_winUsb.c **** }
 526:Middlewares/ST/STM32_USB_Device_Library/Class/winUsb/Src/usbd_winUsb.c **** uint8_t USBD_WinUsb_SetRxBuffer(USBD_HandleTypeDef *pdev, uint8_t *pbuff)
 527:Middlewares/ST/STM32_USB_Device_Library/Class/winUsb/Src/usbd_winUsb.c **** {
 528:Middlewares/ST/STM32_USB_Device_Library/Class/winUsb/Src/usbd_winUsb.c **** 	USBD_WinUsb_HandleTypeDef *hcdc = (USBD_WinUsb_HandleTypeDef *)pdev->pClassDataCmsit[pdev->classId
 529:Middlewares/ST/STM32_USB_Device_Library/Class/winUsb/Src/usbd_winUsb.c **** 
 530:Middlewares/ST/STM32_USB_Device_Library/Class/winUsb/Src/usbd_winUsb.c **** 	if (hcdc == NULL)
 531:Middlewares/ST/STM32_USB_Device_Library/Class/winUsb/Src/usbd_winUsb.c **** 	{
 532:Middlewares/ST/STM32_USB_Device_Library/Class/winUsb/Src/usbd_winUsb.c **** 	 	return (uint8_t)USBD_FAIL;
 533:Middlewares/ST/STM32_USB_Device_Library/Class/winUsb/Src/usbd_winUsb.c **** 	}
 534:Middlewares/ST/STM32_USB_Device_Library/Class/winUsb/Src/usbd_winUsb.c **** 
 535:Middlewares/ST/STM32_USB_Device_Library/Class/winUsb/Src/usbd_winUsb.c **** 	hcdc->RxBuffer = pbuff;
 536:Middlewares/ST/STM32_USB_Device_Library/Class/winUsb/Src/usbd_winUsb.c **** 
 537:Middlewares/ST/STM32_USB_Device_Library/Class/winUsb/Src/usbd_winUsb.c **** 	return (uint8_t)USBD_OK;
 538:Middlewares/ST/STM32_USB_Device_Library/Class/winUsb/Src/usbd_winUsb.c **** }
 539:Middlewares/ST/STM32_USB_Device_Library/Class/winUsb/Src/usbd_winUsb.c **** 
 540:Middlewares/ST/STM32_USB_Device_Library/Class/winUsb/Src/usbd_winUsb.c **** uint8_t USBD_WinUsb_ReceivePacket(USBD_HandleTypeDef *pdev)
 541:Middlewares/ST/STM32_USB_Device_Library/Class/winUsb/Src/usbd_winUsb.c **** {
 542:Middlewares/ST/STM32_USB_Device_Library/Class/winUsb/Src/usbd_winUsb.c ****   USBD_WinUsb_HandleTypeDef *hcdc = (USBD_WinUsb_HandleTypeDef *)pdev->pClassDataCmsit[pdev->classI
 543:Middlewares/ST/STM32_USB_Device_Library/Class/winUsb/Src/usbd_winUsb.c **** 
 544:Middlewares/ST/STM32_USB_Device_Library/Class/winUsb/Src/usbd_winUsb.c ****   if (pdev->pClassDataCmsit[pdev->classId] == NULL)
 545:Middlewares/ST/STM32_USB_Device_Library/Class/winUsb/Src/usbd_winUsb.c ****   {
 546:Middlewares/ST/STM32_USB_Device_Library/Class/winUsb/Src/usbd_winUsb.c ****     return (uint8_t)USBD_FAIL;
 547:Middlewares/ST/STM32_USB_Device_Library/Class/winUsb/Src/usbd_winUsb.c ****   }
 548:Middlewares/ST/STM32_USB_Device_Library/Class/winUsb/Src/usbd_winUsb.c ****   if (pdev->dev_speed == USBD_SPEED_HIGH)
 549:Middlewares/ST/STM32_USB_Device_Library/Class/winUsb/Src/usbd_winUsb.c ****   {
 550:Middlewares/ST/STM32_USB_Device_Library/Class/winUsb/Src/usbd_winUsb.c ****     /* Prepare Out endpoint to receive next packet */
 551:Middlewares/ST/STM32_USB_Device_Library/Class/winUsb/Src/usbd_winUsb.c ****     (void)USBD_LL_PrepareReceive(pdev, WinUsbOutEpAdd, hcdc->RxBuffer,
 552:Middlewares/ST/STM32_USB_Device_Library/Class/winUsb/Src/usbd_winUsb.c ****                                  WIN_DATA_HS_OUT_PACKET_SIZE);
 553:Middlewares/ST/STM32_USB_Device_Library/Class/winUsb/Src/usbd_winUsb.c ****   }
 554:Middlewares/ST/STM32_USB_Device_Library/Class/winUsb/Src/usbd_winUsb.c ****   else
 555:Middlewares/ST/STM32_USB_Device_Library/Class/winUsb/Src/usbd_winUsb.c ****   {
 556:Middlewares/ST/STM32_USB_Device_Library/Class/winUsb/Src/usbd_winUsb.c ****     /* Prepare Out endpoint to receive next packet */
 557:Middlewares/ST/STM32_USB_Device_Library/Class/winUsb/Src/usbd_winUsb.c ****     (void)USBD_LL_PrepareReceive(pdev, WinUsbOutEpAdd, hcdc->RxBuffer,
 558:Middlewares/ST/STM32_USB_Device_Library/Class/winUsb/Src/usbd_winUsb.c ****                                  WIN_DATA_FS_OUT_PACKET_SIZE);
 559:Middlewares/ST/STM32_USB_Device_Library/Class/winUsb/Src/usbd_winUsb.c ****   }
 560:Middlewares/ST/STM32_USB_Device_Library/Class/winUsb/Src/usbd_winUsb.c ****  return (uint8_t)USBD_OK;
 561:Middlewares/ST/STM32_USB_Device_Library/Class/winUsb/Src/usbd_winUsb.c **** }
 562:Middlewares/ST/STM32_USB_Device_Library/Class/winUsb/Src/usbd_winUsb.c **** 
 563:Middlewares/ST/STM32_USB_Device_Library/Class/winUsb/Src/usbd_winUsb.c **** uint8_t USBD_WinUsb_TransmitPacket(USBD_HandleTypeDef *pdev)
 564:Middlewares/ST/STM32_USB_Device_Library/Class/winUsb/Src/usbd_winUsb.c **** {
 565:Middlewares/ST/STM32_USB_Device_Library/Class/winUsb/Src/usbd_winUsb.c ****   USBD_WinUsb_HandleTypeDef *hcdc = (USBD_WinUsb_HandleTypeDef *)pdev->pClassDataCmsit[pdev->classI
 566:Middlewares/ST/STM32_USB_Device_Library/Class/winUsb/Src/usbd_winUsb.c ****   USBD_StatusTypeDef ret = USBD_BUSY;
 567:Middlewares/ST/STM32_USB_Device_Library/Class/winUsb/Src/usbd_winUsb.c **** 
 568:Middlewares/ST/STM32_USB_Device_Library/Class/winUsb/Src/usbd_winUsb.c ****   if (pdev->pClassDataCmsit[pdev->classId] == NULL)
 569:Middlewares/ST/STM32_USB_Device_Library/Class/winUsb/Src/usbd_winUsb.c ****   {
 570:Middlewares/ST/STM32_USB_Device_Library/Class/winUsb/Src/usbd_winUsb.c ****     return (uint8_t)USBD_FAIL;
 571:Middlewares/ST/STM32_USB_Device_Library/Class/winUsb/Src/usbd_winUsb.c ****   }
 572:Middlewares/ST/STM32_USB_Device_Library/Class/winUsb/Src/usbd_winUsb.c **** 
 573:Middlewares/ST/STM32_USB_Device_Library/Class/winUsb/Src/usbd_winUsb.c ****   if (hcdc->TxState == 0U)
 574:Middlewares/ST/STM32_USB_Device_Library/Class/winUsb/Src/usbd_winUsb.c ****   {
 575:Middlewares/ST/STM32_USB_Device_Library/Class/winUsb/Src/usbd_winUsb.c ****     /* Tx Transfer in progress */
 576:Middlewares/ST/STM32_USB_Device_Library/Class/winUsb/Src/usbd_winUsb.c ****     hcdc->TxState = 1U;
 577:Middlewares/ST/STM32_USB_Device_Library/Class/winUsb/Src/usbd_winUsb.c **** 
 578:Middlewares/ST/STM32_USB_Device_Library/Class/winUsb/Src/usbd_winUsb.c ****     /* Update the packet total length */
 579:Middlewares/ST/STM32_USB_Device_Library/Class/winUsb/Src/usbd_winUsb.c ****     pdev->ep_in[WinUsbInEpAdd & 0xFU].total_length = hcdc->TxLength;
 580:Middlewares/ST/STM32_USB_Device_Library/Class/winUsb/Src/usbd_winUsb.c **** 
ARM GAS  C:\Users\ADMINI~1\AppData\Local\Temp\cc0ubKlL.s 			page 12


 581:Middlewares/ST/STM32_USB_Device_Library/Class/winUsb/Src/usbd_winUsb.c ****     /* Transmit next packet */
 582:Middlewares/ST/STM32_USB_Device_Library/Class/winUsb/Src/usbd_winUsb.c ****     (void)USBD_LL_Transmit(pdev, WinUsbInEpAdd, hcdc->TxBuffer, hcdc->TxLength);
 583:Middlewares/ST/STM32_USB_Device_Library/Class/winUsb/Src/usbd_winUsb.c **** 
 584:Middlewares/ST/STM32_USB_Device_Library/Class/winUsb/Src/usbd_winUsb.c ****     ret = USBD_OK;
 585:Middlewares/ST/STM32_USB_Device_Library/Class/winUsb/Src/usbd_winUsb.c ****   }
 586:Middlewares/ST/STM32_USB_Device_Library/Class/winUsb/Src/usbd_winUsb.c **** 
 587:Middlewares/ST/STM32_USB_Device_Library/Class/winUsb/Src/usbd_winUsb.c ****   return (uint8_t)ret;
 588:Middlewares/ST/STM32_USB_Device_Library/Class/winUsb/Src/usbd_winUsb.c **** }
 589:Middlewares/ST/STM32_USB_Device_Library/Class/winUsb/Src/usbd_winUsb.c **** static int8_t WinUsb_Init_FS(void)
 590:Middlewares/ST/STM32_USB_Device_Library/Class/winUsb/Src/usbd_winUsb.c **** {
 591:Middlewares/ST/STM32_USB_Device_Library/Class/winUsb/Src/usbd_winUsb.c ****   /* USER CODE BEGIN 3 */
 592:Middlewares/ST/STM32_USB_Device_Library/Class/winUsb/Src/usbd_winUsb.c ****   /* Set Application Buffers */
 593:Middlewares/ST/STM32_USB_Device_Library/Class/winUsb/Src/usbd_winUsb.c ****   USBD_WinUsb_SetTxBuffer(&hUsbDeviceHS, WinUsbTxBufferFS, 0);
 594:Middlewares/ST/STM32_USB_Device_Library/Class/winUsb/Src/usbd_winUsb.c ****   USBD_WinUsb_SetRxBuffer(&hUsbDeviceHS, WinUsbRxBufferFS);
 595:Middlewares/ST/STM32_USB_Device_Library/Class/winUsb/Src/usbd_winUsb.c ****   return (USBD_OK);
 596:Middlewares/ST/STM32_USB_Device_Library/Class/winUsb/Src/usbd_winUsb.c ****   /* USER CODE END 3 */
 597:Middlewares/ST/STM32_USB_Device_Library/Class/winUsb/Src/usbd_winUsb.c **** }
 598:Middlewares/ST/STM32_USB_Device_Library/Class/winUsb/Src/usbd_winUsb.c **** static int8_t WinUsb_DeInit_FS(void)
 599:Middlewares/ST/STM32_USB_Device_Library/Class/winUsb/Src/usbd_winUsb.c **** {
  51              		.loc 1 599 1 is_stmt 1 view -0
  52              		.cfi_startproc
  53              		@ args = 0, pretend = 0, frame = 0
  54              		@ frame_needed = 0, uses_anonymous_args = 0
  55              		@ link register save eliminated.
 600:Middlewares/ST/STM32_USB_Device_Library/Class/winUsb/Src/usbd_winUsb.c ****   /* USER CODE BEGIN 4 */
 601:Middlewares/ST/STM32_USB_Device_Library/Class/winUsb/Src/usbd_winUsb.c ****   return (USBD_OK);
  56              		.loc 1 601 3 view .LVU5
 602:Middlewares/ST/STM32_USB_Device_Library/Class/winUsb/Src/usbd_winUsb.c ****   /* USER CODE END 4 */
 603:Middlewares/ST/STM32_USB_Device_Library/Class/winUsb/Src/usbd_winUsb.c **** }
  57              		.loc 1 603 1 is_stmt 0 view .LVU6
  58 0000 0020     		movs	r0, #0
  59 0002 7047     		bx	lr
  60              		.cfi_endproc
  61              	.LFE150:
  63              		.section	.text.WinUsb_TransmitCplt_FS,"ax",%progbits
  64              		.align	1
  65              		.syntax unified
  66              		.thumb
  67              		.thumb_func
  69              	WinUsb_TransmitCplt_FS:
  70              	.LVL2:
  71              	.LFB153:
 604:Middlewares/ST/STM32_USB_Device_Library/Class/winUsb/Src/usbd_winUsb.c **** uint8_t WinUsb_Transmit_FS(uint8_t* Buf, uint16_t Len)
 605:Middlewares/ST/STM32_USB_Device_Library/Class/winUsb/Src/usbd_winUsb.c **** {
 606:Middlewares/ST/STM32_USB_Device_Library/Class/winUsb/Src/usbd_winUsb.c ****   uint8_t result = USBD_OK;
 607:Middlewares/ST/STM32_USB_Device_Library/Class/winUsb/Src/usbd_winUsb.c ****   /* USER CODE BEGIN 7 */
 608:Middlewares/ST/STM32_USB_Device_Library/Class/winUsb/Src/usbd_winUsb.c ****   USBD_WinUsb_HandleTypeDef *hcdc = (USBD_WinUsb_HandleTypeDef*)hUsbDeviceHS.pClassData;
 609:Middlewares/ST/STM32_USB_Device_Library/Class/winUsb/Src/usbd_winUsb.c ****   if (hcdc->TxState != 0){
 610:Middlewares/ST/STM32_USB_Device_Library/Class/winUsb/Src/usbd_winUsb.c ****     return USBD_BUSY;
 611:Middlewares/ST/STM32_USB_Device_Library/Class/winUsb/Src/usbd_winUsb.c ****   }
 612:Middlewares/ST/STM32_USB_Device_Library/Class/winUsb/Src/usbd_winUsb.c ****   USBD_WinUsb_SetTxBuffer(&hUsbDeviceHS, Buf, Len);
 613:Middlewares/ST/STM32_USB_Device_Library/Class/winUsb/Src/usbd_winUsb.c ****   result = USBD_WinUsb_TransmitPacket(&hUsbDeviceHS);
 614:Middlewares/ST/STM32_USB_Device_Library/Class/winUsb/Src/usbd_winUsb.c ****   /* USER CODE END 7 */
 615:Middlewares/ST/STM32_USB_Device_Library/Class/winUsb/Src/usbd_winUsb.c ****   return result;
 616:Middlewares/ST/STM32_USB_Device_Library/Class/winUsb/Src/usbd_winUsb.c **** }
 617:Middlewares/ST/STM32_USB_Device_Library/Class/winUsb/Src/usbd_winUsb.c **** static int8_t WinUsb_Receive_FS(uint8_t* Buf, uint32_t *Len)
 618:Middlewares/ST/STM32_USB_Device_Library/Class/winUsb/Src/usbd_winUsb.c **** {
ARM GAS  C:\Users\ADMINI~1\AppData\Local\Temp\cc0ubKlL.s 			page 13


 619:Middlewares/ST/STM32_USB_Device_Library/Class/winUsb/Src/usbd_winUsb.c ****   /* USER CODE BEGIN 6 */
 620:Middlewares/ST/STM32_USB_Device_Library/Class/winUsb/Src/usbd_winUsb.c ****   int i;
 621:Middlewares/ST/STM32_USB_Device_Library/Class/winUsb/Src/usbd_winUsb.c ****   for(i=0 ; i<*Len; i++)
 622:Middlewares/ST/STM32_USB_Device_Library/Class/winUsb/Src/usbd_winUsb.c ****     printf("%.2x ",Buf[i]);
 623:Middlewares/ST/STM32_USB_Device_Library/Class/winUsb/Src/usbd_winUsb.c ****   printf("\r\n");
 624:Middlewares/ST/STM32_USB_Device_Library/Class/winUsb/Src/usbd_winUsb.c ****   USBD_WinUsb_SetRxBuffer(&hUsbDeviceHS, &Buf[0]);
 625:Middlewares/ST/STM32_USB_Device_Library/Class/winUsb/Src/usbd_winUsb.c ****   USBD_WinUsb_ReceivePacket(&hUsbDeviceHS);
 626:Middlewares/ST/STM32_USB_Device_Library/Class/winUsb/Src/usbd_winUsb.c ****   return (USBD_OK);
 627:Middlewares/ST/STM32_USB_Device_Library/Class/winUsb/Src/usbd_winUsb.c ****   /* USER CODE END 6 */
 628:Middlewares/ST/STM32_USB_Device_Library/Class/winUsb/Src/usbd_winUsb.c **** }
 629:Middlewares/ST/STM32_USB_Device_Library/Class/winUsb/Src/usbd_winUsb.c **** static int8_t WinUsb_TransmitCplt_FS(uint8_t *Buf, uint32_t *Len, uint8_t epnum)
 630:Middlewares/ST/STM32_USB_Device_Library/Class/winUsb/Src/usbd_winUsb.c **** {
  72              		.loc 1 630 1 is_stmt 1 view -0
  73              		.cfi_startproc
  74              		@ args = 0, pretend = 0, frame = 0
  75              		@ frame_needed = 0, uses_anonymous_args = 0
  76              		@ link register save eliminated.
 631:Middlewares/ST/STM32_USB_Device_Library/Class/winUsb/Src/usbd_winUsb.c ****   uint8_t result = USBD_OK;
  77              		.loc 1 631 3 view .LVU8
 632:Middlewares/ST/STM32_USB_Device_Library/Class/winUsb/Src/usbd_winUsb.c ****   /* USER CODE BEGIN 13 */
 633:Middlewares/ST/STM32_USB_Device_Library/Class/winUsb/Src/usbd_winUsb.c ****   UNUSED(Buf);
  78              		.loc 1 633 3 view .LVU9
 634:Middlewares/ST/STM32_USB_Device_Library/Class/winUsb/Src/usbd_winUsb.c ****   UNUSED(Len);
  79              		.loc 1 634 3 view .LVU10
 635:Middlewares/ST/STM32_USB_Device_Library/Class/winUsb/Src/usbd_winUsb.c ****   UNUSED(epnum);
  80              		.loc 1 635 3 view .LVU11
 636:Middlewares/ST/STM32_USB_Device_Library/Class/winUsb/Src/usbd_winUsb.c ****   /* USER CODE END 13 */
 637:Middlewares/ST/STM32_USB_Device_Library/Class/winUsb/Src/usbd_winUsb.c ****   return result;
  81              		.loc 1 637 3 view .LVU12
 638:Middlewares/ST/STM32_USB_Device_Library/Class/winUsb/Src/usbd_winUsb.c **** }
  82              		.loc 1 638 1 is_stmt 0 view .LVU13
  83 0000 0020     		movs	r0, #0
  84              	.LVL3:
  85              		.loc 1 638 1 view .LVU14
  86 0002 7047     		bx	lr
  87              		.cfi_endproc
  88              	.LFE153:
  90              		.section	.text.USBD_WinUsb_DataOut,"ax",%progbits
  91              		.align	1
  92              		.syntax unified
  93              		.thumb
  94              		.thumb_func
  96              	USBD_WinUsb_DataOut:
  97              	.LVL4:
  98              	.LFB143:
 482:Middlewares/ST/STM32_USB_Device_Library/Class/winUsb/Src/usbd_winUsb.c ****   USBD_WinUsb_HandleTypeDef *hcdc = (USBD_WinUsb_HandleTypeDef *)pdev->pClassDataCmsit[pdev->classI
  99              		.loc 1 482 1 is_stmt 1 view -0
 100              		.cfi_startproc
 101              		@ args = 0, pretend = 0, frame = 0
 102              		@ frame_needed = 0, uses_anonymous_args = 0
 482:Middlewares/ST/STM32_USB_Device_Library/Class/winUsb/Src/usbd_winUsb.c ****   USBD_WinUsb_HandleTypeDef *hcdc = (USBD_WinUsb_HandleTypeDef *)pdev->pClassDataCmsit[pdev->classI
 103              		.loc 1 482 1 is_stmt 0 view .LVU16
 104 0000 38B5     		push	{r3, r4, r5, lr}
 105              	.LCFI0:
 106              		.cfi_def_cfa_offset 16
 107              		.cfi_offset 3, -16
 108              		.cfi_offset 4, -12
ARM GAS  C:\Users\ADMINI~1\AppData\Local\Temp\cc0ubKlL.s 			page 14


 109              		.cfi_offset 5, -8
 110              		.cfi_offset 14, -4
 483:Middlewares/ST/STM32_USB_Device_Library/Class/winUsb/Src/usbd_winUsb.c **** 
 111              		.loc 1 483 3 is_stmt 1 view .LVU17
 483:Middlewares/ST/STM32_USB_Device_Library/Class/winUsb/Src/usbd_winUsb.c **** 
 112              		.loc 1 483 92 is_stmt 0 view .LVU18
 113 0002 D0F8F832 		ldr	r3, [r0, #760]
 483:Middlewares/ST/STM32_USB_Device_Library/Class/winUsb/Src/usbd_winUsb.c **** 
 114              		.loc 1 483 30 view .LVU19
 115 0006 B233     		adds	r3, r3, #178
 116 0008 00EB8303 		add	r3, r0, r3, lsl #2
 117 000c 5D68     		ldr	r5, [r3, #4]
 118              	.LVL5:
 485:Middlewares/ST/STM32_USB_Device_Library/Class/winUsb/Src/usbd_winUsb.c ****   {
 119              		.loc 1 485 3 is_stmt 1 view .LVU20
 485:Middlewares/ST/STM32_USB_Device_Library/Class/winUsb/Src/usbd_winUsb.c ****   {
 120              		.loc 1 485 6 is_stmt 0 view .LVU21
 121 000e 95B1     		cbz	r5, .L6
 122 0010 0446     		mov	r4, r0
 491:Middlewares/ST/STM32_USB_Device_Library/Class/winUsb/Src/usbd_winUsb.c **** 
 123              		.loc 1 491 3 is_stmt 1 view .LVU22
 491:Middlewares/ST/STM32_USB_Device_Library/Class/winUsb/Src/usbd_winUsb.c **** 
 124              		.loc 1 491 20 is_stmt 0 view .LVU23
 125 0012 FFF7FEFF 		bl	USBD_LL_GetRxDataSize
 126              	.LVL6:
 491:Middlewares/ST/STM32_USB_Device_Library/Class/winUsb/Src/usbd_winUsb.c **** 
 127              		.loc 1 491 18 view .LVU24
 128 0016 C5F80C02 		str	r0, [r5, #524]
 496:Middlewares/ST/STM32_USB_Device_Library/Class/winUsb/Src/usbd_winUsb.c **** 
 129              		.loc 1 496 3 is_stmt 1 view .LVU25
 496:Middlewares/ST/STM32_USB_Device_Library/Class/winUsb/Src/usbd_winUsb.c **** 
 130              		.loc 1 496 50 is_stmt 0 view .LVU26
 131 001a D4F8F832 		ldr	r3, [r4, #760]
 496:Middlewares/ST/STM32_USB_Device_Library/Class/winUsb/Src/usbd_winUsb.c **** 
 132              		.loc 1 496 45 view .LVU27
 133 001e B633     		adds	r3, r3, #182
 134 0020 04EB8304 		add	r4, r4, r3, lsl #2
 135              	.LVL7:
 496:Middlewares/ST/STM32_USB_Device_Library/Class/winUsb/Src/usbd_winUsb.c **** 
 136              		.loc 1 496 45 view .LVU28
 137 0024 6368     		ldr	r3, [r4, #4]
 496:Middlewares/ST/STM32_USB_Device_Library/Class/winUsb/Src/usbd_winUsb.c **** 
 138              		.loc 1 496 61 view .LVU29
 139 0026 9B68     		ldr	r3, [r3, #8]
 496:Middlewares/ST/STM32_USB_Device_Library/Class/winUsb/Src/usbd_winUsb.c **** 
 140              		.loc 1 496 4 view .LVU30
 141 0028 05F50371 		add	r1, r5, #524
 142 002c D5F80402 		ldr	r0, [r5, #516]
 143 0030 9847     		blx	r3
 144              	.LVL8:
 498:Middlewares/ST/STM32_USB_Device_Library/Class/winUsb/Src/usbd_winUsb.c **** 
 145              		.loc 1 498 3 is_stmt 1 view .LVU31
 498:Middlewares/ST/STM32_USB_Device_Library/Class/winUsb/Src/usbd_winUsb.c **** 
 146              		.loc 1 498 10 is_stmt 0 view .LVU32
 147 0032 0020     		movs	r0, #0
 148              	.L5:
 500:Middlewares/ST/STM32_USB_Device_Library/Class/winUsb/Src/usbd_winUsb.c **** static uint8_t USBD_WinUsb_EP0_RxReady(USBD_HandleTypeDef *pdev)
ARM GAS  C:\Users\ADMINI~1\AppData\Local\Temp\cc0ubKlL.s 			page 15


 149              		.loc 1 500 1 view .LVU33
 150 0034 38BD     		pop	{r3, r4, r5, pc}
 151              	.LVL9:
 152              	.L6:
 487:Middlewares/ST/STM32_USB_Device_Library/Class/winUsb/Src/usbd_winUsb.c ****   }
 153              		.loc 1 487 12 view .LVU34
 154 0036 0320     		movs	r0, #3
 155              	.LVL10:
 487:Middlewares/ST/STM32_USB_Device_Library/Class/winUsb/Src/usbd_winUsb.c ****   }
 156              		.loc 1 487 12 view .LVU35
 157 0038 FCE7     		b	.L5
 158              		.cfi_endproc
 159              	.LFE143:
 161              		.section	.text.USBD_WinUsb_DataIn,"ax",%progbits
 162              		.align	1
 163              		.syntax unified
 164              		.thumb
 165              		.thumb_func
 167              	USBD_WinUsb_DataIn:
 168              	.LVL11:
 169              	.LFB142:
 447:Middlewares/ST/STM32_USB_Device_Library/Class/winUsb/Src/usbd_winUsb.c ****   USBD_WinUsb_HandleTypeDef *hcdc;
 170              		.loc 1 447 1 is_stmt 1 view -0
 171              		.cfi_startproc
 172              		@ args = 0, pretend = 0, frame = 0
 173              		@ frame_needed = 0, uses_anonymous_args = 0
 447:Middlewares/ST/STM32_USB_Device_Library/Class/winUsb/Src/usbd_winUsb.c ****   USBD_WinUsb_HandleTypeDef *hcdc;
 174              		.loc 1 447 1 is_stmt 0 view .LVU37
 175 0000 38B5     		push	{r3, r4, r5, lr}
 176              	.LCFI1:
 177              		.cfi_def_cfa_offset 16
 178              		.cfi_offset 3, -16
 179              		.cfi_offset 4, -12
 180              		.cfi_offset 5, -8
 181              		.cfi_offset 14, -4
 448:Middlewares/ST/STM32_USB_Device_Library/Class/winUsb/Src/usbd_winUsb.c ****   PCD_HandleTypeDef *hpcd = (PCD_HandleTypeDef *)pdev->pData;
 182              		.loc 1 448 3 is_stmt 1 view .LVU38
 449:Middlewares/ST/STM32_USB_Device_Library/Class/winUsb/Src/usbd_winUsb.c **** 
 183              		.loc 1 449 3 view .LVU39
 449:Middlewares/ST/STM32_USB_Device_Library/Class/winUsb/Src/usbd_winUsb.c **** 
 184              		.loc 1 449 22 is_stmt 0 view .LVU40
 185 0002 D0F8EC52 		ldr	r5, [r0, #748]
 186              	.LVL12:
 451:Middlewares/ST/STM32_USB_Device_Library/Class/winUsb/Src/usbd_winUsb.c ****   {
 187              		.loc 1 451 3 is_stmt 1 view .LVU41
 451:Middlewares/ST/STM32_USB_Device_Library/Class/winUsb/Src/usbd_winUsb.c ****   {
 188              		.loc 1 451 33 is_stmt 0 view .LVU42
 189 0006 D0F8F832 		ldr	r3, [r0, #760]
 451:Middlewares/ST/STM32_USB_Device_Library/Class/winUsb/Src/usbd_winUsb.c ****   {
 190              		.loc 1 451 28 view .LVU43
 191 000a B233     		adds	r3, r3, #178
 192 000c 00EB8303 		add	r3, r0, r3, lsl #2
 193 0010 5C68     		ldr	r4, [r3, #4]
 451:Middlewares/ST/STM32_USB_Device_Library/Class/winUsb/Src/usbd_winUsb.c ****   {
 194              		.loc 1 451 6 view .LVU44
 195 0012 84B3     		cbz	r4, .L11
 456:Middlewares/ST/STM32_USB_Device_Library/Class/winUsb/Src/usbd_winUsb.c **** 
ARM GAS  C:\Users\ADMINI~1\AppData\Local\Temp\cc0ubKlL.s 			page 16


 196              		.loc 1 456 3 is_stmt 1 view .LVU45
 197              	.LVL13:
 458:Middlewares/ST/STM32_USB_Device_Library/Class/winUsb/Src/usbd_winUsb.c ****       ((pdev->ep_in[epnum & 0xFU].total_length % hpcd->IN_ep[epnum & 0xFU].maxpacket) == 0U))
 198              		.loc 1 458 3 view .LVU46
 458:Middlewares/ST/STM32_USB_Device_Library/Class/winUsb/Src/usbd_winUsb.c ****       ((pdev->ep_in[epnum & 0xFU].total_length % hpcd->IN_ep[epnum & 0xFU].maxpacket) == 0U))
 199              		.loc 1 458 26 is_stmt 0 view .LVU47
 200 0014 01F00F03 		and	r3, r1, #15
 458:Middlewares/ST/STM32_USB_Device_Library/Class/winUsb/Src/usbd_winUsb.c ****       ((pdev->ep_in[epnum & 0xFU].total_length % hpcd->IN_ep[epnum & 0xFU].maxpacket) == 0U))
 201              		.loc 1 458 33 view .LVU48
 202 0018 03EB8302 		add	r2, r3, r3, lsl #2
 203 001c 00EB8202 		add	r2, r0, r2, lsl #2
 204 0020 9269     		ldr	r2, [r2, #24]
 458:Middlewares/ST/STM32_USB_Device_Library/Class/winUsb/Src/usbd_winUsb.c ****       ((pdev->ep_in[epnum & 0xFU].total_length % hpcd->IN_ep[epnum & 0xFU].maxpacket) == 0U))
 205              		.loc 1 458 6 view .LVU49
 206 0022 4AB1     		cbz	r2, .L10
 459:Middlewares/ST/STM32_USB_Device_Library/Class/winUsb/Src/usbd_winUsb.c ****   {
 207              		.loc 1 459 75 discriminator 1 view .LVU50
 208 0024 03EBC30C 		add	ip, r3, r3, lsl #3
 209 0028 05EB8C05 		add	r5, r5, ip, lsl #2
 210              	.LVL14:
 459:Middlewares/ST/STM32_USB_Device_Library/Class/winUsb/Src/usbd_winUsb.c ****   {
 211              		.loc 1 459 75 discriminator 1 view .LVU51
 212 002c AD6C     		ldr	r5, [r5, #72]
 459:Middlewares/ST/STM32_USB_Device_Library/Class/winUsb/Src/usbd_winUsb.c ****   {
 213              		.loc 1 459 48 discriminator 1 view .LVU52
 214 002e B2FBF5FC 		udiv	ip, r2, r5
 215 0032 05FB1C22 		mls	r2, r5, ip, r2
 458:Middlewares/ST/STM32_USB_Device_Library/Class/winUsb/Src/usbd_winUsb.c ****       ((pdev->ep_in[epnum & 0xFU].total_length % hpcd->IN_ep[epnum & 0xFU].maxpacket) == 0U))
 216              		.loc 1 458 53 discriminator 1 view .LVU53
 217 0036 92B1     		cbz	r2, .L14
 218              	.L10:
 469:Middlewares/ST/STM32_USB_Device_Library/Class/winUsb/Src/usbd_winUsb.c **** 
 219              		.loc 1 469 5 is_stmt 1 view .LVU54
 469:Middlewares/ST/STM32_USB_Device_Library/Class/winUsb/Src/usbd_winUsb.c **** 
 220              		.loc 1 469 19 is_stmt 0 view .LVU55
 221 0038 0023     		movs	r3, #0
 222 003a C4F81432 		str	r3, [r4, #532]
 223              	.LVL15:
 471:Middlewares/ST/STM32_USB_Device_Library/Class/winUsb/Src/usbd_winUsb.c ****     {
 224              		.loc 1 471 5 is_stmt 1 view .LVU56
 471:Middlewares/ST/STM32_USB_Device_Library/Class/winUsb/Src/usbd_winUsb.c ****     {
 225              		.loc 1 471 56 is_stmt 0 view .LVU57
 226 003e D0F8F832 		ldr	r3, [r0, #760]
 471:Middlewares/ST/STM32_USB_Device_Library/Class/winUsb/Src/usbd_winUsb.c ****     {
 227              		.loc 1 471 51 view .LVU58
 228 0042 B633     		adds	r3, r3, #182
 229 0044 00EB8300 		add	r0, r0, r3, lsl #2
 230              	.LVL16:
 471:Middlewares/ST/STM32_USB_Device_Library/Class/winUsb/Src/usbd_winUsb.c ****     {
 231              		.loc 1 471 51 view .LVU59
 232 0048 4368     		ldr	r3, [r0, #4]
 471:Middlewares/ST/STM32_USB_Device_Library/Class/winUsb/Src/usbd_winUsb.c ****     {
 233              		.loc 1 471 67 view .LVU60
 234 004a DB68     		ldr	r3, [r3, #12]
 471:Middlewares/ST/STM32_USB_Device_Library/Class/winUsb/Src/usbd_winUsb.c ****     {
 235              		.loc 1 471 8 view .LVU61
 236 004c ABB1     		cbz	r3, .L12
ARM GAS  C:\Users\ADMINI~1\AppData\Local\Temp\cc0ubKlL.s 			page 17


 473:Middlewares/ST/STM32_USB_Device_Library/Class/winUsb/Src/usbd_winUsb.c ****     }
 237              		.loc 1 473 7 is_stmt 1 view .LVU62
 473:Middlewares/ST/STM32_USB_Device_Library/Class/winUsb/Src/usbd_winUsb.c ****     }
 238              		.loc 1 473 8 is_stmt 0 view .LVU63
 239 004e 0A46     		mov	r2, r1
 240 0050 04F50471 		add	r1, r4, #528
 241              	.LVL17:
 473:Middlewares/ST/STM32_USB_Device_Library/Class/winUsb/Src/usbd_winUsb.c ****     }
 242              		.loc 1 473 8 view .LVU64
 243 0054 D4F80802 		ldr	r0, [r4, #520]
 244 0058 9847     		blx	r3
 245              	.LVL18:
 477:Middlewares/ST/STM32_USB_Device_Library/Class/winUsb/Src/usbd_winUsb.c **** 
 246              		.loc 1 477 10 view .LVU65
 247 005a 0020     		movs	r0, #0
 248              	.LVL19:
 249              	.L9:
 479:Middlewares/ST/STM32_USB_Device_Library/Class/winUsb/Src/usbd_winUsb.c **** 
 250              		.loc 1 479 1 view .LVU66
 251 005c 38BD     		pop	{r3, r4, r5, pc}
 252              	.LVL20:
 253              	.L14:
 462:Middlewares/ST/STM32_USB_Device_Library/Class/winUsb/Src/usbd_winUsb.c **** 
 254              		.loc 1 462 5 is_stmt 1 view .LVU67
 462:Middlewares/ST/STM32_USB_Device_Library/Class/winUsb/Src/usbd_winUsb.c **** 
 255              		.loc 1 462 44 is_stmt 0 view .LVU68
 256 005e 03EB8303 		add	r3, r3, r3, lsl #2
 257 0062 00EB8303 		add	r3, r0, r3, lsl #2
 258 0066 0024     		movs	r4, #0
 259              	.LVL21:
 462:Middlewares/ST/STM32_USB_Device_Library/Class/winUsb/Src/usbd_winUsb.c **** 
 260              		.loc 1 462 44 view .LVU69
 261 0068 9C61     		str	r4, [r3, #24]
 262              	.LVL22:
 465:Middlewares/ST/STM32_USB_Device_Library/Class/winUsb/Src/usbd_winUsb.c ****   }
 263              		.loc 1 465 5 is_stmt 1 view .LVU70
 465:Middlewares/ST/STM32_USB_Device_Library/Class/winUsb/Src/usbd_winUsb.c ****   }
 264              		.loc 1 465 11 is_stmt 0 view .LVU71
 265 006a 2346     		mov	r3, r4
 266 006c 2246     		mov	r2, r4
 267 006e FFF7FEFF 		bl	USBD_LL_Transmit
 268              	.LVL23:
 477:Middlewares/ST/STM32_USB_Device_Library/Class/winUsb/Src/usbd_winUsb.c **** 
 269              		.loc 1 477 10 view .LVU72
 270 0072 2046     		mov	r0, r4
 465:Middlewares/ST/STM32_USB_Device_Library/Class/winUsb/Src/usbd_winUsb.c ****   }
 271              		.loc 1 465 5 view .LVU73
 272 0074 F2E7     		b	.L9
 273              	.LVL24:
 274              	.L11:
 453:Middlewares/ST/STM32_USB_Device_Library/Class/winUsb/Src/usbd_winUsb.c ****   }
 275              		.loc 1 453 12 view .LVU74
 276 0076 0320     		movs	r0, #3
 277              	.LVL25:
 453:Middlewares/ST/STM32_USB_Device_Library/Class/winUsb/Src/usbd_winUsb.c ****   }
 278              		.loc 1 453 12 view .LVU75
 279 0078 F0E7     		b	.L9
ARM GAS  C:\Users\ADMINI~1\AppData\Local\Temp\cc0ubKlL.s 			page 18


 280              	.LVL26:
 281              	.L12:
 477:Middlewares/ST/STM32_USB_Device_Library/Class/winUsb/Src/usbd_winUsb.c **** 
 282              		.loc 1 477 10 view .LVU76
 283 007a 0020     		movs	r0, #0
 284 007c EEE7     		b	.L9
 285              		.cfi_endproc
 286              	.LFE142:
 288              		.section	.text.USBD_WinUSBComm_GetMSExtendedCompatIDOSDescriptor,"ax",%progbits
 289              		.align	1
 290              		.syntax unified
 291              		.thumb
 292              		.thumb_func
 294              	USBD_WinUSBComm_GetMSExtendedCompatIDOSDescriptor:
 295              	.LVL27:
 296              	.LFB134:
 214:Middlewares/ST/STM32_USB_Device_Library/Class/winUsb/Src/usbd_winUsb.c ****   switch (req->wIndex)
 297              		.loc 1 214 1 is_stmt 1 view -0
 298              		.cfi_startproc
 299              		@ args = 0, pretend = 0, frame = 0
 300              		@ frame_needed = 0, uses_anonymous_args = 0
 214:Middlewares/ST/STM32_USB_Device_Library/Class/winUsb/Src/usbd_winUsb.c ****   switch (req->wIndex)
 301              		.loc 1 214 1 is_stmt 0 view .LVU78
 302 0000 08B5     		push	{r3, lr}
 303              	.LCFI2:
 304              		.cfi_def_cfa_offset 8
 305              		.cfi_offset 3, -8
 306              		.cfi_offset 14, -4
 215:Middlewares/ST/STM32_USB_Device_Library/Class/winUsb/Src/usbd_winUsb.c ****   {
 307              		.loc 1 215 3 is_stmt 1 view .LVU79
 215:Middlewares/ST/STM32_USB_Device_Library/Class/winUsb/Src/usbd_winUsb.c ****   {
 308              		.loc 1 215 14 is_stmt 0 view .LVU80
 309 0002 8B88     		ldrh	r3, [r1, #4]
 215:Middlewares/ST/STM32_USB_Device_Library/Class/winUsb/Src/usbd_winUsb.c ****   {
 310              		.loc 1 215 3 view .LVU81
 311 0004 042B     		cmp	r3, #4
 312 0006 03D0     		beq	.L19
 221:Middlewares/ST/STM32_USB_Device_Library/Class/winUsb/Src/usbd_winUsb.c ****    return USBD_FAIL;
 313              		.loc 1 221 4 is_stmt 1 view .LVU82
 314 0008 FFF7FEFF 		bl	USBD_CtlError
 315              	.LVL28:
 222:Middlewares/ST/STM32_USB_Device_Library/Class/winUsb/Src/usbd_winUsb.c ****   }
 316              		.loc 1 222 4 view .LVU83
 222:Middlewares/ST/STM32_USB_Device_Library/Class/winUsb/Src/usbd_winUsb.c ****   }
 317              		.loc 1 222 11 is_stmt 0 view .LVU84
 318 000c 0320     		movs	r0, #3
 319              	.L17:
 225:Middlewares/ST/STM32_USB_Device_Library/Class/winUsb/Src/usbd_winUsb.c **** static uint8_t  USBD_WinUSBComm_GetMSExtendedPropertiesOSDescriptor (USBD_HandleTypeDef *pdev, USBD
 320              		.loc 1 225 1 view .LVU85
 321 000e 08BD     		pop	{r3, pc}
 322              	.LVL29:
 323              	.L19:
 218:Middlewares/ST/STM32_USB_Device_Library/Class/winUsb/Src/usbd_winUsb.c ****     break;
 324              		.loc 1 218 5 is_stmt 1 view .LVU86
 325 0010 CA88     		ldrh	r2, [r1, #6]
 326 0012 0249     		ldr	r1, .L20
 327              	.LVL30:
ARM GAS  C:\Users\ADMINI~1\AppData\Local\Temp\cc0ubKlL.s 			page 19


 218:Middlewares/ST/STM32_USB_Device_Library/Class/winUsb/Src/usbd_winUsb.c ****     break;
 328              		.loc 1 218 5 is_stmt 0 view .LVU87
 329 0014 FFF7FEFF 		bl	USBD_CtlSendData
 330              	.LVL31:
 219:Middlewares/ST/STM32_USB_Device_Library/Class/winUsb/Src/usbd_winUsb.c ****   default:
 331              		.loc 1 219 5 is_stmt 1 view .LVU88
 224:Middlewares/ST/STM32_USB_Device_Library/Class/winUsb/Src/usbd_winUsb.c **** }
 332              		.loc 1 224 3 view .LVU89
 224:Middlewares/ST/STM32_USB_Device_Library/Class/winUsb/Src/usbd_winUsb.c **** }
 333              		.loc 1 224 10 is_stmt 0 view .LVU90
 334 0018 0020     		movs	r0, #0
 335 001a F8E7     		b	.L17
 336              	.L21:
 337              		.align	2
 338              	.L20:
 339 001c 00000000 		.word	.LANCHOR0
 340              		.cfi_endproc
 341              	.LFE134:
 343              		.section	.text.USBD_WinUSBComm_SetupVendorDevice,"ax",%progbits
 344              		.align	1
 345              		.syntax unified
 346              		.thumb
 347              		.thumb_func
 349              	USBD_WinUSBComm_SetupVendorDevice:
 350              	.LVL32:
 351              	.LFB136:
 249:Middlewares/ST/STM32_USB_Device_Library/Class/winUsb/Src/usbd_winUsb.c ****   USBD_CtlError(pdev , req);
 352              		.loc 1 249 1 is_stmt 1 view -0
 353              		.cfi_startproc
 354              		@ args = 0, pretend = 0, frame = 0
 355              		@ frame_needed = 0, uses_anonymous_args = 0
 249:Middlewares/ST/STM32_USB_Device_Library/Class/winUsb/Src/usbd_winUsb.c ****   USBD_CtlError(pdev , req);
 356              		.loc 1 249 1 is_stmt 0 view .LVU92
 357 0000 08B5     		push	{r3, lr}
 358              	.LCFI3:
 359              		.cfi_def_cfa_offset 8
 360              		.cfi_offset 3, -8
 361              		.cfi_offset 14, -4
 250:Middlewares/ST/STM32_USB_Device_Library/Class/winUsb/Src/usbd_winUsb.c ****   return USBD_FAIL;
 362              		.loc 1 250 3 is_stmt 1 view .LVU93
 363 0002 FFF7FEFF 		bl	USBD_CtlError
 364              	.LVL33:
 251:Middlewares/ST/STM32_USB_Device_Library/Class/winUsb/Src/usbd_winUsb.c **** }
 365              		.loc 1 251 3 view .LVU94
 252:Middlewares/ST/STM32_USB_Device_Library/Class/winUsb/Src/usbd_winUsb.c **** static uint8_t  USBD_WinUSBComm_SetupVendorInterface(USBD_HandleTypeDef *pdev, USBD_SetupReqTypedef
 366              		.loc 1 252 1 is_stmt 0 view .LVU95
 367 0006 0320     		movs	r0, #3
 368 0008 08BD     		pop	{r3, pc}
 369              		.cfi_endproc
 370              	.LFE136:
 372              		.section	.text.USBD_WinUSBComm_GetMSExtendedPropertiesOSDescriptor,"ax",%progbits
 373              		.align	1
 374              		.syntax unified
 375              		.thumb
 376              		.thumb_func
 378              	USBD_WinUSBComm_GetMSExtendedPropertiesOSDescriptor:
 379              	.LVL34:
ARM GAS  C:\Users\ADMINI~1\AppData\Local\Temp\cc0ubKlL.s 			page 20


 380              	.LFB135:
 227:Middlewares/ST/STM32_USB_Device_Library/Class/winUsb/Src/usbd_winUsb.c ****   uint8_t byInterfaceIndex = (uint8_t)req->wValue;
 381              		.loc 1 227 1 is_stmt 1 view -0
 382              		.cfi_startproc
 383              		@ args = 0, pretend = 0, frame = 0
 384              		@ frame_needed = 0, uses_anonymous_args = 0
 227:Middlewares/ST/STM32_USB_Device_Library/Class/winUsb/Src/usbd_winUsb.c ****   uint8_t byInterfaceIndex = (uint8_t)req->wValue;
 385              		.loc 1 227 1 is_stmt 0 view .LVU97
 386 0000 10B5     		push	{r4, lr}
 387              	.LCFI4:
 388              		.cfi_def_cfa_offset 8
 389              		.cfi_offset 4, -8
 390              		.cfi_offset 14, -4
 228:Middlewares/ST/STM32_USB_Device_Library/Class/winUsb/Src/usbd_winUsb.c ****   if ( req->wIndex != 0x05 )
 391              		.loc 1 228 3 is_stmt 1 view .LVU98
 228:Middlewares/ST/STM32_USB_Device_Library/Class/winUsb/Src/usbd_winUsb.c ****   if ( req->wIndex != 0x05 )
 392              		.loc 1 228 11 is_stmt 0 view .LVU99
 393 0002 8C78     		ldrb	r4, [r1, #2]	@ zero_extendqisi2
 394              	.LVL35:
 229:Middlewares/ST/STM32_USB_Device_Library/Class/winUsb/Src/usbd_winUsb.c ****   {
 395              		.loc 1 229 3 is_stmt 1 view .LVU100
 229:Middlewares/ST/STM32_USB_Device_Library/Class/winUsb/Src/usbd_winUsb.c ****   {
 396              		.loc 1 229 11 is_stmt 0 view .LVU101
 397 0004 8B88     		ldrh	r3, [r1, #4]
 229:Middlewares/ST/STM32_USB_Device_Library/Class/winUsb/Src/usbd_winUsb.c ****   {
 398              		.loc 1 229 6 view .LVU102
 399 0006 052B     		cmp	r3, #5
 400 0008 06D1     		bne	.L29
 234:Middlewares/ST/STM32_USB_Device_Library/Class/winUsb/Src/usbd_winUsb.c ****   {
 401              		.loc 1 234 3 is_stmt 1 view .LVU103
 402 000a 4CB9     		cbnz	r4, .L27
 240:Middlewares/ST/STM32_USB_Device_Library/Class/winUsb/Src/usbd_winUsb.c ****     break;
 403              		.loc 1 240 5 view .LVU104
 404 000c CA88     		ldrh	r2, [r1, #6]
 405 000e 0649     		ldr	r1, .L30
 406              	.LVL36:
 240:Middlewares/ST/STM32_USB_Device_Library/Class/winUsb/Src/usbd_winUsb.c ****     break;
 407              		.loc 1 240 5 is_stmt 0 view .LVU105
 408 0010 FFF7FEFF 		bl	USBD_CtlSendData
 409              	.LVL37:
 241:Middlewares/ST/STM32_USB_Device_Library/Class/winUsb/Src/usbd_winUsb.c ****   default:
 410              		.loc 1 241 5 is_stmt 1 view .LVU106
 246:Middlewares/ST/STM32_USB_Device_Library/Class/winUsb/Src/usbd_winUsb.c **** }
 411              		.loc 1 246 3 view .LVU107
 412              	.L26:
 247:Middlewares/ST/STM32_USB_Device_Library/Class/winUsb/Src/usbd_winUsb.c **** static uint8_t  USBD_WinUSBComm_SetupVendorDevice(USBD_HandleTypeDef *pdev, USBD_SetupReqTypedef *r
 413              		.loc 1 247 1 is_stmt 0 view .LVU108
 414 0014 2046     		mov	r0, r4
 415 0016 10BD     		pop	{r4, pc}
 416              	.LVL38:
 417              	.L29:
 231:Middlewares/ST/STM32_USB_Device_Library/Class/winUsb/Src/usbd_winUsb.c ****     return USBD_FAIL;
 418              		.loc 1 231 5 is_stmt 1 view .LVU109
 419 0018 FFF7FEFF 		bl	USBD_CtlError
 420              	.LVL39:
 232:Middlewares/ST/STM32_USB_Device_Library/Class/winUsb/Src/usbd_winUsb.c ****   }
 421              		.loc 1 232 5 view .LVU110
ARM GAS  C:\Users\ADMINI~1\AppData\Local\Temp\cc0ubKlL.s 			page 21


 232:Middlewares/ST/STM32_USB_Device_Library/Class/winUsb/Src/usbd_winUsb.c ****   }
 422              		.loc 1 232 12 is_stmt 0 view .LVU111
 423 001c 0324     		movs	r4, #3
 424              	.LVL40:
 232:Middlewares/ST/STM32_USB_Device_Library/Class/winUsb/Src/usbd_winUsb.c ****   }
 425              		.loc 1 232 12 view .LVU112
 426 001e F9E7     		b	.L26
 427              	.LVL41:
 428              	.L27:
 243:Middlewares/ST/STM32_USB_Device_Library/Class/winUsb/Src/usbd_winUsb.c ****     return USBD_FAIL;
 429              		.loc 1 243 5 is_stmt 1 view .LVU113
 430 0020 FFF7FEFF 		bl	USBD_CtlError
 431              	.LVL42:
 244:Middlewares/ST/STM32_USB_Device_Library/Class/winUsb/Src/usbd_winUsb.c ****   }
 432              		.loc 1 244 5 view .LVU114
 244:Middlewares/ST/STM32_USB_Device_Library/Class/winUsb/Src/usbd_winUsb.c ****   }
 433              		.loc 1 244 12 is_stmt 0 view .LVU115
 434 0024 0324     		movs	r4, #3
 435              	.LVL43:
 244:Middlewares/ST/STM32_USB_Device_Library/Class/winUsb/Src/usbd_winUsb.c ****   }
 436              		.loc 1 244 12 view .LVU116
 437 0026 F5E7     		b	.L26
 438              	.L31:
 439              		.align	2
 440              	.L30:
 441 0028 00000000 		.word	.LANCHOR1
 442              		.cfi_endproc
 443              	.LFE135:
 445              		.section	.text.USBD_WinUSBComm_SetupVendorInterface,"ax",%progbits
 446              		.align	1
 447              		.syntax unified
 448              		.thumb
 449              		.thumb_func
 451              	USBD_WinUSBComm_SetupVendorInterface:
 452              	.LVL44:
 453              	.LFB137:
 254:Middlewares/ST/STM32_USB_Device_Library/Class/winUsb/Src/usbd_winUsb.c ****   USBD_CtlError(pdev , req);
 454              		.loc 1 254 1 is_stmt 1 view -0
 455              		.cfi_startproc
 456              		@ args = 0, pretend = 0, frame = 0
 457              		@ frame_needed = 0, uses_anonymous_args = 0
 254:Middlewares/ST/STM32_USB_Device_Library/Class/winUsb/Src/usbd_winUsb.c ****   USBD_CtlError(pdev , req);
 458              		.loc 1 254 1 is_stmt 0 view .LVU118
 459 0000 08B5     		push	{r3, lr}
 460              	.LCFI5:
 461              		.cfi_def_cfa_offset 8
 462              		.cfi_offset 3, -8
 463              		.cfi_offset 14, -4
 255:Middlewares/ST/STM32_USB_Device_Library/Class/winUsb/Src/usbd_winUsb.c ****   // TODO: check if this is important
 464              		.loc 1 255 3 is_stmt 1 view .LVU119
 465 0002 FFF7FEFF 		bl	USBD_CtlError
 466              	.LVL45:
 257:Middlewares/ST/STM32_USB_Device_Library/Class/winUsb/Src/usbd_winUsb.c **** }
 467              		.loc 1 257 3 view .LVU120
 258:Middlewares/ST/STM32_USB_Device_Library/Class/winUsb/Src/usbd_winUsb.c **** static uint8_t  USBD_WinUSBComm_SetupVendor(USBD_HandleTypeDef *pdev, USBD_SetupReqTypedef *req)
 468              		.loc 1 258 1 is_stmt 0 view .LVU121
 469 0006 0320     		movs	r0, #3
ARM GAS  C:\Users\ADMINI~1\AppData\Local\Temp\cc0ubKlL.s 			page 22


 470 0008 08BD     		pop	{r3, pc}
 471              		.cfi_endproc
 472              	.LFE137:
 474              		.section	.text.USBD_WinUSBComm_SetupVendor,"ax",%progbits
 475              		.align	1
 476              		.syntax unified
 477              		.thumb
 478              		.thumb_func
 480              	USBD_WinUSBComm_SetupVendor:
 481              	.LVL46:
 482              	.LFB138:
 260:Middlewares/ST/STM32_USB_Device_Library/Class/winUsb/Src/usbd_winUsb.c ****   switch ( req->bmRequest & USB_REQ_RECIPIENT_MASK )
 483              		.loc 1 260 1 is_stmt 1 view -0
 484              		.cfi_startproc
 485              		@ args = 0, pretend = 0, frame = 0
 486              		@ frame_needed = 0, uses_anonymous_args = 0
 260:Middlewares/ST/STM32_USB_Device_Library/Class/winUsb/Src/usbd_winUsb.c ****   switch ( req->bmRequest & USB_REQ_RECIPIENT_MASK )
 487              		.loc 1 260 1 is_stmt 0 view .LVU123
 488 0000 08B5     		push	{r3, lr}
 489              	.LCFI6:
 490              		.cfi_def_cfa_offset 8
 491              		.cfi_offset 3, -8
 492              		.cfi_offset 14, -4
 261:Middlewares/ST/STM32_USB_Device_Library/Class/winUsb/Src/usbd_winUsb.c ****   {
 493              		.loc 1 261 3 is_stmt 1 view .LVU124
 261:Middlewares/ST/STM32_USB_Device_Library/Class/winUsb/Src/usbd_winUsb.c ****   {
 494              		.loc 1 261 15 is_stmt 0 view .LVU125
 495 0002 0B78     		ldrb	r3, [r1]	@ zero_extendqisi2
 261:Middlewares/ST/STM32_USB_Device_Library/Class/winUsb/Src/usbd_winUsb.c ****   {
 496              		.loc 1 261 3 view .LVU126
 497 0004 13F00303 		ands	r3, r3, #3
 498 0008 05D0     		beq	.L35
 499 000a 012B     		cmp	r3, #1
 500 000c 0CD0     		beq	.L36
 270:Middlewares/ST/STM32_USB_Device_Library/Class/winUsb/Src/usbd_winUsb.c ****   }
 501              		.loc 1 270 5 is_stmt 1 view .LVU127
 272:Middlewares/ST/STM32_USB_Device_Library/Class/winUsb/Src/usbd_winUsb.c ****   return USBD_FAIL;
 502              		.loc 1 272 3 view .LVU128
 503 000e FFF7FEFF 		bl	USBD_CtlError
 504              	.LVL47:
 273:Middlewares/ST/STM32_USB_Device_Library/Class/winUsb/Src/usbd_winUsb.c **** }
 505              		.loc 1 273 3 view .LVU129
 273:Middlewares/ST/STM32_USB_Device_Library/Class/winUsb/Src/usbd_winUsb.c **** }
 506              		.loc 1 273 10 is_stmt 0 view .LVU130
 507 0012 0320     		movs	r0, #3
 508              	.L39:
 274:Middlewares/ST/STM32_USB_Device_Library/Class/winUsb/Src/usbd_winUsb.c **** static uint8_t WinUsbInEpAdd = WIN_USB_EPIN_ADDR;
 509              		.loc 1 274 1 view .LVU131
 510 0014 08BD     		pop	{r3, pc}
 511              	.LVL48:
 512              	.L35:
 264:Middlewares/ST/STM32_USB_Device_Library/Class/winUsb/Src/usbd_winUsb.c ****   case USB_REQ_RECIPIENT_INTERFACE:
 513              		.loc 1 264 5 is_stmt 1 view .LVU132
 264:Middlewares/ST/STM32_USB_Device_Library/Class/winUsb/Src/usbd_winUsb.c ****   case USB_REQ_RECIPIENT_INTERFACE:
 514              		.loc 1 264 34 is_stmt 0 view .LVU133
 515 0016 4B78     		ldrb	r3, [r1, #1]	@ zero_extendqisi2
 264:Middlewares/ST/STM32_USB_Device_Library/Class/winUsb/Src/usbd_winUsb.c ****   case USB_REQ_RECIPIENT_INTERFACE:
ARM GAS  C:\Users\ADMINI~1\AppData\Local\Temp\cc0ubKlL.s 			page 23


 516              		.loc 1 264 110 view .LVU134
 517 0018 572B     		cmp	r3, #87
 518 001a 02D0     		beq	.L43
 264:Middlewares/ST/STM32_USB_Device_Library/Class/winUsb/Src/usbd_winUsb.c ****   case USB_REQ_RECIPIENT_INTERFACE:
 519              		.loc 1 264 112 discriminator 2 view .LVU135
 520 001c FFF7FEFF 		bl	USBD_WinUSBComm_SetupVendorDevice
 521              	.LVL49:
 264:Middlewares/ST/STM32_USB_Device_Library/Class/winUsb/Src/usbd_winUsb.c ****   case USB_REQ_RECIPIENT_INTERFACE:
 522              		.loc 1 264 112 discriminator 2 view .LVU136
 523 0020 F8E7     		b	.L39
 524              	.LVL50:
 525              	.L43:
 264:Middlewares/ST/STM32_USB_Device_Library/Class/winUsb/Src/usbd_winUsb.c ****   case USB_REQ_RECIPIENT_INTERFACE:
 526              		.loc 1 264 49 discriminator 1 view .LVU137
 527 0022 FFF7FEFF 		bl	USBD_WinUSBComm_GetMSExtendedCompatIDOSDescriptor
 528              	.LVL51:
 264:Middlewares/ST/STM32_USB_Device_Library/Class/winUsb/Src/usbd_winUsb.c ****   case USB_REQ_RECIPIENT_INTERFACE:
 529              		.loc 1 264 49 discriminator 1 view .LVU138
 530 0026 F5E7     		b	.L39
 531              	.LVL52:
 532              	.L36:
 266:Middlewares/ST/STM32_USB_Device_Library/Class/winUsb/Src/usbd_winUsb.c ****   case USB_REQ_RECIPIENT_ENDPOINT:
 533              		.loc 1 266 5 is_stmt 1 view .LVU139
 266:Middlewares/ST/STM32_USB_Device_Library/Class/winUsb/Src/usbd_winUsb.c ****   case USB_REQ_RECIPIENT_ENDPOINT:
 534              		.loc 1 266 34 is_stmt 0 view .LVU140
 535 0028 4B78     		ldrb	r3, [r1, #1]	@ zero_extendqisi2
 266:Middlewares/ST/STM32_USB_Device_Library/Class/winUsb/Src/usbd_winUsb.c ****   case USB_REQ_RECIPIENT_ENDPOINT:
 536              		.loc 1 266 112 view .LVU141
 537 002a 572B     		cmp	r3, #87
 538 002c 02D0     		beq	.L44
 266:Middlewares/ST/STM32_USB_Device_Library/Class/winUsb/Src/usbd_winUsb.c ****   case USB_REQ_RECIPIENT_ENDPOINT:
 539              		.loc 1 266 114 discriminator 2 view .LVU142
 540 002e FFF7FEFF 		bl	USBD_WinUSBComm_SetupVendorInterface
 541              	.LVL53:
 266:Middlewares/ST/STM32_USB_Device_Library/Class/winUsb/Src/usbd_winUsb.c ****   case USB_REQ_RECIPIENT_ENDPOINT:
 542              		.loc 1 266 114 discriminator 2 view .LVU143
 543 0032 EFE7     		b	.L39
 544              	.LVL54:
 545              	.L44:
 266:Middlewares/ST/STM32_USB_Device_Library/Class/winUsb/Src/usbd_winUsb.c ****   case USB_REQ_RECIPIENT_ENDPOINT:
 546              		.loc 1 266 49 discriminator 1 view .LVU144
 547 0034 FFF7FEFF 		bl	USBD_WinUSBComm_GetMSExtendedPropertiesOSDescriptor
 548              	.LVL55:
 266:Middlewares/ST/STM32_USB_Device_Library/Class/winUsb/Src/usbd_winUsb.c ****   case USB_REQ_RECIPIENT_ENDPOINT:
 549              		.loc 1 266 49 discriminator 1 view .LVU145
 550 0038 ECE7     		b	.L39
 551              		.cfi_endproc
 552              	.LFE138:
 554              		.section	.text.USBD_WinUsb_Setup,"ax",%progbits
 555              		.align	1
 556              		.syntax unified
 557              		.thumb
 558              		.thumb_func
 560              	USBD_WinUsb_Setup:
 561              	.LVL56:
 562              	.LFB141:
 367:Middlewares/ST/STM32_USB_Device_Library/Class/winUsb/Src/usbd_winUsb.c **** 	USBD_WinUsb_HandleTypeDef *hcdc = (USBD_WinUsb_HandleTypeDef *)pdev->pClassDataCmsit[pdev->classId
ARM GAS  C:\Users\ADMINI~1\AppData\Local\Temp\cc0ubKlL.s 			page 24


 563              		.loc 1 367 1 is_stmt 1 view -0
 564              		.cfi_startproc
 565              		@ args = 0, pretend = 0, frame = 8
 566              		@ frame_needed = 0, uses_anonymous_args = 0
 367:Middlewares/ST/STM32_USB_Device_Library/Class/winUsb/Src/usbd_winUsb.c **** 	USBD_WinUsb_HandleTypeDef *hcdc = (USBD_WinUsb_HandleTypeDef *)pdev->pClassDataCmsit[pdev->classId
 567              		.loc 1 367 1 is_stmt 0 view .LVU147
 568 0000 F0B5     		push	{r4, r5, r6, r7, lr}
 569              	.LCFI7:
 570              		.cfi_def_cfa_offset 20
 571              		.cfi_offset 4, -20
 572              		.cfi_offset 5, -16
 573              		.cfi_offset 6, -12
 574              		.cfi_offset 7, -8
 575              		.cfi_offset 14, -4
 576 0002 83B0     		sub	sp, sp, #12
 577              	.LCFI8:
 578              		.cfi_def_cfa_offset 32
 368:Middlewares/ST/STM32_USB_Device_Library/Class/winUsb/Src/usbd_winUsb.c ****    
 579              		.loc 1 368 2 is_stmt 1 view .LVU148
 368:Middlewares/ST/STM32_USB_Device_Library/Class/winUsb/Src/usbd_winUsb.c ****    
 580              		.loc 1 368 91 is_stmt 0 view .LVU149
 581 0004 D0F8F832 		ldr	r3, [r0, #760]
 368:Middlewares/ST/STM32_USB_Device_Library/Class/winUsb/Src/usbd_winUsb.c ****    
 582              		.loc 1 368 29 view .LVU150
 583 0008 B233     		adds	r3, r3, #178
 584 000a 00EB8303 		add	r3, r0, r3, lsl #2
 585 000e 5B68     		ldr	r3, [r3, #4]
 586              	.LVL57:
 370:Middlewares/ST/STM32_USB_Device_Library/Class/winUsb/Src/usbd_winUsb.c ****   uint16_t status_info = 0U;
 587              		.loc 1 370 3 is_stmt 1 view .LVU151
 371:Middlewares/ST/STM32_USB_Device_Library/Class/winUsb/Src/usbd_winUsb.c ****   if (hcdc == NULL)
 588              		.loc 1 371 3 view .LVU152
 371:Middlewares/ST/STM32_USB_Device_Library/Class/winUsb/Src/usbd_winUsb.c ****   if (hcdc == NULL)
 589              		.loc 1 371 12 is_stmt 0 view .LVU153
 590 0010 0022     		movs	r2, #0
 591 0012 ADF80620 		strh	r2, [sp, #6]	@ movhi
 372:Middlewares/ST/STM32_USB_Device_Library/Class/winUsb/Src/usbd_winUsb.c ****   {
 592              		.loc 1 372 3 is_stmt 1 view .LVU154
 372:Middlewares/ST/STM32_USB_Device_Library/Class/winUsb/Src/usbd_winUsb.c ****   {
 593              		.loc 1 372 6 is_stmt 0 view .LVU155
 594 0016 002B     		cmp	r3, #0
 595 0018 4BD0     		beq	.L56
 596 001a 0546     		mov	r5, r0
 597 001c 0E46     		mov	r6, r1
 377:Middlewares/ST/STM32_USB_Device_Library/Class/winUsb/Src/usbd_winUsb.c ****   {
 598              		.loc 1 377 2 is_stmt 1 view .LVU156
 377:Middlewares/ST/STM32_USB_Device_Library/Class/winUsb/Src/usbd_winUsb.c ****   {
 599              		.loc 1 377 13 is_stmt 0 view .LVU157
 600 001e 0C78     		ldrb	r4, [r1]	@ zero_extendqisi2
 377:Middlewares/ST/STM32_USB_Device_Library/Class/winUsb/Src/usbd_winUsb.c ****   {
 601              		.loc 1 377 2 view .LVU158
 602 0020 14F06004 		ands	r4, r4, #96
 603 0024 05D0     		beq	.L47
 604 0026 402C     		cmp	r4, #64
 605 0028 3BD0     		beq	.L57
 438:Middlewares/ST/STM32_USB_Device_Library/Class/winUsb/Src/usbd_winUsb.c ****       ret = USBD_FAIL;
 606              		.loc 1 438 7 is_stmt 1 view .LVU159
ARM GAS  C:\Users\ADMINI~1\AppData\Local\Temp\cc0ubKlL.s 			page 25


 607 002a FFF7FEFF 		bl	USBD_CtlError
 608              	.LVL58:
 439:Middlewares/ST/STM32_USB_Device_Library/Class/winUsb/Src/usbd_winUsb.c ****       break;
 609              		.loc 1 439 7 view .LVU160
 440:Middlewares/ST/STM32_USB_Device_Library/Class/winUsb/Src/usbd_winUsb.c ****   }
 610              		.loc 1 440 7 view .LVU161
 439:Middlewares/ST/STM32_USB_Device_Library/Class/winUsb/Src/usbd_winUsb.c ****       break;
 611              		.loc 1 439 11 is_stmt 0 view .LVU162
 612 002e 0324     		movs	r4, #3
 440:Middlewares/ST/STM32_USB_Device_Library/Class/winUsb/Src/usbd_winUsb.c ****   }
 613              		.loc 1 440 7 view .LVU163
 614 0030 3CE0     		b	.L46
 615              	.LVL59:
 616              	.L47:
 381:Middlewares/ST/STM32_USB_Device_Library/Class/winUsb/Src/usbd_winUsb.c ****       {
 617              		.loc 1 381 7 is_stmt 1 view .LVU164
 381:Middlewares/ST/STM32_USB_Device_Library/Class/winUsb/Src/usbd_winUsb.c ****       {
 618              		.loc 1 381 18 is_stmt 0 view .LVU165
 619 0032 4F78     		ldrb	r7, [r1, #1]	@ zero_extendqisi2
 620 0034 0B2F     		cmp	r7, #11
 621 0036 35D8     		bhi	.L48
 622 0038 DFE807F0 		tbb	[pc, r7]
 623              	.LVL60:
 624              	.L51:
 625 003c 06       		.byte	(.L54-.L51)/2
 626 003d 28       		.byte	(.L53-.L51)/2
 627 003e 34       		.byte	(.L48-.L51)/2
 628 003f 34       		.byte	(.L48-.L51)/2
 629 0040 34       		.byte	(.L48-.L51)/2
 630 0041 34       		.byte	(.L48-.L51)/2
 631 0042 34       		.byte	(.L48-.L51)/2
 632 0043 34       		.byte	(.L48-.L51)/2
 633 0044 34       		.byte	(.L48-.L51)/2
 634 0045 34       		.byte	(.L48-.L51)/2
 635 0046 16       		.byte	(.L52-.L51)/2
 636 0047 1F       		.byte	(.L50-.L51)/2
 637              		.p2align 1
 638              	.L54:
 384:Middlewares/ST/STM32_USB_Device_Library/Class/winUsb/Src/usbd_winUsb.c ****           {
 639              		.loc 1 384 11 is_stmt 1 view .LVU166
 384:Middlewares/ST/STM32_USB_Device_Library/Class/winUsb/Src/usbd_winUsb.c ****           {
 640              		.loc 1 384 19 is_stmt 0 view .LVU167
 641 0048 90F89C32 		ldrb	r3, [r0, #668]	@ zero_extendqisi2
 642 004c DBB2     		uxtb	r3, r3
 384:Middlewares/ST/STM32_USB_Device_Library/Class/winUsb/Src/usbd_winUsb.c ****           {
 643              		.loc 1 384 14 view .LVU168
 644 004e 032B     		cmp	r3, #3
 645 0050 03D0     		beq	.L60
 390:Middlewares/ST/STM32_USB_Device_Library/Class/winUsb/Src/usbd_winUsb.c ****             ret = USBD_FAIL;
 646              		.loc 1 390 13 is_stmt 1 view .LVU169
 647 0052 FFF7FEFF 		bl	USBD_CtlError
 648              	.LVL61:
 391:Middlewares/ST/STM32_USB_Device_Library/Class/winUsb/Src/usbd_winUsb.c ****           }
 649              		.loc 1 391 13 view .LVU170
 391:Middlewares/ST/STM32_USB_Device_Library/Class/winUsb/Src/usbd_winUsb.c ****           }
 650              		.loc 1 391 17 is_stmt 0 view .LVU171
 651 0056 0324     		movs	r4, #3
ARM GAS  C:\Users\ADMINI~1\AppData\Local\Temp\cc0ubKlL.s 			page 26


 652 0058 24E0     		b	.L48
 653              	.LVL62:
 654              	.L60:
 386:Middlewares/ST/STM32_USB_Device_Library/Class/winUsb/Src/usbd_winUsb.c ****           }
 655              		.loc 1 386 13 is_stmt 1 view .LVU172
 386:Middlewares/ST/STM32_USB_Device_Library/Class/winUsb/Src/usbd_winUsb.c ****           }
 656              		.loc 1 386 19 is_stmt 0 view .LVU173
 657 005a 0222     		movs	r2, #2
 658 005c 0DF10601 		add	r1, sp, #6
 659              	.LVL63:
 386:Middlewares/ST/STM32_USB_Device_Library/Class/winUsb/Src/usbd_winUsb.c ****           }
 660              		.loc 1 386 19 view .LVU174
 661 0060 FFF7FEFF 		bl	USBD_CtlSendData
 662              	.LVL64:
 370:Middlewares/ST/STM32_USB_Device_Library/Class/winUsb/Src/usbd_winUsb.c ****   uint16_t status_info = 0U;
 663              		.loc 1 370 22 view .LVU175
 664 0064 3C46     		mov	r4, r7
 665 0066 1DE0     		b	.L48
 666              	.LVL65:
 667              	.L52:
 396:Middlewares/ST/STM32_USB_Device_Library/Class/winUsb/Src/usbd_winUsb.c ****           {
 668              		.loc 1 396 11 is_stmt 1 view .LVU176
 396:Middlewares/ST/STM32_USB_Device_Library/Class/winUsb/Src/usbd_winUsb.c ****           {
 669              		.loc 1 396 19 is_stmt 0 view .LVU177
 670 0068 90F89C32 		ldrb	r3, [r0, #668]	@ zero_extendqisi2
 671 006c DBB2     		uxtb	r3, r3
 396:Middlewares/ST/STM32_USB_Device_Library/Class/winUsb/Src/usbd_winUsb.c ****           {
 672              		.loc 1 396 14 view .LVU178
 673 006e 032B     		cmp	r3, #3
 674 0070 18D0     		beq	.L48
 402:Middlewares/ST/STM32_USB_Device_Library/Class/winUsb/Src/usbd_winUsb.c ****             ret = USBD_FAIL;
 675              		.loc 1 402 13 is_stmt 1 view .LVU179
 676 0072 FFF7FEFF 		bl	USBD_CtlError
 677              	.LVL66:
 403:Middlewares/ST/STM32_USB_Device_Library/Class/winUsb/Src/usbd_winUsb.c ****           }
 678              		.loc 1 403 13 view .LVU180
 403:Middlewares/ST/STM32_USB_Device_Library/Class/winUsb/Src/usbd_winUsb.c ****           }
 679              		.loc 1 403 17 is_stmt 0 view .LVU181
 680 0076 0324     		movs	r4, #3
 681 0078 14E0     		b	.L48
 682              	.LVL67:
 683              	.L50:
 408:Middlewares/ST/STM32_USB_Device_Library/Class/winUsb/Src/usbd_winUsb.c ****           {
 684              		.loc 1 408 11 is_stmt 1 view .LVU182
 408:Middlewares/ST/STM32_USB_Device_Library/Class/winUsb/Src/usbd_winUsb.c ****           {
 685              		.loc 1 408 19 is_stmt 0 view .LVU183
 686 007a 90F89C32 		ldrb	r3, [r0, #668]	@ zero_extendqisi2
 687 007e DBB2     		uxtb	r3, r3
 408:Middlewares/ST/STM32_USB_Device_Library/Class/winUsb/Src/usbd_winUsb.c ****           {
 688              		.loc 1 408 14 view .LVU184
 689 0080 032B     		cmp	r3, #3
 690 0082 0FD0     		beq	.L48
 414:Middlewares/ST/STM32_USB_Device_Library/Class/winUsb/Src/usbd_winUsb.c ****             ret = USBD_FAIL;
 691              		.loc 1 414 13 is_stmt 1 view .LVU185
 692 0084 FFF7FEFF 		bl	USBD_CtlError
 693              	.LVL68:
 415:Middlewares/ST/STM32_USB_Device_Library/Class/winUsb/Src/usbd_winUsb.c ****           }
ARM GAS  C:\Users\ADMINI~1\AppData\Local\Temp\cc0ubKlL.s 			page 27


 694              		.loc 1 415 13 view .LVU186
 415:Middlewares/ST/STM32_USB_Device_Library/Class/winUsb/Src/usbd_winUsb.c ****           }
 695              		.loc 1 415 17 is_stmt 0 view .LVU187
 696 0088 0324     		movs	r4, #3
 697 008a 0BE0     		b	.L48
 698              	.LVL69:
 699              	.L53:
 420:Middlewares/ST/STM32_USB_Device_Library/Class/winUsb/Src/usbd_winUsb.c ****           {
 700              		.loc 1 420 11 is_stmt 1 view .LVU188
 420:Middlewares/ST/STM32_USB_Device_Library/Class/winUsb/Src/usbd_winUsb.c ****           {
 701              		.loc 1 420 19 is_stmt 0 view .LVU189
 702 008c 90F89C32 		ldrb	r3, [r0, #668]	@ zero_extendqisi2
 703 0090 DBB2     		uxtb	r3, r3
 420:Middlewares/ST/STM32_USB_Device_Library/Class/winUsb/Src/usbd_winUsb.c ****           {
 704              		.loc 1 420 14 view .LVU190
 705 0092 032B     		cmp	r3, #3
 706 0094 06D1     		bne	.L48
 422:Middlewares/ST/STM32_USB_Device_Library/Class/winUsb/Src/usbd_winUsb.c ****             {
 707              		.loc 1 422 13 is_stmt 1 view .LVU191
 422:Middlewares/ST/STM32_USB_Device_Library/Class/winUsb/Src/usbd_winUsb.c ****             {
 708              		.loc 1 422 20 is_stmt 0 view .LVU192
 709 0096 4B88     		ldrh	r3, [r1, #2]
 422:Middlewares/ST/STM32_USB_Device_Library/Class/winUsb/Src/usbd_winUsb.c ****             {
 710              		.loc 1 422 16 view .LVU193
 711 0098 23B9     		cbnz	r3, .L48
 425:Middlewares/ST/STM32_USB_Device_Library/Class/winUsb/Src/usbd_winUsb.c **** 
 712              		.loc 1 425 15 is_stmt 1 view .LVU194
 425:Middlewares/ST/STM32_USB_Device_Library/Class/winUsb/Src/usbd_winUsb.c **** 
 713              		.loc 1 425 21 is_stmt 0 view .LVU195
 714 009a 0979     		ldrb	r1, [r1, #4]	@ zero_extendqisi2
 715              	.LVL70:
 425:Middlewares/ST/STM32_USB_Device_Library/Class/winUsb/Src/usbd_winUsb.c **** 
 716              		.loc 1 425 21 view .LVU196
 717 009c FFF7FEFF 		bl	USBD_LL_FlushEP
 718              	.LVL71:
 425:Middlewares/ST/STM32_USB_Device_Library/Class/winUsb/Src/usbd_winUsb.c **** 
 719              		.loc 1 425 21 view .LVU197
 720 00a0 00E0     		b	.L48
 721              	.LVL72:
 722              	.L57:
 377:Middlewares/ST/STM32_USB_Device_Library/Class/winUsb/Src/usbd_winUsb.c ****   {
 723              		.loc 1 377 2 view .LVU198
 724 00a2 0024     		movs	r4, #0
 725              	.LVL73:
 726              	.L48:
 434:Middlewares/ST/STM32_USB_Device_Library/Class/winUsb/Src/usbd_winUsb.c ****       }break;
 727              		.loc 1 434 9 is_stmt 1 view .LVU199
 728 00a4 3146     		mov	r1, r6
 729 00a6 2846     		mov	r0, r5
 730 00a8 FFF7FEFF 		bl	USBD_WinUSBComm_SetupVendor
 731              	.LVL74:
 435:Middlewares/ST/STM32_USB_Device_Library/Class/winUsb/Src/usbd_winUsb.c **** 
 732              		.loc 1 435 8 view .LVU200
 733              	.L46:
 445:Middlewares/ST/STM32_USB_Device_Library/Class/winUsb/Src/usbd_winUsb.c **** static uint8_t USBD_WinUsb_DataIn(USBD_HandleTypeDef *pdev, uint8_t epnum)
 734              		.loc 1 445 1 is_stmt 0 view .LVU201
 735 00ac 2046     		mov	r0, r4
ARM GAS  C:\Users\ADMINI~1\AppData\Local\Temp\cc0ubKlL.s 			page 28


 736 00ae 03B0     		add	sp, sp, #12
 737              	.LCFI9:
 738              		.cfi_remember_state
 739              		.cfi_def_cfa_offset 20
 740              		@ sp needed
 741 00b0 F0BD     		pop	{r4, r5, r6, r7, pc}
 742              	.LVL75:
 743              	.L56:
 744              	.LCFI10:
 745              		.cfi_restore_state
 374:Middlewares/ST/STM32_USB_Device_Library/Class/winUsb/Src/usbd_winUsb.c ****   }
 746              		.loc 1 374 12 view .LVU202
 747 00b2 0324     		movs	r4, #3
 748 00b4 FAE7     		b	.L46
 749              		.cfi_endproc
 750              	.LFE141:
 752              		.section	.text.USBD_WinUsb_DeInit,"ax",%progbits
 753              		.align	1
 754              		.syntax unified
 755              		.thumb
 756              		.thumb_func
 758              	USBD_WinUsb_DeInit:
 759              	.LVL76:
 760              	.LFB140:
 345:Middlewares/ST/STM32_USB_Device_Library/Class/winUsb/Src/usbd_winUsb.c ****   UNUSED(cfgidx);
 761              		.loc 1 345 1 is_stmt 1 view -0
 762              		.cfi_startproc
 763              		@ args = 0, pretend = 0, frame = 0
 764              		@ frame_needed = 0, uses_anonymous_args = 0
 345:Middlewares/ST/STM32_USB_Device_Library/Class/winUsb/Src/usbd_winUsb.c ****   UNUSED(cfgidx);
 765              		.loc 1 345 1 is_stmt 0 view .LVU204
 766 0000 38B5     		push	{r3, r4, r5, lr}
 767              	.LCFI11:
 768              		.cfi_def_cfa_offset 16
 769              		.cfi_offset 3, -16
 770              		.cfi_offset 4, -12
 771              		.cfi_offset 5, -8
 772              		.cfi_offset 14, -4
 773 0002 0446     		mov	r4, r0
 346:Middlewares/ST/STM32_USB_Device_Library/Class/winUsb/Src/usbd_winUsb.c **** 	/* Close EP IN */
 774              		.loc 1 346 3 is_stmt 1 view .LVU205
 348:Middlewares/ST/STM32_USB_Device_Library/Class/winUsb/Src/usbd_winUsb.c ****   pdev->ep_out[WinUsbInEpAdd & 0xFU].is_used = 0U;  
 775              		.loc 1 348 3 view .LVU206
 776 0004 8321     		movs	r1, #131
 777              	.LVL77:
 348:Middlewares/ST/STM32_USB_Device_Library/Class/winUsb/Src/usbd_winUsb.c ****   pdev->ep_out[WinUsbInEpAdd & 0xFU].is_used = 0U;  
 778              		.loc 1 348 3 is_stmt 0 view .LVU207
 779 0006 FFF7FEFF 		bl	USBD_LL_CloseEP
 780              	.LVL78:
 349:Middlewares/ST/STM32_USB_Device_Library/Class/winUsb/Src/usbd_winUsb.c ****   /* Close EP OUT */
 781              		.loc 1 349 3 is_stmt 1 view .LVU208
 349:Middlewares/ST/STM32_USB_Device_Library/Class/winUsb/Src/usbd_winUsb.c ****   /* Close EP OUT */
 782              		.loc 1 349 46 is_stmt 0 view .LVU209
 783 000a 0025     		movs	r5, #0
 784 000c A4F8A051 		strh	r5, [r4, #416]	@ movhi
 351:Middlewares/ST/STM32_USB_Device_Library/Class/winUsb/Src/usbd_winUsb.c ****   pdev->ep_out[WinUsbOutEpAdd & 0xFU].is_used = 0U;
 785              		.loc 1 351 3 is_stmt 1 view .LVU210
ARM GAS  C:\Users\ADMINI~1\AppData\Local\Temp\cc0ubKlL.s 			page 29


 786 0010 0321     		movs	r1, #3
 787 0012 2046     		mov	r0, r4
 788 0014 FFF7FEFF 		bl	USBD_LL_CloseEP
 789              	.LVL79:
 352:Middlewares/ST/STM32_USB_Device_Library/Class/winUsb/Src/usbd_winUsb.c **** 
 790              		.loc 1 352 3 view .LVU211
 352:Middlewares/ST/STM32_USB_Device_Library/Class/winUsb/Src/usbd_winUsb.c **** 
 791              		.loc 1 352 47 is_stmt 0 view .LVU212
 792 0018 A4F8A051 		strh	r5, [r4, #416]	@ movhi
 356:Middlewares/ST/STM32_USB_Device_Library/Class/winUsb/Src/usbd_winUsb.c ****   {
 793              		.loc 1 356 3 is_stmt 1 view .LVU213
 356:Middlewares/ST/STM32_USB_Device_Library/Class/winUsb/Src/usbd_winUsb.c ****   {
 794              		.loc 1 356 33 is_stmt 0 view .LVU214
 795 001c D4F8F832 		ldr	r3, [r4, #760]
 356:Middlewares/ST/STM32_USB_Device_Library/Class/winUsb/Src/usbd_winUsb.c ****   {
 796              		.loc 1 356 28 view .LVU215
 797 0020 03F1B202 		add	r2, r3, #178
 798 0024 04EB8202 		add	r2, r4, r2, lsl #2
 799 0028 5268     		ldr	r2, [r2, #4]
 356:Middlewares/ST/STM32_USB_Device_Library/Class/winUsb/Src/usbd_winUsb.c ****   {
 800              		.loc 1 356 6 view .LVU216
 801 002a AAB1     		cbz	r2, .L62
 358:Middlewares/ST/STM32_USB_Device_Library/Class/winUsb/Src/usbd_winUsb.c ****     (void)USBD_free(pdev->pClassDataCmsit[pdev->classId]);
 802              		.loc 1 358 5 is_stmt 1 view .LVU217
 358:Middlewares/ST/STM32_USB_Device_Library/Class/winUsb/Src/usbd_winUsb.c ****     (void)USBD_free(pdev->pClassDataCmsit[pdev->classId]);
 803              		.loc 1 358 47 is_stmt 0 view .LVU218
 804 002c B633     		adds	r3, r3, #182
 805 002e 04EB8303 		add	r3, r4, r3, lsl #2
 806 0032 5B68     		ldr	r3, [r3, #4]
 358:Middlewares/ST/STM32_USB_Device_Library/Class/winUsb/Src/usbd_winUsb.c ****     (void)USBD_free(pdev->pClassDataCmsit[pdev->classId]);
 807              		.loc 1 358 63 view .LVU219
 808 0034 5B68     		ldr	r3, [r3, #4]
 358:Middlewares/ST/STM32_USB_Device_Library/Class/winUsb/Src/usbd_winUsb.c ****     (void)USBD_free(pdev->pClassDataCmsit[pdev->classId]);
 809              		.loc 1 358 6 view .LVU220
 810 0036 9847     		blx	r3
 811              	.LVL80:
 359:Middlewares/ST/STM32_USB_Device_Library/Class/winUsb/Src/usbd_winUsb.c ****     pdev->pClassDataCmsit[pdev->classId] = NULL;
 812              		.loc 1 359 5 is_stmt 1 view .LVU221
 359:Middlewares/ST/STM32_USB_Device_Library/Class/winUsb/Src/usbd_winUsb.c ****     pdev->pClassDataCmsit[pdev->classId] = NULL;
 813              		.loc 1 359 47 is_stmt 0 view .LVU222
 814 0038 D4F8F832 		ldr	r3, [r4, #760]
 359:Middlewares/ST/STM32_USB_Device_Library/Class/winUsb/Src/usbd_winUsb.c ****     pdev->pClassDataCmsit[pdev->classId] = NULL;
 815              		.loc 1 359 5 view .LVU223
 816 003c B233     		adds	r3, r3, #178
 817 003e 04EB8303 		add	r3, r4, r3, lsl #2
 818 0042 5868     		ldr	r0, [r3, #4]
 819 0044 FFF7FEFF 		bl	free
 820              	.LVL81:
 360:Middlewares/ST/STM32_USB_Device_Library/Class/winUsb/Src/usbd_winUsb.c ****     pdev->pClassData = NULL;
 821              		.loc 1 360 5 is_stmt 1 view .LVU224
 360:Middlewares/ST/STM32_USB_Device_Library/Class/winUsb/Src/usbd_winUsb.c ****     pdev->pClassData = NULL;
 822              		.loc 1 360 31 is_stmt 0 view .LVU225
 823 0048 D4F8F832 		ldr	r3, [r4, #760]
 360:Middlewares/ST/STM32_USB_Device_Library/Class/winUsb/Src/usbd_winUsb.c ****     pdev->pClassData = NULL;
 824              		.loc 1 360 42 view .LVU226
 825 004c B233     		adds	r3, r3, #178
 826 004e 04EB8303 		add	r3, r4, r3, lsl #2
ARM GAS  C:\Users\ADMINI~1\AppData\Local\Temp\cc0ubKlL.s 			page 30


 827 0052 5D60     		str	r5, [r3, #4]
 361:Middlewares/ST/STM32_USB_Device_Library/Class/winUsb/Src/usbd_winUsb.c ****   }
 828              		.loc 1 361 5 is_stmt 1 view .LVU227
 361:Middlewares/ST/STM32_USB_Device_Library/Class/winUsb/Src/usbd_winUsb.c ****   }
 829              		.loc 1 361 22 is_stmt 0 view .LVU228
 830 0054 C4F8C852 		str	r5, [r4, #712]
 831              	.L62:
 363:Middlewares/ST/STM32_USB_Device_Library/Class/winUsb/Src/usbd_winUsb.c **** 
 832              		.loc 1 363 2 is_stmt 1 view .LVU229
 365:Middlewares/ST/STM32_USB_Device_Library/Class/winUsb/Src/usbd_winUsb.c **** static uint8_t USBD_WinUsb_Setup(USBD_HandleTypeDef *pdev, USBD_SetupReqTypedef *req)
 833              		.loc 1 365 1 is_stmt 0 view .LVU230
 834 0058 0020     		movs	r0, #0
 835 005a 38BD     		pop	{r3, r4, r5, pc}
 365:Middlewares/ST/STM32_USB_Device_Library/Class/winUsb/Src/usbd_winUsb.c **** static uint8_t USBD_WinUsb_Setup(USBD_HandleTypeDef *pdev, USBD_SetupReqTypedef *req)
 836              		.loc 1 365 1 view .LVU231
 837              		.cfi_endproc
 838              	.LFE140:
 840              		.section	.text.USBD_WinUsb_Init,"ax",%progbits
 841              		.align	1
 842              		.syntax unified
 843              		.thumb
 844              		.thumb_func
 846              	USBD_WinUsb_Init:
 847              	.LVL82:
 848              	.LFB139:
 280:Middlewares/ST/STM32_USB_Device_Library/Class/winUsb/Src/usbd_winUsb.c ****   UNUSED(cfgidx);
 849              		.loc 1 280 1 is_stmt 1 view -0
 850              		.cfi_startproc
 851              		@ args = 0, pretend = 0, frame = 0
 852              		@ frame_needed = 0, uses_anonymous_args = 0
 280:Middlewares/ST/STM32_USB_Device_Library/Class/winUsb/Src/usbd_winUsb.c ****   UNUSED(cfgidx);
 853              		.loc 1 280 1 is_stmt 0 view .LVU233
 854 0000 70B5     		push	{r4, r5, r6, lr}
 855              	.LCFI12:
 856              		.cfi_def_cfa_offset 16
 857              		.cfi_offset 4, -16
 858              		.cfi_offset 5, -12
 859              		.cfi_offset 6, -8
 860              		.cfi_offset 14, -4
 861 0002 0446     		mov	r4, r0
 281:Middlewares/ST/STM32_USB_Device_Library/Class/winUsb/Src/usbd_winUsb.c ****   USBD_WinUsb_HandleTypeDef *hcdc;
 862              		.loc 1 281 3 is_stmt 1 view .LVU234
 282:Middlewares/ST/STM32_USB_Device_Library/Class/winUsb/Src/usbd_winUsb.c **** 
 863              		.loc 1 282 3 view .LVU235
 284:Middlewares/ST/STM32_USB_Device_Library/Class/winUsb/Src/usbd_winUsb.c **** 
 864              		.loc 1 284 3 view .LVU236
 284:Middlewares/ST/STM32_USB_Device_Library/Class/winUsb/Src/usbd_winUsb.c **** 
 865              		.loc 1 284 39 is_stmt 0 view .LVU237
 866 0004 4FF40770 		mov	r0, #540
 867              	.LVL83:
 284:Middlewares/ST/STM32_USB_Device_Library/Class/winUsb/Src/usbd_winUsb.c **** 
 868              		.loc 1 284 39 view .LVU238
 869 0008 FFF7FEFF 		bl	malloc
 870              	.LVL84:
 286:Middlewares/ST/STM32_USB_Device_Library/Class/winUsb/Src/usbd_winUsb.c ****   {
 871              		.loc 1 286 3 is_stmt 1 view .LVU239
 286:Middlewares/ST/STM32_USB_Device_Library/Class/winUsb/Src/usbd_winUsb.c ****   {
ARM GAS  C:\Users\ADMINI~1\AppData\Local\Temp\cc0ubKlL.s 			page 31


 872              		.loc 1 286 6 is_stmt 0 view .LVU240
 873 000c 0028     		cmp	r0, #0
 874 000e 3CD0     		beq	.L72
 875 0010 0546     		mov	r5, r0
 292:Middlewares/ST/STM32_USB_Device_Library/Class/winUsb/Src/usbd_winUsb.c **** 
 876              		.loc 1 292 3 is_stmt 1 view .LVU241
 292:Middlewares/ST/STM32_USB_Device_Library/Class/winUsb/Src/usbd_winUsb.c **** 
 877              		.loc 1 292 9 is_stmt 0 view .LVU242
 878 0012 4FF40772 		mov	r2, #540
 879 0016 0021     		movs	r1, #0
 880 0018 FFF7FEFF 		bl	memset
 881              	.LVL85:
 294:Middlewares/ST/STM32_USB_Device_Library/Class/winUsb/Src/usbd_winUsb.c ****   pdev->pClassData = pdev->pClassDataCmsit[pdev->classId];
 882              		.loc 1 294 3 is_stmt 1 view .LVU243
 294:Middlewares/ST/STM32_USB_Device_Library/Class/winUsb/Src/usbd_winUsb.c ****   pdev->pClassData = pdev->pClassDataCmsit[pdev->classId];
 883              		.loc 1 294 29 is_stmt 0 view .LVU244
 884 001c D4F8F832 		ldr	r3, [r4, #760]
 294:Middlewares/ST/STM32_USB_Device_Library/Class/winUsb/Src/usbd_winUsb.c ****   pdev->pClassData = pdev->pClassDataCmsit[pdev->classId];
 885              		.loc 1 294 40 view .LVU245
 886 0020 B233     		adds	r3, r3, #178
 887 0022 04EB8303 		add	r3, r4, r3, lsl #2
 888 0026 5D60     		str	r5, [r3, #4]
 295:Middlewares/ST/STM32_USB_Device_Library/Class/winUsb/Src/usbd_winUsb.c ****   if (pdev->dev_speed == USBD_SPEED_HIGH)
 889              		.loc 1 295 3 is_stmt 1 view .LVU246
 295:Middlewares/ST/STM32_USB_Device_Library/Class/winUsb/Src/usbd_winUsb.c ****   if (pdev->dev_speed == USBD_SPEED_HIGH)
 890              		.loc 1 295 20 is_stmt 0 view .LVU247
 891 0028 C4F8C852 		str	r5, [r4, #712]
 296:Middlewares/ST/STM32_USB_Device_Library/Class/winUsb/Src/usbd_winUsb.c ****   {
 892              		.loc 1 296 3 is_stmt 1 view .LVU248
 296:Middlewares/ST/STM32_USB_Device_Library/Class/winUsb/Src/usbd_winUsb.c ****   {
 893              		.loc 1 296 11 is_stmt 0 view .LVU249
 894 002c 237C     		ldrb	r3, [r4, #16]	@ zero_extendqisi2
 296:Middlewares/ST/STM32_USB_Device_Library/Class/winUsb/Src/usbd_winUsb.c ****   {
 895              		.loc 1 296 6 view .LVU250
 896 002e ABBB     		cbnz	r3, .L67
 298:Middlewares/ST/STM32_USB_Device_Library/Class/winUsb/Src/usbd_winUsb.c ****     USBD_LL_OpenEP(pdev,WIN_USB_EPOUT_ADDR,USBD_EP_TYPE_BULK,WIN_DATA_HS_OUT_PACKET_SIZE);
 897              		.loc 1 298 5 is_stmt 1 view .LVU251
 898 0030 4FF40073 		mov	r3, #512
 899 0034 0222     		movs	r2, #2
 900 0036 8321     		movs	r1, #131
 901 0038 2046     		mov	r0, r4
 902 003a FFF7FEFF 		bl	USBD_LL_OpenEP
 903              	.LVL86:
 299:Middlewares/ST/STM32_USB_Device_Library/Class/winUsb/Src/usbd_winUsb.c ****   }
 904              		.loc 1 299 5 view .LVU252
 905 003e 4FF40073 		mov	r3, #512
 906 0042 0222     		movs	r2, #2
 907 0044 0321     		movs	r1, #3
 908 0046 2046     		mov	r0, r4
 909 0048 FFF7FEFF 		bl	USBD_LL_OpenEP
 910              	.LVL87:
 911              	.L68:
 309:Middlewares/ST/STM32_USB_Device_Library/Class/winUsb/Src/usbd_winUsb.c ****   pdev->ep_in[WinUsbOutEpAdd & 0xFU].is_used = 1U;
 912              		.loc 1 309 3 view .LVU253
 309:Middlewares/ST/STM32_USB_Device_Library/Class/winUsb/Src/usbd_winUsb.c ****   pdev->ep_in[WinUsbOutEpAdd & 0xFU].is_used = 1U;
 913              		.loc 1 309 45 is_stmt 0 view .LVU254
 914 004c 0123     		movs	r3, #1
ARM GAS  C:\Users\ADMINI~1\AppData\Local\Temp\cc0ubKlL.s 			page 32


 915 004e A4F86030 		strh	r3, [r4, #96]	@ movhi
 310:Middlewares/ST/STM32_USB_Device_Library/Class/winUsb/Src/usbd_winUsb.c **** 
 916              		.loc 1 310 3 is_stmt 1 view .LVU255
 313:Middlewares/ST/STM32_USB_Device_Library/Class/winUsb/Src/usbd_winUsb.c **** 
 917              		.loc 1 313 3 view .LVU256
 313:Middlewares/ST/STM32_USB_Device_Library/Class/winUsb/Src/usbd_winUsb.c **** 
 918              		.loc 1 313 18 is_stmt 0 view .LVU257
 919 0052 0026     		movs	r6, #0
 920 0054 C5F80462 		str	r6, [r5, #516]
 316:Middlewares/ST/STM32_USB_Device_Library/Class/winUsb/Src/usbd_winUsb.c **** 
 921              		.loc 1 316 3 is_stmt 1 view .LVU258
 316:Middlewares/ST/STM32_USB_Device_Library/Class/winUsb/Src/usbd_winUsb.c **** 
 922              		.loc 1 316 50 is_stmt 0 view .LVU259
 923 0058 D4F8F832 		ldr	r3, [r4, #760]
 316:Middlewares/ST/STM32_USB_Device_Library/Class/winUsb/Src/usbd_winUsb.c **** 
 924              		.loc 1 316 45 view .LVU260
 925 005c B633     		adds	r3, r3, #182
 926 005e 04EB8303 		add	r3, r4, r3, lsl #2
 927 0062 5B68     		ldr	r3, [r3, #4]
 316:Middlewares/ST/STM32_USB_Device_Library/Class/winUsb/Src/usbd_winUsb.c **** 
 928              		.loc 1 316 61 view .LVU261
 929 0064 1B68     		ldr	r3, [r3]
 316:Middlewares/ST/STM32_USB_Device_Library/Class/winUsb/Src/usbd_winUsb.c **** 
 930              		.loc 1 316 4 view .LVU262
 931 0066 9847     		blx	r3
 932              	.LVL88:
 319:Middlewares/ST/STM32_USB_Device_Library/Class/winUsb/Src/usbd_winUsb.c ****   hcdc->RxState = 0U;
 933              		.loc 1 319 3 is_stmt 1 view .LVU263
 319:Middlewares/ST/STM32_USB_Device_Library/Class/winUsb/Src/usbd_winUsb.c ****   hcdc->RxState = 0U;
 934              		.loc 1 319 17 is_stmt 0 view .LVU264
 935 0068 C5F81462 		str	r6, [r5, #532]
 320:Middlewares/ST/STM32_USB_Device_Library/Class/winUsb/Src/usbd_winUsb.c **** 
 936              		.loc 1 320 3 is_stmt 1 view .LVU265
 320:Middlewares/ST/STM32_USB_Device_Library/Class/winUsb/Src/usbd_winUsb.c **** 
 937              		.loc 1 320 17 is_stmt 0 view .LVU266
 938 006c C5F81862 		str	r6, [r5, #536]
 322:Middlewares/ST/STM32_USB_Device_Library/Class/winUsb/Src/usbd_winUsb.c ****   {
 939              		.loc 1 322 3 is_stmt 1 view .LVU267
 322:Middlewares/ST/STM32_USB_Device_Library/Class/winUsb/Src/usbd_winUsb.c ****   {
 940              		.loc 1 322 11 is_stmt 0 view .LVU268
 941 0070 D5F80422 		ldr	r2, [r5, #516]
 322:Middlewares/ST/STM32_USB_Device_Library/Class/winUsb/Src/usbd_winUsb.c ****   {
 942              		.loc 1 322 6 view .LVU269
 943 0074 32B3     		cbz	r2, .L70
 326:Middlewares/ST/STM32_USB_Device_Library/Class/winUsb/Src/usbd_winUsb.c ****   {
 944              		.loc 1 326 3 is_stmt 1 view .LVU270
 326:Middlewares/ST/STM32_USB_Device_Library/Class/winUsb/Src/usbd_winUsb.c ****   {
 945              		.loc 1 326 11 is_stmt 0 view .LVU271
 946 0076 257C     		ldrb	r5, [r4, #16]	@ zero_extendqisi2
 947              	.LVL89:
 326:Middlewares/ST/STM32_USB_Device_Library/Class/winUsb/Src/usbd_winUsb.c ****   {
 948              		.loc 1 326 6 view .LVU272
 949 0078 EDB9     		cbnz	r5, .L69
 328:Middlewares/ST/STM32_USB_Device_Library/Class/winUsb/Src/usbd_winUsb.c ****                           WIN_USB_EPOUT_ADDR,
 950              		.loc 1 328 5 is_stmt 1 view .LVU273
 951 007a 4FF40073 		mov	r3, #512
 952 007e 0321     		movs	r1, #3
ARM GAS  C:\Users\ADMINI~1\AppData\Local\Temp\cc0ubKlL.s 			page 33


 953 0080 2046     		mov	r0, r4
 954 0082 FFF7FEFF 		bl	USBD_LL_PrepareReceive
 955              	.LVL90:
 956              	.L66:
 342:Middlewares/ST/STM32_USB_Device_Library/Class/winUsb/Src/usbd_winUsb.c **** 
 957              		.loc 1 342 1 is_stmt 0 view .LVU274
 958 0086 2846     		mov	r0, r5
 959 0088 70BD     		pop	{r4, r5, r6, pc}
 960              	.LVL91:
 961              	.L72:
 288:Middlewares/ST/STM32_USB_Device_Library/Class/winUsb/Src/usbd_winUsb.c ****     return (uint8_t)USBD_EMEM;
 962              		.loc 1 288 5 is_stmt 1 view .LVU275
 288:Middlewares/ST/STM32_USB_Device_Library/Class/winUsb/Src/usbd_winUsb.c ****     return (uint8_t)USBD_EMEM;
 963              		.loc 1 288 31 is_stmt 0 view .LVU276
 964 008a D4F8F832 		ldr	r3, [r4, #760]
 288:Middlewares/ST/STM32_USB_Device_Library/Class/winUsb/Src/usbd_winUsb.c ****     return (uint8_t)USBD_EMEM;
 965              		.loc 1 288 42 view .LVU277
 966 008e B233     		adds	r3, r3, #178
 967 0090 04EB8304 		add	r4, r4, r3, lsl #2
 968              	.LVL92:
 288:Middlewares/ST/STM32_USB_Device_Library/Class/winUsb/Src/usbd_winUsb.c ****     return (uint8_t)USBD_EMEM;
 969              		.loc 1 288 42 view .LVU278
 970 0094 0023     		movs	r3, #0
 971 0096 6360     		str	r3, [r4, #4]
 289:Middlewares/ST/STM32_USB_Device_Library/Class/winUsb/Src/usbd_winUsb.c ****   }
 972              		.loc 1 289 5 is_stmt 1 view .LVU279
 289:Middlewares/ST/STM32_USB_Device_Library/Class/winUsb/Src/usbd_winUsb.c ****   }
 973              		.loc 1 289 12 is_stmt 0 view .LVU280
 974 0098 0225     		movs	r5, #2
 975 009a F4E7     		b	.L66
 976              	.LVL93:
 977              	.L67:
 303:Middlewares/ST/STM32_USB_Device_Library/Class/winUsb/Src/usbd_winUsb.c ****     USBD_LL_OpenEP(pdev,WIN_USB_EPOUT_ADDR,USBD_EP_TYPE_BULK,WIN_DATA_FS_OUT_PACKET_SIZE);
 978              		.loc 1 303 5 is_stmt 1 view .LVU281
 979 009c 4023     		movs	r3, #64
 980 009e 0222     		movs	r2, #2
 981 00a0 8321     		movs	r1, #131
 982 00a2 2046     		mov	r0, r4
 983 00a4 FFF7FEFF 		bl	USBD_LL_OpenEP
 984              	.LVL94:
 304:Middlewares/ST/STM32_USB_Device_Library/Class/winUsb/Src/usbd_winUsb.c **** 
 985              		.loc 1 304 5 view .LVU282
 986 00a8 4023     		movs	r3, #64
 987 00aa 0222     		movs	r2, #2
 988 00ac 0321     		movs	r1, #3
 989 00ae 2046     		mov	r0, r4
 990 00b0 FFF7FEFF 		bl	USBD_LL_OpenEP
 991              	.LVL95:
 992 00b4 CAE7     		b	.L68
 993              	.LVL96:
 994              	.L69:
 335:Middlewares/ST/STM32_USB_Device_Library/Class/winUsb/Src/usbd_winUsb.c ****                           WIN_USB_EPOUT_ADDR,
 995              		.loc 1 335 5 view .LVU283
 996 00b6 4023     		movs	r3, #64
 997 00b8 0321     		movs	r1, #3
 998 00ba 2046     		mov	r0, r4
 999 00bc FFF7FEFF 		bl	USBD_LL_PrepareReceive
ARM GAS  C:\Users\ADMINI~1\AppData\Local\Temp\cc0ubKlL.s 			page 34


 1000              	.LVL97:
 340:Middlewares/ST/STM32_USB_Device_Library/Class/winUsb/Src/usbd_winUsb.c **** 
 1001              		.loc 1 340 10 is_stmt 0 view .LVU284
 1002 00c0 0025     		movs	r5, #0
 1003 00c2 E0E7     		b	.L66
 1004              	.LVL98:
 1005              	.L70:
 324:Middlewares/ST/STM32_USB_Device_Library/Class/winUsb/Src/usbd_winUsb.c ****   }
 1006              		.loc 1 324 12 view .LVU285
 1007 00c4 0225     		movs	r5, #2
 1008              	.LVL99:
 324:Middlewares/ST/STM32_USB_Device_Library/Class/winUsb/Src/usbd_winUsb.c ****   }
 1009              		.loc 1 324 12 view .LVU286
 1010 00c6 DEE7     		b	.L66
 1011              		.cfi_endproc
 1012              	.LFE139:
 1014              		.section	.text.USBD_WinUsb_SetTxBuffer,"ax",%progbits
 1015              		.align	1
 1016              		.global	USBD_WinUsb_SetTxBuffer
 1017              		.syntax unified
 1018              		.thumb
 1019              		.thumb_func
 1021              	USBD_WinUsb_SetTxBuffer:
 1022              	.LVL100:
 1023              	.LFB145:
 513:Middlewares/ST/STM32_USB_Device_Library/Class/winUsb/Src/usbd_winUsb.c ****   USBD_WinUsb_HandleTypeDef *hcdc = (USBD_WinUsb_HandleTypeDef *)pdev->pClassDataCmsit[pdev->classI
 1024              		.loc 1 513 1 is_stmt 1 view -0
 1025              		.cfi_startproc
 1026              		@ args = 0, pretend = 0, frame = 0
 1027              		@ frame_needed = 0, uses_anonymous_args = 0
 1028              		@ link register save eliminated.
 514:Middlewares/ST/STM32_USB_Device_Library/Class/winUsb/Src/usbd_winUsb.c **** 
 1029              		.loc 1 514 3 view .LVU288
 514:Middlewares/ST/STM32_USB_Device_Library/Class/winUsb/Src/usbd_winUsb.c **** 
 1030              		.loc 1 514 92 is_stmt 0 view .LVU289
 1031 0000 D0F8F832 		ldr	r3, [r0, #760]
 514:Middlewares/ST/STM32_USB_Device_Library/Class/winUsb/Src/usbd_winUsb.c **** 
 1032              		.loc 1 514 30 view .LVU290
 1033 0004 B233     		adds	r3, r3, #178
 1034 0006 00EB8300 		add	r0, r0, r3, lsl #2
 1035              	.LVL101:
 514:Middlewares/ST/STM32_USB_Device_Library/Class/winUsb/Src/usbd_winUsb.c **** 
 1036              		.loc 1 514 30 view .LVU291
 1037 000a 4368     		ldr	r3, [r0, #4]
 1038              	.LVL102:
 516:Middlewares/ST/STM32_USB_Device_Library/Class/winUsb/Src/usbd_winUsb.c ****   {
 1039              		.loc 1 516 3 is_stmt 1 view .LVU292
 516:Middlewares/ST/STM32_USB_Device_Library/Class/winUsb/Src/usbd_winUsb.c ****   {
 1040              		.loc 1 516 6 is_stmt 0 view .LVU293
 1041 000c 2BB1     		cbz	r3, .L75
 521:Middlewares/ST/STM32_USB_Device_Library/Class/winUsb/Src/usbd_winUsb.c ****   hcdc->TxLength = length;
 1042              		.loc 1 521 3 is_stmt 1 view .LVU294
 521:Middlewares/ST/STM32_USB_Device_Library/Class/winUsb/Src/usbd_winUsb.c ****   hcdc->TxLength = length;
 1043              		.loc 1 521 18 is_stmt 0 view .LVU295
 1044 000e C3F80812 		str	r1, [r3, #520]
 522:Middlewares/ST/STM32_USB_Device_Library/Class/winUsb/Src/usbd_winUsb.c **** 
 1045              		.loc 1 522 3 is_stmt 1 view .LVU296
ARM GAS  C:\Users\ADMINI~1\AppData\Local\Temp\cc0ubKlL.s 			page 35


 522:Middlewares/ST/STM32_USB_Device_Library/Class/winUsb/Src/usbd_winUsb.c **** 
 1046              		.loc 1 522 18 is_stmt 0 view .LVU297
 1047 0012 C3F81022 		str	r2, [r3, #528]
 524:Middlewares/ST/STM32_USB_Device_Library/Class/winUsb/Src/usbd_winUsb.c **** }
 1048              		.loc 1 524 3 is_stmt 1 view .LVU298
 524:Middlewares/ST/STM32_USB_Device_Library/Class/winUsb/Src/usbd_winUsb.c **** }
 1049              		.loc 1 524 10 is_stmt 0 view .LVU299
 1050 0016 0020     		movs	r0, #0
 1051 0018 7047     		bx	lr
 1052              	.L75:
 518:Middlewares/ST/STM32_USB_Device_Library/Class/winUsb/Src/usbd_winUsb.c ****   }
 1053              		.loc 1 518 12 view .LVU300
 1054 001a 0320     		movs	r0, #3
 525:Middlewares/ST/STM32_USB_Device_Library/Class/winUsb/Src/usbd_winUsb.c **** uint8_t USBD_WinUsb_SetRxBuffer(USBD_HandleTypeDef *pdev, uint8_t *pbuff)
 1055              		.loc 1 525 1 view .LVU301
 1056 001c 7047     		bx	lr
 1057              		.cfi_endproc
 1058              	.LFE145:
 1060              		.section	.text.USBD_WinUsb_SetRxBuffer,"ax",%progbits
 1061              		.align	1
 1062              		.global	USBD_WinUsb_SetRxBuffer
 1063              		.syntax unified
 1064              		.thumb
 1065              		.thumb_func
 1067              	USBD_WinUsb_SetRxBuffer:
 1068              	.LVL103:
 1069              	.LFB146:
 527:Middlewares/ST/STM32_USB_Device_Library/Class/winUsb/Src/usbd_winUsb.c **** 	USBD_WinUsb_HandleTypeDef *hcdc = (USBD_WinUsb_HandleTypeDef *)pdev->pClassDataCmsit[pdev->classId
 1070              		.loc 1 527 1 is_stmt 1 view -0
 1071              		.cfi_startproc
 1072              		@ args = 0, pretend = 0, frame = 0
 1073              		@ frame_needed = 0, uses_anonymous_args = 0
 1074              		@ link register save eliminated.
 528:Middlewares/ST/STM32_USB_Device_Library/Class/winUsb/Src/usbd_winUsb.c **** 
 1075              		.loc 1 528 2 view .LVU303
 528:Middlewares/ST/STM32_USB_Device_Library/Class/winUsb/Src/usbd_winUsb.c **** 
 1076              		.loc 1 528 91 is_stmt 0 view .LVU304
 1077 0000 D0F8F832 		ldr	r3, [r0, #760]
 528:Middlewares/ST/STM32_USB_Device_Library/Class/winUsb/Src/usbd_winUsb.c **** 
 1078              		.loc 1 528 29 view .LVU305
 1079 0004 B233     		adds	r3, r3, #178
 1080 0006 00EB8300 		add	r0, r0, r3, lsl #2
 1081              	.LVL104:
 528:Middlewares/ST/STM32_USB_Device_Library/Class/winUsb/Src/usbd_winUsb.c **** 
 1082              		.loc 1 528 29 view .LVU306
 1083 000a 4368     		ldr	r3, [r0, #4]
 1084              	.LVL105:
 530:Middlewares/ST/STM32_USB_Device_Library/Class/winUsb/Src/usbd_winUsb.c **** 	{
 1085              		.loc 1 530 2 is_stmt 1 view .LVU307
 530:Middlewares/ST/STM32_USB_Device_Library/Class/winUsb/Src/usbd_winUsb.c **** 	{
 1086              		.loc 1 530 5 is_stmt 0 view .LVU308
 1087 000c 1BB1     		cbz	r3, .L78
 535:Middlewares/ST/STM32_USB_Device_Library/Class/winUsb/Src/usbd_winUsb.c **** 
 1088              		.loc 1 535 2 is_stmt 1 view .LVU309
 535:Middlewares/ST/STM32_USB_Device_Library/Class/winUsb/Src/usbd_winUsb.c **** 
 1089              		.loc 1 535 17 is_stmt 0 view .LVU310
 1090 000e C3F80412 		str	r1, [r3, #516]
ARM GAS  C:\Users\ADMINI~1\AppData\Local\Temp\cc0ubKlL.s 			page 36


 537:Middlewares/ST/STM32_USB_Device_Library/Class/winUsb/Src/usbd_winUsb.c **** }
 1091              		.loc 1 537 2 is_stmt 1 view .LVU311
 537:Middlewares/ST/STM32_USB_Device_Library/Class/winUsb/Src/usbd_winUsb.c **** }
 1092              		.loc 1 537 9 is_stmt 0 view .LVU312
 1093 0012 0020     		movs	r0, #0
 1094 0014 7047     		bx	lr
 1095              	.L78:
 532:Middlewares/ST/STM32_USB_Device_Library/Class/winUsb/Src/usbd_winUsb.c **** 	}
 1096              		.loc 1 532 11 view .LVU313
 1097 0016 0320     		movs	r0, #3
 538:Middlewares/ST/STM32_USB_Device_Library/Class/winUsb/Src/usbd_winUsb.c **** 
 1098              		.loc 1 538 1 view .LVU314
 1099 0018 7047     		bx	lr
 1100              		.cfi_endproc
 1101              	.LFE146:
 1103              		.section	.text.WinUsb_Init_FS,"ax",%progbits
 1104              		.align	1
 1105              		.syntax unified
 1106              		.thumb
 1107              		.thumb_func
 1109              	WinUsb_Init_FS:
 1110              	.LFB149:
 590:Middlewares/ST/STM32_USB_Device_Library/Class/winUsb/Src/usbd_winUsb.c ****   /* USER CODE BEGIN 3 */
 1111              		.loc 1 590 1 is_stmt 1 view -0
 1112              		.cfi_startproc
 1113              		@ args = 0, pretend = 0, frame = 0
 1114              		@ frame_needed = 0, uses_anonymous_args = 0
 1115 0000 10B5     		push	{r4, lr}
 1116              	.LCFI13:
 1117              		.cfi_def_cfa_offset 8
 1118              		.cfi_offset 4, -8
 1119              		.cfi_offset 14, -4
 593:Middlewares/ST/STM32_USB_Device_Library/Class/winUsb/Src/usbd_winUsb.c ****   USBD_WinUsb_SetRxBuffer(&hUsbDeviceHS, WinUsbRxBufferFS);
 1120              		.loc 1 593 3 view .LVU316
 1121 0002 064C     		ldr	r4, .L81
 1122 0004 0022     		movs	r2, #0
 1123 0006 0649     		ldr	r1, .L81+4
 1124 0008 2046     		mov	r0, r4
 1125 000a FFF7FEFF 		bl	USBD_WinUsb_SetTxBuffer
 1126              	.LVL106:
 594:Middlewares/ST/STM32_USB_Device_Library/Class/winUsb/Src/usbd_winUsb.c ****   return (USBD_OK);
 1127              		.loc 1 594 3 view .LVU317
 1128 000e 0549     		ldr	r1, .L81+8
 1129 0010 2046     		mov	r0, r4
 1130 0012 FFF7FEFF 		bl	USBD_WinUsb_SetRxBuffer
 1131              	.LVL107:
 595:Middlewares/ST/STM32_USB_Device_Library/Class/winUsb/Src/usbd_winUsb.c ****   /* USER CODE END 3 */
 1132              		.loc 1 595 3 view .LVU318
 597:Middlewares/ST/STM32_USB_Device_Library/Class/winUsb/Src/usbd_winUsb.c **** static int8_t WinUsb_DeInit_FS(void)
 1133              		.loc 1 597 1 is_stmt 0 view .LVU319
 1134 0016 0020     		movs	r0, #0
 1135 0018 10BD     		pop	{r4, pc}
 1136              	.L82:
 1137 001a 00BF     		.align	2
 1138              	.L81:
 1139 001c 00000000 		.word	hUsbDeviceHS
 1140 0020 00000000 		.word	.LANCHOR2
ARM GAS  C:\Users\ADMINI~1\AppData\Local\Temp\cc0ubKlL.s 			page 37


 1141 0024 00000000 		.word	.LANCHOR3
 1142              		.cfi_endproc
 1143              	.LFE149:
 1145              		.section	.text.USBD_WinUsb_ReceivePacket,"ax",%progbits
 1146              		.align	1
 1147              		.global	USBD_WinUsb_ReceivePacket
 1148              		.syntax unified
 1149              		.thumb
 1150              		.thumb_func
 1152              	USBD_WinUsb_ReceivePacket:
 1153              	.LVL108:
 1154              	.LFB147:
 541:Middlewares/ST/STM32_USB_Device_Library/Class/winUsb/Src/usbd_winUsb.c ****   USBD_WinUsb_HandleTypeDef *hcdc = (USBD_WinUsb_HandleTypeDef *)pdev->pClassDataCmsit[pdev->classI
 1155              		.loc 1 541 1 is_stmt 1 view -0
 1156              		.cfi_startproc
 1157              		@ args = 0, pretend = 0, frame = 0
 1158              		@ frame_needed = 0, uses_anonymous_args = 0
 541:Middlewares/ST/STM32_USB_Device_Library/Class/winUsb/Src/usbd_winUsb.c ****   USBD_WinUsb_HandleTypeDef *hcdc = (USBD_WinUsb_HandleTypeDef *)pdev->pClassDataCmsit[pdev->classI
 1159              		.loc 1 541 1 is_stmt 0 view .LVU321
 1160 0000 10B5     		push	{r4, lr}
 1161              	.LCFI14:
 1162              		.cfi_def_cfa_offset 8
 1163              		.cfi_offset 4, -8
 1164              		.cfi_offset 14, -4
 542:Middlewares/ST/STM32_USB_Device_Library/Class/winUsb/Src/usbd_winUsb.c **** 
 1165              		.loc 1 542 3 is_stmt 1 view .LVU322
 542:Middlewares/ST/STM32_USB_Device_Library/Class/winUsb/Src/usbd_winUsb.c **** 
 1166              		.loc 1 542 92 is_stmt 0 view .LVU323
 1167 0002 D0F8F832 		ldr	r3, [r0, #760]
 542:Middlewares/ST/STM32_USB_Device_Library/Class/winUsb/Src/usbd_winUsb.c **** 
 1168              		.loc 1 542 30 view .LVU324
 1169 0006 B233     		adds	r3, r3, #178
 1170 0008 00EB8303 		add	r3, r0, r3, lsl #2
 1171 000c 5A68     		ldr	r2, [r3, #4]
 1172              	.LVL109:
 544:Middlewares/ST/STM32_USB_Device_Library/Class/winUsb/Src/usbd_winUsb.c ****   {
 1173              		.loc 1 544 3 is_stmt 1 view .LVU325
 544:Middlewares/ST/STM32_USB_Device_Library/Class/winUsb/Src/usbd_winUsb.c ****   {
 1174              		.loc 1 544 6 is_stmt 0 view .LVU326
 1175 000e 92B1     		cbz	r2, .L86
 548:Middlewares/ST/STM32_USB_Device_Library/Class/winUsb/Src/usbd_winUsb.c ****   {
 1176              		.loc 1 548 3 is_stmt 1 view .LVU327
 548:Middlewares/ST/STM32_USB_Device_Library/Class/winUsb/Src/usbd_winUsb.c ****   {
 1177              		.loc 1 548 11 is_stmt 0 view .LVU328
 1178 0010 047C     		ldrb	r4, [r0, #16]	@ zero_extendqisi2
 548:Middlewares/ST/STM32_USB_Device_Library/Class/winUsb/Src/usbd_winUsb.c ****   {
 1179              		.loc 1 548 6 view .LVU329
 1180 0012 44B9     		cbnz	r4, .L85
 551:Middlewares/ST/STM32_USB_Device_Library/Class/winUsb/Src/usbd_winUsb.c ****                                  WIN_DATA_HS_OUT_PACKET_SIZE);
 1181              		.loc 1 551 5 is_stmt 1 view .LVU330
 551:Middlewares/ST/STM32_USB_Device_Library/Class/winUsb/Src/usbd_winUsb.c ****                                  WIN_DATA_HS_OUT_PACKET_SIZE);
 1182              		.loc 1 551 11 is_stmt 0 view .LVU331
 1183 0014 4FF40073 		mov	r3, #512
 1184 0018 D2F80422 		ldr	r2, [r2, #516]
 1185              	.LVL110:
 551:Middlewares/ST/STM32_USB_Device_Library/Class/winUsb/Src/usbd_winUsb.c ****                                  WIN_DATA_HS_OUT_PACKET_SIZE);
 1186              		.loc 1 551 11 view .LVU332
ARM GAS  C:\Users\ADMINI~1\AppData\Local\Temp\cc0ubKlL.s 			page 38


 1187 001c 0321     		movs	r1, #3
 1188 001e FFF7FEFF 		bl	USBD_LL_PrepareReceive
 1189              	.LVL111:
 1190              	.L84:
 561:Middlewares/ST/STM32_USB_Device_Library/Class/winUsb/Src/usbd_winUsb.c **** 
 1191              		.loc 1 561 1 view .LVU333
 1192 0022 2046     		mov	r0, r4
 1193 0024 10BD     		pop	{r4, pc}
 1194              	.LVL112:
 1195              	.L85:
 557:Middlewares/ST/STM32_USB_Device_Library/Class/winUsb/Src/usbd_winUsb.c ****                                  WIN_DATA_FS_OUT_PACKET_SIZE);
 1196              		.loc 1 557 5 is_stmt 1 view .LVU334
 557:Middlewares/ST/STM32_USB_Device_Library/Class/winUsb/Src/usbd_winUsb.c ****                                  WIN_DATA_FS_OUT_PACKET_SIZE);
 1197              		.loc 1 557 11 is_stmt 0 view .LVU335
 1198 0026 4023     		movs	r3, #64
 1199 0028 D2F80422 		ldr	r2, [r2, #516]
 1200              	.LVL113:
 557:Middlewares/ST/STM32_USB_Device_Library/Class/winUsb/Src/usbd_winUsb.c ****                                  WIN_DATA_FS_OUT_PACKET_SIZE);
 1201              		.loc 1 557 11 view .LVU336
 1202 002c 0321     		movs	r1, #3
 1203 002e FFF7FEFF 		bl	USBD_LL_PrepareReceive
 1204              	.LVL114:
 560:Middlewares/ST/STM32_USB_Device_Library/Class/winUsb/Src/usbd_winUsb.c **** }
 1205              		.loc 1 560 9 view .LVU337
 1206 0032 0024     		movs	r4, #0
 1207 0034 F5E7     		b	.L84
 1208              	.LVL115:
 1209              	.L86:
 546:Middlewares/ST/STM32_USB_Device_Library/Class/winUsb/Src/usbd_winUsb.c ****   }
 1210              		.loc 1 546 12 view .LVU338
 1211 0036 0324     		movs	r4, #3
 1212 0038 F3E7     		b	.L84
 1213              		.cfi_endproc
 1214              	.LFE147:
 1216              		.section	.rodata.WinUsb_Receive_FS.str1.4,"aMS",%progbits,1
 1217              		.align	2
 1218              	.LC0:
 1219 0000 252E3278 		.ascii	"%.2x \000"
 1219      2000
 1220 0006 0000     		.align	2
 1221              	.LC1:
 1222 0008 0D00     		.ascii	"\015\000"
 1223              		.section	.text.WinUsb_Receive_FS,"ax",%progbits
 1224              		.align	1
 1225              		.syntax unified
 1226              		.thumb
 1227              		.thumb_func
 1229              	WinUsb_Receive_FS:
 1230              	.LVL116:
 1231              	.LFB152:
 618:Middlewares/ST/STM32_USB_Device_Library/Class/winUsb/Src/usbd_winUsb.c ****   /* USER CODE BEGIN 6 */
 1232              		.loc 1 618 1 is_stmt 1 view -0
 1233              		.cfi_startproc
 1234              		@ args = 0, pretend = 0, frame = 0
 1235              		@ frame_needed = 0, uses_anonymous_args = 0
 618:Middlewares/ST/STM32_USB_Device_Library/Class/winUsb/Src/usbd_winUsb.c ****   /* USER CODE BEGIN 6 */
 1236              		.loc 1 618 1 is_stmt 0 view .LVU340
ARM GAS  C:\Users\ADMINI~1\AppData\Local\Temp\cc0ubKlL.s 			page 39


 1237 0000 70B5     		push	{r4, r5, r6, lr}
 1238              	.LCFI15:
 1239              		.cfi_def_cfa_offset 16
 1240              		.cfi_offset 4, -16
 1241              		.cfi_offset 5, -12
 1242              		.cfi_offset 6, -8
 1243              		.cfi_offset 14, -4
 1244 0002 0546     		mov	r5, r0
 1245 0004 0E46     		mov	r6, r1
 620:Middlewares/ST/STM32_USB_Device_Library/Class/winUsb/Src/usbd_winUsb.c ****   for(i=0 ; i<*Len; i++)
 1246              		.loc 1 620 3 is_stmt 1 view .LVU341
 621:Middlewares/ST/STM32_USB_Device_Library/Class/winUsb/Src/usbd_winUsb.c ****     printf("%.2x ",Buf[i]);
 1247              		.loc 1 621 3 view .LVU342
 1248              	.LVL117:
 621:Middlewares/ST/STM32_USB_Device_Library/Class/winUsb/Src/usbd_winUsb.c ****     printf("%.2x ",Buf[i]);
 1249              		.loc 1 621 8 is_stmt 0 view .LVU343
 1250 0006 0024     		movs	r4, #0
 621:Middlewares/ST/STM32_USB_Device_Library/Class/winUsb/Src/usbd_winUsb.c ****     printf("%.2x ",Buf[i]);
 1251              		.loc 1 621 3 view .LVU344
 1252 0008 04E0     		b	.L89
 1253              	.LVL118:
 1254              	.L90:
 622:Middlewares/ST/STM32_USB_Device_Library/Class/winUsb/Src/usbd_winUsb.c ****   printf("\r\n");
 1255              		.loc 1 622 5 is_stmt 1 discriminator 3 view .LVU345
 1256 000a 295D     		ldrb	r1, [r5, r4]	@ zero_extendqisi2
 1257 000c 0948     		ldr	r0, .L92
 1258 000e FFF7FEFF 		bl	printf
 1259              	.LVL119:
 621:Middlewares/ST/STM32_USB_Device_Library/Class/winUsb/Src/usbd_winUsb.c ****     printf("%.2x ",Buf[i]);
 1260              		.loc 1 621 21 discriminator 3 view .LVU346
 621:Middlewares/ST/STM32_USB_Device_Library/Class/winUsb/Src/usbd_winUsb.c ****     printf("%.2x ",Buf[i]);
 1261              		.loc 1 621 22 is_stmt 0 discriminator 3 view .LVU347
 1262 0012 0134     		adds	r4, r4, #1
 1263              	.LVL120:
 1264              	.L89:
 621:Middlewares/ST/STM32_USB_Device_Library/Class/winUsb/Src/usbd_winUsb.c ****     printf("%.2x ",Buf[i]);
 1265              		.loc 1 621 13 is_stmt 1 discriminator 1 view .LVU348
 621:Middlewares/ST/STM32_USB_Device_Library/Class/winUsb/Src/usbd_winUsb.c ****     printf("%.2x ",Buf[i]);
 1266              		.loc 1 621 15 is_stmt 0 discriminator 1 view .LVU349
 1267 0014 3368     		ldr	r3, [r6]
 621:Middlewares/ST/STM32_USB_Device_Library/Class/winUsb/Src/usbd_winUsb.c ****     printf("%.2x ",Buf[i]);
 1268              		.loc 1 621 3 discriminator 1 view .LVU350
 1269 0016 A342     		cmp	r3, r4
 1270 0018 F7D8     		bhi	.L90
 623:Middlewares/ST/STM32_USB_Device_Library/Class/winUsb/Src/usbd_winUsb.c ****   USBD_WinUsb_SetRxBuffer(&hUsbDeviceHS, &Buf[0]);
 1271              		.loc 1 623 3 is_stmt 1 view .LVU351
 1272 001a 0748     		ldr	r0, .L92+4
 1273 001c FFF7FEFF 		bl	puts
 1274              	.LVL121:
 624:Middlewares/ST/STM32_USB_Device_Library/Class/winUsb/Src/usbd_winUsb.c ****   USBD_WinUsb_ReceivePacket(&hUsbDeviceHS);
 1275              		.loc 1 624 3 view .LVU352
 1276 0020 064C     		ldr	r4, .L92+8
 1277              	.LVL122:
 624:Middlewares/ST/STM32_USB_Device_Library/Class/winUsb/Src/usbd_winUsb.c ****   USBD_WinUsb_ReceivePacket(&hUsbDeviceHS);
 1278              		.loc 1 624 3 is_stmt 0 view .LVU353
 1279 0022 2946     		mov	r1, r5
 1280 0024 2046     		mov	r0, r4
ARM GAS  C:\Users\ADMINI~1\AppData\Local\Temp\cc0ubKlL.s 			page 40


 1281 0026 FFF7FEFF 		bl	USBD_WinUsb_SetRxBuffer
 1282              	.LVL123:
 625:Middlewares/ST/STM32_USB_Device_Library/Class/winUsb/Src/usbd_winUsb.c ****   return (USBD_OK);
 1283              		.loc 1 625 3 is_stmt 1 view .LVU354
 1284 002a 2046     		mov	r0, r4
 1285 002c FFF7FEFF 		bl	USBD_WinUsb_ReceivePacket
 1286              	.LVL124:
 626:Middlewares/ST/STM32_USB_Device_Library/Class/winUsb/Src/usbd_winUsb.c ****   /* USER CODE END 6 */
 1287              		.loc 1 626 3 view .LVU355
 628:Middlewares/ST/STM32_USB_Device_Library/Class/winUsb/Src/usbd_winUsb.c **** static int8_t WinUsb_TransmitCplt_FS(uint8_t *Buf, uint32_t *Len, uint8_t epnum)
 1288              		.loc 1 628 1 is_stmt 0 view .LVU356
 1289 0030 0020     		movs	r0, #0
 1290 0032 70BD     		pop	{r4, r5, r6, pc}
 1291              	.LVL125:
 1292              	.L93:
 628:Middlewares/ST/STM32_USB_Device_Library/Class/winUsb/Src/usbd_winUsb.c **** static int8_t WinUsb_TransmitCplt_FS(uint8_t *Buf, uint32_t *Len, uint8_t epnum)
 1293              		.loc 1 628 1 view .LVU357
 1294              		.align	2
 1295              	.L92:
 1296 0034 00000000 		.word	.LC0
 1297 0038 08000000 		.word	.LC1
 1298 003c 00000000 		.word	hUsbDeviceHS
 1299              		.cfi_endproc
 1300              	.LFE152:
 1302              		.section	.text.USBD_WinUsb_TransmitPacket,"ax",%progbits
 1303              		.align	1
 1304              		.global	USBD_WinUsb_TransmitPacket
 1305              		.syntax unified
 1306              		.thumb
 1307              		.thumb_func
 1309              	USBD_WinUsb_TransmitPacket:
 1310              	.LVL126:
 1311              	.LFB148:
 564:Middlewares/ST/STM32_USB_Device_Library/Class/winUsb/Src/usbd_winUsb.c ****   USBD_WinUsb_HandleTypeDef *hcdc = (USBD_WinUsb_HandleTypeDef *)pdev->pClassDataCmsit[pdev->classI
 1312              		.loc 1 564 1 is_stmt 1 view -0
 1313              		.cfi_startproc
 1314              		@ args = 0, pretend = 0, frame = 0
 1315              		@ frame_needed = 0, uses_anonymous_args = 0
 564:Middlewares/ST/STM32_USB_Device_Library/Class/winUsb/Src/usbd_winUsb.c ****   USBD_WinUsb_HandleTypeDef *hcdc = (USBD_WinUsb_HandleTypeDef *)pdev->pClassDataCmsit[pdev->classI
 1316              		.loc 1 564 1 is_stmt 0 view .LVU359
 1317 0000 08B5     		push	{r3, lr}
 1318              	.LCFI16:
 1319              		.cfi_def_cfa_offset 8
 1320              		.cfi_offset 3, -8
 1321              		.cfi_offset 14, -4
 565:Middlewares/ST/STM32_USB_Device_Library/Class/winUsb/Src/usbd_winUsb.c ****   USBD_StatusTypeDef ret = USBD_BUSY;
 1322              		.loc 1 565 3 is_stmt 1 view .LVU360
 565:Middlewares/ST/STM32_USB_Device_Library/Class/winUsb/Src/usbd_winUsb.c ****   USBD_StatusTypeDef ret = USBD_BUSY;
 1323              		.loc 1 565 92 is_stmt 0 view .LVU361
 1324 0002 D0F8F832 		ldr	r3, [r0, #760]
 565:Middlewares/ST/STM32_USB_Device_Library/Class/winUsb/Src/usbd_winUsb.c ****   USBD_StatusTypeDef ret = USBD_BUSY;
 1325              		.loc 1 565 30 view .LVU362
 1326 0006 B233     		adds	r3, r3, #178
 1327 0008 00EB8303 		add	r3, r0, r3, lsl #2
 1328 000c 5A68     		ldr	r2, [r3, #4]
 1329              	.LVL127:
 566:Middlewares/ST/STM32_USB_Device_Library/Class/winUsb/Src/usbd_winUsb.c **** 
ARM GAS  C:\Users\ADMINI~1\AppData\Local\Temp\cc0ubKlL.s 			page 41


 1330              		.loc 1 566 3 is_stmt 1 view .LVU363
 568:Middlewares/ST/STM32_USB_Device_Library/Class/winUsb/Src/usbd_winUsb.c ****   {
 1331              		.loc 1 568 3 view .LVU364
 568:Middlewares/ST/STM32_USB_Device_Library/Class/winUsb/Src/usbd_winUsb.c ****   {
 1332              		.loc 1 568 6 is_stmt 0 view .LVU365
 1333 000e 9AB1     		cbz	r2, .L96
 573:Middlewares/ST/STM32_USB_Device_Library/Class/winUsb/Src/usbd_winUsb.c ****   {
 1334              		.loc 1 573 3 is_stmt 1 view .LVU366
 573:Middlewares/ST/STM32_USB_Device_Library/Class/winUsb/Src/usbd_winUsb.c ****   {
 1335              		.loc 1 573 11 is_stmt 0 view .LVU367
 1336 0010 D2F81432 		ldr	r3, [r2, #532]
 573:Middlewares/ST/STM32_USB_Device_Library/Class/winUsb/Src/usbd_winUsb.c ****   {
 1337              		.loc 1 573 6 view .LVU368
 1338 0014 0BB1     		cbz	r3, .L99
 566:Middlewares/ST/STM32_USB_Device_Library/Class/winUsb/Src/usbd_winUsb.c **** 
 1339              		.loc 1 566 22 view .LVU369
 1340 0016 0120     		movs	r0, #1
 1341              	.LVL128:
 1342              	.L95:
 588:Middlewares/ST/STM32_USB_Device_Library/Class/winUsb/Src/usbd_winUsb.c **** static int8_t WinUsb_Init_FS(void)
 1343              		.loc 1 588 1 view .LVU370
 1344 0018 08BD     		pop	{r3, pc}
 1345              	.LVL129:
 1346              	.L99:
 576:Middlewares/ST/STM32_USB_Device_Library/Class/winUsb/Src/usbd_winUsb.c **** 
 1347              		.loc 1 576 5 is_stmt 1 view .LVU371
 576:Middlewares/ST/STM32_USB_Device_Library/Class/winUsb/Src/usbd_winUsb.c **** 
 1348              		.loc 1 576 19 is_stmt 0 view .LVU372
 1349 001a 0123     		movs	r3, #1
 1350 001c C2F81432 		str	r3, [r2, #532]
 579:Middlewares/ST/STM32_USB_Device_Library/Class/winUsb/Src/usbd_winUsb.c **** 
 1351              		.loc 1 579 5 is_stmt 1 view .LVU373
 579:Middlewares/ST/STM32_USB_Device_Library/Class/winUsb/Src/usbd_winUsb.c **** 
 1352              		.loc 1 579 58 is_stmt 0 view .LVU374
 1353 0020 D2F81032 		ldr	r3, [r2, #528]
 579:Middlewares/ST/STM32_USB_Device_Library/Class/winUsb/Src/usbd_winUsb.c **** 
 1354              		.loc 1 579 52 view .LVU375
 1355 0024 4365     		str	r3, [r0, #84]
 582:Middlewares/ST/STM32_USB_Device_Library/Class/winUsb/Src/usbd_winUsb.c **** 
 1356              		.loc 1 582 5 is_stmt 1 view .LVU376
 582:Middlewares/ST/STM32_USB_Device_Library/Class/winUsb/Src/usbd_winUsb.c **** 
 1357              		.loc 1 582 11 is_stmt 0 view .LVU377
 1358 0026 D2F81032 		ldr	r3, [r2, #528]
 1359 002a D2F80822 		ldr	r2, [r2, #520]
 1360              	.LVL130:
 582:Middlewares/ST/STM32_USB_Device_Library/Class/winUsb/Src/usbd_winUsb.c **** 
 1361              		.loc 1 582 11 view .LVU378
 1362 002e 8321     		movs	r1, #131
 1363 0030 FFF7FEFF 		bl	USBD_LL_Transmit
 1364              	.LVL131:
 584:Middlewares/ST/STM32_USB_Device_Library/Class/winUsb/Src/usbd_winUsb.c ****   }
 1365              		.loc 1 584 5 is_stmt 1 view .LVU379
 584:Middlewares/ST/STM32_USB_Device_Library/Class/winUsb/Src/usbd_winUsb.c ****   }
 1366              		.loc 1 584 9 is_stmt 0 view .LVU380
 1367 0034 0020     		movs	r0, #0
 1368 0036 EFE7     		b	.L95
 1369              	.LVL132:
ARM GAS  C:\Users\ADMINI~1\AppData\Local\Temp\cc0ubKlL.s 			page 42


 1370              	.L96:
 570:Middlewares/ST/STM32_USB_Device_Library/Class/winUsb/Src/usbd_winUsb.c ****   }
 1371              		.loc 1 570 12 view .LVU381
 1372 0038 0320     		movs	r0, #3
 1373              	.LVL133:
 570:Middlewares/ST/STM32_USB_Device_Library/Class/winUsb/Src/usbd_winUsb.c ****   }
 1374              		.loc 1 570 12 view .LVU382
 1375 003a EDE7     		b	.L95
 1376              		.cfi_endproc
 1377              	.LFE148:
 1379              		.section	.text.WinUsb_Transmit_FS,"ax",%progbits
 1380              		.align	1
 1381              		.global	WinUsb_Transmit_FS
 1382              		.syntax unified
 1383              		.thumb
 1384              		.thumb_func
 1386              	WinUsb_Transmit_FS:
 1387              	.LVL134:
 1388              	.LFB151:
 605:Middlewares/ST/STM32_USB_Device_Library/Class/winUsb/Src/usbd_winUsb.c ****   uint8_t result = USBD_OK;
 1389              		.loc 1 605 1 is_stmt 1 view -0
 1390              		.cfi_startproc
 1391              		@ args = 0, pretend = 0, frame = 0
 1392              		@ frame_needed = 0, uses_anonymous_args = 0
 606:Middlewares/ST/STM32_USB_Device_Library/Class/winUsb/Src/usbd_winUsb.c ****   /* USER CODE BEGIN 7 */
 1393              		.loc 1 606 3 view .LVU384
 608:Middlewares/ST/STM32_USB_Device_Library/Class/winUsb/Src/usbd_winUsb.c ****   if (hcdc->TxState != 0){
 1394              		.loc 1 608 3 view .LVU385
 608:Middlewares/ST/STM32_USB_Device_Library/Class/winUsb/Src/usbd_winUsb.c ****   if (hcdc->TxState != 0){
 1395              		.loc 1 608 30 is_stmt 0 view .LVU386
 1396 0000 094B     		ldr	r3, .L108
 1397 0002 D3F8C832 		ldr	r3, [r3, #712]
 1398              	.LVL135:
 609:Middlewares/ST/STM32_USB_Device_Library/Class/winUsb/Src/usbd_winUsb.c ****     return USBD_BUSY;
 1399              		.loc 1 609 3 is_stmt 1 view .LVU387
 609:Middlewares/ST/STM32_USB_Device_Library/Class/winUsb/Src/usbd_winUsb.c ****     return USBD_BUSY;
 1400              		.loc 1 609 11 is_stmt 0 view .LVU388
 1401 0006 D3F81432 		ldr	r3, [r3, #532]
 1402              	.LVL136:
 609:Middlewares/ST/STM32_USB_Device_Library/Class/winUsb/Src/usbd_winUsb.c ****     return USBD_BUSY;
 1403              		.loc 1 609 6 view .LVU389
 1404 000a 0BB1     		cbz	r3, .L107
 610:Middlewares/ST/STM32_USB_Device_Library/Class/winUsb/Src/usbd_winUsb.c ****   }
 1405              		.loc 1 610 12 view .LVU390
 1406 000c 0120     		movs	r0, #1
 1407              	.LVL137:
 616:Middlewares/ST/STM32_USB_Device_Library/Class/winUsb/Src/usbd_winUsb.c **** static int8_t WinUsb_Receive_FS(uint8_t* Buf, uint32_t *Len)
 1408              		.loc 1 616 1 view .LVU391
 1409 000e 7047     		bx	lr
 1410              	.LVL138:
 1411              	.L107:
 605:Middlewares/ST/STM32_USB_Device_Library/Class/winUsb/Src/usbd_winUsb.c ****   uint8_t result = USBD_OK;
 1412              		.loc 1 605 1 view .LVU392
 1413 0010 10B5     		push	{r4, lr}
 1414              	.LCFI17:
 1415              		.cfi_def_cfa_offset 8
 1416              		.cfi_offset 4, -8
ARM GAS  C:\Users\ADMINI~1\AppData\Local\Temp\cc0ubKlL.s 			page 43


 1417              		.cfi_offset 14, -4
 612:Middlewares/ST/STM32_USB_Device_Library/Class/winUsb/Src/usbd_winUsb.c ****   result = USBD_WinUsb_TransmitPacket(&hUsbDeviceHS);
 1418              		.loc 1 612 3 is_stmt 1 view .LVU393
 1419 0012 054C     		ldr	r4, .L108
 1420              	.LVL139:
 612:Middlewares/ST/STM32_USB_Device_Library/Class/winUsb/Src/usbd_winUsb.c ****   result = USBD_WinUsb_TransmitPacket(&hUsbDeviceHS);
 1421              		.loc 1 612 3 is_stmt 0 view .LVU394
 1422 0014 0A46     		mov	r2, r1
 1423 0016 0146     		mov	r1, r0
 1424              	.LVL140:
 612:Middlewares/ST/STM32_USB_Device_Library/Class/winUsb/Src/usbd_winUsb.c ****   result = USBD_WinUsb_TransmitPacket(&hUsbDeviceHS);
 1425              		.loc 1 612 3 view .LVU395
 1426 0018 2046     		mov	r0, r4
 1427              	.LVL141:
 612:Middlewares/ST/STM32_USB_Device_Library/Class/winUsb/Src/usbd_winUsb.c ****   result = USBD_WinUsb_TransmitPacket(&hUsbDeviceHS);
 1428              		.loc 1 612 3 view .LVU396
 1429 001a FFF7FEFF 		bl	USBD_WinUsb_SetTxBuffer
 1430              	.LVL142:
 613:Middlewares/ST/STM32_USB_Device_Library/Class/winUsb/Src/usbd_winUsb.c ****   /* USER CODE END 7 */
 1431              		.loc 1 613 3 is_stmt 1 view .LVU397
 613:Middlewares/ST/STM32_USB_Device_Library/Class/winUsb/Src/usbd_winUsb.c ****   /* USER CODE END 7 */
 1432              		.loc 1 613 12 is_stmt 0 view .LVU398
 1433 001e 2046     		mov	r0, r4
 1434 0020 FFF7FEFF 		bl	USBD_WinUsb_TransmitPacket
 1435              	.LVL143:
 615:Middlewares/ST/STM32_USB_Device_Library/Class/winUsb/Src/usbd_winUsb.c **** }
 1436              		.loc 1 615 3 is_stmt 1 view .LVU399
 616:Middlewares/ST/STM32_USB_Device_Library/Class/winUsb/Src/usbd_winUsb.c **** static int8_t WinUsb_Receive_FS(uint8_t* Buf, uint32_t *Len)
 1437              		.loc 1 616 1 is_stmt 0 view .LVU400
 1438 0024 10BD     		pop	{r4, pc}
 1439              	.L109:
 1440 0026 00BF     		.align	2
 1441              	.L108:
 1442 0028 00000000 		.word	hUsbDeviceHS
 1443              		.cfi_endproc
 1444              	.LFE151:
 1446              		.section	.text.USBD_WinUsb_RegisterInterface,"ax",%progbits
 1447              		.align	1
 1448              		.global	USBD_WinUsb_RegisterInterface
 1449              		.syntax unified
 1450              		.thumb
 1451              		.thumb_func
 1453              	USBD_WinUsb_RegisterInterface:
 1454              	.LVL144:
 1455              	.LFB154:
 639:Middlewares/ST/STM32_USB_Device_Library/Class/winUsb/Src/usbd_winUsb.c **** USBD_WinUsb_ItfTypeDef USBD_WinUsb_Interface_fops_FS =
 640:Middlewares/ST/STM32_USB_Device_Library/Class/winUsb/Src/usbd_winUsb.c **** {
 641:Middlewares/ST/STM32_USB_Device_Library/Class/winUsb/Src/usbd_winUsb.c ****   WinUsb_Init_FS,
 642:Middlewares/ST/STM32_USB_Device_Library/Class/winUsb/Src/usbd_winUsb.c ****   WinUsb_DeInit_FS, 
 643:Middlewares/ST/STM32_USB_Device_Library/Class/winUsb/Src/usbd_winUsb.c ****   WinUsb_Receive_FS,
 644:Middlewares/ST/STM32_USB_Device_Library/Class/winUsb/Src/usbd_winUsb.c ****   WinUsb_TransmitCplt_FS
 645:Middlewares/ST/STM32_USB_Device_Library/Class/winUsb/Src/usbd_winUsb.c **** };
 646:Middlewares/ST/STM32_USB_Device_Library/Class/winUsb/Src/usbd_winUsb.c **** 
 647:Middlewares/ST/STM32_USB_Device_Library/Class/winUsb/Src/usbd_winUsb.c **** 
 648:Middlewares/ST/STM32_USB_Device_Library/Class/winUsb/Src/usbd_winUsb.c **** uint8_t USBD_WinUsb_RegisterInterface(USBD_HandleTypeDef *pdev,
 649:Middlewares/ST/STM32_USB_Device_Library/Class/winUsb/Src/usbd_winUsb.c ****                                    USBD_WinUsb_ItfTypeDef *fops)
 650:Middlewares/ST/STM32_USB_Device_Library/Class/winUsb/Src/usbd_winUsb.c **** {
ARM GAS  C:\Users\ADMINI~1\AppData\Local\Temp\cc0ubKlL.s 			page 44


 1456              		.loc 1 650 1 is_stmt 1 view -0
 1457              		.cfi_startproc
 1458              		@ args = 0, pretend = 0, frame = 0
 1459              		@ frame_needed = 0, uses_anonymous_args = 0
 1460              		@ link register save eliminated.
 651:Middlewares/ST/STM32_USB_Device_Library/Class/winUsb/Src/usbd_winUsb.c ****   if (fops == NULL)
 1461              		.loc 1 651 3 view .LVU402
 1462              		.loc 1 651 6 is_stmt 0 view .LVU403
 1463 0000 81B1     		cbz	r1, .L112
 650:Middlewares/ST/STM32_USB_Device_Library/Class/winUsb/Src/usbd_winUsb.c ****   if (fops == NULL)
 1464              		.loc 1 650 1 view .LVU404
 1465 0002 10B4     		push	{r4}
 1466              	.LCFI18:
 1467              		.cfi_def_cfa_offset 4
 1468              		.cfi_offset 4, -4
 652:Middlewares/ST/STM32_USB_Device_Library/Class/winUsb/Src/usbd_winUsb.c ****   {
 653:Middlewares/ST/STM32_USB_Device_Library/Class/winUsb/Src/usbd_winUsb.c ****     return (uint8_t)USBD_FAIL;
 654:Middlewares/ST/STM32_USB_Device_Library/Class/winUsb/Src/usbd_winUsb.c ****   }
 655:Middlewares/ST/STM32_USB_Device_Library/Class/winUsb/Src/usbd_winUsb.c ****   
 656:Middlewares/ST/STM32_USB_Device_Library/Class/winUsb/Src/usbd_winUsb.c ****   pdev->classId --;
 1469              		.loc 1 656 3 is_stmt 1 view .LVU405
 1470              		.loc 1 656 7 is_stmt 0 view .LVU406
 1471 0004 D0F8F832 		ldr	r3, [r0, #760]
 1472              		.loc 1 656 17 view .LVU407
 1473 0008 5A1E     		subs	r2, r3, #1
 1474 000a C0F8F822 		str	r2, [r0, #760]
 657:Middlewares/ST/STM32_USB_Device_Library/Class/winUsb/Src/usbd_winUsb.c ****   pdev->pUserData[pdev->classId] = fops;
 1475              		.loc 1 657 3 is_stmt 1 view .LVU408
 1476              		.loc 1 657 34 is_stmt 0 view .LVU409
 1477 000e 03F1B502 		add	r2, r3, #181
 1478 0012 00EB8202 		add	r2, r0, r2, lsl #2
 1479 0016 5160     		str	r1, [r2, #4]
 658:Middlewares/ST/STM32_USB_Device_Library/Class/winUsb/Src/usbd_winUsb.c ****  
 659:Middlewares/ST/STM32_USB_Device_Library/Class/winUsb/Src/usbd_winUsb.c ****   pdev->classId ++;
 1480              		.loc 1 659 3 is_stmt 1 view .LVU410
 1481              		.loc 1 659 17 is_stmt 0 view .LVU411
 1482 0018 C0F8F832 		str	r3, [r0, #760]
 660:Middlewares/ST/STM32_USB_Device_Library/Class/winUsb/Src/usbd_winUsb.c ****   return (uint8_t)USBD_OK;
 1483              		.loc 1 660 3 is_stmt 1 view .LVU412
 1484              		.loc 1 660 10 is_stmt 0 view .LVU413
 1485 001c 0020     		movs	r0, #0
 1486              	.LVL145:
 661:Middlewares/ST/STM32_USB_Device_Library/Class/winUsb/Src/usbd_winUsb.c **** }
 1487              		.loc 1 661 1 view .LVU414
 1488 001e 5DF8044B 		ldr	r4, [sp], #4
 1489              	.LCFI19:
 1490              		.cfi_restore 4
 1491              		.cfi_def_cfa_offset 0
 1492 0022 7047     		bx	lr
 1493              	.LVL146:
 1494              	.L112:
 653:Middlewares/ST/STM32_USB_Device_Library/Class/winUsb/Src/usbd_winUsb.c ****   }
 1495              		.loc 1 653 12 view .LVU415
 1496 0024 0320     		movs	r0, #3
 1497              	.LVL147:
 1498              		.loc 1 661 1 view .LVU416
 1499 0026 7047     		bx	lr
ARM GAS  C:\Users\ADMINI~1\AppData\Local\Temp\cc0ubKlL.s 			page 45


 1500              		.cfi_endproc
 1501              	.LFE154:
 1503              		.global	USBD_WinUsb_Interface_fops_FS
 1504              		.global	WinUsbTxBufferFS
 1505              		.global	WinUsbRxBufferFS
 1506              		.global	USBD_WinUSBComm_Extended_Properties_OS_Desc
 1507              		.global	USBD_WinUSBComm_Extended_Compat_ID_OS_Desc
 1508              		.global	USBD_WinUsb
 1509              		.section	.bss.WinUsbRxBufferFS,"aw",%nobits
 1510              		.align	2
 1511              		.set	.LANCHOR3,. + 0
 1514              	WinUsbRxBufferFS:
 1515 0000 00000000 		.space	2048
 1515      00000000 
 1515      00000000 
 1515      00000000 
 1515      00000000 
 1516              		.section	.bss.WinUsbTxBufferFS,"aw",%nobits
 1517              		.align	2
 1518              		.set	.LANCHOR2,. + 0
 1521              	WinUsbTxBufferFS:
 1522 0000 00000000 		.space	2048
 1522      00000000 
 1522      00000000 
 1522      00000000 
 1522      00000000 
 1523              		.section	.data.USBD_WinUSBComm_Extended_Compat_ID_OS_Desc,"aw"
 1524              		.align	2
 1525              		.set	.LANCHOR0,. + 0
 1528              	USBD_WinUSBComm_Extended_Compat_ID_OS_Desc:
 1529 0000 28000000 		.ascii	"(\000\000\000\000\001\004\000\001\000\000\000\000\000"
 1529      00010400 
 1529      01000000 
 1529      0000
 1530 000e 00000200 		.ascii	"\000\000\002\000WINUSB\000\000\000\000\000\000\000\000"
 1530      57494E55 
 1530      53420000 
 1530      00000000 
 1530      0000
 1531 0020 00000000 		.ascii	"\000\000\000\000\000\000\000\000"
 1531      00000000 
 1532              		.section	.data.USBD_WinUSBComm_Extended_Properties_OS_Desc,"aw"
 1533              		.align	2
 1534              		.set	.LANCHOR1,. + 0
 1537              	USBD_WinUSBComm_Extended_Properties_OS_Desc:
 1538 0000 B6000000 		.ascii	"\266\000\000\000\000\001\005\000\002\000\204\000\000"
 1538      00010500 
 1538      02008400 
 1538      00
 1539 000d 00010000 		.ascii	"\000\001\000\000\000(\000D\000e\000v\000i\000c\000e"
 1539      00280044 
 1539      00650076 
 1539      00690063 
 1539      0065
 1540 001f 0049006E 		.ascii	"\000I\000n\000t\000e\000r\000f\000a\000c\000e\000G\000"
 1540      00740065 
 1540      00720066 
ARM GAS  C:\Users\ADMINI~1\AppData\Local\Temp\cc0ubKlL.s 			page 46


 1540      00610063 
 1540      00650047 
 1541 0034 55004900 		.ascii	"U\000I\000D\000\000\000N\000\000\000{\000E\000A\000"
 1541      44000000 
 1541      4E000000 
 1541      7B004500 
 1541      4100
 1542 0046 30004200 		.ascii	"0\000B\000D\0005\000C\0003\000-\0005\0000\000F\0003"
 1542      44003500 
 1542      43003300 
 1542      2D003500 
 1542      30004600 
 1543 005b 002D0034 		.ascii	"\000-\0004\0008\0008\0008\000-\0008\0004\000B\0004\000"
 1543      00380038 
 1543      0038002D 
 1543      00380034 
 1543      00420034 
 1544 0070 2D003700 		.ascii	"-\0007\0004\000E\0005\0000\000E\0001\0006\0004\0009"
 1544      34004500 
 1544      35003000 
 1544      45003100 
 1544      36003400 
 1545 0085 00440042 		.ascii	"\000D\000B\000}\000\000\000>\000\000\000\001\000\000"
 1545      007D0000 
 1545      003E0000 
 1545      00010000 
 1546 0095 000C004C 		.ascii	"\000\014\000L\000a\000b\000e\000l\000\000\000$\000\000"
 1546      00610062 
 1546      0065006C 
 1546      00000024 
 1546      0000
 1547 00a7 004F0044 		.ascii	"\000O\000D\000r\000i\000v\000e\000\000\000"
 1547      00720069 
 1547      00760065 
 1547      000000
 1548              		.section	.data.USBD_WinUsb,"aw"
 1549              		.align	2
 1552              	USBD_WinUsb:
 1553 0000 00000000 		.word	USBD_WinUsb_Init
 1554 0004 00000000 		.word	USBD_WinUsb_DeInit
 1555 0008 00000000 		.word	USBD_WinUsb_Setup
 1556 000c 00000000 		.word	0
 1557 0010 00000000 		.word	USBD_WinUsb_EP0_RxReady
 1558 0014 00000000 		.word	USBD_WinUsb_DataIn
 1559 0018 00000000 		.word	USBD_WinUsb_DataOut
 1560 001c 00000000 		.word	0
 1561 0020 00000000 		.word	0
 1562 0024 00000000 		.word	0
 1563 0028 00000000 		.word	0
 1564 002c 00000000 		.word	0
 1565 0030 00000000 		.word	0
 1566 0034 00000000 		.word	0
 1567 0038 00000000 		.word	USBD_UsrStrDescriptor
 1568              		.section	.data.USBD_WinUsb_Interface_fops_FS,"aw"
 1569              		.align	2
 1572              	USBD_WinUsb_Interface_fops_FS:
 1573 0000 00000000 		.word	WinUsb_Init_FS
ARM GAS  C:\Users\ADMINI~1\AppData\Local\Temp\cc0ubKlL.s 			page 47


 1574 0004 00000000 		.word	WinUsb_DeInit_FS
 1575 0008 00000000 		.word	WinUsb_Receive_FS
 1576 000c 00000000 		.word	WinUsb_TransmitCplt_FS
 1577              		.text
 1578              	.Letext0:
 1579              		.file 2 "e:\\program files (x86)\\gnu arm embedded toolchain\\10 2021.10\\arm-none-eabi\\include\\
 1580              		.file 3 "e:\\program files (x86)\\gnu arm embedded toolchain\\10 2021.10\\arm-none-eabi\\include\\
 1581              		.file 4 "Drivers/CMSIS/Device/ST/STM32F4xx/Include/stm32f405xx.h"
 1582              		.file 5 "Drivers/STM32F4xx_HAL_Driver/Inc/stm32f4xx_hal_def.h"
 1583              		.file 6 "Drivers/STM32F4xx_HAL_Driver/Inc/stm32f4xx_ll_usb.h"
 1584              		.file 7 "Drivers/STM32F4xx_HAL_Driver/Inc/stm32f4xx_hal_pcd.h"
 1585              		.file 8 "Middlewares/ST/STM32_USB_Device_Library/Core/Inc/usbd_def.h"
 1586              		.file 9 "Middlewares/ST/STM32_USB_Device_Library/Class/winUsb/Inc/usbd_winUsb.h"
 1587              		.file 10 "e:\\program files (x86)\\gnu arm embedded toolchain\\10 2021.10\\arm-none-eabi\\include\
 1588              		.file 11 "Middlewares/ST/STM32_USB_Device_Library/Core/Inc/usbd_core.h"
 1589              		.file 12 "Middlewares/ST/STM32_USB_Device_Library/Core/Inc/usbd_ctlreq.h"
 1590              		.file 13 "Middlewares/ST/STM32_USB_Device_Library/Core/Inc/usbd_ioreq.h"
 1591              		.file 14 "e:\\program files (x86)\\gnu arm embedded toolchain\\10 2021.10\\arm-none-eabi\\include\
 1592              		.file 15 "<built-in>"
ARM GAS  C:\Users\ADMINI~1\AppData\Local\Temp\cc0ubKlL.s 			page 48

