ARM GAS  C:\Users\ADMINI~1\AppData\Local\Temp\cctm9Caj.s 			page 1


   1              		.cpu cortex-m4
   2              		.arch armv7e-m
   3              		.fpu fpv4-sp-d16
   4              		.eabi_attribute 27, 1
   5              		.eabi_attribute 28, 1
   6              		.eabi_attribute 20, 1
   7              		.eabi_attribute 21, 1
   8              		.eabi_attribute 23, 3
   9              		.eabi_attribute 24, 1
  10              		.eabi_attribute 25, 1
  11              		.eabi_attribute 26, 1
  12              		.eabi_attribute 30, 1
  13              		.eabi_attribute 34, 1
  14              		.eabi_attribute 18, 4
  15              		.file	"user.cpp"
  16              		.text
  17              	.Ltext0:
  18              		.cfi_sections	.debug_frame
  19              		.section	.text._ZN5RobotC2EP19__SPI_HandleTypeDefP17I2C_HandleTypeDef,"axG",%progbits,_ZN5RobotC5E
  20              		.align	1
  21              		.weak	_ZN5RobotC2EP19__SPI_HandleTypeDefP17I2C_HandleTypeDef
  22              		.syntax unified
  23              		.thumb
  24              		.thumb_func
  26              	_ZN5RobotC2EP19__SPI_HandleTypeDefP17I2C_HandleTypeDef:
  27              		.fnstart
  28              	.LVL0:
  29              	.LFB369:
  30              		.file 1 "user/robot.h"
   1:user/robot.h  **** #ifndef ELECTRONBOT_FW_ROBOT_H
   2:user/robot.h  **** #define ELECTRONBOT_FW_ROBOT_H
   3:user/robot.h  **** 
   4:user/robot.h  **** #include "stm32f4xx.h"
   5:user/robot.h  **** #include "screen.h"
   6:user/robot.h  **** #include "i2c.h"
   7:user/robot.h  **** #include "common_inc.h"
   8:user/robot.h  **** 
   9:user/robot.h  **** 
  10:user/robot.h  **** #define ANY 0
  11:user/robot.h  **** 
  12:user/robot.h  **** class Robot
  13:user/robot.h  **** {
  14:user/robot.h  **** public:
  15:user/robot.h  ****     Robot(SPI_HandleTypeDef* _screenSpi, I2C_HandleTypeDef* _motorI2c) :
  31              		.loc 1 15 5 view -0
  32              		.cfi_startproc
  33              		@ args = 0, pretend = 0, frame = 0
  34              		@ frame_needed = 0, uses_anonymous_args = 0
  35              		.loc 1 15 5 is_stmt 0 view .LVU1
  36 0000 38B5     		push	{r3, r4, r5, lr}
  37              		.save {r3, r4, r5, lr}
  38              	.LCFI0:
  39              		.cfi_def_cfa_offset 16
  40              		.cfi_offset 3, -16
  41              		.cfi_offset 4, -12
  42              		.cfi_offset 5, -8
  43              		.cfi_offset 14, -4
ARM GAS  C:\Users\ADMINI~1\AppData\Local\Temp\cctm9Caj.s 			page 2


  44 0002 0546     		mov	r5, r0
  45              	.LBB9:
  16:user/robot.h  ****         screenSpi(_screenSpi), motorI2c(_motorI2c)
  46              		.loc 1 16 50 view .LVU2
  47 0004 0346     		mov	r3, r0
  48 0006 3A48     		ldr	r0, .L6
  49              	.LVL1:
  50              		.loc 1 16 50 view .LVU3
  51 0008 43F8040B 		str	r0, [r3], #4
  52              	.LVL2:
  53              		.loc 1 16 50 view .LVU4
  54 000c 4FF0060C 		mov	ip, #6
  55 0010 04E0     		b	.L3
  56              	.L5:
  57              	.LVL3:
  58              	.LBB10:
  59              	.LBI10:
  17:user/robot.h  ****     {
  18:user/robot.h  ****         lcd = new Screen(screenSpi);
  19:user/robot.h  **** 
  20:user/robot.h  ****         /********* Need to adjust parameters for specific hardware *********/
  21:user/robot.h  ****         joint[ANY] = JointStatus_t{
  22:user/robot.h  ****             0,
  23:user/robot.h  ****             -180,
  24:user/robot.h  ****             180,
  25:user/robot.h  ****             90
  26:user/robot.h  ****         };
  27:user/robot.h  **** 
  28:user/robot.h  ****         joint[1] = JointStatus_t{ // Head
  29:user/robot.h  ****             2,
  30:user/robot.h  ****             70,
  31:user/robot.h  ****             95,
  32:user/robot.h  ****             0,
  33:user/robot.h  ****             -15,
  34:user/robot.h  ****             15,
  35:user/robot.h  ****             true
  36:user/robot.h  ****             // electron.SetJointId(electron.joint[ANY], 2);
  37:user/robot.h  ****             // electron.SetJointInitAngle(electron.joint[ANY], 0);
  38:user/robot.h  ****             // electron.SetJointKp(electron.joint[ANY], 30);
  39:user/robot.h  ****             // electron.SetJointKi(electron.joint[ANY], 0.4);
  40:user/robot.h  ****             // electron.SetJointKd(electron.joint[ANY], 200);
  41:user/robot.h  ****             // electron.SetJointTorqueLimit(electron.joint[ANY], 0.5);
  42:user/robot.h  ****             // electron.SetJointEnable(electron.joint[ANY], true);
  43:user/robot.h  ****         };
  44:user/robot.h  **** 
  45:user/robot.h  ****         joint[2] = JointStatus_t{ // Left arm roll
  46:user/robot.h  ****             4,
  47:user/robot.h  ****             -9,
  48:user/robot.h  ****             3,
  49:user/robot.h  ****             0,
  50:user/robot.h  ****             0,
  51:user/robot.h  ****             30,
  52:user/robot.h  ****             false
  53:user/robot.h  ****             // electron.SetJointId(electron.joint[ANY], 4);
  54:user/robot.h  ****             // electron.SetJointInitAngle(electron.joint[ANY], 0);
  55:user/robot.h  ****             // electron.SetJointKp(electron.joint[ANY], 50);
  56:user/robot.h  ****             // electron.SetJointKi(electron.joint[ANY], 0.8);
ARM GAS  C:\Users\ADMINI~1\AppData\Local\Temp\cctm9Caj.s 			page 3


  57:user/robot.h  ****             // electron.SetJointKd(electron.joint[ANY], 600);
  58:user/robot.h  ****             // electron.SetJointTorqueLimit(electron.joint[ANY], 1);
  59:user/robot.h  ****             // electron.SetJointEnable(electron.joint[ANY], true);
  60:user/robot.h  ****         };
  61:user/robot.h  **** 
  62:user/robot.h  ****         joint[3] = JointStatus_t{ // Left arm pitch
  63:user/robot.h  ****             6,
  64:user/robot.h  ****             -16,
  65:user/robot.h  ****             117,
  66:user/robot.h  ****             0,
  67:user/robot.h  ****             -20,
  68:user/robot.h  ****             180,
  69:user/robot.h  ****             false
  70:user/robot.h  ****             // electron.SetJointId(electron.joint[ANY],6);
  71:user/robot.h  ****             // electron.SetJointInitAngle(electron.joint[ANY], 0);
  72:user/robot.h  ****             // electron.SetJointKp(electron.joint[ANY], 50);
  73:user/robot.h  ****             // electron.SetJointKi(electron.joint[ANY], 0.8);
  74:user/robot.h  ****             // electron.SetJointKd(electron.joint[ANY], 300);
  75:user/robot.h  ****             // electron.SetJointTorqueLimit(electron.joint[ANY], 0.5);
  76:user/robot.h  ****             // electron.SetJointEnable(electron.joint[ANY], true);
  77:user/robot.h  ****         };
  78:user/robot.h  **** 
  79:user/robot.h  ****         joint[4] = JointStatus_t{ // Right arm roll
  80:user/robot.h  ****             8,
  81:user/robot.h  ****             133,
  82:user/robot.h  ****             141,
  83:user/robot.h  ****             0,
  84:user/robot.h  ****             0,
  85:user/robot.h  ****             30,
  86:user/robot.h  ****             true
  87:user/robot.h  ****             // electron.SetJointId(electron.joint[ANY], 8);
  88:user/robot.h  ****             // electron.SetJointInitAngle(electron.joint[ANY], 0);
  89:user/robot.h  ****             // electron.SetJointKp(electron.joint[ANY], 50);
  90:user/robot.h  ****             // electron.SetJointKi(electron.joint[ANY], 0.8);
  91:user/robot.h  ****             // electron.SetJointKd(electron.joint[ANY], 600);
  92:user/robot.h  ****             // electron.SetJointTorqueLimit(electron.joint[ANY], 1);
  93:user/robot.h  ****             // electron.SetJointEnable(electron.joint[ANY], true);
  94:user/robot.h  ****         };
  95:user/robot.h  **** 
  96:user/robot.h  ****         joint[5] = JointStatus_t{ // Right arm pitch
  97:user/robot.h  ****             10,
  98:user/robot.h  ****             15,
  99:user/robot.h  ****             150,
 100:user/robot.h  ****             0,
 101:user/robot.h  ****             -20,
 102:user/robot.h  ****             180,
 103:user/robot.h  ****             true
 104:user/robot.h  ****             // electron.SetJointId(electron.joint[ANY],10);
 105:user/robot.h  ****             // electron.SetJointInitAngle(electron.joint[ANY], 0);
 106:user/robot.h  ****             // electron.SetJointKp(electron.joint[ANY], 50);
 107:user/robot.h  ****             // electron.SetJointKi(electron.joint[ANY], 0.8);
 108:user/robot.h  ****             // electron.SetJointKd(electron.joint[ANY], 300);
 109:user/robot.h  ****             // electron.SetJointTorqueLimit(electron.joint[ANY], 0.5);
 110:user/robot.h  ****             // electron.SetJointEnable(electron.joint[ANY], true);
 111:user/robot.h  ****         };
 112:user/robot.h  **** 
 113:user/robot.h  ****         joint[6] = JointStatus_t{ // Body
ARM GAS  C:\Users\ADMINI~1\AppData\Local\Temp\cctm9Caj.s 			page 4


 114:user/robot.h  ****             12,
 115:user/robot.h  ****             0,
 116:user/robot.h  ****             180,
 117:user/robot.h  ****             0,
 118:user/robot.h  ****             -90,
 119:user/robot.h  ****             90,
 120:user/robot.h  ****             false
 121:user/robot.h  ****             // electron.SetJointId(electron.joint[ANY],12);
 122:user/robot.h  ****             // electron.SetJointInitAngle(electron.joint[ANY], 0);
 123:user/robot.h  ****             // electron.SetJointKp(electron.joint[ANY], 150);
 124:user/robot.h  ****             // electron.SetJointKi(electron.joint[ANY], 0.8);
 125:user/robot.h  ****             // electron.SetJointKd(electron.joint[ANY], 300);
 126:user/robot.h  ****             // electron.SetJointTorqueLimit(electron.joint[ANY], 0.5);
 127:user/robot.h  ****             // electron.SetJointEnable(electron.joint[ANY], true);
 128:user/robot.h  ****         };
 129:user/robot.h  ****         /********* Need to adjust parameters for specific hardware *********/
 130:user/robot.h  ****     }
 131:user/robot.h  **** 
 132:user/robot.h  **** 
 133:user/robot.h  ****   /*   struct UsbBuffer_t
 134:user/robot.h  ****     {
 135:user/robot.h  ****         uint8_t extraDataTx[32];
 136:user/robot.h  ****         uint8_t rxData[2][60 * 240 * 3 + 32]; // 43232bytes, 43200 of which are lcd buffer
 137:user/robot.h  ****         volatile uint16_t receivedPacketLen = 0;
 138:user/robot.h  ****         volatile uint8_t pingPongIndex = 0;
 139:user/robot.h  ****         volatile uint32_t rxDataOffset = 0;
 140:user/robot.h  ****     }; */
 141:user/robot.h  ****     UsbBuffer_t *pUsbBuffer=&usbBuffer;
 142:user/robot.h  **** 
 143:user/robot.h  **** 
 144:user/robot.h  ****     struct JointStatus_t
  60              		.loc 1 144 12 is_stmt 1 view .LVU5
  61              	.LBB11:
  62 0012 0020     		movs	r0, #0
  63 0014 1876     		strb	r0, [r3, #24]
  64              	.LVL4:
  65              		.loc 1 144 12 is_stmt 0 view .LVU6
  66              	.LBE11:
  67              	.LBE10:
  16:user/robot.h  ****         screenSpi(_screenSpi), motorI2c(_motorI2c)
  68              		.loc 1 16 50 view .LVU7
  69 0016 1C33     		adds	r3, r3, #28
  16:user/robot.h  ****         screenSpi(_screenSpi), motorI2c(_motorI2c)
  70              		.loc 1 16 50 is_stmt 1 view .LVU8
  71 0018 0CF1FF3C 		add	ip, ip, #-1
  72              	.L3:
  16:user/robot.h  ****         screenSpi(_screenSpi), motorI2c(_motorI2c)
  73              		.loc 1 16 50 discriminator 4 view .LVU9
  74 001c BCF1000F 		cmp	ip, #0
  75 0020 F7DA     		bge	.L5
  16:user/robot.h  ****         screenSpi(_screenSpi), motorI2c(_motorI2c)
  76              		.loc 1 16 50 is_stmt 0 discriminator 2 view .LVU10
  77 0022 C5F8CC10 		str	r1, [r5, #204]
  78 0026 C5F8D020 		str	r2, [r5, #208]
  18:user/robot.h  **** 
  79              		.loc 1 18 9 is_stmt 1 discriminator 2 view .LVU11
  18:user/robot.h  **** 
ARM GAS  C:\Users\ADMINI~1\AppData\Local\Temp\cctm9Caj.s 			page 5


  80              		.loc 1 18 35 is_stmt 0 discriminator 2 view .LVU12
  81 002a 0C20     		movs	r0, #12
  82 002c FFF7FEFF 		bl	_Znwj
  83              	.LVL5:
  18:user/robot.h  **** 
  84              		.loc 1 18 35 discriminator 2 view .LVU13
  85 0030 D5F8CC20 		ldr	r2, [r5, #204]
  86              	.LVL6:
  87              	.LBB12:
  88              	.LBI12:
  89              		.file 2 "user/screen.h"
   1:user/screen.h **** #ifndef ELECTRONBOT_FW_SCREEN_H
   2:user/screen.h **** #define ELECTRONBOT_FW_SCREEN_H
   3:user/screen.h **** 
   4:user/screen.h **** #include "stm32f4xx.h"
   5:user/screen.h **** #include "main.h"
   6:user/screen.h **** #include "spi.h"
   7:user/screen.h **** 
   8:user/screen.h **** 
   9:user/screen.h **** class Screen
  10:user/screen.h **** {
  11:user/screen.h **** public:
  12:user/screen.h ****     explicit Screen(SPI_HandleTypeDef* _spi) :
  90              		.loc 2 12 14 is_stmt 1 discriminator 2 view .LVU14
  91              	.LBB13:
  13:user/screen.h ****         spi(_spi)
  92              		.loc 2 13 17 is_stmt 0 discriminator 2 view .LVU15
  93 0034 0023     		movs	r3, #0
  94 0036 0370     		strb	r3, [r0]
  95 0038 4260     		str	r2, [r0, #4]
  96 003a 0372     		strb	r3, [r0, #8]
  97 003c 0223     		movs	r3, #2
  98 003e 4372     		strb	r3, [r0, #9]
  99              	.LVL7:
 100              		.loc 2 13 17 discriminator 2 view .LVU16
 101              	.LBE13:
 102              	.LBE12:
  18:user/robot.h  **** 
 103              		.loc 1 18 13 discriminator 2 view .LVU17
 104 0040 C5F8C800 		str	r0, [r5, #200]
  21:user/robot.h  ****             0,
 105              		.loc 1 21 9 is_stmt 1 discriminator 2 view .LVU18
  21:user/robot.h  ****             0,
 106              		.loc 1 21 20 is_stmt 0 discriminator 2 view .LVU19
 107 0044 2B4C     		ldr	r4, .L6+4
 108 0046 05F1040C 		add	ip, r5, #4
 109 004a A646     		mov	lr, r4
 110 004c BEE80F00 		ldmia	lr!, {r0, r1, r2, r3}
 111 0050 ACE80F00 		stmia	ip!, {r0, r1, r2, r3}
 112 0054 9EE80700 		ldm	lr, {r0, r1, r2}
 113 0058 8CE80700 		stm	ip, {r0, r1, r2}
  28:user/robot.h  ****             2,
 114              		.loc 1 28 9 is_stmt 1 discriminator 2 view .LVU20
  28:user/robot.h  ****             2,
 115              		.loc 1 28 18 is_stmt 0 discriminator 2 view .LVU21
 116 005c 05F1200C 		add	ip, r5, #32
 117 0060 04F11C0E 		add	lr, r4, #28
ARM GAS  C:\Users\ADMINI~1\AppData\Local\Temp\cctm9Caj.s 			page 6


 118 0064 BEE80F00 		ldmia	lr!, {r0, r1, r2, r3}
 119 0068 ACE80F00 		stmia	ip!, {r0, r1, r2, r3}
 120 006c 9EE80700 		ldm	lr, {r0, r1, r2}
 121 0070 8CE80700 		stm	ip, {r0, r1, r2}
  45:user/robot.h  ****             4,
 122              		.loc 1 45 9 is_stmt 1 discriminator 2 view .LVU22
  45:user/robot.h  ****             4,
 123              		.loc 1 45 18 is_stmt 0 discriminator 2 view .LVU23
 124 0074 05F13C0C 		add	ip, r5, #60
 125 0078 04F1380E 		add	lr, r4, #56
 126 007c BEE80F00 		ldmia	lr!, {r0, r1, r2, r3}
 127 0080 ACE80F00 		stmia	ip!, {r0, r1, r2, r3}
 128 0084 9EE80700 		ldm	lr, {r0, r1, r2}
 129 0088 8CE80700 		stm	ip, {r0, r1, r2}
  62:user/robot.h  ****             6,
 130              		.loc 1 62 9 is_stmt 1 discriminator 2 view .LVU24
  62:user/robot.h  ****             6,
 131              		.loc 1 62 18 is_stmt 0 discriminator 2 view .LVU25
 132 008c 05F1580C 		add	ip, r5, #88
 133 0090 04F1540E 		add	lr, r4, #84
 134 0094 BEE80F00 		ldmia	lr!, {r0, r1, r2, r3}
 135 0098 ACE80F00 		stmia	ip!, {r0, r1, r2, r3}
 136 009c 9EE80700 		ldm	lr, {r0, r1, r2}
 137 00a0 8CE80700 		stm	ip, {r0, r1, r2}
  79:user/robot.h  ****             8,
 138              		.loc 1 79 9 is_stmt 1 discriminator 2 view .LVU26
  79:user/robot.h  ****             8,
 139              		.loc 1 79 18 is_stmt 0 discriminator 2 view .LVU27
 140 00a4 05F1740C 		add	ip, r5, #116
 141 00a8 04F1700E 		add	lr, r4, #112
 142 00ac BEE80F00 		ldmia	lr!, {r0, r1, r2, r3}
 143 00b0 ACE80F00 		stmia	ip!, {r0, r1, r2, r3}
 144 00b4 9EE80700 		ldm	lr, {r0, r1, r2}
 145 00b8 8CE80700 		stm	ip, {r0, r1, r2}
  96:user/robot.h  ****             10,
 146              		.loc 1 96 9 is_stmt 1 discriminator 2 view .LVU28
  96:user/robot.h  ****             10,
 147              		.loc 1 96 18 is_stmt 0 discriminator 2 view .LVU29
 148 00bc 05F1900C 		add	ip, r5, #144
 149 00c0 04F18C0E 		add	lr, r4, #140
 150 00c4 BEE80F00 		ldmia	lr!, {r0, r1, r2, r3}
 151 00c8 ACE80F00 		stmia	ip!, {r0, r1, r2, r3}
 152 00cc 9EE80700 		ldm	lr, {r0, r1, r2}
 153 00d0 8CE80700 		stm	ip, {r0, r1, r2}
 113:user/robot.h  ****             12,
 154              		.loc 1 113 9 is_stmt 1 discriminator 2 view .LVU30
 113:user/robot.h  ****             12,
 155              		.loc 1 113 18 is_stmt 0 discriminator 2 view .LVU31
 156 00d4 05F1AC0E 		add	lr, r5, #172
 157 00d8 04F1A80C 		add	ip, r4, #168
 158 00dc BCE80F00 		ldmia	ip!, {r0, r1, r2, r3}
 159 00e0 AEE80F00 		stmia	lr!, {r0, r1, r2, r3}
 160 00e4 9CE80700 		ldm	ip, {r0, r1, r2}
 161 00e8 8EE80700 		stm	lr, {r0, r1, r2}
 162              	.LBE9:
 130:user/robot.h  **** 
 163              		.loc 1 130 5 discriminator 2 view .LVU32
ARM GAS  C:\Users\ADMINI~1\AppData\Local\Temp\cctm9Caj.s 			page 7


 164 00ec 2846     		mov	r0, r5
 165 00ee 38BD     		pop	{r3, r4, r5, pc}
 166              	.LVL8:
 167              	.L7:
 130:user/robot.h  **** 
 168              		.loc 1 130 5 discriminator 2 view .LVU33
 169              		.align	2
 170              	.L6:
 171 00f0 00000000 		.word	usbBuffer
 172 00f4 00000000 		.word	.LANCHOR0
 173              		.cfi_endproc
 174              	.LFE369:
 175              		.fnend
 177              		.weak	_ZN5RobotC1EP19__SPI_HandleTypeDefP17I2C_HandleTypeDef
 178              		.thumb_set _ZN5RobotC1EP19__SPI_HandleTypeDefP17I2C_HandleTypeDef,_ZN5RobotC2EP19__SPI_HandleTypeD
 179              		.section	.text._Z41__static_initialization_and_destruction_0ii,"ax",%progbits
 180              		.align	1
 181              		.syntax unified
 182              		.thumb
 183              		.thumb_func
 185              	_Z41__static_initialization_and_destruction_0ii:
 186              		.fnstart
 187              	.LVL9:
 188              	.LFB378:
 189              		.file 3 "user/user.cpp"
   1:user/user.cpp **** #include <cmath>
   2:user/user.cpp **** #include "common_inc.h"
   3:user/user.cpp **** #include "screen.h"
   4:user/user.cpp **** #include "robot.h"
   5:user/user.cpp **** #include <stdio.h>
   6:user/user.cpp **** 
   7:user/user.cpp **** Robot electron(&hspi1, &hi2c1);
   8:user/user.cpp **** float jointSetPoints[6];
   9:user/user.cpp **** bool isEnabled = false;
  10:user/user.cpp **** 
  11:user/user.cpp **** float setKp;
  12:user/user.cpp **** float setKi;
  13:user/user.cpp **** float setKv;
  14:user/user.cpp **** float setKd;
  15:user/user.cpp **** float setTq;
  16:user/user.cpp **** 
  17:user/user.cpp **** uint8_t setkp_flag;
  18:user/user.cpp **** uint8_t setki_flag;
  19:user/user.cpp **** uint8_t setkv_flag;
  20:user/user.cpp **** uint8_t setkd_flag;
  21:user/user.cpp **** uint8_t settq_flag;
  22:user/user.cpp **** 
  23:user/user.cpp **** uint8_t  newid;
  24:user/user.cpp **** // float initAngle;
  25:user/user.cpp **** 
  26:user/user.cpp **** /* Thread Definitions -----------------------------------------------------*/
  27:user/user.cpp **** 
  28:user/user.cpp **** 
  29:user/user.cpp **** /* Timer Callbacks -------------------------------------------------------*/
  30:user/user.cpp **** 
  31:user/user.cpp **** void setPara(uint8_t *ptr)
  32:user/user.cpp **** {
ARM GAS  C:\Users\ADMINI~1\AppData\Local\Temp\cctm9Caj.s 			page 8


  33:user/user.cpp ****     // Robot::JointStatus_t *pJointStatus; 
  34:user/user.cpp ****     uint8_t id = ptr[0];
  35:user/user.cpp ****     setKp=*((float*) (ptr + 2));
  36:user/user.cpp ****     setKi=*((float*) (ptr + 7));
  37:user/user.cpp ****     setKv=*((float*) (ptr + 12));
  38:user/user.cpp ****     setKd=*((float*) (ptr + 17));
  39:user/user.cpp ****     setTq=*((float*) (ptr + 22));
  40:user/user.cpp **** 
  41:user/user.cpp ****     setkp_flag = ptr[1];
  42:user/user.cpp ****     setki_flag = ptr[6];
  43:user/user.cpp ****     setkv_flag = ptr[11];
  44:user/user.cpp ****     setkd_flag = ptr[16];
  45:user/user.cpp ****     settq_flag = ptr[21];
  46:user/user.cpp **** 
  47:user/user.cpp ****     for(int i=0 ; i<32; i++)
  48:user/user.cpp ****         printf("%.2x ",ptr[i]);
  49:user/user.cpp ****     printf("\r\n");
  50:user/user.cpp ****   /*   switch(id)
  51:user/user.cpp ****     {
  52:user/user.cpp ****         case 2:pJointStatus=&electron.joint[1];break;
  53:user/user.cpp ****         case 4:pJointStatus=&electron.joint[2];break;
  54:user/user.cpp ****         case 6:pJointStatus=&electron.joint[3];break;
  55:user/user.cpp ****         case 8:pJointStatus=&electron.joint[4];break;
  56:user/user.cpp ****         case 10:pJointStatus=&electron.joint[5];break;
  57:user/user.cpp ****         case 12:pJointStatus=&electron.joint[6];break;
  58:user/user.cpp ****         default:pJointStatus=&electron.joint[0];break; 
  59:user/user.cpp **** 
  60:user/user.cpp ****     } */
  61:user/user.cpp **** 
  62:user/user.cpp ****     if(setkp_flag)
  63:user/user.cpp ****         electron.SetJointKp(electron.joint[id/2], setKp);
  64:user/user.cpp ****     if(setki_flag)
  65:user/user.cpp ****         electron.SetJointKi(electron.joint[id/2], setKi);
  66:user/user.cpp ****     if(setkv_flag)        
  67:user/user.cpp ****         electron.SetJointKv(electron.joint[id/2], setKv);
  68:user/user.cpp ****     if(setkd_flag)
  69:user/user.cpp ****         electron.SetJointKd(electron.joint[id/2], setKd);
  70:user/user.cpp ****     if(settq_flag)
  71:user/user.cpp ****         electron.SetJointTorqueLimit(electron.joint[id/2], setTq);
  72:user/user.cpp ****    /*  for(int i=0 ; i<32; i++)
  73:user/user.cpp ****         printf("%.2x ",ptr[i]);
  74:user/user.cpp ****     printf("\r\n"); */
  75:user/user.cpp ****     /*float t=*((float*) (ptr + 2));    
  76:user/user.cpp ****     int dat=ceil(t);
  77:user/user.cpp ****     // printf("jointSetPoints=%u\r\n",jointSetPoints[0]);
  78:user/user.cpp ****     printf("jointSetPoints=%ld\r\n",dat);    */
  79:user/user.cpp ****    
  80:user/user.cpp **** }
  81:user/user.cpp **** void setAngle(uint8_t *ptr)
  82:user/user.cpp **** {
  83:user/user.cpp ****     uint8_t id = ptr[0];
  84:user/user.cpp ****     // float angle=*((float*) (ptr + 1));
  85:user/user.cpp ****     jointSetPoints[id/2] = *((float*) (ptr + 1));
  86:user/user.cpp ****     isEnabled = ptr[5];
  87:user/user.cpp ****     
  88:user/user.cpp ****     for(int i=0 ; i<32; i++)
  89:user/user.cpp ****         printf("%.2x ",ptr[i]);
ARM GAS  C:\Users\ADMINI~1\AppData\Local\Temp\cctm9Caj.s 			page 9


  90:user/user.cpp ****     printf("\r\n");
  91:user/user.cpp ****    /* switch(id)
  92:user/user.cpp ****     {
  93:user/user.cpp ****         case 2:JointStatus=electron.joint[1];break;
  94:user/user.cpp ****         case 4:JointStatus=electron.joint[2];break;
  95:user/user.cpp ****         case 6:JointStatus=electron.joint[3];break;
  96:user/user.cpp ****         case 8:JointStatus=electron.joint[4];break;
  97:user/user.cpp ****         case 10:JointStatus=electron.joint[5];break;
  98:user/user.cpp ****         case 12:JointStatus=electron.joint[6];break;
  99:user/user.cpp ****         default:JointStatus=electron.joint[0];break;
 100:user/user.cpp ****     } */
 101:user/user.cpp ****     // printf("id = %.2x\r\n",JointStatus.id);
 102:user/user.cpp ****     // printf("id = %d\r\n",id);
 103:user/user.cpp ****     electron.UpdateJointAngle(electron.joint[id/2], jointSetPoints[id/2]);
 104:user/user.cpp ****     electron.SetJointEnable(electron.joint[id/2], isEnabled);
 105:user/user.cpp **** }
 106:user/user.cpp **** void setid(uint8_t *ptr)
 107:user/user.cpp **** {
 108:user/user.cpp ****     uint8_t id = ptr[0];   
 109:user/user.cpp ****     newid=ptr[1];
 110:user/user.cpp ****     electron.SetJointId(electron.joint[id/2], newid);
 111:user/user.cpp **** }
 112:user/user.cpp **** void setInitAngle(uint8_t *ptr)
 113:user/user.cpp **** {
 114:user/user.cpp ****     uint8_t id = ptr[0];
 115:user/user.cpp ****     jointSetPoints[id/2]=*((float*) (ptr + 1));
 116:user/user.cpp ****     for(int i=0 ; i<32; i++)
 117:user/user.cpp ****         printf("%.2x ",ptr[i]);
 118:user/user.cpp ****     printf("\r\n");
 119:user/user.cpp ****     
 120:user/user.cpp ****     electron.SetJointInitAngle(electron.joint[id/2], jointSetPoints[id/2]);
 121:user/user.cpp **** }
 122:user/user.cpp **** void JumpBootLoader(uint8_t *ptr)
 123:user/user.cpp **** {
 124:user/user.cpp ****     electron.pUsbBuffer->extraDataTx[31] = 0xfe;
 125:user/user.cpp ****     electron.pUsbBuffer->extraDataTx[30] = 0x01;
 126:user/user.cpp ****     electron.pUsbBuffer->extraDataTx[29] = 0x00;
 127:user/user.cpp ****     electron.SendUsbPacket(electron.pUsbBuffer->extraDataTx, 32);
 128:user/user.cpp **** }
 129:user/user.cpp **** /* Default Entry -------------------------------------------------------*/
 130:user/user.cpp **** void Main(void)
 131:user/user.cpp **** {
 132:user/user.cpp ****     int i;
 133:user/user.cpp ****     int p=0;
 134:user/user.cpp ****     HAL_Delay(1000);
 135:user/user.cpp ****     electron.lcd->Init(Screen::DEGREE_0);
 136:user/user.cpp ****     electron.lcd->SetWindow(0, 239, 0, 239);
 137:user/user.cpp ****     for(int i=0;i<32;i++)
 138:user/user.cpp ****         electron.pUsbBuffer->extraDataTx[i]=32-i;
 139:user/user.cpp ****     /* electron.SetJointEnable(electron.joint[6], true);
 140:user/user.cpp ****     electron.UpdateJointAngle(electron.joint[6], 30); */
 141:user/user.cpp **** 
 142:user/user.cpp ****     /* electron.UpdateJointAngle(electron.joint[1], 0);
 143:user/user.cpp ****     electron.UpdateJointAngle(electron.joint[2], 0);
 144:user/user.cpp ****     electron.UpdateJointAngle(electron.joint[3], 0);
 145:user/user.cpp ****     electron.UpdateJointAngle(electron.joint[4], 0);
 146:user/user.cpp ****     electron.UpdateJointAngle(electron.joint[5], 0);  */
ARM GAS  C:\Users\ADMINI~1\AppData\Local\Temp\cctm9Caj.s 			page 10


 147:user/user.cpp ****     electron.UpdateJointAngle(electron.joint[6], 0); 
 148:user/user.cpp ****     while(1)
 149:user/user.cpp ****     {
 150:user/user.cpp ****         for (int j = 0; j < 6; j++)
 151:user/user.cpp ****         {
 152:user/user.cpp ****             for (int i = 0; i < 4; i++)
 153:user/user.cpp ****             {
 154:user/user.cpp ****                 auto* b = (unsigned char*) &(electron.joint[j + 1].angle);
 155:user/user.cpp ****                 electron.pUsbBuffer->extraDataTx[j * 4 + i + 1] = *(b + i);
 156:user/user.cpp ****             }
 157:user/user.cpp ****         }            
 158:user/user.cpp ****         electron.SendUsbPacket(electron.pUsbBuffer->extraDataTx, 32);        
 159:user/user.cpp ****         electron.ReceiveUsbPacketUntilSizeIs(224); // last packet is 224bytes
 160:user/user.cpp ****         uint8_t* ptr = electron.GetExtraDataRxPtr();
 161:user/user.cpp ****         
 162:user/user.cpp ****         if(ptr[31] == 0xee)  //设置参数
 163:user/user.cpp ****         {
 164:user/user.cpp ****             setPara(ptr);
 165:user/user.cpp ****         }
 166:user/user.cpp ****         else if(ptr[31] == 0xef)
 167:user/user.cpp ****         {
 168:user/user.cpp ****             setAngle(ptr);
 169:user/user.cpp ****             
 170:user/user.cpp ****         }
 171:user/user.cpp ****         else if(ptr[31] == 0xf0)
 172:user/user.cpp ****         {            
 173:user/user.cpp ****              setid(ptr);         
 174:user/user.cpp ****         }
 175:user/user.cpp ****         else if(ptr[31] == 0xf1)
 176:user/user.cpp ****         {
 177:user/user.cpp ****              setInitAngle(ptr);
 178:user/user.cpp ****         }
 179:user/user.cpp ****         else if(ptr[31] == 0xfe)
 180:user/user.cpp ****         {
 181:user/user.cpp ****              JumpBootLoader(ptr);
 182:user/user.cpp ****         }
 183:user/user.cpp ****         else
 184:user/user.cpp ****         {
 185:user/user.cpp ****             printf("task  p=%d : %d\r\n",p,ptr[31]);
 186:user/user.cpp ****             //for(p=0;p<4;p++)
 187:user/user.cpp ****            
 188:user/user.cpp ****             if (isEnabled != (bool) ptr[0])
 189:user/user.cpp ****             {
 190:user/user.cpp ****                 isEnabled = ptr[0];
 191:user/user.cpp ****                 /* electron.SetJointEnable(electron.joint[1], isEnabled);
 192:user/user.cpp ****                 electron.SetJointEnable(electron.joint[2], isEnabled);
 193:user/user.cpp ****                 electron.SetJointEnable(electron.joint[3], isEnabled);
 194:user/user.cpp ****                 electron.SetJointEnable(electron.joint[4], isEnabled);
 195:user/user.cpp ****                 electron.SetJointEnable(electron.joint[5], isEnabled); */
 196:user/user.cpp ****                 // electron.SetJointEnable(electron.joint[6], isEnabled);
 197:user/user.cpp ****             }
 198:user/user.cpp ****             for (int j = 0; j < 6; j++)
 199:user/user.cpp ****             {
 200:user/user.cpp ****                 jointSetPoints[j] = *((float*) (ptr + 4 * j + 1));
 201:user/user.cpp ****             }
 202:user/user.cpp ****             //printf("33333\r\n");
 203:user/user.cpp ****             while (electron.lcd->isBusy);
ARM GAS  C:\Users\ADMINI~1\AppData\Local\Temp\cctm9Caj.s 			page 11


 204:user/user.cpp ****             // memset(electron.GetLcdBufferPtr(),200,60*240*3);
 205:user/user.cpp ****             //printf("222222\r\n");
 206:user/user.cpp ****             /* for(i=0 ; i<100; i++)
 207:user/user.cpp ****                 printf("%.2x ",electron.GetLcdBufferPtr()[i]);
 208:user/user.cpp ****             printf("\r\n");  */
 209:user/user.cpp ****             if (p == 0)
 210:user/user.cpp ****                 electron.lcd->WriteFrameBuffer(electron.GetLcdBufferPtr(),60 * 240 * 3,false);
 211:user/user.cpp ****             else
 212:user/user.cpp ****                 electron.lcd->WriteFrameBuffer(electron.GetLcdBufferPtr(),60 * 240 * 3, true);
 213:user/user.cpp ****             if(p++>=3)
 214:user/user.cpp ****                 p=0;
 215:user/user.cpp **** 
 216:user/user.cpp ****             
 217:user/user.cpp ****         }
 218:user/user.cpp ****         HAL_Delay(1);
 219:user/user.cpp ****         
 220:user/user.cpp ****     }
 221:user/user.cpp ****     
 222:user/user.cpp ****    
 223:user/user.cpp ****  
 224:user/user.cpp **** 
 225:user/user.cpp ****     float t = 0;    
 226:user/user.cpp ****     while (true)
 227:user/user.cpp ****     {
 228:user/user.cpp **** #if 1
 229:user/user.cpp ****         for (int p = 0; p < 4; p++)
 230:user/user.cpp ****         {
 231:user/user.cpp ****             // send joint angles
 232:user/user.cpp ****             for (int j = 0; j < 6; j++)
 233:user/user.cpp ****                 for (int i = 0; i < 4; i++)
 234:user/user.cpp ****                 {
 235:user/user.cpp ****                     auto* b = (unsigned char*) &(electron.joint[j + 1].angle);
 236:user/user.cpp ****                     electron.pUsbBuffer->extraDataTx[j * 4 + i + 1] = *(b + i);
 237:user/user.cpp ****                 }
 238:user/user.cpp ****             
 239:user/user.cpp ****             electron.SendUsbPacket(electron.pUsbBuffer->extraDataTx, 32);           
 240:user/user.cpp ****             electron.ReceiveUsbPacketUntilSizeIs(224); // last packet is 224bytes           
 241:user/user.cpp ****             // get joint angles
 242:user/user.cpp ****             uint8_t* ptr = electron.GetExtraDataRxPtr();
 243:user/user.cpp **** 			
 244:user/user.cpp ****             if (isEnabled != (bool) ptr[0])
 245:user/user.cpp ****             {
 246:user/user.cpp ****                 isEnabled = ptr[0];
 247:user/user.cpp ****                 /* electron.SetJointEnable(electron.joint[1], isEnabled);
 248:user/user.cpp ****                 electron.SetJointEnable(electron.joint[2], isEnabled);
 249:user/user.cpp ****                 electron.SetJointEnable(electron.joint[3], isEnabled);
 250:user/user.cpp ****                 electron.SetJointEnable(electron.joint[4], isEnabled);
 251:user/user.cpp ****                 electron.SetJointEnable(electron.joint[5], isEnabled); */
 252:user/user.cpp ****                 // electron.SetJointEnable(electron.joint[6], isEnabled);
 253:user/user.cpp ****             }
 254:user/user.cpp ****             for (int j = 0; j < 6; j++)
 255:user/user.cpp ****             {
 256:user/user.cpp ****                 jointSetPoints[j] = *((float*) (ptr + 4 * j + 1));
 257:user/user.cpp ****             }
 258:user/user.cpp ****             printf("33333\r\n");
 259:user/user.cpp ****             while (electron.lcd->isBusy);
 260:user/user.cpp ****             printf("222222\r\n");
ARM GAS  C:\Users\ADMINI~1\AppData\Local\Temp\cctm9Caj.s 			page 12


 261:user/user.cpp ****             if (p == 0)
 262:user/user.cpp ****                 electron.lcd->WriteFrameBuffer(electron.GetLcdBufferPtr(),60 * 240 * 3,false);
 263:user/user.cpp ****             else
 264:user/user.cpp ****                 electron.lcd->WriteFrameBuffer(electron.GetLcdBufferPtr(),60 * 240 * 3, true);			
 265:user/user.cpp ****         }
 266:user/user.cpp ****         HAL_Delay(1);
 267:user/user.cpp **** #endif
 268:user/user.cpp **** 
 269:user/user.cpp **** 
 270:user/user.cpp ****         t += 0.01;
 271:user/user.cpp **** 
 272:user/user.cpp ****        /*  electron.UpdateJointAngle(electron.joint[1], jointSetPoints[0]);
 273:user/user.cpp ****         electron.UpdateJointAngle(electron.joint[2], jointSetPoints[1]);
 274:user/user.cpp ****         electron.UpdateJointAngle(electron.joint[3], jointSetPoints[2]);
 275:user/user.cpp ****         electron.UpdateJointAngle(electron.joint[4], jointSetPoints[3]);
 276:user/user.cpp ****         electron.UpdateJointAngle(electron.joint[5], jointSetPoints[4]);
 277:user/user.cpp ****         electron.UpdateJointAngle(electron.joint[6], jointSetPoints[5]); */
 278:user/user.cpp **** 
 279:user/user.cpp ****         HAL_Delay(1);
 280:user/user.cpp **** 
 281:user/user.cpp **** //      electron.UpdateJointAngle(electron.joint[ANY], 65 + 75 * std::sin(t));
 282:user/user.cpp **** 
 283:user/user.cpp ****         printf("%.2f,%.2f,%.2f,%.2f,%.2f,%.2f\n",
 284:user/user.cpp ****                jointSetPoints[0], jointSetPoints[1], jointSetPoints[2],
 285:user/user.cpp ****                jointSetPoints[3], jointSetPoints[4], jointSetPoints[5]);
 286:user/user.cpp ****     }
 287:user/user.cpp **** }
 288:user/user.cpp **** 
 289:user/user.cpp **** 
 290:user/user.cpp **** extern "C"
 291:user/user.cpp **** void HAL_SPI_TxCpltCallback(SPI_HandleTypeDef* hspi)
 292:user/user.cpp **** {
 293:user/user.cpp ****     electron.lcd->isBusy = false;
 294:user/user.cpp **** }...
 190              		.loc 3 294 1 is_stmt 1 view -0
 191              		.cfi_startproc
 192              		@ args = 0, pretend = 0, frame = 0
 193              		@ frame_needed = 0, uses_anonymous_args = 0
 194              		.loc 3 294 1 is_stmt 0 view .LVU35
 195 0000 0128     		cmp	r0, #1
 196 0002 00D0     		beq	.L14
 197 0004 7047     		bx	lr
 198              	.L14:
 199              		.loc 3 294 1 discriminator 1 view .LVU36
 200 0006 08B5     		push	{r3, lr}
 201              	.LCFI1:
 202              		.cfi_def_cfa_offset 8
 203              		.cfi_offset 3, -8
 204              		.cfi_offset 14, -4
 205              		.loc 3 294 1 discriminator 1 view .LVU37
 206 0008 4FF6FF73 		movw	r3, #65535
 207 000c 9942     		cmp	r1, r3
 208 000e 00D0     		beq	.L15
 209              	.LVL10:
 210              	.L8:
 211              		.loc 3 294 1 view .LVU38
 212 0010 08BD     		pop	{r3, pc}
ARM GAS  C:\Users\ADMINI~1\AppData\Local\Temp\cctm9Caj.s 			page 13


 213              	.LVL11:
 214              	.L15:
   7:user/user.cpp **** Robot electron(&hspi1, &hi2c1);
 215              		.loc 3 7 30 view .LVU39
 216 0012 034A     		ldr	r2, .L16
 217 0014 0349     		ldr	r1, .L16+4
 218              	.LVL12:
   7:user/user.cpp **** Robot electron(&hspi1, &hi2c1);
 219              		.loc 3 7 30 view .LVU40
 220 0016 0448     		ldr	r0, .L16+8
 221              	.LVL13:
   7:user/user.cpp **** Robot electron(&hspi1, &hi2c1);
 222              		.loc 3 7 30 view .LVU41
 223 0018 FFF7FEFF 		bl	_ZN5RobotC1EP19__SPI_HandleTypeDefP17I2C_HandleTypeDef
 224              	.LVL14:
 225              		.loc 3 294 1 view .LVU42
 226 001c F8E7     		b	.L8
 227              	.L17:
 228 001e 00BF     		.align	2
 229              	.L16:
 230 0020 00000000 		.word	hi2c1
 231 0024 00000000 		.word	hspi1
 232 0028 00000000 		.word	.LANCHOR1
 233              		.cfi_endproc
 234              	.LFE378:
 235              		.cantunwind
 236              		.fnend
 238              		.section	.rodata.setPara.str1.4,"aMS",%progbits,1
 239              		.align	2
 240              	.LC7:
 241 0000 252E3278 		.ascii	"%.2x \000"
 241      2000
 242 0006 0000     		.align	2
 243              	.LC8:
 244 0008 0D00     		.ascii	"\015\000"
 245              		.section	.text.setPara,"ax",%progbits
 246              		.align	1
 247              		.global	setPara
 248              		.syntax unified
 249              		.thumb
 250              		.thumb_func
 252              	setPara:
 253              		.fnstart
 254              	.LVL15:
 255              	.LFB371:
  32:user/user.cpp **** {
 256              		.loc 3 32 1 is_stmt 1 view -0
 257              		.cfi_startproc
 258              		@ args = 0, pretend = 0, frame = 0
 259              		@ frame_needed = 0, uses_anonymous_args = 0
  32:user/user.cpp **** {
 260              		.loc 3 32 1 is_stmt 0 view .LVU44
 261 0000 70B5     		push	{r4, r5, r6, lr}
 262              		.save {r4, r5, r6, lr}
 263              	.LCFI2:
 264              		.cfi_def_cfa_offset 16
 265              		.cfi_offset 4, -16
ARM GAS  C:\Users\ADMINI~1\AppData\Local\Temp\cctm9Caj.s 			page 14


 266              		.cfi_offset 5, -12
 267              		.cfi_offset 6, -8
 268              		.cfi_offset 14, -4
 269 0002 0546     		mov	r5, r0
  34:user/user.cpp ****     uint8_t id = ptr[0];
 270              		.loc 3 34 5 is_stmt 1 view .LVU45
  34:user/user.cpp ****     uint8_t id = ptr[0];
 271              		.loc 3 34 13 is_stmt 0 view .LVU46
 272 0004 0346     		mov	r3, r0
 273 0006 13F8026B 		ldrb	r6, [r3], #2	@ zero_extendqisi2
 274              	.LVL16:
  35:user/user.cpp ****     setKp=*((float*) (ptr + 2));
 275              		.loc 3 35 5 is_stmt 1 view .LVU47
  35:user/user.cpp ****     setKp=*((float*) (ptr + 2));
 276              		.loc 3 35 10 is_stmt 0 view .LVU48
 277 000a 1A68     		ldr	r2, [r3]	@ float
 278 000c 3F4B     		ldr	r3, .L33
 279 000e 1A60     		str	r2, [r3]	@ float
  36:user/user.cpp ****     setKi=*((float*) (ptr + 7));
 280              		.loc 3 36 5 is_stmt 1 view .LVU49
  36:user/user.cpp ****     setKi=*((float*) (ptr + 7));
 281              		.loc 3 36 10 is_stmt 0 view .LVU50
 282 0010 C31D     		adds	r3, r0, #7
 283 0012 1A68     		ldr	r2, [r3]	@ float
 284 0014 3E4B     		ldr	r3, .L33+4
 285 0016 1A60     		str	r2, [r3]	@ float
  37:user/user.cpp ****     setKv=*((float*) (ptr + 12));
 286              		.loc 3 37 5 is_stmt 1 view .LVU51
  37:user/user.cpp ****     setKv=*((float*) (ptr + 12));
 287              		.loc 3 37 10 is_stmt 0 view .LVU52
 288 0018 C268     		ldr	r2, [r0, #12]	@ float
 289 001a 3E4B     		ldr	r3, .L33+8
 290 001c 1A60     		str	r2, [r3]	@ float
  38:user/user.cpp ****     setKd=*((float*) (ptr + 17));
 291              		.loc 3 38 5 is_stmt 1 view .LVU53
  38:user/user.cpp ****     setKd=*((float*) (ptr + 17));
 292              		.loc 3 38 10 is_stmt 0 view .LVU54
 293 001e 00F11103 		add	r3, r0, #17
 294 0022 1A68     		ldr	r2, [r3]	@ float
 295 0024 3C4B     		ldr	r3, .L33+12
 296 0026 1A60     		str	r2, [r3]	@ float
  39:user/user.cpp ****     setTq=*((float*) (ptr + 22));
 297              		.loc 3 39 5 is_stmt 1 view .LVU55
  39:user/user.cpp ****     setTq=*((float*) (ptr + 22));
 298              		.loc 3 39 10 is_stmt 0 view .LVU56
 299 0028 00F11603 		add	r3, r0, #22
 300 002c 1A68     		ldr	r2, [r3]	@ float
 301 002e 3B4B     		ldr	r3, .L33+16
 302 0030 1A60     		str	r2, [r3]	@ float
  41:user/user.cpp ****     setkp_flag = ptr[1];
 303              		.loc 3 41 5 is_stmt 1 view .LVU57
  41:user/user.cpp ****     setkp_flag = ptr[1];
 304              		.loc 3 41 16 is_stmt 0 view .LVU58
 305 0032 4278     		ldrb	r2, [r0, #1]	@ zero_extendqisi2
 306 0034 3A4B     		ldr	r3, .L33+20
 307 0036 1A70     		strb	r2, [r3]
  42:user/user.cpp ****     setki_flag = ptr[6];
ARM GAS  C:\Users\ADMINI~1\AppData\Local\Temp\cctm9Caj.s 			page 15


 308              		.loc 3 42 5 is_stmt 1 view .LVU59
  42:user/user.cpp ****     setki_flag = ptr[6];
 309              		.loc 3 42 16 is_stmt 0 view .LVU60
 310 0038 8279     		ldrb	r2, [r0, #6]	@ zero_extendqisi2
 311 003a 3A4B     		ldr	r3, .L33+24
 312 003c 1A70     		strb	r2, [r3]
  43:user/user.cpp ****     setkv_flag = ptr[11];
 313              		.loc 3 43 5 is_stmt 1 view .LVU61
  43:user/user.cpp ****     setkv_flag = ptr[11];
 314              		.loc 3 43 16 is_stmt 0 view .LVU62
 315 003e C27A     		ldrb	r2, [r0, #11]	@ zero_extendqisi2
 316 0040 394B     		ldr	r3, .L33+28
 317 0042 1A70     		strb	r2, [r3]
  44:user/user.cpp ****     setkd_flag = ptr[16];
 318              		.loc 3 44 5 is_stmt 1 view .LVU63
  44:user/user.cpp ****     setkd_flag = ptr[16];
 319              		.loc 3 44 16 is_stmt 0 view .LVU64
 320 0044 027C     		ldrb	r2, [r0, #16]	@ zero_extendqisi2
 321 0046 394B     		ldr	r3, .L33+32
 322 0048 1A70     		strb	r2, [r3]
  45:user/user.cpp ****     settq_flag = ptr[21];
 323              		.loc 3 45 5 is_stmt 1 view .LVU65
  45:user/user.cpp ****     settq_flag = ptr[21];
 324              		.loc 3 45 16 is_stmt 0 view .LVU66
 325 004a 427D     		ldrb	r2, [r0, #21]	@ zero_extendqisi2
 326 004c 384B     		ldr	r3, .L33+36
 327 004e 1A70     		strb	r2, [r3]
  47:user/user.cpp ****     for(int i=0 ; i<32; i++)
 328              		.loc 3 47 5 is_stmt 1 view .LVU67
 329              	.LVL17:
 330              	.LBB14:
  47:user/user.cpp ****     for(int i=0 ; i<32; i++)
 331              		.loc 3 47 13 is_stmt 0 view .LVU68
 332 0050 0024     		movs	r4, #0
 333 0052 04E0     		b	.L20
 334              	.LVL18:
 335              	.L27:
  48:user/user.cpp ****         printf("%.2x ",ptr[i]);
 336              		.loc 3 48 9 is_stmt 1 discriminator 2 view .LVU69
  48:user/user.cpp ****         printf("%.2x ",ptr[i]);
 337              		.loc 3 48 15 is_stmt 0 discriminator 2 view .LVU70
 338 0054 295D     		ldrb	r1, [r5, r4]	@ zero_extendqisi2
 339 0056 3748     		ldr	r0, .L33+40
 340 0058 FFF7FEFF 		bl	printf
 341              	.LVL19:
  47:user/user.cpp ****     for(int i=0 ; i<32; i++)
 342              		.loc 3 47 5 is_stmt 1 discriminator 2 view .LVU71
 343 005c 0134     		adds	r4, r4, #1
 344              	.LVL20:
 345              	.L20:
  47:user/user.cpp ****     for(int i=0 ; i<32; i++)
 346              		.loc 3 47 20 discriminator 3 view .LVU72
 347 005e 1F2C     		cmp	r4, #31
 348 0060 F8DD     		ble	.L27
 349              	.LBE14:
  49:user/user.cpp ****     printf("\r\n");
 350              		.loc 3 49 5 view .LVU73
ARM GAS  C:\Users\ADMINI~1\AppData\Local\Temp\cctm9Caj.s 			page 16


  49:user/user.cpp ****     printf("\r\n");
 351              		.loc 3 49 11 is_stmt 0 view .LVU74
 352 0062 3548     		ldr	r0, .L33+44
 353 0064 FFF7FEFF 		bl	puts
 354              	.LVL21:
  62:user/user.cpp ****     if(setkp_flag)
 355              		.loc 3 62 5 is_stmt 1 view .LVU75
  62:user/user.cpp ****     if(setkp_flag)
 356              		.loc 3 62 8 is_stmt 0 view .LVU76
 357 0068 2D4B     		ldr	r3, .L33+20
 358 006a 1B78     		ldrb	r3, [r3]	@ zero_extendqisi2
  62:user/user.cpp ****     if(setkp_flag)
 359              		.loc 3 62 5 view .LVU77
 360 006c 63B9     		cbnz	r3, .L28
 361              	.L21:
  64:user/user.cpp ****     if(setki_flag)
 362              		.loc 3 64 5 is_stmt 1 view .LVU78
  64:user/user.cpp ****     if(setki_flag)
 363              		.loc 3 64 8 is_stmt 0 view .LVU79
 364 006e 2D4B     		ldr	r3, .L33+24
 365 0070 1B78     		ldrb	r3, [r3]	@ zero_extendqisi2
  64:user/user.cpp ****     if(setki_flag)
 366              		.loc 3 64 5 view .LVU80
 367 0072 B3B9     		cbnz	r3, .L29
 368              	.L22:
  66:user/user.cpp ****     if(setkv_flag)        
 369              		.loc 3 66 5 is_stmt 1 view .LVU81
  66:user/user.cpp ****     if(setkv_flag)        
 370              		.loc 3 66 8 is_stmt 0 view .LVU82
 371 0074 2C4B     		ldr	r3, .L33+28
 372 0076 1B78     		ldrb	r3, [r3]	@ zero_extendqisi2
  66:user/user.cpp ****     if(setkv_flag)        
 373              		.loc 3 66 5 view .LVU83
 374 0078 03BB     		cbnz	r3, .L30
 375              	.L23:
  68:user/user.cpp ****     if(setkd_flag)
 376              		.loc 3 68 5 is_stmt 1 view .LVU84
  68:user/user.cpp ****     if(setkd_flag)
 377              		.loc 3 68 8 is_stmt 0 view .LVU85
 378 007a 2C4B     		ldr	r3, .L33+32
 379 007c 1B78     		ldrb	r3, [r3]	@ zero_extendqisi2
  68:user/user.cpp ****     if(setkd_flag)
 380              		.loc 3 68 5 view .LVU86
 381 007e 53BB     		cbnz	r3, .L31
 382              	.L24:
  70:user/user.cpp ****     if(settq_flag)
 383              		.loc 3 70 5 is_stmt 1 view .LVU87
  70:user/user.cpp ****     if(settq_flag)
 384              		.loc 3 70 8 is_stmt 0 view .LVU88
 385 0080 2B4B     		ldr	r3, .L33+36
 386 0082 1B78     		ldrb	r3, [r3]	@ zero_extendqisi2
  70:user/user.cpp ****     if(settq_flag)
 387              		.loc 3 70 5 view .LVU89
 388 0084 A3BB     		cbnz	r3, .L32
 389              	.LVL22:
 390              	.L18:
  80:user/user.cpp **** }
ARM GAS  C:\Users\ADMINI~1\AppData\Local\Temp\cctm9Caj.s 			page 17


 391              		.loc 3 80 1 view .LVU90
 392 0086 70BD     		pop	{r4, r5, r6, pc}
 393              	.LVL23:
 394              	.L28:
  63:user/user.cpp ****         electron.SetJointKp(electron.joint[id/2], setKp);
 395              		.loc 3 63 9 is_stmt 1 view .LVU91
  63:user/user.cpp ****         electron.SetJointKp(electron.joint[id/2], setKp);
 396              		.loc 3 63 46 is_stmt 0 view .LVU92
 397 0088 7308     		lsrs	r3, r6, #1
  63:user/user.cpp ****         electron.SetJointKp(electron.joint[id/2], setKp);
 398              		.loc 3 63 48 view .LVU93
 399 008a 2C48     		ldr	r0, .L33+48
 400 008c C3EBC303 		rsb	r3, r3, r3, lsl #3
 401 0090 00EB8301 		add	r1, r0, r3, lsl #2
  63:user/user.cpp ****         electron.SetJointKp(electron.joint[id/2], setKp);
 402              		.loc 3 63 28 view .LVU94
 403 0094 1D4B     		ldr	r3, .L33
 404 0096 93ED000A 		vldr.32	s0, [r3]
 405 009a 0431     		adds	r1, r1, #4
 406 009c FFF7FEFF 		bl	_ZN5Robot10SetJointKpERNS_13JointStatus_tEf
 407              	.LVL24:
 408 00a0 E5E7     		b	.L21
 409              	.L29:
  65:user/user.cpp ****         electron.SetJointKi(electron.joint[id/2], setKi);
 410              		.loc 3 65 9 is_stmt 1 view .LVU95
  65:user/user.cpp ****         electron.SetJointKi(electron.joint[id/2], setKi);
 411              		.loc 3 65 46 is_stmt 0 view .LVU96
 412 00a2 7308     		lsrs	r3, r6, #1
  65:user/user.cpp ****         electron.SetJointKi(electron.joint[id/2], setKi);
 413              		.loc 3 65 48 view .LVU97
 414 00a4 2548     		ldr	r0, .L33+48
 415 00a6 C3EBC303 		rsb	r3, r3, r3, lsl #3
 416 00aa 00EB8301 		add	r1, r0, r3, lsl #2
  65:user/user.cpp ****         electron.SetJointKi(electron.joint[id/2], setKi);
 417              		.loc 3 65 28 view .LVU98
 418 00ae 184B     		ldr	r3, .L33+4
 419 00b0 93ED000A 		vldr.32	s0, [r3]
 420 00b4 0431     		adds	r1, r1, #4
 421 00b6 FFF7FEFF 		bl	_ZN5Robot10SetJointKiERNS_13JointStatus_tEf
 422              	.LVL25:
 423 00ba DBE7     		b	.L22
 424              	.L30:
  67:user/user.cpp ****         electron.SetJointKv(electron.joint[id/2], setKv);
 425              		.loc 3 67 9 is_stmt 1 view .LVU99
  67:user/user.cpp ****         electron.SetJointKv(electron.joint[id/2], setKv);
 426              		.loc 3 67 46 is_stmt 0 view .LVU100
 427 00bc 7308     		lsrs	r3, r6, #1
  67:user/user.cpp ****         electron.SetJointKv(electron.joint[id/2], setKv);
 428              		.loc 3 67 48 view .LVU101
 429 00be 1F48     		ldr	r0, .L33+48
 430 00c0 C3EBC303 		rsb	r3, r3, r3, lsl #3
 431 00c4 00EB8301 		add	r1, r0, r3, lsl #2
  67:user/user.cpp ****         electron.SetJointKv(electron.joint[id/2], setKv);
 432              		.loc 3 67 28 view .LVU102
 433 00c8 124B     		ldr	r3, .L33+8
 434 00ca 93ED000A 		vldr.32	s0, [r3]
 435 00ce 0431     		adds	r1, r1, #4
ARM GAS  C:\Users\ADMINI~1\AppData\Local\Temp\cctm9Caj.s 			page 18


 436 00d0 FFF7FEFF 		bl	_ZN5Robot10SetJointKvERNS_13JointStatus_tEf
 437              	.LVL26:
 438 00d4 D1E7     		b	.L23
 439              	.L31:
  69:user/user.cpp ****         electron.SetJointKd(electron.joint[id/2], setKd);
 440              		.loc 3 69 9 is_stmt 1 view .LVU103
  69:user/user.cpp ****         electron.SetJointKd(electron.joint[id/2], setKd);
 441              		.loc 3 69 46 is_stmt 0 view .LVU104
 442 00d6 7308     		lsrs	r3, r6, #1
  69:user/user.cpp ****         electron.SetJointKd(electron.joint[id/2], setKd);
 443              		.loc 3 69 48 view .LVU105
 444 00d8 1848     		ldr	r0, .L33+48
 445 00da C3EBC303 		rsb	r3, r3, r3, lsl #3
 446 00de 00EB8301 		add	r1, r0, r3, lsl #2
  69:user/user.cpp ****         electron.SetJointKd(electron.joint[id/2], setKd);
 447              		.loc 3 69 28 view .LVU106
 448 00e2 0D4B     		ldr	r3, .L33+12
 449 00e4 93ED000A 		vldr.32	s0, [r3]
 450 00e8 0431     		adds	r1, r1, #4
 451 00ea FFF7FEFF 		bl	_ZN5Robot10SetJointKdERNS_13JointStatus_tEf
 452              	.LVL27:
 453 00ee C7E7     		b	.L24
 454              	.L32:
  71:user/user.cpp ****         electron.SetJointTorqueLimit(electron.joint[id/2], setTq);
 455              		.loc 3 71 9 is_stmt 1 view .LVU107
  71:user/user.cpp ****         electron.SetJointTorqueLimit(electron.joint[id/2], setTq);
 456              		.loc 3 71 55 is_stmt 0 view .LVU108
 457 00f0 7608     		lsrs	r6, r6, #1
 458              	.LVL28:
  71:user/user.cpp ****         electron.SetJointTorqueLimit(electron.joint[id/2], setTq);
 459              		.loc 3 71 57 view .LVU109
 460 00f2 1248     		ldr	r0, .L33+48
 461 00f4 C6EBC606 		rsb	r6, r6, r6, lsl #3
 462 00f8 00EB8601 		add	r1, r0, r6, lsl #2
  71:user/user.cpp ****         electron.SetJointTorqueLimit(electron.joint[id/2], setTq);
 463              		.loc 3 71 37 view .LVU110
 464 00fc 074B     		ldr	r3, .L33+16
 465 00fe 93ED000A 		vldr.32	s0, [r3]
 466 0102 0431     		adds	r1, r1, #4
 467 0104 FFF7FEFF 		bl	_ZN5Robot19SetJointTorqueLimitERNS_13JointStatus_tEf
 468              	.LVL29:
  80:user/user.cpp **** }
 469              		.loc 3 80 1 view .LVU111
 470 0108 BDE7     		b	.L18
 471              	.L34:
 472 010a 00BF     		.align	2
 473              	.L33:
 474 010c 00000000 		.word	.LANCHOR2
 475 0110 00000000 		.word	.LANCHOR3
 476 0114 00000000 		.word	.LANCHOR4
 477 0118 00000000 		.word	.LANCHOR5
 478 011c 00000000 		.word	.LANCHOR6
 479 0120 00000000 		.word	.LANCHOR7
 480 0124 00000000 		.word	.LANCHOR8
 481 0128 00000000 		.word	.LANCHOR9
 482 012c 00000000 		.word	.LANCHOR10
 483 0130 00000000 		.word	.LANCHOR11
ARM GAS  C:\Users\ADMINI~1\AppData\Local\Temp\cctm9Caj.s 			page 19


 484 0134 00000000 		.word	.LC7
 485 0138 08000000 		.word	.LC8
 486 013c 00000000 		.word	.LANCHOR1
 487              		.cfi_endproc
 488              	.LFE371:
 489              		.fnend
 491              		.section	.text.setAngle,"ax",%progbits
 492              		.align	1
 493              		.global	setAngle
 494              		.syntax unified
 495              		.thumb
 496              		.thumb_func
 498              	setAngle:
 499              		.fnstart
 500              	.LVL30:
 501              	.LFB372:
  82:user/user.cpp **** {
 502              		.loc 3 82 1 is_stmt 1 view -0
 503              		.cfi_startproc
 504              		@ args = 0, pretend = 0, frame = 0
 505              		@ frame_needed = 0, uses_anonymous_args = 0
  82:user/user.cpp **** {
 506              		.loc 3 82 1 is_stmt 0 view .LVU113
 507 0000 70B5     		push	{r4, r5, r6, lr}
 508              		.save {r4, r5, r6, lr}
 509              	.LCFI3:
 510              		.cfi_def_cfa_offset 16
 511              		.cfi_offset 4, -16
 512              		.cfi_offset 5, -12
 513              		.cfi_offset 6, -8
 514              		.cfi_offset 14, -4
 515 0002 0546     		mov	r5, r0
  83:user/user.cpp ****     uint8_t id = ptr[0];
 516              		.loc 3 83 5 is_stmt 1 view .LVU114
  83:user/user.cpp ****     uint8_t id = ptr[0];
 517              		.loc 3 83 13 is_stmt 0 view .LVU115
 518 0004 0346     		mov	r3, r0
 519 0006 13F8016B 		ldrb	r6, [r3], #1	@ zero_extendqisi2
 520              	.LVL31:
  85:user/user.cpp ****     jointSetPoints[id/2] = *((float*) (ptr + 1));
 521              		.loc 3 85 5 is_stmt 1 view .LVU116
  85:user/user.cpp ****     jointSetPoints[id/2] = *((float*) (ptr + 1));
 522              		.loc 3 85 22 is_stmt 0 view .LVU117
 523 000a 7608     		lsrs	r6, r6, #1
 524              	.LVL32:
  85:user/user.cpp ****     jointSetPoints[id/2] = *((float*) (ptr + 1));
 525              		.loc 3 85 26 view .LVU118
 526 000c 1A68     		ldr	r2, [r3]	@ float
 527 000e 164B     		ldr	r3, .L40
 528 0010 03EB8603 		add	r3, r3, r6, lsl #2
 529 0014 1A60     		str	r2, [r3]	@ float
 530              	.LVL33:
  86:user/user.cpp ****     isEnabled = ptr[5];
 531              		.loc 3 86 5 is_stmt 1 view .LVU119
  86:user/user.cpp ****     isEnabled = ptr[5];
 532              		.loc 3 86 22 is_stmt 0 view .LVU120
 533 0016 4379     		ldrb	r3, [r0, #5]	@ zero_extendqisi2
ARM GAS  C:\Users\ADMINI~1\AppData\Local\Temp\cctm9Caj.s 			page 20


 534 0018 003B     		subs	r3, r3, #0
 535 001a 18BF     		it	ne
 536 001c 0123     		movne	r3, #1
  86:user/user.cpp ****     isEnabled = ptr[5];
 537              		.loc 3 86 15 view .LVU121
 538 001e 134A     		ldr	r2, .L40+4
 539 0020 1370     		strb	r3, [r2]
  88:user/user.cpp ****     for(int i=0 ; i<32; i++)
 540              		.loc 3 88 5 is_stmt 1 view .LVU122
 541              	.LVL34:
 542              	.LBB15:
  88:user/user.cpp ****     for(int i=0 ; i<32; i++)
 543              		.loc 3 88 13 is_stmt 0 view .LVU123
 544 0022 0024     		movs	r4, #0
 545 0024 04E0     		b	.L37
 546              	.LVL35:
 547              	.L39:
  89:user/user.cpp ****         printf("%.2x ",ptr[i]);
 548              		.loc 3 89 9 is_stmt 1 discriminator 2 view .LVU124
  89:user/user.cpp ****         printf("%.2x ",ptr[i]);
 549              		.loc 3 89 15 is_stmt 0 discriminator 2 view .LVU125
 550 0026 295D     		ldrb	r1, [r5, r4]	@ zero_extendqisi2
 551 0028 1148     		ldr	r0, .L40+8
 552 002a FFF7FEFF 		bl	printf
 553              	.LVL36:
  88:user/user.cpp ****     for(int i=0 ; i<32; i++)
 554              		.loc 3 88 5 is_stmt 1 discriminator 2 view .LVU126
 555 002e 0134     		adds	r4, r4, #1
 556              	.LVL37:
 557              	.L37:
  88:user/user.cpp ****     for(int i=0 ; i<32; i++)
 558              		.loc 3 88 20 discriminator 3 view .LVU127
 559 0030 1F2C     		cmp	r4, #31
 560 0032 F8DD     		ble	.L39
 561              	.LBE15:
  90:user/user.cpp ****     printf("\r\n");
 562              		.loc 3 90 5 view .LVU128
  90:user/user.cpp ****     printf("\r\n");
 563              		.loc 3 90 11 is_stmt 0 view .LVU129
 564 0034 0F48     		ldr	r0, .L40+12
 565 0036 FFF7FEFF 		bl	puts
 566              	.LVL38:
 103:user/user.cpp ****     electron.UpdateJointAngle(electron.joint[id/2], jointSetPoints[id/2]);
 567              		.loc 3 103 5 is_stmt 1 view .LVU130
 103:user/user.cpp ****     electron.UpdateJointAngle(electron.joint[id/2], jointSetPoints[id/2]);
 568              		.loc 3 103 50 is_stmt 0 view .LVU131
 569 003a 0F4D     		ldr	r5, .L40+16
 570              	.LVL39:
 103:user/user.cpp ****     electron.UpdateJointAngle(electron.joint[id/2], jointSetPoints[id/2]);
 571              		.loc 3 103 50 view .LVU132
 572 003c C6EBC604 		rsb	r4, r6, r6, lsl #3
 573              	.LVL40:
 103:user/user.cpp ****     electron.UpdateJointAngle(electron.joint[id/2], jointSetPoints[id/2]);
 574              		.loc 3 103 50 view .LVU133
 575 0040 05EB8404 		add	r4, r5, r4, lsl #2
 576 0044 0434     		adds	r4, r4, #4
 103:user/user.cpp ****     electron.UpdateJointAngle(electron.joint[id/2], jointSetPoints[id/2]);
ARM GAS  C:\Users\ADMINI~1\AppData\Local\Temp\cctm9Caj.s 			page 21


 577              		.loc 3 103 30 view .LVU134
 578 0046 084B     		ldr	r3, .L40
 579 0048 03EB8606 		add	r6, r3, r6, lsl #2
 580 004c 96ED000A 		vldr.32	s0, [r6]
 581 0050 2146     		mov	r1, r4
 582 0052 2846     		mov	r0, r5
 583 0054 FFF7FEFF 		bl	_ZN5Robot16UpdateJointAngleERNS_13JointStatus_tEf
 584              	.LVL41:
 104:user/user.cpp ****     electron.SetJointEnable(electron.joint[id/2], isEnabled);
 585              		.loc 3 104 5 is_stmt 1 view .LVU135
 104:user/user.cpp ****     electron.SetJointEnable(electron.joint[id/2], isEnabled);
 586              		.loc 3 104 28 is_stmt 0 view .LVU136
 587 0058 044B     		ldr	r3, .L40+4
 588 005a 1A78     		ldrb	r2, [r3]	@ zero_extendqisi2
 589 005c 2146     		mov	r1, r4
 590 005e 2846     		mov	r0, r5
 591 0060 FFF7FEFF 		bl	_ZN5Robot14SetJointEnableERNS_13JointStatus_tEb
 592              	.LVL42:
 105:user/user.cpp **** }
 593              		.loc 3 105 1 view .LVU137
 594 0064 70BD     		pop	{r4, r5, r6, pc}
 595              	.L41:
 596 0066 00BF     		.align	2
 597              	.L40:
 598 0068 00000000 		.word	.LANCHOR12
 599 006c 00000000 		.word	.LANCHOR13
 600 0070 00000000 		.word	.LC7
 601 0074 08000000 		.word	.LC8
 602 0078 00000000 		.word	.LANCHOR1
 603              		.cfi_endproc
 604              	.LFE372:
 605              		.fnend
 607              		.section	.text._Z5setidPh,"ax",%progbits
 608              		.align	1
 609              		.global	_Z5setidPh
 610              		.syntax unified
 611              		.thumb
 612              		.thumb_func
 614              	_Z5setidPh:
 615              		.fnstart
 616              	.LVL43:
 617              	.LFB373:
 107:user/user.cpp **** {
 618              		.loc 3 107 1 is_stmt 1 view -0
 619              		.cfi_startproc
 620              		@ args = 0, pretend = 0, frame = 0
 621              		@ frame_needed = 0, uses_anonymous_args = 0
 107:user/user.cpp **** {
 622              		.loc 3 107 1 is_stmt 0 view .LVU139
 623 0000 08B5     		push	{r3, lr}
 624              		.save {r3, lr}
 625              	.LCFI4:
 626              		.cfi_def_cfa_offset 8
 627              		.cfi_offset 3, -8
 628              		.cfi_offset 14, -4
 108:user/user.cpp ****     uint8_t id = ptr[0];   
 629              		.loc 3 108 5 is_stmt 1 view .LVU140
ARM GAS  C:\Users\ADMINI~1\AppData\Local\Temp\cctm9Caj.s 			page 22


 108:user/user.cpp ****     uint8_t id = ptr[0];   
 630              		.loc 3 108 13 is_stmt 0 view .LVU141
 631 0002 0178     		ldrb	r1, [r0]	@ zero_extendqisi2
 632              	.LVL44:
 109:user/user.cpp ****     newid=ptr[1];
 633              		.loc 3 109 5 is_stmt 1 view .LVU142
 109:user/user.cpp ****     newid=ptr[1];
 634              		.loc 3 109 10 is_stmt 0 view .LVU143
 635 0004 4278     		ldrb	r2, [r0, #1]	@ zero_extendqisi2
 636 0006 064B     		ldr	r3, .L44
 637 0008 1A70     		strb	r2, [r3]
 110:user/user.cpp ****     electron.SetJointId(electron.joint[id/2], newid);
 638              		.loc 3 110 5 is_stmt 1 view .LVU144
 110:user/user.cpp ****     electron.SetJointId(electron.joint[id/2], newid);
 639              		.loc 3 110 42 is_stmt 0 view .LVU145
 640 000a 4908     		lsrs	r1, r1, #1
 641              	.LVL45:
 110:user/user.cpp ****     electron.SetJointId(electron.joint[id/2], newid);
 642              		.loc 3 110 44 view .LVU146
 643 000c 0548     		ldr	r0, .L44+4
 644              	.LVL46:
 110:user/user.cpp ****     electron.SetJointId(electron.joint[id/2], newid);
 645              		.loc 3 110 44 view .LVU147
 646 000e C1EBC101 		rsb	r1, r1, r1, lsl #3
 647 0012 00EB8101 		add	r1, r0, r1, lsl #2
 110:user/user.cpp ****     electron.SetJointId(electron.joint[id/2], newid);
 648              		.loc 3 110 24 view .LVU148
 649 0016 0431     		adds	r1, r1, #4
 650 0018 FFF7FEFF 		bl	_ZN5Robot10SetJointIdERNS_13JointStatus_tEh
 651              	.LVL47:
 111:user/user.cpp **** }
 652              		.loc 3 111 1 view .LVU149
 653 001c 08BD     		pop	{r3, pc}
 654              	.L45:
 655 001e 00BF     		.align	2
 656              	.L44:
 657 0020 00000000 		.word	.LANCHOR14
 658 0024 00000000 		.word	.LANCHOR1
 659              		.cfi_endproc
 660              	.LFE373:
 661              		.fnend
 663              		.section	.text._Z12setInitAnglePh,"ax",%progbits
 664              		.align	1
 665              		.global	_Z12setInitAnglePh
 666              		.syntax unified
 667              		.thumb
 668              		.thumb_func
 670              	_Z12setInitAnglePh:
 671              		.fnstart
 672              	.LVL48:
 673              	.LFB374:
 113:user/user.cpp **** {
 674              		.loc 3 113 1 is_stmt 1 view -0
 675              		.cfi_startproc
 676              		@ args = 0, pretend = 0, frame = 0
 677              		@ frame_needed = 0, uses_anonymous_args = 0
 113:user/user.cpp **** {
ARM GAS  C:\Users\ADMINI~1\AppData\Local\Temp\cctm9Caj.s 			page 23


 678              		.loc 3 113 1 is_stmt 0 view .LVU151
 679 0000 70B5     		push	{r4, r5, r6, lr}
 680              		.save {r4, r5, r6, lr}
 681              	.LCFI5:
 682              		.cfi_def_cfa_offset 16
 683              		.cfi_offset 4, -16
 684              		.cfi_offset 5, -12
 685              		.cfi_offset 6, -8
 686              		.cfi_offset 14, -4
 687 0002 0546     		mov	r5, r0
 114:user/user.cpp ****     uint8_t id = ptr[0];
 688              		.loc 3 114 5 is_stmt 1 view .LVU152
 114:user/user.cpp ****     uint8_t id = ptr[0];
 689              		.loc 3 114 13 is_stmt 0 view .LVU153
 690 0004 0346     		mov	r3, r0
 691 0006 13F8016B 		ldrb	r6, [r3], #1	@ zero_extendqisi2
 692              	.LVL49:
 115:user/user.cpp ****     jointSetPoints[id/2]=*((float*) (ptr + 1));
 693              		.loc 3 115 5 is_stmt 1 view .LVU154
 115:user/user.cpp ****     jointSetPoints[id/2]=*((float*) (ptr + 1));
 694              		.loc 3 115 22 is_stmt 0 view .LVU155
 695 000a 7608     		lsrs	r6, r6, #1
 696              	.LVL50:
 115:user/user.cpp ****     jointSetPoints[id/2]=*((float*) (ptr + 1));
 697              		.loc 3 115 25 view .LVU156
 698 000c 1A68     		ldr	r2, [r3]	@ float
 699 000e 0F4B     		ldr	r3, .L51
 700 0010 03EB8603 		add	r3, r3, r6, lsl #2
 701 0014 1A60     		str	r2, [r3]	@ float
 702              	.LVL51:
 116:user/user.cpp ****     for(int i=0 ; i<32; i++)
 703              		.loc 3 116 5 is_stmt 1 view .LVU157
 704              	.LBB16:
 116:user/user.cpp ****     for(int i=0 ; i<32; i++)
 705              		.loc 3 116 13 is_stmt 0 view .LVU158
 706 0016 0024     		movs	r4, #0
 707 0018 04E0     		b	.L48
 708              	.LVL52:
 709              	.L50:
 117:user/user.cpp ****         printf("%.2x ",ptr[i]);
 710              		.loc 3 117 9 is_stmt 1 discriminator 2 view .LVU159
 117:user/user.cpp ****         printf("%.2x ",ptr[i]);
 711              		.loc 3 117 15 is_stmt 0 discriminator 2 view .LVU160
 712 001a 295D     		ldrb	r1, [r5, r4]	@ zero_extendqisi2
 713 001c 0C48     		ldr	r0, .L51+4
 714 001e FFF7FEFF 		bl	printf
 715              	.LVL53:
 116:user/user.cpp ****     for(int i=0 ; i<32; i++)
 716              		.loc 3 116 5 is_stmt 1 discriminator 2 view .LVU161
 717 0022 0134     		adds	r4, r4, #1
 718              	.LVL54:
 719              	.L48:
 116:user/user.cpp ****     for(int i=0 ; i<32; i++)
 720              		.loc 3 116 20 discriminator 3 view .LVU162
 721 0024 1F2C     		cmp	r4, #31
 722 0026 F8DD     		ble	.L50
 723              	.LBE16:
ARM GAS  C:\Users\ADMINI~1\AppData\Local\Temp\cctm9Caj.s 			page 24


 118:user/user.cpp ****     printf("\r\n");
 724              		.loc 3 118 5 view .LVU163
 118:user/user.cpp ****     printf("\r\n");
 725              		.loc 3 118 11 is_stmt 0 view .LVU164
 726 0028 0A48     		ldr	r0, .L51+8
 727 002a FFF7FEFF 		bl	puts
 728              	.LVL55:
 120:user/user.cpp ****     electron.SetJointInitAngle(electron.joint[id/2], jointSetPoints[id/2]);
 729              		.loc 3 120 5 is_stmt 1 view .LVU165
 120:user/user.cpp ****     electron.SetJointInitAngle(electron.joint[id/2], jointSetPoints[id/2]);
 730              		.loc 3 120 51 is_stmt 0 view .LVU166
 731 002e 0A48     		ldr	r0, .L51+12
 732 0030 C6EBC601 		rsb	r1, r6, r6, lsl #3
 733 0034 00EB8101 		add	r1, r0, r1, lsl #2
 120:user/user.cpp ****     electron.SetJointInitAngle(electron.joint[id/2], jointSetPoints[id/2]);
 734              		.loc 3 120 31 view .LVU167
 735 0038 044B     		ldr	r3, .L51
 736 003a 03EB8606 		add	r6, r3, r6, lsl #2
 737 003e 96ED000A 		vldr.32	s0, [r6]
 738 0042 0431     		adds	r1, r1, #4
 739 0044 FFF7FEFF 		bl	_ZN5Robot17SetJointInitAngleERNS_13JointStatus_tEf
 740              	.LVL56:
 121:user/user.cpp **** }
 741              		.loc 3 121 1 view .LVU168
 742 0048 70BD     		pop	{r4, r5, r6, pc}
 743              	.LVL57:
 744              	.L52:
 121:user/user.cpp **** }
 745              		.loc 3 121 1 view .LVU169
 746 004a 00BF     		.align	2
 747              	.L51:
 748 004c 00000000 		.word	.LANCHOR12
 749 0050 00000000 		.word	.LC7
 750 0054 08000000 		.word	.LC8
 751 0058 00000000 		.word	.LANCHOR1
 752              		.cfi_endproc
 753              	.LFE374:
 754              		.fnend
 756              		.section	.text._Z14JumpBootLoaderPh,"ax",%progbits
 757              		.align	1
 758              		.global	_Z14JumpBootLoaderPh
 759              		.syntax unified
 760              		.thumb
 761              		.thumb_func
 763              	_Z14JumpBootLoaderPh:
 764              		.fnstart
 765              	.LVL58:
 766              	.LFB375:
 123:user/user.cpp **** {
 767              		.loc 3 123 1 is_stmt 1 view -0
 768              		.cfi_startproc
 769              		@ args = 0, pretend = 0, frame = 0
 770              		@ frame_needed = 0, uses_anonymous_args = 0
 123:user/user.cpp **** {
 771              		.loc 3 123 1 is_stmt 0 view .LVU171
 772 0000 08B5     		push	{r3, lr}
 773              		.save {r3, lr}
ARM GAS  C:\Users\ADMINI~1\AppData\Local\Temp\cctm9Caj.s 			page 25


 774              	.LCFI6:
 775              		.cfi_def_cfa_offset 8
 776              		.cfi_offset 3, -8
 777              		.cfi_offset 14, -4
 124:user/user.cpp ****     electron.pUsbBuffer->extraDataTx[31] = 0xfe;
 778              		.loc 3 124 5 is_stmt 1 view .LVU172
 124:user/user.cpp ****     electron.pUsbBuffer->extraDataTx[31] = 0xfe;
 779              		.loc 3 124 14 is_stmt 0 view .LVU173
 780 0002 0648     		ldr	r0, .L55
 781              	.LVL59:
 124:user/user.cpp ****     electron.pUsbBuffer->extraDataTx[31] = 0xfe;
 782              		.loc 3 124 14 view .LVU174
 783 0004 0168     		ldr	r1, [r0]
 124:user/user.cpp ****     electron.pUsbBuffer->extraDataTx[31] = 0xfe;
 784              		.loc 3 124 42 view .LVU175
 785 0006 FE23     		movs	r3, #254
 786 0008 CB77     		strb	r3, [r1, #31]
 125:user/user.cpp ****     electron.pUsbBuffer->extraDataTx[30] = 0x01;
 787              		.loc 3 125 5 is_stmt 1 view .LVU176
 125:user/user.cpp ****     electron.pUsbBuffer->extraDataTx[30] = 0x01;
 788              		.loc 3 125 42 is_stmt 0 view .LVU177
 789 000a 0123     		movs	r3, #1
 790 000c 8B77     		strb	r3, [r1, #30]
 126:user/user.cpp ****     electron.pUsbBuffer->extraDataTx[29] = 0x00;
 791              		.loc 3 126 5 is_stmt 1 view .LVU178
 126:user/user.cpp ****     electron.pUsbBuffer->extraDataTx[29] = 0x00;
 792              		.loc 3 126 42 is_stmt 0 view .LVU179
 793 000e 0023     		movs	r3, #0
 794 0010 4B77     		strb	r3, [r1, #29]
 127:user/user.cpp ****     electron.SendUsbPacket(electron.pUsbBuffer->extraDataTx, 32);
 795              		.loc 3 127 5 is_stmt 1 view .LVU180
 127:user/user.cpp ****     electron.SendUsbPacket(electron.pUsbBuffer->extraDataTx, 32);
 796              		.loc 3 127 27 is_stmt 0 view .LVU181
 797 0012 2022     		movs	r2, #32
 798 0014 FFF7FEFF 		bl	_ZN5Robot13SendUsbPacketEPhm
 799              	.LVL60:
 128:user/user.cpp **** }
 800              		.loc 3 128 1 view .LVU182
 801 0018 08BD     		pop	{r3, pc}
 802              	.L56:
 803 001a 00BF     		.align	2
 804              	.L55:
 805 001c 00000000 		.word	.LANCHOR1
 806              		.cfi_endproc
 807              	.LFE375:
 808              		.fnend
 810              		.section	.rodata.Main.str1.4,"aMS",%progbits,1
 811              		.align	2
 812              	.LC9:
 813 0000 7461736B 		.ascii	"task  p=%d : %d\015\012\000"
 813      2020703D 
 813      2564203A 
 813      2025640D 
 813      0A00
 814              		.section	.text.Main,"ax",%progbits
 815              		.align	1
 816              		.global	Main
ARM GAS  C:\Users\ADMINI~1\AppData\Local\Temp\cctm9Caj.s 			page 26


 817              		.syntax unified
 818              		.thumb
 819              		.thumb_func
 821              	Main:
 822              		.fnstart
 823              	.LFB376:
 131:user/user.cpp **** {
 824              		.loc 3 131 1 is_stmt 1 view -0
 825              		.cfi_startproc
 826              		@ args = 0, pretend = 0, frame = 0
 827              		@ frame_needed = 0, uses_anonymous_args = 0
 828 0000 30B5     		push	{r4, r5, lr}
 829              		.save {r4, r5, lr}
 830              	.LCFI7:
 831              		.cfi_def_cfa_offset 12
 832              		.cfi_offset 4, -12
 833              		.cfi_offset 5, -8
 834              		.cfi_offset 14, -4
 835              		.pad #12
 836 0002 83B0     		sub	sp, sp, #12
 837              	.LCFI8:
 838              		.cfi_def_cfa_offset 24
 132:user/user.cpp ****     int i;
 839              		.loc 3 132 5 view .LVU184
 133:user/user.cpp ****     int p=0;
 840              		.loc 3 133 5 view .LVU185
 841              	.LVL61:
 134:user/user.cpp ****     HAL_Delay(1000);
 842              		.loc 3 134 5 view .LVU186
 134:user/user.cpp ****     HAL_Delay(1000);
 843              		.loc 3 134 14 is_stmt 0 view .LVU187
 844 0004 4FF47A70 		mov	r0, #1000
 845 0008 FFF7FEFF 		bl	HAL_Delay
 846              	.LVL62:
 135:user/user.cpp ****     electron.lcd->Init(Screen::DEGREE_0);
 847              		.loc 3 135 5 is_stmt 1 view .LVU188
 135:user/user.cpp ****     electron.lcd->Init(Screen::DEGREE_0);
 848              		.loc 3 135 14 is_stmt 0 view .LVU189
 849 000c 4F4C     		ldr	r4, .L82
 135:user/user.cpp ****     electron.lcd->Init(Screen::DEGREE_0);
 850              		.loc 3 135 23 view .LVU190
 851 000e 0021     		movs	r1, #0
 852 0010 D4F8C800 		ldr	r0, [r4, #200]
 853 0014 FFF7FEFF 		bl	_ZN6Screen4InitENS_13Orientation_tE
 854              	.LVL63:
 136:user/user.cpp ****     electron.lcd->SetWindow(0, 239, 0, 239);
 855              		.loc 3 136 5 is_stmt 1 view .LVU191
 136:user/user.cpp ****     electron.lcd->SetWindow(0, 239, 0, 239);
 856              		.loc 3 136 28 is_stmt 0 view .LVU192
 857 0018 EF22     		movs	r2, #239
 858 001a 0092     		str	r2, [sp]
 859 001c 0023     		movs	r3, #0
 860 001e 1946     		mov	r1, r3
 861 0020 D4F8C800 		ldr	r0, [r4, #200]
 862 0024 FFF7FEFF 		bl	_ZN6Screen9SetWindowEtttt
 863              	.LVL64:
 137:user/user.cpp ****     for(int i=0;i<32;i++)
ARM GAS  C:\Users\ADMINI~1\AppData\Local\Temp\cctm9Caj.s 			page 27


 864              		.loc 3 137 5 is_stmt 1 view .LVU193
 865              	.LBB17:
 137:user/user.cpp ****     for(int i=0;i<32;i++)
 866              		.loc 3 137 13 is_stmt 0 view .LVU194
 867 0028 0023     		movs	r3, #0
 868              	.LVL65:
 869              	.L59:
 137:user/user.cpp ****     for(int i=0;i<32;i++)
 870              		.loc 3 137 18 is_stmt 1 discriminator 3 view .LVU195
 871 002a 1F2B     		cmp	r3, #31
 872 002c 06DC     		bgt	.L58
 138:user/user.cpp ****         electron.pUsbBuffer->extraDataTx[i]=32-i;
 873              		.loc 3 138 9 discriminator 2 view .LVU196
 138:user/user.cpp ****         electron.pUsbBuffer->extraDataTx[i]=32-i;
 874              		.loc 3 138 18 is_stmt 0 discriminator 2 view .LVU197
 875 002e 474A     		ldr	r2, .L82
 876 0030 1268     		ldr	r2, [r2]
 138:user/user.cpp ****         electron.pUsbBuffer->extraDataTx[i]=32-i;
 877              		.loc 3 138 47 discriminator 2 view .LVU198
 878 0032 C3F12001 		rsb	r1, r3, #32
 138:user/user.cpp ****         electron.pUsbBuffer->extraDataTx[i]=32-i;
 879              		.loc 3 138 44 discriminator 2 view .LVU199
 880 0036 D154     		strb	r1, [r2, r3]
 137:user/user.cpp ****     for(int i=0;i<32;i++)
 881              		.loc 3 137 5 is_stmt 1 discriminator 2 view .LVU200
 882 0038 0133     		adds	r3, r3, #1
 883              	.LVL66:
 137:user/user.cpp ****     for(int i=0;i<32;i++)
 884              		.loc 3 137 5 is_stmt 0 discriminator 2 view .LVU201
 885 003a F6E7     		b	.L59
 886              	.L58:
 137:user/user.cpp ****     for(int i=0;i<32;i++)
 887              		.loc 3 137 5 discriminator 2 view .LVU202
 888              	.LBE17:
 147:user/user.cpp ****     electron.UpdateJointAngle(electron.joint[6], 0); 
 889              		.loc 3 147 5 is_stmt 1 view .LVU203
 147:user/user.cpp ****     electron.UpdateJointAngle(electron.joint[6], 0); 
 890              		.loc 3 147 30 is_stmt 0 view .LVU204
 891 003c 4348     		ldr	r0, .L82
 892 003e 9FED440A 		vldr.32	s0, .L82+4
 893 0042 00F1AC01 		add	r1, r0, #172
 894 0046 FFF7FEFF 		bl	_ZN5Robot16UpdateJointAngleERNS_13JointStatus_tEf
 895              	.LVL67:
 133:user/user.cpp ****     int p=0;
 896              		.loc 3 133 9 view .LVU205
 897 004a 0024     		movs	r4, #0
 898 004c 36E0     		b	.L75
 899              	.LVL68:
 900              	.L61:
 901              	.LBB18:
 902              	.LBB19:
 150:user/user.cpp ****         for (int j = 0; j < 6; j++)
 903              		.loc 3 150 9 is_stmt 1 discriminator 2 view .LVU206
 904 004e 0130     		adds	r0, r0, #1
 905              	.LVL69:
 906              	.L63:
 150:user/user.cpp ****         for (int j = 0; j < 6; j++)
ARM GAS  C:\Users\ADMINI~1\AppData\Local\Temp\cctm9Caj.s 			page 28


 907              		.loc 3 150 27 discriminator 1 view .LVU207
 908 0050 0528     		cmp	r0, #5
 909 0052 12DC     		bgt	.L60
 910              	.LBB20:
 152:user/user.cpp ****             for (int i = 0; i < 4; i++)
 911              		.loc 3 152 22 is_stmt 0 view .LVU208
 912 0054 0022     		movs	r2, #0
 913              	.L62:
 914              	.LVL70:
 152:user/user.cpp ****             for (int i = 0; i < 4; i++)
 915              		.loc 3 152 31 is_stmt 1 discriminator 3 view .LVU209
 916 0056 032A     		cmp	r2, #3
 917 0058 F9DC     		bgt	.L61
 918              	.LBB21:
 154:user/user.cpp ****                 auto* b = (unsigned char*) &(electron.joint[j + 1].angle);
 919              		.loc 3 154 17 discriminator 2 view .LVU210
 154:user/user.cpp ****                 auto* b = (unsigned char*) &(electron.joint[j + 1].angle);
 920              		.loc 3 154 63 is_stmt 0 discriminator 2 view .LVU211
 921 005a 431C     		adds	r3, r0, #1
 154:user/user.cpp ****                 auto* b = (unsigned char*) &(electron.joint[j + 1].angle);
 922              		.loc 3 154 23 discriminator 2 view .LVU212
 923 005c 3B49     		ldr	r1, .L82
 924 005e C3EBC303 		rsb	r3, r3, r3, lsl #3
 925 0062 9B00     		lsls	r3, r3, #2
 926 0064 0833     		adds	r3, r3, #8
 927 0066 0B44     		add	r3, r3, r1
 928 0068 0833     		adds	r3, r3, #8
 929              	.LVL71:
 155:user/user.cpp ****                 electron.pUsbBuffer->extraDataTx[j * 4 + i + 1] = *(b + i);
 930              		.loc 3 155 17 is_stmt 1 discriminator 2 view .LVU213
 155:user/user.cpp ****                 electron.pUsbBuffer->extraDataTx[j * 4 + i + 1] = *(b + i);
 931              		.loc 3 155 26 is_stmt 0 discriminator 2 view .LVU214
 932 006a 0D68     		ldr	r5, [r1]
 155:user/user.cpp ****                 electron.pUsbBuffer->extraDataTx[j * 4 + i + 1] = *(b + i);
 933              		.loc 3 155 56 discriminator 2 view .LVU215
 934 006c 02EB8001 		add	r1, r2, r0, lsl #2
 155:user/user.cpp ****                 electron.pUsbBuffer->extraDataTx[j * 4 + i + 1] = *(b + i);
 935              		.loc 3 155 60 discriminator 2 view .LVU216
 936 0070 0131     		adds	r1, r1, #1
 155:user/user.cpp ****                 electron.pUsbBuffer->extraDataTx[j * 4 + i + 1] = *(b + i);
 937              		.loc 3 155 67 discriminator 2 view .LVU217
 938 0072 9B5C     		ldrb	r3, [r3, r2]	@ zero_extendqisi2
 939              	.LVL72:
 155:user/user.cpp ****                 electron.pUsbBuffer->extraDataTx[j * 4 + i + 1] = *(b + i);
 940              		.loc 3 155 65 discriminator 2 view .LVU218
 941 0074 6B54     		strb	r3, [r5, r1]
 942              	.LBE21:
 152:user/user.cpp ****             for (int i = 0; i < 4; i++)
 943              		.loc 3 152 13 is_stmt 1 discriminator 2 view .LVU219
 944 0076 0132     		adds	r2, r2, #1
 945              	.LVL73:
 152:user/user.cpp ****             for (int i = 0; i < 4; i++)
 946              		.loc 3 152 13 is_stmt 0 discriminator 2 view .LVU220
 947 0078 EDE7     		b	.L62
 948              	.LVL74:
 949              	.L60:
 152:user/user.cpp ****             for (int i = 0; i < 4; i++)
ARM GAS  C:\Users\ADMINI~1\AppData\Local\Temp\cctm9Caj.s 			page 29


 950              		.loc 3 152 13 discriminator 2 view .LVU221
 951              	.LBE20:
 952              	.LBE19:
 158:user/user.cpp ****         electron.SendUsbPacket(electron.pUsbBuffer->extraDataTx, 32);        
 953              		.loc 3 158 9 is_stmt 1 view .LVU222
 158:user/user.cpp ****         electron.SendUsbPacket(electron.pUsbBuffer->extraDataTx, 32);        
 954              		.loc 3 158 41 is_stmt 0 view .LVU223
 955 007a 344D     		ldr	r5, .L82
 158:user/user.cpp ****         electron.SendUsbPacket(electron.pUsbBuffer->extraDataTx, 32);        
 956              		.loc 3 158 31 view .LVU224
 957 007c 2022     		movs	r2, #32
 958 007e 2968     		ldr	r1, [r5]
 959 0080 2846     		mov	r0, r5
 960              	.LVL75:
 158:user/user.cpp ****         electron.SendUsbPacket(electron.pUsbBuffer->extraDataTx, 32);        
 961              		.loc 3 158 31 view .LVU225
 962 0082 FFF7FEFF 		bl	_ZN5Robot13SendUsbPacketEPhm
 963              	.LVL76:
 159:user/user.cpp ****         electron.ReceiveUsbPacketUntilSizeIs(224); // last packet is 224bytes
 964              		.loc 3 159 9 is_stmt 1 view .LVU226
 159:user/user.cpp ****         electron.ReceiveUsbPacketUntilSizeIs(224); // last packet is 224bytes
 965              		.loc 3 159 45 is_stmt 0 view .LVU227
 966 0086 E021     		movs	r1, #224
 967 0088 2846     		mov	r0, r5
 968 008a FFF7FEFF 		bl	_ZN5Robot27ReceiveUsbPacketUntilSizeIsEm
 969              	.LVL77:
 160:user/user.cpp ****         uint8_t* ptr = electron.GetExtraDataRxPtr();
 970              		.loc 3 160 9 is_stmt 1 view .LVU228
 160:user/user.cpp ****         uint8_t* ptr = electron.GetExtraDataRxPtr();
 971              		.loc 3 160 50 is_stmt 0 view .LVU229
 972 008e 2846     		mov	r0, r5
 973 0090 FFF7FEFF 		bl	_ZN5Robot17GetExtraDataRxPtrEv
 974              	.LVL78:
 975 0094 0546     		mov	r5, r0
 976              	.LVL79:
 162:user/user.cpp ****         if(ptr[31] == 0xee)  //设置参数
 977              		.loc 3 162 9 is_stmt 1 view .LVU230
 978              	.LBB23:
 162:user/user.cpp ****         if(ptr[31] == 0xee)  //设置参数
 979              		.loc 3 162 18 is_stmt 0 view .LVU231
 980 0096 C27F     		ldrb	r2, [r0, #31]	@ zero_extendqisi2
 162:user/user.cpp ****         if(ptr[31] == 0xee)  //设置参数
 981              		.loc 3 162 9 view .LVU232
 982 0098 EE2A     		cmp	r2, #238
 983 009a 0AD0     		beq	.L78
 984              	.LBE23:
 985              	.LBE18:
 166:user/user.cpp ****         else if(ptr[31] == 0xef)
 986              		.loc 3 166 14 is_stmt 1 view .LVU233
 987              	.LBB53:
 988              	.LBB45:
 989              	.LBB24:
 990 009c EF2A     		cmp	r2, #239
 991 009e 0FD0     		beq	.L79
 992              	.LBE24:
 993              	.LBE45:
 994              	.LBE53:
ARM GAS  C:\Users\ADMINI~1\AppData\Local\Temp\cctm9Caj.s 			page 30


 171:user/user.cpp ****         else if(ptr[31] == 0xf0)
 995              		.loc 3 171 14 view .LVU234
 996              	.LBB54:
 997              	.LBB46:
 998              	.LBB40:
 999              	.LBB25:
 1000 00a0 F02A     		cmp	r2, #240
 1001 00a2 10D0     		beq	.L80
 1002              	.LBE25:
 1003              	.LBE40:
 1004              	.LBE46:
 1005              	.LBE54:
 175:user/user.cpp ****         else if(ptr[31] == 0xf1)
 1006              		.loc 3 175 14 view .LVU235
 1007              	.LBB55:
 1008              	.LBB47:
 1009              	.LBB41:
 1010              	.LBB36:
 1011              	.LBB26:
 1012 00a4 F12A     		cmp	r2, #241
 1013 00a6 11D0     		beq	.L81
 1014              	.LBE26:
 1015              	.LBE36:
 1016              	.LBE41:
 1017              	.LBE47:
 1018              	.LBE55:
 179:user/user.cpp ****         else if(ptr[31] == 0xfe)
 1019              		.loc 3 179 14 view .LVU236
 1020              	.LBB56:
 1021              	.LBB48:
 1022              	.LBB42:
 1023              	.LBB37:
 1024              	.LBB33:
 1025              	.LBB27:
 1026 00a8 FE2A     		cmp	r2, #254
 1027 00aa 12D1     		bne	.L69
 181:user/user.cpp ****              JumpBootLoader(ptr);
 1028              		.loc 3 181 14 view .LVU237
 181:user/user.cpp ****              JumpBootLoader(ptr);
 1029              		.loc 3 181 28 is_stmt 0 view .LVU238
 1030 00ac FFF7FEFF 		bl	_Z14JumpBootLoaderPh
 1031              	.LVL80:
 181:user/user.cpp ****              JumpBootLoader(ptr);
 1032              		.loc 3 181 28 view .LVU239
 1033 00b0 01E0     		b	.L65
 1034              	.LVL81:
 1035              	.L78:
 181:user/user.cpp ****              JumpBootLoader(ptr);
 1036              		.loc 3 181 28 view .LVU240
 1037              	.LBE27:
 1038              	.LBE33:
 1039              	.LBE37:
 1040              	.LBE42:
 164:user/user.cpp ****             setPara(ptr);
 1041              		.loc 3 164 13 is_stmt 1 view .LVU241
 164:user/user.cpp ****             setPara(ptr);
 1042              		.loc 3 164 20 is_stmt 0 view .LVU242
ARM GAS  C:\Users\ADMINI~1\AppData\Local\Temp\cctm9Caj.s 			page 31


 1043 00b2 FFF7FEFF 		bl	setPara
 1044              	.LVL82:
 1045              	.L65:
 164:user/user.cpp ****             setPara(ptr);
 1046              		.loc 3 164 20 view .LVU243
 1047              	.LBE48:
 218:user/user.cpp ****         HAL_Delay(1);
 1048              		.loc 3 218 9 is_stmt 1 view .LVU244
 218:user/user.cpp ****         HAL_Delay(1);
 1049              		.loc 3 218 18 is_stmt 0 view .LVU245
 1050 00b6 0120     		movs	r0, #1
 1051 00b8 FFF7FEFF 		bl	HAL_Delay
 1052              	.LVL83:
 1053              	.LBE56:
 148:user/user.cpp ****     while(1)
 1054              		.loc 3 148 5 is_stmt 1 view .LVU246
 1055              	.L75:
 148:user/user.cpp ****     while(1)
 1056              		.loc 3 148 5 view .LVU247
 1057              	.LBB57:
 150:user/user.cpp ****         for (int j = 0; j < 6; j++)
 1058              		.loc 3 150 9 view .LVU248
 1059              	.LBB49:
 150:user/user.cpp ****         for (int j = 0; j < 6; j++)
 1060              		.loc 3 150 18 is_stmt 0 view .LVU249
 1061 00bc 0020     		movs	r0, #0
 1062 00be C7E7     		b	.L63
 1063              	.LVL84:
 1064              	.L79:
 150:user/user.cpp ****         for (int j = 0; j < 6; j++)
 1065              		.loc 3 150 18 view .LVU250
 1066              	.LBE49:
 1067              	.LBB50:
 1068              	.LBB43:
 168:user/user.cpp ****             setAngle(ptr);
 1069              		.loc 3 168 13 is_stmt 1 view .LVU251
 168:user/user.cpp ****             setAngle(ptr);
 1070              		.loc 3 168 21 is_stmt 0 view .LVU252
 1071 00c0 FFF7FEFF 		bl	setAngle
 1072              	.LVL85:
 168:user/user.cpp ****             setAngle(ptr);
 1073              		.loc 3 168 21 view .LVU253
 1074 00c4 F7E7     		b	.L65
 1075              	.LVL86:
 1076              	.L80:
 1077              	.LBB38:
 173:user/user.cpp ****              setid(ptr);         
 1078              		.loc 3 173 14 is_stmt 1 view .LVU254
 173:user/user.cpp ****              setid(ptr);         
 1079              		.loc 3 173 19 is_stmt 0 view .LVU255
 1080 00c6 FFF7FEFF 		bl	_Z5setidPh
 1081              	.LVL87:
 173:user/user.cpp ****              setid(ptr);         
 1082              		.loc 3 173 19 view .LVU256
 1083 00ca F4E7     		b	.L65
 1084              	.LVL88:
 1085              	.L81:
ARM GAS  C:\Users\ADMINI~1\AppData\Local\Temp\cctm9Caj.s 			page 32


 1086              	.LBB34:
 177:user/user.cpp ****              setInitAngle(ptr);
 1087              		.loc 3 177 14 is_stmt 1 view .LVU257
 177:user/user.cpp ****              setInitAngle(ptr);
 1088              		.loc 3 177 26 is_stmt 0 view .LVU258
 1089 00cc FFF7FEFF 		bl	_Z12setInitAnglePh
 1090              	.LVL89:
 177:user/user.cpp ****              setInitAngle(ptr);
 1091              		.loc 3 177 26 view .LVU259
 1092 00d0 F1E7     		b	.L65
 1093              	.LVL90:
 1094              	.L69:
 1095              	.LBB31:
 1096              	.LBB28:
 185:user/user.cpp ****             printf("task  p=%d : %d\r\n",p,ptr[31]);
 1097              		.loc 3 185 13 is_stmt 1 view .LVU260
 185:user/user.cpp ****             printf("task  p=%d : %d\r\n",p,ptr[31]);
 1098              		.loc 3 185 19 is_stmt 0 view .LVU261
 1099 00d2 2146     		mov	r1, r4
 1100 00d4 1F48     		ldr	r0, .L82+8
 1101              	.LVL91:
 185:user/user.cpp ****             printf("task  p=%d : %d\r\n",p,ptr[31]);
 1102              		.loc 3 185 19 view .LVU262
 1103 00d6 FFF7FEFF 		bl	printf
 1104              	.LVL92:
 188:user/user.cpp ****             if (isEnabled != (bool) ptr[0])
 1105              		.loc 3 188 13 is_stmt 1 view .LVU263
 188:user/user.cpp ****             if (isEnabled != (bool) ptr[0])
 1106              		.loc 3 188 27 is_stmt 0 view .LVU264
 1107 00da 1F4B     		ldr	r3, .L82+12
 1108 00dc 1A78     		ldrb	r2, [r3]	@ zero_extendqisi2
 188:user/user.cpp ****             if (isEnabled != (bool) ptr[0])
 1109              		.loc 3 188 42 view .LVU265
 1110 00de 2B78     		ldrb	r3, [r5]	@ zero_extendqisi2
 188:user/user.cpp ****             if (isEnabled != (bool) ptr[0])
 1111              		.loc 3 188 30 view .LVU266
 1112 00e0 003B     		subs	r3, r3, #0
 1113 00e2 18BF     		it	ne
 1114 00e4 0123     		movne	r3, #1
 188:user/user.cpp ****             if (isEnabled != (bool) ptr[0])
 1115              		.loc 3 188 13 view .LVU267
 1116 00e6 9A42     		cmp	r2, r3
 1117 00e8 01D0     		beq	.L70
 190:user/user.cpp ****                 isEnabled = ptr[0];
 1118              		.loc 3 190 17 is_stmt 1 view .LVU268
 190:user/user.cpp ****                 isEnabled = ptr[0];
 1119              		.loc 3 190 27 is_stmt 0 view .LVU269
 1120 00ea 1B4A     		ldr	r2, .L82+12
 1121 00ec 1370     		strb	r3, [r2]
 1122              	.L70:
 1123              	.LBE28:
 1124              	.LBE31:
 1125              	.LBE34:
 1126              	.LBE38:
 1127              	.LBE43:
 1128              	.LBE50:
 1129              	.LBB51:
ARM GAS  C:\Users\ADMINI~1\AppData\Local\Temp\cctm9Caj.s 			page 33


 1130              	.LBB22:
 152:user/user.cpp ****             for (int i = 0; i < 4; i++)
 1131              		.loc 3 152 22 discriminator 3 view .LVU270
 1132 00ee 0023     		movs	r3, #0
 1133              	.L72:
 1134              	.LVL93:
 152:user/user.cpp ****             for (int i = 0; i < 4; i++)
 1135              		.loc 3 152 22 discriminator 3 view .LVU271
 1136              	.LBE22:
 1137              	.LBE51:
 1138              	.LBB52:
 1139              	.LBB44:
 1140              	.LBB39:
 1141              	.LBB35:
 1142              	.LBB32:
 1143              	.LBB30:
 1144              	.LBB29:
 198:user/user.cpp ****             for (int j = 0; j < 6; j++)
 1145              		.loc 3 198 31 is_stmt 1 discriminator 3 view .LVU272
 1146 00f0 052B     		cmp	r3, #5
 1147 00f2 08DC     		bgt	.L71
 200:user/user.cpp ****                 jointSetPoints[j] = *((float*) (ptr + 4 * j + 1));
 1148              		.loc 3 200 17 discriminator 2 view .LVU273
 200:user/user.cpp ****                 jointSetPoints[j] = *((float*) (ptr + 4 * j + 1));
 1149              		.loc 3 200 57 is_stmt 0 discriminator 2 view .LVU274
 1150 00f4 9800     		lsls	r0, r3, #2
 200:user/user.cpp ****                 jointSetPoints[j] = *((float*) (ptr + 4 * j + 1));
 1151              		.loc 3 200 61 discriminator 2 view .LVU275
 1152 00f6 411C     		adds	r1, r0, #1
 1153 00f8 2944     		add	r1, r1, r5
 200:user/user.cpp ****                 jointSetPoints[j] = *((float*) (ptr + 4 * j + 1));
 1154              		.loc 3 200 37 discriminator 2 view .LVU276
 1155 00fa 0968     		ldr	r1, [r1]	@ float
 200:user/user.cpp ****                 jointSetPoints[j] = *((float*) (ptr + 4 * j + 1));
 1156              		.loc 3 200 35 discriminator 2 view .LVU277
 1157 00fc 174A     		ldr	r2, .L82+16
 1158 00fe 0244     		add	r2, r2, r0
 1159 0100 1160     		str	r1, [r2]	@ float
 198:user/user.cpp ****             for (int j = 0; j < 6; j++)
 1160              		.loc 3 198 13 is_stmt 1 discriminator 2 view .LVU278
 1161 0102 0133     		adds	r3, r3, #1
 1162              	.LVL94:
 198:user/user.cpp ****             for (int j = 0; j < 6; j++)
 1163              		.loc 3 198 13 is_stmt 0 discriminator 2 view .LVU279
 1164 0104 F4E7     		b	.L72
 1165              	.LVL95:
 1166              	.L71:
 198:user/user.cpp ****             for (int j = 0; j < 6; j++)
 1167              		.loc 3 198 13 discriminator 2 view .LVU280
 1168              	.LBE29:
 203:user/user.cpp ****             while (electron.lcd->isBusy);
 1169              		.loc 3 203 13 is_stmt 1 view .LVU281
 203:user/user.cpp ****             while (electron.lcd->isBusy);
 1170              		.loc 3 203 34 view .LVU282
 203:user/user.cpp ****             while (electron.lcd->isBusy);
 1171              		.loc 3 203 29 is_stmt 0 view .LVU283
 1172 0106 114B     		ldr	r3, .L82
ARM GAS  C:\Users\ADMINI~1\AppData\Local\Temp\cctm9Caj.s 			page 34


 1173 0108 D3F8C850 		ldr	r5, [r3, #200]
 203:user/user.cpp ****             while (electron.lcd->isBusy);
 1174              		.loc 3 203 34 view .LVU284
 1175 010c 2B78     		ldrb	r3, [r5]	@ zero_extendqisi2
 1176 010e 002B     		cmp	r3, #0
 1177 0110 F9D1     		bne	.L71
 209:user/user.cpp ****             if (p == 0)
 1178              		.loc 3 209 13 is_stmt 1 view .LVU285
 1179 0112 74B9     		cbnz	r4, .L73
 210:user/user.cpp ****                 electron.lcd->WriteFrameBuffer(electron.GetLcdBufferPtr(),60 * 240 * 3,false);
 1180              		.loc 3 210 17 view .LVU286
 210:user/user.cpp ****                 electron.lcd->WriteFrameBuffer(electron.GetLcdBufferPtr(),60 * 240 * 3,false);
 1181              		.loc 3 210 47 is_stmt 0 view .LVU287
 1182 0114 0D48     		ldr	r0, .L82
 1183 0116 FFF7FEFF 		bl	_ZN5Robot15GetLcdBufferPtrEv
 1184              	.LVL96:
 1185 011a 0146     		mov	r1, r0
 1186 011c 0023     		movs	r3, #0
 1187 011e 4AF6C002 		movw	r2, #43200
 1188 0122 2846     		mov	r0, r5
 1189 0124 FFF7FEFF 		bl	_ZN6Screen16WriteFrameBufferEPhmb
 1190              	.LVL97:
 1191              	.L74:
 213:user/user.cpp ****             if(p++>=3)
 1192              		.loc 3 213 13 is_stmt 1 view .LVU288
 213:user/user.cpp ****             if(p++>=3)
 1193              		.loc 3 213 17 is_stmt 0 view .LVU289
 1194 0128 631C     		adds	r3, r4, #1
 1195              	.LVL98:
 213:user/user.cpp ****             if(p++>=3)
 1196              		.loc 3 213 13 view .LVU290
 1197 012a 022C     		cmp	r4, #2
 1198 012c 0CDC     		bgt	.L76
 213:user/user.cpp ****             if(p++>=3)
 1199              		.loc 3 213 17 view .LVU291
 1200 012e 1C46     		mov	r4, r3
 1201 0130 C1E7     		b	.L65
 1202              	.LVL99:
 1203              	.L73:
 212:user/user.cpp ****                 electron.lcd->WriteFrameBuffer(electron.GetLcdBufferPtr(),60 * 240 * 3, true);
 1204              		.loc 3 212 17 is_stmt 1 view .LVU292
 212:user/user.cpp ****                 electron.lcd->WriteFrameBuffer(electron.GetLcdBufferPtr(),60 * 240 * 3, true);
 1205              		.loc 3 212 47 is_stmt 0 view .LVU293
 1206 0132 0648     		ldr	r0, .L82
 1207 0134 FFF7FEFF 		bl	_ZN5Robot15GetLcdBufferPtrEv
 1208              	.LVL100:
 1209 0138 0146     		mov	r1, r0
 1210 013a 0123     		movs	r3, #1
 1211 013c 4AF6C002 		movw	r2, #43200
 1212 0140 2846     		mov	r0, r5
 1213 0142 FFF7FEFF 		bl	_ZN6Screen16WriteFrameBufferEPhmb
 1214              	.LVL101:
 1215 0146 EFE7     		b	.L74
 1216              	.LVL102:
 1217              	.L76:
 214:user/user.cpp ****                 p=0;
 1218              		.loc 3 214 18 view .LVU294
ARM GAS  C:\Users\ADMINI~1\AppData\Local\Temp\cctm9Caj.s 			page 35


 1219 0148 0024     		movs	r4, #0
 1220 014a B4E7     		b	.L65
 1221              	.L83:
 1222              		.align	2
 1223              	.L82:
 1224 014c 00000000 		.word	.LANCHOR1
 1225 0150 00000000 		.word	0
 1226 0154 00000000 		.word	.LC9
 1227 0158 00000000 		.word	.LANCHOR13
 1228 015c 00000000 		.word	.LANCHOR12
 1229              	.LBE30:
 1230              	.LBE32:
 1231              	.LBE35:
 1232              	.LBE39:
 1233              	.LBE44:
 1234              	.LBE52:
 1235              	.LBE57:
 1236              		.cfi_endproc
 1237              	.LFE376:
 1238              		.fnend
 1240              		.section	.text.HAL_SPI_TxCpltCallback,"ax",%progbits
 1241              		.align	1
 1242              		.global	HAL_SPI_TxCpltCallback
 1243              		.syntax unified
 1244              		.thumb
 1245              		.thumb_func
 1247              	HAL_SPI_TxCpltCallback:
 1248              		.fnstart
 1249              	.LVL103:
 1250              	.LFB377:
 292:user/user.cpp **** {
 1251              		.loc 3 292 1 is_stmt 1 view -0
 1252              		.cfi_startproc
 1253              		@ args = 0, pretend = 0, frame = 0
 1254              		@ frame_needed = 0, uses_anonymous_args = 0
 1255              		@ link register save eliminated.
 293:user/user.cpp ****     electron.lcd->isBusy = false;
 1256              		.loc 3 293 5 view .LVU296
 293:user/user.cpp ****     electron.lcd->isBusy = false;
 1257              		.loc 3 293 14 is_stmt 0 view .LVU297
 1258 0000 024B     		ldr	r3, .L85
 1259 0002 D3F8C830 		ldr	r3, [r3, #200]
 293:user/user.cpp ****     electron.lcd->isBusy = false;
 1260              		.loc 3 293 26 view .LVU298
 1261 0006 0022     		movs	r2, #0
 1262 0008 1A70     		strb	r2, [r3]
 1263              		.loc 3 294 1 view .LVU299
 1264 000a 7047     		bx	lr
 1265              	.L86:
 1266              		.align	2
 1267              	.L85:
 1268 000c 00000000 		.word	.LANCHOR1
 1269              		.cfi_endproc
 1270              	.LFE377:
 1271              		.cantunwind
 1272              		.fnend
 1274              		.section	.text._GLOBAL__sub_I_electron,"ax",%progbits
ARM GAS  C:\Users\ADMINI~1\AppData\Local\Temp\cctm9Caj.s 			page 36


 1275              		.align	1
 1276              		.syntax unified
 1277              		.thumb
 1278              		.thumb_func
 1280              	_GLOBAL__sub_I_electron:
 1281              		.fnstart
 1282              	.LFB379:
 1283              		.loc 3 294 1 is_stmt 1 view -0
 1284              		.cfi_startproc
 1285              		@ args = 0, pretend = 0, frame = 0
 1286              		@ frame_needed = 0, uses_anonymous_args = 0
 1287 0000 08B5     		push	{r3, lr}
 1288              	.LCFI9:
 1289              		.cfi_def_cfa_offset 8
 1290              		.cfi_offset 3, -8
 1291              		.cfi_offset 14, -4
 1292              		.loc 3 294 1 is_stmt 0 view .LVU301
 1293 0002 4FF6FF71 		movw	r1, #65535
 1294 0006 0120     		movs	r0, #1
 1295 0008 FFF7FEFF 		bl	_Z41__static_initialization_and_destruction_0ii
 1296              	.LVL104:
 1297 000c 08BD     		pop	{r3, pc}
 1298              		.cfi_endproc
 1299              	.LFE379:
 1300              		.cantunwind
 1301              		.fnend
 1303              		.section	.init_array,"aw",%init_array
 1304              		.align	2
 1305 0000 00000000 		.word	_GLOBAL__sub_I_electron(target1)
 1306              		.global	newid
 1307              		.global	settq_flag
 1308              		.global	setkd_flag
 1309              		.global	setkv_flag
 1310              		.global	setki_flag
 1311              		.global	setkp_flag
 1312              		.global	setTq
 1313              		.global	setKd
 1314              		.global	setKv
 1315              		.global	setKi
 1316              		.global	setKp
 1317              		.global	isEnabled
 1318              		.global	jointSetPoints
 1319              		.global	electron
 1320              		.section	.rodata
 1321              		.align	2
 1322              		.set	.LANCHOR0,. + 0
 1323              	.LC0:
 1324 0000 00       		.byte	0
 1325 0001 000000   		.space	3
 1326 0004 000034C3 		.word	-1020002304
 1327 0008 00003443 		.word	1127481344
 1328 000c 0000B442 		.word	1119092736
 1329 0010 00000000 		.word	0
 1330 0014 00000000 		.word	0
 1331 0018 00       		.byte	0
 1332 0019 000000   		.space	3
 1333              	.LC1:
ARM GAS  C:\Users\ADMINI~1\AppData\Local\Temp\cctm9Caj.s 			page 37


 1334 001c 02       		.byte	2
 1335 001d 000000   		.space	3
 1336 0020 00008C42 		.word	1116471296
 1337 0024 0000BE42 		.word	1119748096
 1338 0028 00000000 		.word	0
 1339 002c 000070C1 		.word	-1049624576
 1340 0030 00007041 		.word	1097859072
 1341 0034 01       		.byte	1
 1342 0035 000000   		.space	3
 1343              	.LC2:
 1344 0038 04       		.byte	4
 1345 0039 000000   		.space	3
 1346 003c 000010C1 		.word	-1055916032
 1347 0040 00004040 		.word	1077936128
 1348 0044 00000000 		.word	0
 1349 0048 00000000 		.word	0
 1350 004c 0000F041 		.word	1106247680
 1351 0050 00       		.byte	0
 1352 0051 000000   		.space	3
 1353              	.LC3:
 1354 0054 06       		.byte	6
 1355 0055 000000   		.space	3
 1356 0058 000080C1 		.word	-1048576000
 1357 005c 0000EA42 		.word	1122631680
 1358 0060 00000000 		.word	0
 1359 0064 0000A0C1 		.word	-1046478848
 1360 0068 00003443 		.word	1127481344
 1361 006c 00       		.byte	0
 1362 006d 000000   		.space	3
 1363              	.LC4:
 1364 0070 08       		.byte	8
 1365 0071 000000   		.space	3
 1366 0074 00000543 		.word	1124401152
 1367 0078 00000D43 		.word	1124925440
 1368 007c 00000000 		.word	0
 1369 0080 00000000 		.word	0
 1370 0084 0000F041 		.word	1106247680
 1371 0088 01       		.byte	1
 1372 0089 000000   		.space	3
 1373              	.LC5:
 1374 008c 0A       		.byte	10
 1375 008d 000000   		.space	3
 1376 0090 00007041 		.word	1097859072
 1377 0094 00001643 		.word	1125515264
 1378 0098 00000000 		.word	0
 1379 009c 0000A0C1 		.word	-1046478848
 1380 00a0 00003443 		.word	1127481344
 1381 00a4 01       		.byte	1
 1382 00a5 000000   		.space	3
 1383              	.LC6:
 1384 00a8 0C       		.byte	12
 1385 00a9 000000   		.space	3
 1386 00ac 00000000 		.word	0
 1387 00b0 00003443 		.word	1127481344
 1388 00b4 00000000 		.word	0
 1389 00b8 0000B4C2 		.word	-1028390912
 1390 00bc 0000B442 		.word	1119092736
ARM GAS  C:\Users\ADMINI~1\AppData\Local\Temp\cctm9Caj.s 			page 38


 1391 00c0 00       		.byte	0
 1392 00c1 000000   		.space	3
 1393              		.section	.bss.electron,"aw",%nobits
 1394              		.align	2
 1395              		.set	.LANCHOR1,. + 0
 1398              	electron:
 1399 0000 00000000 		.space	260
 1399      00000000 
 1399      00000000 
 1399      00000000 
 1399      00000000 
 1400              		.section	.bss.isEnabled,"aw",%nobits
 1401              		.set	.LANCHOR13,. + 0
 1404              	isEnabled:
 1405 0000 00       		.space	1
 1406              		.section	.bss.jointSetPoints,"aw",%nobits
 1407              		.align	2
 1408              		.set	.LANCHOR12,. + 0
 1411              	jointSetPoints:
 1412 0000 00000000 		.space	24
 1412      00000000 
 1412      00000000 
 1412      00000000 
 1412      00000000 
 1413              		.section	.bss.newid,"aw",%nobits
 1414              		.set	.LANCHOR14,. + 0
 1417              	newid:
 1418 0000 00       		.space	1
 1419              		.section	.bss.setKd,"aw",%nobits
 1420              		.align	2
 1421              		.set	.LANCHOR5,. + 0
 1424              	setKd:
 1425 0000 00000000 		.space	4
 1426              		.section	.bss.setKi,"aw",%nobits
 1427              		.align	2
 1428              		.set	.LANCHOR3,. + 0
 1431              	setKi:
 1432 0000 00000000 		.space	4
 1433              		.section	.bss.setKp,"aw",%nobits
 1434              		.align	2
 1435              		.set	.LANCHOR2,. + 0
 1438              	setKp:
 1439 0000 00000000 		.space	4
 1440              		.section	.bss.setKv,"aw",%nobits
 1441              		.align	2
 1442              		.set	.LANCHOR4,. + 0
 1445              	setKv:
 1446 0000 00000000 		.space	4
 1447              		.section	.bss.setTq,"aw",%nobits
 1448              		.align	2
 1449              		.set	.LANCHOR6,. + 0
 1452              	setTq:
 1453 0000 00000000 		.space	4
 1454              		.section	.bss.setkd_flag,"aw",%nobits
 1455              		.set	.LANCHOR10,. + 0
 1458              	setkd_flag:
 1459 0000 00       		.space	1
ARM GAS  C:\Users\ADMINI~1\AppData\Local\Temp\cctm9Caj.s 			page 39


 1460              		.section	.bss.setki_flag,"aw",%nobits
 1461              		.set	.LANCHOR8,. + 0
 1464              	setki_flag:
 1465 0000 00       		.space	1
 1466              		.section	.bss.setkp_flag,"aw",%nobits
 1467              		.set	.LANCHOR7,. + 0
 1470              	setkp_flag:
 1471 0000 00       		.space	1
 1472              		.section	.bss.setkv_flag,"aw",%nobits
 1473              		.set	.LANCHOR9,. + 0
 1476              	setkv_flag:
 1477 0000 00       		.space	1
 1478              		.section	.bss.settq_flag,"aw",%nobits
 1479              		.set	.LANCHOR11,. + 0
 1482              	settq_flag:
 1483 0000 00       		.space	1
 1484              		.text
 1485              	.Letext0:
 1486              		.file 4 "e:\\program files (x86)\\gnu arm embedded toolchain\\10 2021.10\\arm-none-eabi\\include\\
 1487              		.file 5 "e:\\program files (x86)\\gnu arm embedded toolchain\\10 2021.10\\arm-none-eabi\\include\\
 1488              		.file 6 "e:\\program files (x86)\\gnu arm embedded toolchain\\10 2021.10\\arm-none-eabi\\include\\
 1489              		.file 7 "e:\\program files (x86)\\gnu arm embedded toolchain\\10 2021.10\\arm-none-eabi\\include\\
 1490              		.file 8 "e:\\program files (x86)\\gnu arm embedded toolchain\\10 2021.10\\arm-none-eabi\\include\\
 1491              		.file 9 "e:\\program files (x86)\\gnu arm embedded toolchain\\10 2021.10\\lib\\gcc\\arm-none-eabi\
 1492              		.file 10 "e:\\program files (x86)\\gnu arm embedded toolchain\\10 2021.10\\arm-none-eabi\\include\
 1493              		.file 11 "e:\\program files (x86)\\gnu arm embedded toolchain\\10 2021.10\\arm-none-eabi\\include\
 1494              		.file 12 "e:\\program files (x86)\\gnu arm embedded toolchain\\10 2021.10\\arm-none-eabi\\include\
 1495              		.file 13 "e:\\program files (x86)\\gnu arm embedded toolchain\\10 2021.10\\arm-none-eabi\\include\
 1496              		.file 14 "Drivers/CMSIS/Device/ST/STM32F4xx/Include/stm32f405xx.h"
 1497              		.file 15 "Drivers/CMSIS/Device/ST/STM32F4xx/Include/stm32f4xx.h"
 1498              		.file 16 "Drivers/STM32F4xx_HAL_Driver/Inc/stm32f4xx_hal_def.h"
 1499              		.file 17 "Drivers/STM32F4xx_HAL_Driver/Inc/stm32f4xx_hal_dma.h"
 1500              		.file 18 "Drivers/STM32F4xx_HAL_Driver/Inc/stm32f4xx_hal_i2c.h"
 1501              		.file 19 "Drivers/STM32F4xx_HAL_Driver/Inc/stm32f4xx_hal_spi.h"
 1502              		.file 20 "Drivers/STM32F4xx_HAL_Driver/Inc/stm32f4xx_hal.h"
 1503              		.file 21 "e:\\program files (x86)\\gnu arm embedded toolchain\\10 2021.10\\arm-none-eabi\\include\
 1504              		.file 22 "user/common_inc.h"
 1505              		.file 23 "Inc/spi.h"
 1506              		.file 24 "Inc/i2c.h"
 1507              		.file 25 "e:\\program files (x86)\\gnu arm embedded toolchain\\10 2021.10\\arm-none-eabi\\include\
 1508              		.file 26 "<built-in>"
ARM GAS  C:\Users\ADMINI~1\AppData\Local\Temp\cctm9Caj.s 			page 40


DEFINED SYMBOLS
                            *ABS*:00000000 user.cpp
C:\Users\ADMINI~1\AppData\Local\Temp\cctm9Caj.s:20     .text._ZN5RobotC2EP19__SPI_HandleTypeDefP17I2C_HandleTypeDef:00000000 $t
C:\Users\ADMINI~1\AppData\Local\Temp\cctm9Caj.s:26     .text._ZN5RobotC2EP19__SPI_HandleTypeDefP17I2C_HandleTypeDef:00000000 _ZN5RobotC2EP19__SPI_HandleTypeDefP17I2C_HandleTypeDef
C:\Users\ADMINI~1\AppData\Local\Temp\cctm9Caj.s:171    .text._ZN5RobotC2EP19__SPI_HandleTypeDefP17I2C_HandleTypeDef:000000f0 $d
.ARM.exidx.text._ZN5RobotC2EP19__SPI_HandleTypeDefP17I2C_HandleTypeDef:00000000 $d
C:\Users\ADMINI~1\AppData\Local\Temp\cctm9Caj.s:26     .text._ZN5RobotC2EP19__SPI_HandleTypeDefP17I2C_HandleTypeDef:00000000 _ZN5RobotC1EP19__SPI_HandleTypeDefP17I2C_HandleTypeDef
C:\Users\ADMINI~1\AppData\Local\Temp\cctm9Caj.s:180    .text._Z41__static_initialization_and_destruction_0ii:00000000 $t
C:\Users\ADMINI~1\AppData\Local\Temp\cctm9Caj.s:185    .text._Z41__static_initialization_and_destruction_0ii:00000000 _Z41__static_initialization_and_destruction_0ii
C:\Users\ADMINI~1\AppData\Local\Temp\cctm9Caj.s:230    .text._Z41__static_initialization_and_destruction_0ii:00000020 $d
.ARM.exidx.text._Z41__static_initialization_and_destruction_0ii:00000000 $d
C:\Users\ADMINI~1\AppData\Local\Temp\cctm9Caj.s:239    .rodata.setPara.str1.4:00000000 $d
C:\Users\ADMINI~1\AppData\Local\Temp\cctm9Caj.s:246    .text.setPara:00000000 $t
C:\Users\ADMINI~1\AppData\Local\Temp\cctm9Caj.s:252    .text.setPara:00000000 setPara
C:\Users\ADMINI~1\AppData\Local\Temp\cctm9Caj.s:474    .text.setPara:0000010c $d
          .ARM.exidx.text.setPara:00000000 $d
C:\Users\ADMINI~1\AppData\Local\Temp\cctm9Caj.s:492    .text.setAngle:00000000 $t
C:\Users\ADMINI~1\AppData\Local\Temp\cctm9Caj.s:498    .text.setAngle:00000000 setAngle
C:\Users\ADMINI~1\AppData\Local\Temp\cctm9Caj.s:598    .text.setAngle:00000068 $d
         .ARM.exidx.text.setAngle:00000000 $d
C:\Users\ADMINI~1\AppData\Local\Temp\cctm9Caj.s:608    .text._Z5setidPh:00000000 $t
C:\Users\ADMINI~1\AppData\Local\Temp\cctm9Caj.s:614    .text._Z5setidPh:00000000 _Z5setidPh
C:\Users\ADMINI~1\AppData\Local\Temp\cctm9Caj.s:657    .text._Z5setidPh:00000020 $d
       .ARM.extab.text._Z5setidPh:00000000 $d
       .ARM.exidx.text._Z5setidPh:00000000 $d
C:\Users\ADMINI~1\AppData\Local\Temp\cctm9Caj.s:664    .text._Z12setInitAnglePh:00000000 $t
C:\Users\ADMINI~1\AppData\Local\Temp\cctm9Caj.s:670    .text._Z12setInitAnglePh:00000000 _Z12setInitAnglePh
C:\Users\ADMINI~1\AppData\Local\Temp\cctm9Caj.s:748    .text._Z12setInitAnglePh:0000004c $d
.ARM.exidx.text._Z12setInitAnglePh:00000000 $d
C:\Users\ADMINI~1\AppData\Local\Temp\cctm9Caj.s:757    .text._Z14JumpBootLoaderPh:00000000 $t
C:\Users\ADMINI~1\AppData\Local\Temp\cctm9Caj.s:763    .text._Z14JumpBootLoaderPh:00000000 _Z14JumpBootLoaderPh
C:\Users\ADMINI~1\AppData\Local\Temp\cctm9Caj.s:805    .text._Z14JumpBootLoaderPh:0000001c $d
.ARM.extab.text._Z14JumpBootLoaderPh:00000000 $d
.ARM.exidx.text._Z14JumpBootLoaderPh:00000000 $d
C:\Users\ADMINI~1\AppData\Local\Temp\cctm9Caj.s:811    .rodata.Main.str1.4:00000000 $d
C:\Users\ADMINI~1\AppData\Local\Temp\cctm9Caj.s:815    .text.Main:00000000 $t
C:\Users\ADMINI~1\AppData\Local\Temp\cctm9Caj.s:821    .text.Main:00000000 Main
C:\Users\ADMINI~1\AppData\Local\Temp\cctm9Caj.s:1224   .text.Main:0000014c $d
             .ARM.exidx.text.Main:00000000 $d
C:\Users\ADMINI~1\AppData\Local\Temp\cctm9Caj.s:1241   .text.HAL_SPI_TxCpltCallback:00000000 $t
C:\Users\ADMINI~1\AppData\Local\Temp\cctm9Caj.s:1247   .text.HAL_SPI_TxCpltCallback:00000000 HAL_SPI_TxCpltCallback
C:\Users\ADMINI~1\AppData\Local\Temp\cctm9Caj.s:1268   .text.HAL_SPI_TxCpltCallback:0000000c $d
.ARM.exidx.text.HAL_SPI_TxCpltCallback:00000000 $d
C:\Users\ADMINI~1\AppData\Local\Temp\cctm9Caj.s:1275   .text._GLOBAL__sub_I_electron:00000000 $t
C:\Users\ADMINI~1\AppData\Local\Temp\cctm9Caj.s:1280   .text._GLOBAL__sub_I_electron:00000000 _GLOBAL__sub_I_electron
.ARM.exidx.text._GLOBAL__sub_I_electron:00000000 $d
C:\Users\ADMINI~1\AppData\Local\Temp\cctm9Caj.s:1304   .init_array:00000000 $d
C:\Users\ADMINI~1\AppData\Local\Temp\cctm9Caj.s:1417   .bss.newid:00000000 newid
C:\Users\ADMINI~1\AppData\Local\Temp\cctm9Caj.s:1482   .bss.settq_flag:00000000 settq_flag
C:\Users\ADMINI~1\AppData\Local\Temp\cctm9Caj.s:1458   .bss.setkd_flag:00000000 setkd_flag
C:\Users\ADMINI~1\AppData\Local\Temp\cctm9Caj.s:1476   .bss.setkv_flag:00000000 setkv_flag
C:\Users\ADMINI~1\AppData\Local\Temp\cctm9Caj.s:1464   .bss.setki_flag:00000000 setki_flag
C:\Users\ADMINI~1\AppData\Local\Temp\cctm9Caj.s:1470   .bss.setkp_flag:00000000 setkp_flag
C:\Users\ADMINI~1\AppData\Local\Temp\cctm9Caj.s:1452   .bss.setTq:00000000 setTq
C:\Users\ADMINI~1\AppData\Local\Temp\cctm9Caj.s:1424   .bss.setKd:00000000 setKd
C:\Users\ADMINI~1\AppData\Local\Temp\cctm9Caj.s:1445   .bss.setKv:00000000 setKv
C:\Users\ADMINI~1\AppData\Local\Temp\cctm9Caj.s:1431   .bss.setKi:00000000 setKi
ARM GAS  C:\Users\ADMINI~1\AppData\Local\Temp\cctm9Caj.s 			page 41


C:\Users\ADMINI~1\AppData\Local\Temp\cctm9Caj.s:1438   .bss.setKp:00000000 setKp
C:\Users\ADMINI~1\AppData\Local\Temp\cctm9Caj.s:1404   .bss.isEnabled:00000000 isEnabled
C:\Users\ADMINI~1\AppData\Local\Temp\cctm9Caj.s:1411   .bss.jointSetPoints:00000000 jointSetPoints
C:\Users\ADMINI~1\AppData\Local\Temp\cctm9Caj.s:1398   .bss.electron:00000000 electron
C:\Users\ADMINI~1\AppData\Local\Temp\cctm9Caj.s:1321   .rodata:00000000 $d
C:\Users\ADMINI~1\AppData\Local\Temp\cctm9Caj.s:1394   .bss.electron:00000000 $d
C:\Users\ADMINI~1\AppData\Local\Temp\cctm9Caj.s:1405   .bss.isEnabled:00000000 $d
C:\Users\ADMINI~1\AppData\Local\Temp\cctm9Caj.s:1407   .bss.jointSetPoints:00000000 $d
C:\Users\ADMINI~1\AppData\Local\Temp\cctm9Caj.s:1418   .bss.newid:00000000 $d
C:\Users\ADMINI~1\AppData\Local\Temp\cctm9Caj.s:1420   .bss.setKd:00000000 $d
C:\Users\ADMINI~1\AppData\Local\Temp\cctm9Caj.s:1427   .bss.setKi:00000000 $d
C:\Users\ADMINI~1\AppData\Local\Temp\cctm9Caj.s:1434   .bss.setKp:00000000 $d
C:\Users\ADMINI~1\AppData\Local\Temp\cctm9Caj.s:1441   .bss.setKv:00000000 $d
C:\Users\ADMINI~1\AppData\Local\Temp\cctm9Caj.s:1448   .bss.setTq:00000000 $d
C:\Users\ADMINI~1\AppData\Local\Temp\cctm9Caj.s:1459   .bss.setkd_flag:00000000 $d
C:\Users\ADMINI~1\AppData\Local\Temp\cctm9Caj.s:1465   .bss.setki_flag:00000000 $d
C:\Users\ADMINI~1\AppData\Local\Temp\cctm9Caj.s:1471   .bss.setkp_flag:00000000 $d
C:\Users\ADMINI~1\AppData\Local\Temp\cctm9Caj.s:1477   .bss.setkv_flag:00000000 $d
C:\Users\ADMINI~1\AppData\Local\Temp\cctm9Caj.s:1483   .bss.settq_flag:00000000 $d
                           .group:00000000 _ZN5RobotC5EP19__SPI_HandleTypeDefP17I2C_HandleTypeDef

UNDEFINED SYMBOLS
_Znwj
usbBuffer
__aeabi_unwind_cpp_pr0
hi2c1
hspi1
printf
puts
_ZN5Robot10SetJointKpERNS_13JointStatus_tEf
_ZN5Robot10SetJointKiERNS_13JointStatus_tEf
_ZN5Robot10SetJointKvERNS_13JointStatus_tEf
_ZN5Robot10SetJointKdERNS_13JointStatus_tEf
_ZN5Robot19SetJointTorqueLimitERNS_13JointStatus_tEf
_ZN5Robot16UpdateJointAngleERNS_13JointStatus_tEf
_ZN5Robot14SetJointEnableERNS_13JointStatus_tEb
_ZN5Robot10SetJointIdERNS_13JointStatus_tEh
__aeabi_unwind_cpp_pr1
_ZN5Robot17SetJointInitAngleERNS_13JointStatus_tEf
_ZN5Robot13SendUsbPacketEPhm
HAL_Delay
_ZN6Screen4InitENS_13Orientation_tE
_ZN6Screen9SetWindowEtttt
_ZN5Robot27ReceiveUsbPacketUntilSizeIsEm
_ZN5Robot17GetExtraDataRxPtrEv
_ZN5Robot15GetLcdBufferPtrEv
_ZN6Screen16WriteFrameBufferEPhmb
