ARM GAS  C:\Users\ADMINI~1\AppData\Local\Temp\cc1qObNe.s 			page 1


   1              		.cpu cortex-m4
   2              		.arch armv7e-m
   3              		.fpu fpv4-sp-d16
   4              		.eabi_attribute 27, 1
   5              		.eabi_attribute 28, 1
   6              		.eabi_attribute 20, 1
   7              		.eabi_attribute 21, 1
   8              		.eabi_attribute 23, 3
   9              		.eabi_attribute 24, 1
  10              		.eabi_attribute 25, 1
  11              		.eabi_attribute 26, 1
  12              		.eabi_attribute 30, 1
  13              		.eabi_attribute 34, 1
  14              		.eabi_attribute 18, 4
  15              		.file	"user.cpp"
  16              		.text
  17              	.Ltext0:
  18              		.cfi_sections	.debug_frame
  19              		.section	.text._ZN5RobotC2EP19__SPI_HandleTypeDefP17I2C_HandleTypeDef,"axG",%progbits,_ZN5RobotC5E
  20              		.align	1
  21              		.weak	_ZN5RobotC2EP19__SPI_HandleTypeDefP17I2C_HandleTypeDef
  22              		.syntax unified
  23              		.thumb
  24              		.thumb_func
  26              	_ZN5RobotC2EP19__SPI_HandleTypeDefP17I2C_HandleTypeDef:
  27              		.fnstart
  28              	.LVL0:
  29              	.LFB369:
  30              		.file 1 "user/robot.h"
   1:user/robot.h  **** #ifndef ELECTRONBOT_FW_ROBOT_H
   2:user/robot.h  **** #define ELECTRONBOT_FW_ROBOT_H
   3:user/robot.h  **** 
   4:user/robot.h  **** #include "stm32f4xx.h"
   5:user/robot.h  **** #include "screen.h"
   6:user/robot.h  **** #include "i2c.h"
   7:user/robot.h  **** #include "common_inc.h"
   8:user/robot.h  **** 
   9:user/robot.h  **** 
  10:user/robot.h  **** #define ANY 0
  11:user/robot.h  **** 
  12:user/robot.h  **** class Robot
  13:user/robot.h  **** {
  14:user/robot.h  **** public:
  15:user/robot.h  ****     Robot(SPI_HandleTypeDef* _screenSpi, I2C_HandleTypeDef* _motorI2c) :
  31              		.loc 1 15 5 view -0
  32              		.cfi_startproc
  33              		@ args = 0, pretend = 0, frame = 0
  34              		@ frame_needed = 0, uses_anonymous_args = 0
  35              		.loc 1 15 5 is_stmt 0 view .LVU1
  36 0000 38B5     		push	{r3, r4, r5, lr}
  37              		.save {r3, r4, r5, lr}
  38              	.LCFI0:
  39              		.cfi_def_cfa_offset 16
  40              		.cfi_offset 3, -16
  41              		.cfi_offset 4, -12
  42              		.cfi_offset 5, -8
  43              		.cfi_offset 14, -4
ARM GAS  C:\Users\ADMINI~1\AppData\Local\Temp\cc1qObNe.s 			page 2


  44 0002 0546     		mov	r5, r0
  45              	.LBB9:
  16:user/robot.h  ****         screenSpi(_screenSpi), motorI2c(_motorI2c)
  46              		.loc 1 16 50 view .LVU2
  47 0004 0346     		mov	r3, r0
  48 0006 3A48     		ldr	r0, .L6
  49              	.LVL1:
  50              		.loc 1 16 50 view .LVU3
  51 0008 43F8040B 		str	r0, [r3], #4
  52              	.LVL2:
  53              		.loc 1 16 50 view .LVU4
  54 000c 4FF0060C 		mov	ip, #6
  55 0010 04E0     		b	.L3
  56              	.L5:
  57              	.LVL3:
  58              	.LBB10:
  59              	.LBI10:
  17:user/robot.h  ****     {
  18:user/robot.h  ****         lcd = new Screen(screenSpi);
  19:user/robot.h  **** 
  20:user/robot.h  ****         /********* Need to adjust parameters for specific hardware *********/
  21:user/robot.h  ****         joint[ANY] = JointStatus_t{
  22:user/robot.h  ****             0,
  23:user/robot.h  ****             -180,
  24:user/robot.h  ****             180,
  25:user/robot.h  ****             90
  26:user/robot.h  ****         };
  27:user/robot.h  **** 
  28:user/robot.h  ****         joint[1] = JointStatus_t{ // Head
  29:user/robot.h  ****             2,
  30:user/robot.h  ****             70,
  31:user/robot.h  ****             95,
  32:user/robot.h  ****             0,
  33:user/robot.h  ****             -15,
  34:user/robot.h  ****             15,
  35:user/robot.h  ****             true
  36:user/robot.h  ****             // electron.SetJointId(electron.joint[ANY], 2);
  37:user/robot.h  ****             // electron.SetJointInitAngle(electron.joint[ANY], 0);
  38:user/robot.h  ****             // electron.SetJointKp(electron.joint[ANY], 30);
  39:user/robot.h  ****             // electron.SetJointKi(electron.joint[ANY], 0.4);
  40:user/robot.h  ****             // electron.SetJointKd(electron.joint[ANY], 200);
  41:user/robot.h  ****             // electron.SetJointTorqueLimit(electron.joint[ANY], 0.5);
  42:user/robot.h  ****             // electron.SetJointEnable(electron.joint[ANY], true);
  43:user/robot.h  ****         };
  44:user/robot.h  **** 
  45:user/robot.h  ****         joint[2] = JointStatus_t{ // Left arm roll
  46:user/robot.h  ****             4,
  47:user/robot.h  ****             -9,
  48:user/robot.h  ****             3,
  49:user/robot.h  ****             0,
  50:user/robot.h  ****             0,
  51:user/robot.h  ****             30,
  52:user/robot.h  ****             false
  53:user/robot.h  ****             // electron.SetJointId(electron.joint[ANY], 4);
  54:user/robot.h  ****             // electron.SetJointInitAngle(electron.joint[ANY], 0);
  55:user/robot.h  ****             // electron.SetJointKp(electron.joint[ANY], 50);
  56:user/robot.h  ****             // electron.SetJointKi(electron.joint[ANY], 0.8);
ARM GAS  C:\Users\ADMINI~1\AppData\Local\Temp\cc1qObNe.s 			page 3


  57:user/robot.h  ****             // electron.SetJointKd(electron.joint[ANY], 600);
  58:user/robot.h  ****             // electron.SetJointTorqueLimit(electron.joint[ANY], 1);
  59:user/robot.h  ****             // electron.SetJointEnable(electron.joint[ANY], true);
  60:user/robot.h  ****         };
  61:user/robot.h  **** 
  62:user/robot.h  ****         joint[3] = JointStatus_t{ // Left arm pitch
  63:user/robot.h  ****             6,
  64:user/robot.h  ****             -16,
  65:user/robot.h  ****             117,
  66:user/robot.h  ****             0,
  67:user/robot.h  ****             -20,
  68:user/robot.h  ****             180,
  69:user/robot.h  ****             false
  70:user/robot.h  ****             // electron.SetJointId(electron.joint[ANY],6);
  71:user/robot.h  ****             // electron.SetJointInitAngle(electron.joint[ANY], 0);
  72:user/robot.h  ****             // electron.SetJointKp(electron.joint[ANY], 50);
  73:user/robot.h  ****             // electron.SetJointKi(electron.joint[ANY], 0.8);
  74:user/robot.h  ****             // electron.SetJointKd(electron.joint[ANY], 300);
  75:user/robot.h  ****             // electron.SetJointTorqueLimit(electron.joint[ANY], 0.5);
  76:user/robot.h  ****             // electron.SetJointEnable(electron.joint[ANY], true);
  77:user/robot.h  ****         };
  78:user/robot.h  **** 
  79:user/robot.h  ****         joint[4] = JointStatus_t{ // Right arm roll
  80:user/robot.h  ****             8,
  81:user/robot.h  ****             133,
  82:user/robot.h  ****             141,
  83:user/robot.h  ****             0,
  84:user/robot.h  ****             0,
  85:user/robot.h  ****             30,
  86:user/robot.h  ****             true
  87:user/robot.h  ****             // electron.SetJointId(electron.joint[ANY], 8);
  88:user/robot.h  ****             // electron.SetJointInitAngle(electron.joint[ANY], 0);
  89:user/robot.h  ****             // electron.SetJointKp(electron.joint[ANY], 50);
  90:user/robot.h  ****             // electron.SetJointKi(electron.joint[ANY], 0.8);
  91:user/robot.h  ****             // electron.SetJointKd(electron.joint[ANY], 600);
  92:user/robot.h  ****             // electron.SetJointTorqueLimit(electron.joint[ANY], 1);
  93:user/robot.h  ****             // electron.SetJointEnable(electron.joint[ANY], true);
  94:user/robot.h  ****         };
  95:user/robot.h  **** 
  96:user/robot.h  ****         joint[5] = JointStatus_t{ // Right arm pitch
  97:user/robot.h  ****             10,
  98:user/robot.h  ****             15,
  99:user/robot.h  ****             150,
 100:user/robot.h  ****             0,
 101:user/robot.h  ****             -20,
 102:user/robot.h  ****             180,
 103:user/robot.h  ****             true
 104:user/robot.h  ****             // electron.SetJointId(electron.joint[ANY],10);
 105:user/robot.h  ****             // electron.SetJointInitAngle(electron.joint[ANY], 0);
 106:user/robot.h  ****             // electron.SetJointKp(electron.joint[ANY], 50);
 107:user/robot.h  ****             // electron.SetJointKi(electron.joint[ANY], 0.8);
 108:user/robot.h  ****             // electron.SetJointKd(electron.joint[ANY], 300);
 109:user/robot.h  ****             // electron.SetJointTorqueLimit(electron.joint[ANY], 0.5);
 110:user/robot.h  ****             // electron.SetJointEnable(electron.joint[ANY], true);
 111:user/robot.h  ****         };
 112:user/robot.h  **** 
 113:user/robot.h  ****         joint[6] = JointStatus_t{ // Body
ARM GAS  C:\Users\ADMINI~1\AppData\Local\Temp\cc1qObNe.s 			page 4


 114:user/robot.h  ****             12,
 115:user/robot.h  ****             0,
 116:user/robot.h  ****             180,
 117:user/robot.h  ****             0,
 118:user/robot.h  ****             -90,
 119:user/robot.h  ****             90,
 120:user/robot.h  ****             false
 121:user/robot.h  ****             // electron.SetJointId(electron.joint[ANY],12);
 122:user/robot.h  ****             // electron.SetJointInitAngle(electron.joint[ANY], 0);
 123:user/robot.h  ****             // electron.SetJointKp(electron.joint[ANY], 150);
 124:user/robot.h  ****             // electron.SetJointKi(electron.joint[ANY], 0.8);
 125:user/robot.h  ****             // electron.SetJointKd(electron.joint[ANY], 300);
 126:user/robot.h  ****             // electron.SetJointTorqueLimit(electron.joint[ANY], 0.5);
 127:user/robot.h  ****             // electron.SetJointEnable(electron.joint[ANY], true);
 128:user/robot.h  ****         };
 129:user/robot.h  ****         /********* Need to adjust parameters for specific hardware *********/
 130:user/robot.h  ****     }
 131:user/robot.h  **** 
 132:user/robot.h  **** 
 133:user/robot.h  ****   /*   struct UsbBuffer_t
 134:user/robot.h  ****     {
 135:user/robot.h  ****         uint8_t extraDataTx[32];
 136:user/robot.h  ****         uint8_t rxData[2][60 * 240 * 3 + 32]; // 43232bytes, 43200 of which are lcd buffer
 137:user/robot.h  ****         volatile uint16_t receivedPacketLen = 0;
 138:user/robot.h  ****         volatile uint8_t pingPongIndex = 0;
 139:user/robot.h  ****         volatile uint32_t rxDataOffset = 0;
 140:user/robot.h  ****     }; */
 141:user/robot.h  ****     UsbBuffer_t *pUsbBuffer=&usbBuffer;
 142:user/robot.h  **** 
 143:user/robot.h  **** 
 144:user/robot.h  ****     struct JointStatus_t
  60              		.loc 1 144 12 is_stmt 1 view .LVU5
  61              	.LBB11:
  62 0012 0020     		movs	r0, #0
  63 0014 1876     		strb	r0, [r3, #24]
  64              	.LVL4:
  65              		.loc 1 144 12 is_stmt 0 view .LVU6
  66              	.LBE11:
  67              	.LBE10:
  16:user/robot.h  ****         screenSpi(_screenSpi), motorI2c(_motorI2c)
  68              		.loc 1 16 50 view .LVU7
  69 0016 1C33     		adds	r3, r3, #28
  16:user/robot.h  ****         screenSpi(_screenSpi), motorI2c(_motorI2c)
  70              		.loc 1 16 50 is_stmt 1 view .LVU8
  71 0018 0CF1FF3C 		add	ip, ip, #-1
  72              	.L3:
  16:user/robot.h  ****         screenSpi(_screenSpi), motorI2c(_motorI2c)
  73              		.loc 1 16 50 discriminator 4 view .LVU9
  74 001c BCF1000F 		cmp	ip, #0
  75 0020 F7DA     		bge	.L5
  16:user/robot.h  ****         screenSpi(_screenSpi), motorI2c(_motorI2c)
  76              		.loc 1 16 50 is_stmt 0 discriminator 2 view .LVU10
  77 0022 C5F8CC10 		str	r1, [r5, #204]
  78 0026 C5F8D020 		str	r2, [r5, #208]
  18:user/robot.h  **** 
  79              		.loc 1 18 9 is_stmt 1 discriminator 2 view .LVU11
  18:user/robot.h  **** 
ARM GAS  C:\Users\ADMINI~1\AppData\Local\Temp\cc1qObNe.s 			page 5


  80              		.loc 1 18 35 is_stmt 0 discriminator 2 view .LVU12
  81 002a 0C20     		movs	r0, #12
  82 002c FFF7FEFF 		bl	_Znwj
  83              	.LVL5:
  18:user/robot.h  **** 
  84              		.loc 1 18 35 discriminator 2 view .LVU13
  85 0030 D5F8CC20 		ldr	r2, [r5, #204]
  86              	.LVL6:
  87              	.LBB12:
  88              	.LBI12:
  89              		.file 2 "user/screen.h"
   1:user/screen.h **** #ifndef ELECTRONBOT_FW_SCREEN_H
   2:user/screen.h **** #define ELECTRONBOT_FW_SCREEN_H
   3:user/screen.h **** 
   4:user/screen.h **** #include "stm32f4xx.h"
   5:user/screen.h **** #include "main.h"
   6:user/screen.h **** #include "spi.h"
   7:user/screen.h **** 
   8:user/screen.h **** 
   9:user/screen.h **** class Screen
  10:user/screen.h **** {
  11:user/screen.h **** public:
  12:user/screen.h ****     explicit Screen(SPI_HandleTypeDef* _spi) :
  90              		.loc 2 12 14 is_stmt 1 discriminator 2 view .LVU14
  91              	.LBB13:
  13:user/screen.h ****         spi(_spi)
  92              		.loc 2 13 17 is_stmt 0 discriminator 2 view .LVU15
  93 0034 0023     		movs	r3, #0
  94 0036 0370     		strb	r3, [r0]
  95 0038 4260     		str	r2, [r0, #4]
  96 003a 0372     		strb	r3, [r0, #8]
  97 003c 0223     		movs	r3, #2
  98 003e 4372     		strb	r3, [r0, #9]
  99              	.LVL7:
 100              		.loc 2 13 17 discriminator 2 view .LVU16
 101              	.LBE13:
 102              	.LBE12:
  18:user/robot.h  **** 
 103              		.loc 1 18 13 discriminator 2 view .LVU17
 104 0040 C5F8C800 		str	r0, [r5, #200]
  21:user/robot.h  ****             0,
 105              		.loc 1 21 9 is_stmt 1 discriminator 2 view .LVU18
  21:user/robot.h  ****             0,
 106              		.loc 1 21 20 is_stmt 0 discriminator 2 view .LVU19
 107 0044 2B4C     		ldr	r4, .L6+4
 108 0046 05F1040C 		add	ip, r5, #4
 109 004a A646     		mov	lr, r4
 110 004c BEE80F00 		ldmia	lr!, {r0, r1, r2, r3}
 111 0050 ACE80F00 		stmia	ip!, {r0, r1, r2, r3}
 112 0054 9EE80700 		ldm	lr, {r0, r1, r2}
 113 0058 8CE80700 		stm	ip, {r0, r1, r2}
  28:user/robot.h  ****             2,
 114              		.loc 1 28 9 is_stmt 1 discriminator 2 view .LVU20
  28:user/robot.h  ****             2,
 115              		.loc 1 28 18 is_stmt 0 discriminator 2 view .LVU21
 116 005c 05F1200C 		add	ip, r5, #32
 117 0060 04F11C0E 		add	lr, r4, #28
ARM GAS  C:\Users\ADMINI~1\AppData\Local\Temp\cc1qObNe.s 			page 6


 118 0064 BEE80F00 		ldmia	lr!, {r0, r1, r2, r3}
 119 0068 ACE80F00 		stmia	ip!, {r0, r1, r2, r3}
 120 006c 9EE80700 		ldm	lr, {r0, r1, r2}
 121 0070 8CE80700 		stm	ip, {r0, r1, r2}
  45:user/robot.h  ****             4,
 122              		.loc 1 45 9 is_stmt 1 discriminator 2 view .LVU22
  45:user/robot.h  ****             4,
 123              		.loc 1 45 18 is_stmt 0 discriminator 2 view .LVU23
 124 0074 05F13C0C 		add	ip, r5, #60
 125 0078 04F1380E 		add	lr, r4, #56
 126 007c BEE80F00 		ldmia	lr!, {r0, r1, r2, r3}
 127 0080 ACE80F00 		stmia	ip!, {r0, r1, r2, r3}
 128 0084 9EE80700 		ldm	lr, {r0, r1, r2}
 129 0088 8CE80700 		stm	ip, {r0, r1, r2}
  62:user/robot.h  ****             6,
 130              		.loc 1 62 9 is_stmt 1 discriminator 2 view .LVU24
  62:user/robot.h  ****             6,
 131              		.loc 1 62 18 is_stmt 0 discriminator 2 view .LVU25
 132 008c 05F1580C 		add	ip, r5, #88
 133 0090 04F1540E 		add	lr, r4, #84
 134 0094 BEE80F00 		ldmia	lr!, {r0, r1, r2, r3}
 135 0098 ACE80F00 		stmia	ip!, {r0, r1, r2, r3}
 136 009c 9EE80700 		ldm	lr, {r0, r1, r2}
 137 00a0 8CE80700 		stm	ip, {r0, r1, r2}
  79:user/robot.h  ****             8,
 138              		.loc 1 79 9 is_stmt 1 discriminator 2 view .LVU26
  79:user/robot.h  ****             8,
 139              		.loc 1 79 18 is_stmt 0 discriminator 2 view .LVU27
 140 00a4 05F1740C 		add	ip, r5, #116
 141 00a8 04F1700E 		add	lr, r4, #112
 142 00ac BEE80F00 		ldmia	lr!, {r0, r1, r2, r3}
 143 00b0 ACE80F00 		stmia	ip!, {r0, r1, r2, r3}
 144 00b4 9EE80700 		ldm	lr, {r0, r1, r2}
 145 00b8 8CE80700 		stm	ip, {r0, r1, r2}
  96:user/robot.h  ****             10,
 146              		.loc 1 96 9 is_stmt 1 discriminator 2 view .LVU28
  96:user/robot.h  ****             10,
 147              		.loc 1 96 18 is_stmt 0 discriminator 2 view .LVU29
 148 00bc 05F1900C 		add	ip, r5, #144
 149 00c0 04F18C0E 		add	lr, r4, #140
 150 00c4 BEE80F00 		ldmia	lr!, {r0, r1, r2, r3}
 151 00c8 ACE80F00 		stmia	ip!, {r0, r1, r2, r3}
 152 00cc 9EE80700 		ldm	lr, {r0, r1, r2}
 153 00d0 8CE80700 		stm	ip, {r0, r1, r2}
 113:user/robot.h  ****             12,
 154              		.loc 1 113 9 is_stmt 1 discriminator 2 view .LVU30
 113:user/robot.h  ****             12,
 155              		.loc 1 113 18 is_stmt 0 discriminator 2 view .LVU31
 156 00d4 05F1AC0E 		add	lr, r5, #172
 157 00d8 04F1A80C 		add	ip, r4, #168
 158 00dc BCE80F00 		ldmia	ip!, {r0, r1, r2, r3}
 159 00e0 AEE80F00 		stmia	lr!, {r0, r1, r2, r3}
 160 00e4 9CE80700 		ldm	ip, {r0, r1, r2}
 161 00e8 8EE80700 		stm	lr, {r0, r1, r2}
 162              	.LBE9:
 130:user/robot.h  **** 
 163              		.loc 1 130 5 discriminator 2 view .LVU32
ARM GAS  C:\Users\ADMINI~1\AppData\Local\Temp\cc1qObNe.s 			page 7


 164 00ec 2846     		mov	r0, r5
 165 00ee 38BD     		pop	{r3, r4, r5, pc}
 166              	.LVL8:
 167              	.L7:
 130:user/robot.h  **** 
 168              		.loc 1 130 5 discriminator 2 view .LVU33
 169              		.align	2
 170              	.L6:
 171 00f0 00000000 		.word	usbBuffer
 172 00f4 00000000 		.word	.LANCHOR0
 173              		.cfi_endproc
 174              	.LFE369:
 175              		.fnend
 177              		.weak	_ZN5RobotC1EP19__SPI_HandleTypeDefP17I2C_HandleTypeDef
 178              		.thumb_set _ZN5RobotC1EP19__SPI_HandleTypeDefP17I2C_HandleTypeDef,_ZN5RobotC2EP19__SPI_HandleTypeD
 179              		.section	.text._Z41__static_initialization_and_destruction_0ii,"ax",%progbits
 180              		.align	1
 181              		.syntax unified
 182              		.thumb
 183              		.thumb_func
 185              	_Z41__static_initialization_and_destruction_0ii:
 186              		.fnstart
 187              	.LVL9:
 188              	.LFB377:
 189              		.file 3 "user/user.cpp"
   1:user/user.cpp **** #include <cmath>
   2:user/user.cpp **** #include "common_inc.h"
   3:user/user.cpp **** #include "screen.h"
   4:user/user.cpp **** #include "robot.h"
   5:user/user.cpp **** #include <stdio.h>
   6:user/user.cpp **** 
   7:user/user.cpp **** Robot electron(&hspi1, &hi2c1);
   8:user/user.cpp **** float jointSetPoints[6];
   9:user/user.cpp **** bool isEnabled = false;
  10:user/user.cpp **** 
  11:user/user.cpp **** float setKp;
  12:user/user.cpp **** float setKi;
  13:user/user.cpp **** float setKv;
  14:user/user.cpp **** float setKd;
  15:user/user.cpp **** float setTq;
  16:user/user.cpp **** 
  17:user/user.cpp **** uint8_t setkp_flag;
  18:user/user.cpp **** uint8_t setki_flag;
  19:user/user.cpp **** uint8_t setkv_flag;
  20:user/user.cpp **** uint8_t setkd_flag;
  21:user/user.cpp **** uint8_t settq_flag;
  22:user/user.cpp **** 
  23:user/user.cpp **** uint8_t  newid;
  24:user/user.cpp **** // float initAngle;
  25:user/user.cpp **** 
  26:user/user.cpp **** /* Thread Definitions -----------------------------------------------------*/
  27:user/user.cpp **** 
  28:user/user.cpp **** 
  29:user/user.cpp **** /* Timer Callbacks -------------------------------------------------------*/
  30:user/user.cpp **** 
  31:user/user.cpp **** void setPara(uint8_t *ptr)
  32:user/user.cpp **** {
ARM GAS  C:\Users\ADMINI~1\AppData\Local\Temp\cc1qObNe.s 			page 8


  33:user/user.cpp ****     // Robot::JointStatus_t *pJointStatus;
  34:user/user.cpp ****     uint8_t id = ptr[0];
  35:user/user.cpp ****     setKp=*((float*) (ptr + 2));
  36:user/user.cpp ****     setKi=*((float*) (ptr + 7));
  37:user/user.cpp ****     setKv=*((float*) (ptr + 12));
  38:user/user.cpp ****     setKd=*((float*) (ptr + 17));
  39:user/user.cpp ****     setTq=*((float*) (ptr + 22));
  40:user/user.cpp **** 
  41:user/user.cpp ****     setkp_flag = ptr[1];
  42:user/user.cpp ****     setki_flag = ptr[6];
  43:user/user.cpp ****     setkv_flag = ptr[11];
  44:user/user.cpp ****     setkd_flag = ptr[16];
  45:user/user.cpp ****     settq_flag = ptr[21];
  46:user/user.cpp **** 
  47:user/user.cpp ****     for(int i=0 ; i<32; i++)
  48:user/user.cpp ****         printf("%.2x ",ptr[i]);
  49:user/user.cpp ****     printf("\r\n");
  50:user/user.cpp ****   /*   switch(id)
  51:user/user.cpp ****     {
  52:user/user.cpp ****         case 2:pJointStatus=&electron.joint[1];break;
  53:user/user.cpp ****         case 4:pJointStatus=&electron.joint[2];break;
  54:user/user.cpp ****         case 6:pJointStatus=&electron.joint[3];break;
  55:user/user.cpp ****         case 8:pJointStatus=&electron.joint[4];break;
  56:user/user.cpp ****         case 10:pJointStatus=&electron.joint[5];break;
  57:user/user.cpp ****         case 12:pJointStatus=&electron.joint[6];break;
  58:user/user.cpp ****         default:pJointStatus=&electron.joint[0];break; 
  59:user/user.cpp **** 
  60:user/user.cpp ****     } */
  61:user/user.cpp **** 
  62:user/user.cpp ****     if(setkp_flag)
  63:user/user.cpp ****         electron.SetJointKp(electron.joint[id/2], setKp);
  64:user/user.cpp ****     if(setki_flag)
  65:user/user.cpp ****         electron.SetJointKi(electron.joint[id/2], setKi);
  66:user/user.cpp ****     if(setkv_flag)        
  67:user/user.cpp ****         electron.SetJointKv(electron.joint[id/2], setKv);
  68:user/user.cpp ****     if(setkd_flag)
  69:user/user.cpp ****         electron.SetJointKd(electron.joint[id/2], setKd);
  70:user/user.cpp ****     if(settq_flag)
  71:user/user.cpp ****         electron.SetJointTorqueLimit(electron.joint[id/2], setTq);
  72:user/user.cpp ****    /*  for(int i=0 ; i<32; i++)
  73:user/user.cpp ****         printf("%.2x ",ptr[i]);
  74:user/user.cpp ****     printf("\r\n"); */
  75:user/user.cpp ****     /*float t=*((float*) (ptr + 2));    
  76:user/user.cpp ****     int dat=ceil(t);
  77:user/user.cpp ****     // printf("jointSetPoints=%u\r\n",jointSetPoints[0]);
  78:user/user.cpp ****     printf("jointSetPoints=%ld\r\n",dat);    */
  79:user/user.cpp ****    
  80:user/user.cpp **** }
  81:user/user.cpp **** void setAngle(uint8_t *ptr)
  82:user/user.cpp **** {
  83:user/user.cpp ****     uint8_t id = ptr[0];
  84:user/user.cpp ****     // float angle=*((float*) (ptr + 1));
  85:user/user.cpp ****     jointSetPoints[id/2] = *((float*) (ptr + 1));
  86:user/user.cpp ****     isEnabled = ptr[5];
  87:user/user.cpp ****     
  88:user/user.cpp ****     for(int i=0 ; i<32; i++)
  89:user/user.cpp ****         printf("%.2x ",ptr[i]);
ARM GAS  C:\Users\ADMINI~1\AppData\Local\Temp\cc1qObNe.s 			page 9


  90:user/user.cpp ****     printf("\r\n");
  91:user/user.cpp ****    /* switch(id)
  92:user/user.cpp ****     {
  93:user/user.cpp ****         case 2:JointStatus=electron.joint[1];break;
  94:user/user.cpp ****         case 4:JointStatus=electron.joint[2];break;
  95:user/user.cpp ****         case 6:JointStatus=electron.joint[3];break;
  96:user/user.cpp ****         case 8:JointStatus=electron.joint[4];break;
  97:user/user.cpp ****         case 10:JointStatus=electron.joint[5];break;
  98:user/user.cpp ****         case 12:JointStatus=electron.joint[6];break;
  99:user/user.cpp ****         default:JointStatus=electron.joint[0];break;
 100:user/user.cpp ****     } */
 101:user/user.cpp ****     // printf("id = %.2x\r\n",JointStatus.id);
 102:user/user.cpp ****     // printf("id = %d\r\n",id);
 103:user/user.cpp ****     electron.UpdateJointAngle(electron.joint[id/2], jointSetPoints[id/2]);
 104:user/user.cpp ****     electron.SetJointEnable(electron.joint[id/2], isEnabled);
 105:user/user.cpp **** }
 106:user/user.cpp **** void setid(uint8_t *ptr)
 107:user/user.cpp **** {
 108:user/user.cpp ****     uint8_t id = ptr[0];
 109:user/user.cpp ****    
 110:user/user.cpp ****     newid=ptr[1];
 111:user/user.cpp ****     electron.SetJointId(electron.joint[id/2], newid);
 112:user/user.cpp **** }
 113:user/user.cpp **** void setInitAngle(uint8_t *ptr)
 114:user/user.cpp **** {
 115:user/user.cpp ****     uint8_t id = ptr[0];
 116:user/user.cpp ****     jointSetPoints[id/2]=*((float*) (ptr + 1));
 117:user/user.cpp ****     for(int i=0 ; i<32; i++)
 118:user/user.cpp ****         printf("%.2x ",ptr[i]);
 119:user/user.cpp ****     printf("\r\n");
 120:user/user.cpp ****     
 121:user/user.cpp ****     electron.SetJointInitAngle(electron.joint[id/2], jointSetPoints[id/2]);
 122:user/user.cpp **** }
 123:user/user.cpp **** /* Default Entry -------------------------------------------------------*/
 124:user/user.cpp **** void Main(void)
 125:user/user.cpp **** {
 126:user/user.cpp ****     int i;    
 127:user/user.cpp ****     HAL_Delay(1000);
 128:user/user.cpp ****     electron.lcd->Init(Screen::DEGREE_0);
 129:user/user.cpp ****     electron.lcd->SetWindow(0, 239, 0, 239);
 130:user/user.cpp ****     for(int i=0;i<32;i++)
 131:user/user.cpp ****         electron.pUsbBuffer->extraDataTx[i]=32-i;
 132:user/user.cpp ****     /* electron.SetJointEnable(electron.joint[6], true);
 133:user/user.cpp ****     electron.UpdateJointAngle(electron.joint[6], 30); */
 134:user/user.cpp ****     while(1)
 135:user/user.cpp ****     {
 136:user/user.cpp ****         //electron.SendUsbPacket(electron.pUsbBuffer->extraDataTx, 32);
 137:user/user.cpp ****         // HAL_Delay(500);        
 138:user/user.cpp ****         electron.ReceiveUsbPacketUntilSizeIs(224); // last packet is 224bytes
 139:user/user.cpp ****         uint8_t* ptr = electron.GetExtraDataRxPtr();
 140:user/user.cpp ****         
 141:user/user.cpp ****         if(ptr[31] == 0xee)  //设置参数
 142:user/user.cpp ****         {
 143:user/user.cpp ****             setPara(ptr);
 144:user/user.cpp ****         }
 145:user/user.cpp ****         else if(ptr[31] == 0xef)
 146:user/user.cpp ****         {
ARM GAS  C:\Users\ADMINI~1\AppData\Local\Temp\cc1qObNe.s 			page 10


 147:user/user.cpp ****             setAngle(ptr);
 148:user/user.cpp ****             
 149:user/user.cpp ****         }
 150:user/user.cpp ****         else if(ptr[31] == 0xf0)
 151:user/user.cpp ****         {            
 152:user/user.cpp ****              setid(ptr);         
 153:user/user.cpp ****         }
 154:user/user.cpp ****         else if(ptr[31] == 0xf1)
 155:user/user.cpp ****         {
 156:user/user.cpp ****              setInitAngle(ptr);
 157:user/user.cpp ****         }
 158:user/user.cpp ****         else
 159:user/user.cpp ****         {
 160:user/user.cpp ****             printf("task\r\n");
 161:user/user.cpp ****         }
 162:user/user.cpp ****         
 163:user/user.cpp ****     }
 164:user/user.cpp ****     
 165:user/user.cpp ****     /* electron.SetJointInitAngle(electron.joint[6], 0);
 166:user/user.cpp ****     electron.SetJointKp(electron.joint[6], 150);
 167:user/user.cpp ****     electron.SetJointKi(electron.joint[6], 0.8);
 168:user/user.cpp ****     electron.SetJointKd(electron.joint[6], 300);
 169:user/user.cpp ****     electron.SetJointTorqueLimit(electron.joint[6], 0.8); */
 170:user/user.cpp ****     // electron.SetJointEnable(electron.joint[6], false);
 171:user/user.cpp ****     // electron.UpdateJointAngle(electron.joint[6], 30);
 172:user/user.cpp ****    /*  electron.UpdateJointAngle(electron.joint[1], 0);
 173:user/user.cpp ****     electron.UpdateJointAngle(electron.joint[2], 0);
 174:user/user.cpp ****     electron.UpdateJointAngle(electron.joint[3], 0);
 175:user/user.cpp ****     electron.UpdateJointAngle(electron.joint[4], 0);
 176:user/user.cpp ****     electron.UpdateJointAngle(electron.joint[5], 0); 
 177:user/user.cpp ****     electron.UpdateJointAngle(electron.joint[6], 0); */   
 178:user/user.cpp **** 
 179:user/user.cpp ****     float t = 0;    
 180:user/user.cpp ****     while (true)
 181:user/user.cpp ****     {
 182:user/user.cpp **** #if 1
 183:user/user.cpp ****         for (int p = 0; p < 4; p++)
 184:user/user.cpp ****         {
 185:user/user.cpp ****             // send joint angles
 186:user/user.cpp ****             for (int j = 0; j < 6; j++)
 187:user/user.cpp ****                 for (int i = 0; i < 4; i++)
 188:user/user.cpp ****                 {
 189:user/user.cpp ****                     auto* b = (unsigned char*) &(electron.joint[j + 1].angle);
 190:user/user.cpp ****                     electron.pUsbBuffer->extraDataTx[j * 4 + i + 1] = *(b + i);
 191:user/user.cpp ****                 }
 192:user/user.cpp ****             
 193:user/user.cpp ****             electron.SendUsbPacket(electron.pUsbBuffer->extraDataTx, 32);           
 194:user/user.cpp ****             electron.ReceiveUsbPacketUntilSizeIs(224); // last packet is 224bytes           
 195:user/user.cpp ****             // get joint angles
 196:user/user.cpp ****             uint8_t* ptr = electron.GetExtraDataRxPtr();
 197:user/user.cpp **** 			
 198:user/user.cpp ****             if (isEnabled != (bool) ptr[0])
 199:user/user.cpp ****             {
 200:user/user.cpp ****                 isEnabled = ptr[0];
 201:user/user.cpp ****                 /* electron.SetJointEnable(electron.joint[1], isEnabled);
 202:user/user.cpp ****                 electron.SetJointEnable(electron.joint[2], isEnabled);
 203:user/user.cpp ****                 electron.SetJointEnable(electron.joint[3], isEnabled);
ARM GAS  C:\Users\ADMINI~1\AppData\Local\Temp\cc1qObNe.s 			page 11


 204:user/user.cpp ****                 electron.SetJointEnable(electron.joint[4], isEnabled);
 205:user/user.cpp ****                 electron.SetJointEnable(electron.joint[5], isEnabled); */
 206:user/user.cpp ****                 // electron.SetJointEnable(electron.joint[6], isEnabled);
 207:user/user.cpp ****             }
 208:user/user.cpp ****             for (int j = 0; j < 6; j++)
 209:user/user.cpp ****             {
 210:user/user.cpp ****                 jointSetPoints[j] = *((float*) (ptr + 4 * j + 1));
 211:user/user.cpp ****             }
 212:user/user.cpp ****             printf("33333\r\n");
 213:user/user.cpp ****             while (electron.lcd->isBusy);
 214:user/user.cpp ****             printf("222222\r\n");
 215:user/user.cpp ****             if (p == 0)
 216:user/user.cpp ****                 electron.lcd->WriteFrameBuffer(electron.GetLcdBufferPtr(),
 217:user/user.cpp ****                                                60 * 240 * 3);
 218:user/user.cpp ****             else
 219:user/user.cpp ****                 electron.lcd->WriteFrameBuffer(electron.GetLcdBufferPtr(),
 220:user/user.cpp ****                                                60 * 240 * 3, true);			
 221:user/user.cpp ****         }
 222:user/user.cpp ****         HAL_Delay(1);
 223:user/user.cpp **** #endif
 224:user/user.cpp **** 
 225:user/user.cpp **** 
 226:user/user.cpp ****         t += 0.01;
 227:user/user.cpp **** 
 228:user/user.cpp ****        /*  electron.UpdateJointAngle(electron.joint[1], jointSetPoints[0]);
 229:user/user.cpp ****         electron.UpdateJointAngle(electron.joint[2], jointSetPoints[1]);
 230:user/user.cpp ****         electron.UpdateJointAngle(electron.joint[3], jointSetPoints[2]);
 231:user/user.cpp ****         electron.UpdateJointAngle(electron.joint[4], jointSetPoints[3]);
 232:user/user.cpp ****         electron.UpdateJointAngle(electron.joint[5], jointSetPoints[4]);
 233:user/user.cpp ****         electron.UpdateJointAngle(electron.joint[6], jointSetPoints[5]); */
 234:user/user.cpp **** 
 235:user/user.cpp ****         HAL_Delay(1);
 236:user/user.cpp **** 
 237:user/user.cpp **** //      electron.UpdateJointAngle(electron.joint[ANY], 65 + 75 * std::sin(t));
 238:user/user.cpp **** 
 239:user/user.cpp ****         printf("%.2f,%.2f,%.2f,%.2f,%.2f,%.2f\n",
 240:user/user.cpp ****                jointSetPoints[0], jointSetPoints[1], jointSetPoints[2],
 241:user/user.cpp ****                jointSetPoints[3], jointSetPoints[4], jointSetPoints[5]);
 242:user/user.cpp ****     }
 243:user/user.cpp **** }
 244:user/user.cpp **** 
 245:user/user.cpp **** 
 246:user/user.cpp **** extern "C"
 247:user/user.cpp **** void HAL_SPI_TxCpltCallback(SPI_HandleTypeDef* hspi)
 248:user/user.cpp **** {
 249:user/user.cpp ****     electron.lcd->isBusy = false;
 250:user/user.cpp **** }...
 190              		.loc 3 250 1 is_stmt 1 view -0
 191              		.cfi_startproc
 192              		@ args = 0, pretend = 0, frame = 0
 193              		@ frame_needed = 0, uses_anonymous_args = 0
 194              		.loc 3 250 1 is_stmt 0 view .LVU35
 195 0000 0128     		cmp	r0, #1
 196 0002 00D0     		beq	.L14
 197 0004 7047     		bx	lr
 198              	.L14:
 199              		.loc 3 250 1 discriminator 1 view .LVU36
ARM GAS  C:\Users\ADMINI~1\AppData\Local\Temp\cc1qObNe.s 			page 12


 200 0006 08B5     		push	{r3, lr}
 201              	.LCFI1:
 202              		.cfi_def_cfa_offset 8
 203              		.cfi_offset 3, -8
 204              		.cfi_offset 14, -4
 205              		.loc 3 250 1 discriminator 1 view .LVU37
 206 0008 4FF6FF73 		movw	r3, #65535
 207 000c 9942     		cmp	r1, r3
 208 000e 00D0     		beq	.L15
 209              	.LVL10:
 210              	.L8:
 211              		.loc 3 250 1 view .LVU38
 212 0010 08BD     		pop	{r3, pc}
 213              	.LVL11:
 214              	.L15:
   7:user/user.cpp **** Robot electron(&hspi1, &hi2c1);
 215              		.loc 3 7 30 view .LVU39
 216 0012 034A     		ldr	r2, .L16
 217 0014 0349     		ldr	r1, .L16+4
 218              	.LVL12:
   7:user/user.cpp **** Robot electron(&hspi1, &hi2c1);
 219              		.loc 3 7 30 view .LVU40
 220 0016 0448     		ldr	r0, .L16+8
 221              	.LVL13:
   7:user/user.cpp **** Robot electron(&hspi1, &hi2c1);
 222              		.loc 3 7 30 view .LVU41
 223 0018 FFF7FEFF 		bl	_ZN5RobotC1EP19__SPI_HandleTypeDefP17I2C_HandleTypeDef
 224              	.LVL14:
 225              		.loc 3 250 1 view .LVU42
 226 001c F8E7     		b	.L8
 227              	.L17:
 228 001e 00BF     		.align	2
 229              	.L16:
 230 0020 00000000 		.word	hi2c1
 231 0024 00000000 		.word	hspi1
 232 0028 00000000 		.word	.LANCHOR1
 233              		.cfi_endproc
 234              	.LFE377:
 235              		.cantunwind
 236              		.fnend
 238              		.section	.rodata.setPara.str1.4,"aMS",%progbits,1
 239              		.align	2
 240              	.LC7:
 241 0000 252E3278 		.ascii	"%.2x \000"
 241      2000
 242 0006 0000     		.align	2
 243              	.LC8:
 244 0008 0D00     		.ascii	"\015\000"
 245              		.section	.text.setPara,"ax",%progbits
 246              		.align	1
 247              		.global	setPara
 248              		.syntax unified
 249              		.thumb
 250              		.thumb_func
 252              	setPara:
 253              		.fnstart
 254              	.LVL15:
ARM GAS  C:\Users\ADMINI~1\AppData\Local\Temp\cc1qObNe.s 			page 13


 255              	.LFB371:
  32:user/user.cpp **** {
 256              		.loc 3 32 1 is_stmt 1 view -0
 257              		.cfi_startproc
 258              		@ args = 0, pretend = 0, frame = 0
 259              		@ frame_needed = 0, uses_anonymous_args = 0
  32:user/user.cpp **** {
 260              		.loc 3 32 1 is_stmt 0 view .LVU44
 261 0000 70B5     		push	{r4, r5, r6, lr}
 262              		.save {r4, r5, r6, lr}
 263              	.LCFI2:
 264              		.cfi_def_cfa_offset 16
 265              		.cfi_offset 4, -16
 266              		.cfi_offset 5, -12
 267              		.cfi_offset 6, -8
 268              		.cfi_offset 14, -4
 269 0002 0546     		mov	r5, r0
  34:user/user.cpp ****     uint8_t id = ptr[0];
 270              		.loc 3 34 5 is_stmt 1 view .LVU45
  34:user/user.cpp ****     uint8_t id = ptr[0];
 271              		.loc 3 34 13 is_stmt 0 view .LVU46
 272 0004 0346     		mov	r3, r0
 273 0006 13F8026B 		ldrb	r6, [r3], #2	@ zero_extendqisi2
 274              	.LVL16:
  35:user/user.cpp ****     setKp=*((float*) (ptr + 2));
 275              		.loc 3 35 5 is_stmt 1 view .LVU47
  35:user/user.cpp ****     setKp=*((float*) (ptr + 2));
 276              		.loc 3 35 10 is_stmt 0 view .LVU48
 277 000a 1A68     		ldr	r2, [r3]	@ float
 278 000c 3F4B     		ldr	r3, .L33
 279 000e 1A60     		str	r2, [r3]	@ float
  36:user/user.cpp ****     setKi=*((float*) (ptr + 7));
 280              		.loc 3 36 5 is_stmt 1 view .LVU49
  36:user/user.cpp ****     setKi=*((float*) (ptr + 7));
 281              		.loc 3 36 10 is_stmt 0 view .LVU50
 282 0010 C31D     		adds	r3, r0, #7
 283 0012 1A68     		ldr	r2, [r3]	@ float
 284 0014 3E4B     		ldr	r3, .L33+4
 285 0016 1A60     		str	r2, [r3]	@ float
  37:user/user.cpp ****     setKv=*((float*) (ptr + 12));
 286              		.loc 3 37 5 is_stmt 1 view .LVU51
  37:user/user.cpp ****     setKv=*((float*) (ptr + 12));
 287              		.loc 3 37 10 is_stmt 0 view .LVU52
 288 0018 C268     		ldr	r2, [r0, #12]	@ float
 289 001a 3E4B     		ldr	r3, .L33+8
 290 001c 1A60     		str	r2, [r3]	@ float
  38:user/user.cpp ****     setKd=*((float*) (ptr + 17));
 291              		.loc 3 38 5 is_stmt 1 view .LVU53
  38:user/user.cpp ****     setKd=*((float*) (ptr + 17));
 292              		.loc 3 38 10 is_stmt 0 view .LVU54
 293 001e 00F11103 		add	r3, r0, #17
 294 0022 1A68     		ldr	r2, [r3]	@ float
 295 0024 3C4B     		ldr	r3, .L33+12
 296 0026 1A60     		str	r2, [r3]	@ float
  39:user/user.cpp ****     setTq=*((float*) (ptr + 22));
 297              		.loc 3 39 5 is_stmt 1 view .LVU55
  39:user/user.cpp ****     setTq=*((float*) (ptr + 22));
ARM GAS  C:\Users\ADMINI~1\AppData\Local\Temp\cc1qObNe.s 			page 14


 298              		.loc 3 39 10 is_stmt 0 view .LVU56
 299 0028 00F11603 		add	r3, r0, #22
 300 002c 1A68     		ldr	r2, [r3]	@ float
 301 002e 3B4B     		ldr	r3, .L33+16
 302 0030 1A60     		str	r2, [r3]	@ float
  41:user/user.cpp ****     setkp_flag = ptr[1];
 303              		.loc 3 41 5 is_stmt 1 view .LVU57
  41:user/user.cpp ****     setkp_flag = ptr[1];
 304              		.loc 3 41 16 is_stmt 0 view .LVU58
 305 0032 4278     		ldrb	r2, [r0, #1]	@ zero_extendqisi2
 306 0034 3A4B     		ldr	r3, .L33+20
 307 0036 1A70     		strb	r2, [r3]
  42:user/user.cpp ****     setki_flag = ptr[6];
 308              		.loc 3 42 5 is_stmt 1 view .LVU59
  42:user/user.cpp ****     setki_flag = ptr[6];
 309              		.loc 3 42 16 is_stmt 0 view .LVU60
 310 0038 8279     		ldrb	r2, [r0, #6]	@ zero_extendqisi2
 311 003a 3A4B     		ldr	r3, .L33+24
 312 003c 1A70     		strb	r2, [r3]
  43:user/user.cpp ****     setkv_flag = ptr[11];
 313              		.loc 3 43 5 is_stmt 1 view .LVU61
  43:user/user.cpp ****     setkv_flag = ptr[11];
 314              		.loc 3 43 16 is_stmt 0 view .LVU62
 315 003e C27A     		ldrb	r2, [r0, #11]	@ zero_extendqisi2
 316 0040 394B     		ldr	r3, .L33+28
 317 0042 1A70     		strb	r2, [r3]
  44:user/user.cpp ****     setkd_flag = ptr[16];
 318              		.loc 3 44 5 is_stmt 1 view .LVU63
  44:user/user.cpp ****     setkd_flag = ptr[16];
 319              		.loc 3 44 16 is_stmt 0 view .LVU64
 320 0044 027C     		ldrb	r2, [r0, #16]	@ zero_extendqisi2
 321 0046 394B     		ldr	r3, .L33+32
 322 0048 1A70     		strb	r2, [r3]
  45:user/user.cpp ****     settq_flag = ptr[21];
 323              		.loc 3 45 5 is_stmt 1 view .LVU65
  45:user/user.cpp ****     settq_flag = ptr[21];
 324              		.loc 3 45 16 is_stmt 0 view .LVU66
 325 004a 427D     		ldrb	r2, [r0, #21]	@ zero_extendqisi2
 326 004c 384B     		ldr	r3, .L33+36
 327 004e 1A70     		strb	r2, [r3]
  47:user/user.cpp ****     for(int i=0 ; i<32; i++)
 328              		.loc 3 47 5 is_stmt 1 view .LVU67
 329              	.LVL17:
 330              	.LBB14:
  47:user/user.cpp ****     for(int i=0 ; i<32; i++)
 331              		.loc 3 47 13 is_stmt 0 view .LVU68
 332 0050 0024     		movs	r4, #0
 333 0052 04E0     		b	.L20
 334              	.LVL18:
 335              	.L27:
  48:user/user.cpp ****         printf("%.2x ",ptr[i]);
 336              		.loc 3 48 9 is_stmt 1 discriminator 2 view .LVU69
  48:user/user.cpp ****         printf("%.2x ",ptr[i]);
 337              		.loc 3 48 15 is_stmt 0 discriminator 2 view .LVU70
 338 0054 295D     		ldrb	r1, [r5, r4]	@ zero_extendqisi2
 339 0056 3748     		ldr	r0, .L33+40
 340 0058 FFF7FEFF 		bl	printf
ARM GAS  C:\Users\ADMINI~1\AppData\Local\Temp\cc1qObNe.s 			page 15


 341              	.LVL19:
  47:user/user.cpp ****     for(int i=0 ; i<32; i++)
 342              		.loc 3 47 5 is_stmt 1 discriminator 2 view .LVU71
 343 005c 0134     		adds	r4, r4, #1
 344              	.LVL20:
 345              	.L20:
  47:user/user.cpp ****     for(int i=0 ; i<32; i++)
 346              		.loc 3 47 20 discriminator 3 view .LVU72
 347 005e 1F2C     		cmp	r4, #31
 348 0060 F8DD     		ble	.L27
 349              	.LBE14:
  49:user/user.cpp ****     printf("\r\n");
 350              		.loc 3 49 5 view .LVU73
  49:user/user.cpp ****     printf("\r\n");
 351              		.loc 3 49 11 is_stmt 0 view .LVU74
 352 0062 3548     		ldr	r0, .L33+44
 353 0064 FFF7FEFF 		bl	puts
 354              	.LVL21:
  62:user/user.cpp ****     if(setkp_flag)
 355              		.loc 3 62 5 is_stmt 1 view .LVU75
  62:user/user.cpp ****     if(setkp_flag)
 356              		.loc 3 62 8 is_stmt 0 view .LVU76
 357 0068 2D4B     		ldr	r3, .L33+20
 358 006a 1B78     		ldrb	r3, [r3]	@ zero_extendqisi2
  62:user/user.cpp ****     if(setkp_flag)
 359              		.loc 3 62 5 view .LVU77
 360 006c 63B9     		cbnz	r3, .L28
 361              	.L21:
  64:user/user.cpp ****     if(setki_flag)
 362              		.loc 3 64 5 is_stmt 1 view .LVU78
  64:user/user.cpp ****     if(setki_flag)
 363              		.loc 3 64 8 is_stmt 0 view .LVU79
 364 006e 2D4B     		ldr	r3, .L33+24
 365 0070 1B78     		ldrb	r3, [r3]	@ zero_extendqisi2
  64:user/user.cpp ****     if(setki_flag)
 366              		.loc 3 64 5 view .LVU80
 367 0072 B3B9     		cbnz	r3, .L29
 368              	.L22:
  66:user/user.cpp ****     if(setkv_flag)        
 369              		.loc 3 66 5 is_stmt 1 view .LVU81
  66:user/user.cpp ****     if(setkv_flag)        
 370              		.loc 3 66 8 is_stmt 0 view .LVU82
 371 0074 2C4B     		ldr	r3, .L33+28
 372 0076 1B78     		ldrb	r3, [r3]	@ zero_extendqisi2
  66:user/user.cpp ****     if(setkv_flag)        
 373              		.loc 3 66 5 view .LVU83
 374 0078 03BB     		cbnz	r3, .L30
 375              	.L23:
  68:user/user.cpp ****     if(setkd_flag)
 376              		.loc 3 68 5 is_stmt 1 view .LVU84
  68:user/user.cpp ****     if(setkd_flag)
 377              		.loc 3 68 8 is_stmt 0 view .LVU85
 378 007a 2C4B     		ldr	r3, .L33+32
 379 007c 1B78     		ldrb	r3, [r3]	@ zero_extendqisi2
  68:user/user.cpp ****     if(setkd_flag)
 380              		.loc 3 68 5 view .LVU86
 381 007e 53BB     		cbnz	r3, .L31
ARM GAS  C:\Users\ADMINI~1\AppData\Local\Temp\cc1qObNe.s 			page 16


 382              	.L24:
  70:user/user.cpp ****     if(settq_flag)
 383              		.loc 3 70 5 is_stmt 1 view .LVU87
  70:user/user.cpp ****     if(settq_flag)
 384              		.loc 3 70 8 is_stmt 0 view .LVU88
 385 0080 2B4B     		ldr	r3, .L33+36
 386 0082 1B78     		ldrb	r3, [r3]	@ zero_extendqisi2
  70:user/user.cpp ****     if(settq_flag)
 387              		.loc 3 70 5 view .LVU89
 388 0084 A3BB     		cbnz	r3, .L32
 389              	.LVL22:
 390              	.L18:
  80:user/user.cpp **** }
 391              		.loc 3 80 1 view .LVU90
 392 0086 70BD     		pop	{r4, r5, r6, pc}
 393              	.LVL23:
 394              	.L28:
  63:user/user.cpp ****         electron.SetJointKp(electron.joint[id/2], setKp);
 395              		.loc 3 63 9 is_stmt 1 view .LVU91
  63:user/user.cpp ****         electron.SetJointKp(electron.joint[id/2], setKp);
 396              		.loc 3 63 46 is_stmt 0 view .LVU92
 397 0088 7308     		lsrs	r3, r6, #1
  63:user/user.cpp ****         electron.SetJointKp(electron.joint[id/2], setKp);
 398              		.loc 3 63 48 view .LVU93
 399 008a 2C48     		ldr	r0, .L33+48
 400 008c C3EBC303 		rsb	r3, r3, r3, lsl #3
 401 0090 00EB8301 		add	r1, r0, r3, lsl #2
  63:user/user.cpp ****         electron.SetJointKp(electron.joint[id/2], setKp);
 402              		.loc 3 63 28 view .LVU94
 403 0094 1D4B     		ldr	r3, .L33
 404 0096 93ED000A 		vldr.32	s0, [r3]
 405 009a 0431     		adds	r1, r1, #4
 406 009c FFF7FEFF 		bl	_ZN5Robot10SetJointKpERNS_13JointStatus_tEf
 407              	.LVL24:
 408 00a0 E5E7     		b	.L21
 409              	.L29:
  65:user/user.cpp ****         electron.SetJointKi(electron.joint[id/2], setKi);
 410              		.loc 3 65 9 is_stmt 1 view .LVU95
  65:user/user.cpp ****         electron.SetJointKi(electron.joint[id/2], setKi);
 411              		.loc 3 65 46 is_stmt 0 view .LVU96
 412 00a2 7308     		lsrs	r3, r6, #1
  65:user/user.cpp ****         electron.SetJointKi(electron.joint[id/2], setKi);
 413              		.loc 3 65 48 view .LVU97
 414 00a4 2548     		ldr	r0, .L33+48
 415 00a6 C3EBC303 		rsb	r3, r3, r3, lsl #3
 416 00aa 00EB8301 		add	r1, r0, r3, lsl #2
  65:user/user.cpp ****         electron.SetJointKi(electron.joint[id/2], setKi);
 417              		.loc 3 65 28 view .LVU98
 418 00ae 184B     		ldr	r3, .L33+4
 419 00b0 93ED000A 		vldr.32	s0, [r3]
 420 00b4 0431     		adds	r1, r1, #4
 421 00b6 FFF7FEFF 		bl	_ZN5Robot10SetJointKiERNS_13JointStatus_tEf
 422              	.LVL25:
 423 00ba DBE7     		b	.L22
 424              	.L30:
  67:user/user.cpp ****         electron.SetJointKv(electron.joint[id/2], setKv);
 425              		.loc 3 67 9 is_stmt 1 view .LVU99
ARM GAS  C:\Users\ADMINI~1\AppData\Local\Temp\cc1qObNe.s 			page 17


  67:user/user.cpp ****         electron.SetJointKv(electron.joint[id/2], setKv);
 426              		.loc 3 67 46 is_stmt 0 view .LVU100
 427 00bc 7308     		lsrs	r3, r6, #1
  67:user/user.cpp ****         electron.SetJointKv(electron.joint[id/2], setKv);
 428              		.loc 3 67 48 view .LVU101
 429 00be 1F48     		ldr	r0, .L33+48
 430 00c0 C3EBC303 		rsb	r3, r3, r3, lsl #3
 431 00c4 00EB8301 		add	r1, r0, r3, lsl #2
  67:user/user.cpp ****         electron.SetJointKv(electron.joint[id/2], setKv);
 432              		.loc 3 67 28 view .LVU102
 433 00c8 124B     		ldr	r3, .L33+8
 434 00ca 93ED000A 		vldr.32	s0, [r3]
 435 00ce 0431     		adds	r1, r1, #4
 436 00d0 FFF7FEFF 		bl	_ZN5Robot10SetJointKvERNS_13JointStatus_tEf
 437              	.LVL26:
 438 00d4 D1E7     		b	.L23
 439              	.L31:
  69:user/user.cpp ****         electron.SetJointKd(electron.joint[id/2], setKd);
 440              		.loc 3 69 9 is_stmt 1 view .LVU103
  69:user/user.cpp ****         electron.SetJointKd(electron.joint[id/2], setKd);
 441              		.loc 3 69 46 is_stmt 0 view .LVU104
 442 00d6 7308     		lsrs	r3, r6, #1
  69:user/user.cpp ****         electron.SetJointKd(electron.joint[id/2], setKd);
 443              		.loc 3 69 48 view .LVU105
 444 00d8 1848     		ldr	r0, .L33+48
 445 00da C3EBC303 		rsb	r3, r3, r3, lsl #3
 446 00de 00EB8301 		add	r1, r0, r3, lsl #2
  69:user/user.cpp ****         electron.SetJointKd(electron.joint[id/2], setKd);
 447              		.loc 3 69 28 view .LVU106
 448 00e2 0D4B     		ldr	r3, .L33+12
 449 00e4 93ED000A 		vldr.32	s0, [r3]
 450 00e8 0431     		adds	r1, r1, #4
 451 00ea FFF7FEFF 		bl	_ZN5Robot10SetJointKdERNS_13JointStatus_tEf
 452              	.LVL27:
 453 00ee C7E7     		b	.L24
 454              	.L32:
  71:user/user.cpp ****         electron.SetJointTorqueLimit(electron.joint[id/2], setTq);
 455              		.loc 3 71 9 is_stmt 1 view .LVU107
  71:user/user.cpp ****         electron.SetJointTorqueLimit(electron.joint[id/2], setTq);
 456              		.loc 3 71 55 is_stmt 0 view .LVU108
 457 00f0 7608     		lsrs	r6, r6, #1
 458              	.LVL28:
  71:user/user.cpp ****         electron.SetJointTorqueLimit(electron.joint[id/2], setTq);
 459              		.loc 3 71 57 view .LVU109
 460 00f2 1248     		ldr	r0, .L33+48
 461 00f4 C6EBC606 		rsb	r6, r6, r6, lsl #3
 462 00f8 00EB8601 		add	r1, r0, r6, lsl #2
  71:user/user.cpp ****         electron.SetJointTorqueLimit(electron.joint[id/2], setTq);
 463              		.loc 3 71 37 view .LVU110
 464 00fc 074B     		ldr	r3, .L33+16
 465 00fe 93ED000A 		vldr.32	s0, [r3]
 466 0102 0431     		adds	r1, r1, #4
 467 0104 FFF7FEFF 		bl	_ZN5Robot19SetJointTorqueLimitERNS_13JointStatus_tEf
 468              	.LVL29:
  80:user/user.cpp **** }
 469              		.loc 3 80 1 view .LVU111
 470 0108 BDE7     		b	.L18
ARM GAS  C:\Users\ADMINI~1\AppData\Local\Temp\cc1qObNe.s 			page 18


 471              	.L34:
 472 010a 00BF     		.align	2
 473              	.L33:
 474 010c 00000000 		.word	.LANCHOR2
 475 0110 00000000 		.word	.LANCHOR3
 476 0114 00000000 		.word	.LANCHOR4
 477 0118 00000000 		.word	.LANCHOR5
 478 011c 00000000 		.word	.LANCHOR6
 479 0120 00000000 		.word	.LANCHOR7
 480 0124 00000000 		.word	.LANCHOR8
 481 0128 00000000 		.word	.LANCHOR9
 482 012c 00000000 		.word	.LANCHOR10
 483 0130 00000000 		.word	.LANCHOR11
 484 0134 00000000 		.word	.LC7
 485 0138 08000000 		.word	.LC8
 486 013c 00000000 		.word	.LANCHOR1
 487              		.cfi_endproc
 488              	.LFE371:
 489              		.fnend
 491              		.section	.text.setAngle,"ax",%progbits
 492              		.align	1
 493              		.global	setAngle
 494              		.syntax unified
 495              		.thumb
 496              		.thumb_func
 498              	setAngle:
 499              		.fnstart
 500              	.LVL30:
 501              	.LFB372:
  82:user/user.cpp **** {
 502              		.loc 3 82 1 is_stmt 1 view -0
 503              		.cfi_startproc
 504              		@ args = 0, pretend = 0, frame = 0
 505              		@ frame_needed = 0, uses_anonymous_args = 0
  82:user/user.cpp **** {
 506              		.loc 3 82 1 is_stmt 0 view .LVU113
 507 0000 70B5     		push	{r4, r5, r6, lr}
 508              		.save {r4, r5, r6, lr}
 509              	.LCFI3:
 510              		.cfi_def_cfa_offset 16
 511              		.cfi_offset 4, -16
 512              		.cfi_offset 5, -12
 513              		.cfi_offset 6, -8
 514              		.cfi_offset 14, -4
 515 0002 0546     		mov	r5, r0
  83:user/user.cpp ****     uint8_t id = ptr[0];
 516              		.loc 3 83 5 is_stmt 1 view .LVU114
  83:user/user.cpp ****     uint8_t id = ptr[0];
 517              		.loc 3 83 13 is_stmt 0 view .LVU115
 518 0004 0346     		mov	r3, r0
 519 0006 13F8016B 		ldrb	r6, [r3], #1	@ zero_extendqisi2
 520              	.LVL31:
  85:user/user.cpp ****     jointSetPoints[id/2] = *((float*) (ptr + 1));
 521              		.loc 3 85 5 is_stmt 1 view .LVU116
  85:user/user.cpp ****     jointSetPoints[id/2] = *((float*) (ptr + 1));
 522              		.loc 3 85 22 is_stmt 0 view .LVU117
 523 000a 7608     		lsrs	r6, r6, #1
ARM GAS  C:\Users\ADMINI~1\AppData\Local\Temp\cc1qObNe.s 			page 19


 524              	.LVL32:
  85:user/user.cpp ****     jointSetPoints[id/2] = *((float*) (ptr + 1));
 525              		.loc 3 85 26 view .LVU118
 526 000c 1A68     		ldr	r2, [r3]	@ float
 527 000e 164B     		ldr	r3, .L40
 528 0010 03EB8603 		add	r3, r3, r6, lsl #2
 529 0014 1A60     		str	r2, [r3]	@ float
 530              	.LVL33:
  86:user/user.cpp ****     isEnabled = ptr[5];
 531              		.loc 3 86 5 is_stmt 1 view .LVU119
  86:user/user.cpp ****     isEnabled = ptr[5];
 532              		.loc 3 86 22 is_stmt 0 view .LVU120
 533 0016 4379     		ldrb	r3, [r0, #5]	@ zero_extendqisi2
 534 0018 003B     		subs	r3, r3, #0
 535 001a 18BF     		it	ne
 536 001c 0123     		movne	r3, #1
  86:user/user.cpp ****     isEnabled = ptr[5];
 537              		.loc 3 86 15 view .LVU121
 538 001e 134A     		ldr	r2, .L40+4
 539 0020 1370     		strb	r3, [r2]
  88:user/user.cpp ****     for(int i=0 ; i<32; i++)
 540              		.loc 3 88 5 is_stmt 1 view .LVU122
 541              	.LVL34:
 542              	.LBB15:
  88:user/user.cpp ****     for(int i=0 ; i<32; i++)
 543              		.loc 3 88 13 is_stmt 0 view .LVU123
 544 0022 0024     		movs	r4, #0
 545 0024 04E0     		b	.L37
 546              	.LVL35:
 547              	.L39:
  89:user/user.cpp ****         printf("%.2x ",ptr[i]);
 548              		.loc 3 89 9 is_stmt 1 discriminator 2 view .LVU124
  89:user/user.cpp ****         printf("%.2x ",ptr[i]);
 549              		.loc 3 89 15 is_stmt 0 discriminator 2 view .LVU125
 550 0026 295D     		ldrb	r1, [r5, r4]	@ zero_extendqisi2
 551 0028 1148     		ldr	r0, .L40+8
 552 002a FFF7FEFF 		bl	printf
 553              	.LVL36:
  88:user/user.cpp ****     for(int i=0 ; i<32; i++)
 554              		.loc 3 88 5 is_stmt 1 discriminator 2 view .LVU126
 555 002e 0134     		adds	r4, r4, #1
 556              	.LVL37:
 557              	.L37:
  88:user/user.cpp ****     for(int i=0 ; i<32; i++)
 558              		.loc 3 88 20 discriminator 3 view .LVU127
 559 0030 1F2C     		cmp	r4, #31
 560 0032 F8DD     		ble	.L39
 561              	.LBE15:
  90:user/user.cpp ****     printf("\r\n");
 562              		.loc 3 90 5 view .LVU128
  90:user/user.cpp ****     printf("\r\n");
 563              		.loc 3 90 11 is_stmt 0 view .LVU129
 564 0034 0F48     		ldr	r0, .L40+12
 565 0036 FFF7FEFF 		bl	puts
 566              	.LVL38:
 103:user/user.cpp ****     electron.UpdateJointAngle(electron.joint[id/2], jointSetPoints[id/2]);
 567              		.loc 3 103 5 is_stmt 1 view .LVU130
ARM GAS  C:\Users\ADMINI~1\AppData\Local\Temp\cc1qObNe.s 			page 20


 103:user/user.cpp ****     electron.UpdateJointAngle(electron.joint[id/2], jointSetPoints[id/2]);
 568              		.loc 3 103 50 is_stmt 0 view .LVU131
 569 003a 0F4D     		ldr	r5, .L40+16
 570              	.LVL39:
 103:user/user.cpp ****     electron.UpdateJointAngle(electron.joint[id/2], jointSetPoints[id/2]);
 571              		.loc 3 103 50 view .LVU132
 572 003c C6EBC604 		rsb	r4, r6, r6, lsl #3
 573              	.LVL40:
 103:user/user.cpp ****     electron.UpdateJointAngle(electron.joint[id/2], jointSetPoints[id/2]);
 574              		.loc 3 103 50 view .LVU133
 575 0040 05EB8404 		add	r4, r5, r4, lsl #2
 576 0044 0434     		adds	r4, r4, #4
 103:user/user.cpp ****     electron.UpdateJointAngle(electron.joint[id/2], jointSetPoints[id/2]);
 577              		.loc 3 103 30 view .LVU134
 578 0046 084B     		ldr	r3, .L40
 579 0048 03EB8606 		add	r6, r3, r6, lsl #2
 580 004c 96ED000A 		vldr.32	s0, [r6]
 581 0050 2146     		mov	r1, r4
 582 0052 2846     		mov	r0, r5
 583 0054 FFF7FEFF 		bl	_ZN5Robot16UpdateJointAngleERNS_13JointStatus_tEf
 584              	.LVL41:
 104:user/user.cpp ****     electron.SetJointEnable(electron.joint[id/2], isEnabled);
 585              		.loc 3 104 5 is_stmt 1 view .LVU135
 104:user/user.cpp ****     electron.SetJointEnable(electron.joint[id/2], isEnabled);
 586              		.loc 3 104 28 is_stmt 0 view .LVU136
 587 0058 044B     		ldr	r3, .L40+4
 588 005a 1A78     		ldrb	r2, [r3]	@ zero_extendqisi2
 589 005c 2146     		mov	r1, r4
 590 005e 2846     		mov	r0, r5
 591 0060 FFF7FEFF 		bl	_ZN5Robot14SetJointEnableERNS_13JointStatus_tEb
 592              	.LVL42:
 105:user/user.cpp **** }
 593              		.loc 3 105 1 view .LVU137
 594 0064 70BD     		pop	{r4, r5, r6, pc}
 595              	.L41:
 596 0066 00BF     		.align	2
 597              	.L40:
 598 0068 00000000 		.word	.LANCHOR12
 599 006c 00000000 		.word	.LANCHOR13
 600 0070 00000000 		.word	.LC7
 601 0074 08000000 		.word	.LC8
 602 0078 00000000 		.word	.LANCHOR1
 603              		.cfi_endproc
 604              	.LFE372:
 605              		.fnend
 607              		.section	.text._Z5setidPh,"ax",%progbits
 608              		.align	1
 609              		.global	_Z5setidPh
 610              		.syntax unified
 611              		.thumb
 612              		.thumb_func
 614              	_Z5setidPh:
 615              		.fnstart
 616              	.LVL43:
 617              	.LFB373:
 107:user/user.cpp **** {
 618              		.loc 3 107 1 is_stmt 1 view -0
ARM GAS  C:\Users\ADMINI~1\AppData\Local\Temp\cc1qObNe.s 			page 21


 619              		.cfi_startproc
 620              		@ args = 0, pretend = 0, frame = 0
 621              		@ frame_needed = 0, uses_anonymous_args = 0
 107:user/user.cpp **** {
 622              		.loc 3 107 1 is_stmt 0 view .LVU139
 623 0000 08B5     		push	{r3, lr}
 624              		.save {r3, lr}
 625              	.LCFI4:
 626              		.cfi_def_cfa_offset 8
 627              		.cfi_offset 3, -8
 628              		.cfi_offset 14, -4
 108:user/user.cpp ****     uint8_t id = ptr[0];
 629              		.loc 3 108 5 is_stmt 1 view .LVU140
 108:user/user.cpp ****     uint8_t id = ptr[0];
 630              		.loc 3 108 13 is_stmt 0 view .LVU141
 631 0002 0178     		ldrb	r1, [r0]	@ zero_extendqisi2
 632              	.LVL44:
 110:user/user.cpp ****     newid=ptr[1];
 633              		.loc 3 110 5 is_stmt 1 view .LVU142
 110:user/user.cpp ****     newid=ptr[1];
 634              		.loc 3 110 10 is_stmt 0 view .LVU143
 635 0004 4278     		ldrb	r2, [r0, #1]	@ zero_extendqisi2
 636 0006 064B     		ldr	r3, .L44
 637 0008 1A70     		strb	r2, [r3]
 111:user/user.cpp ****     electron.SetJointId(electron.joint[id/2], newid);
 638              		.loc 3 111 5 is_stmt 1 view .LVU144
 111:user/user.cpp ****     electron.SetJointId(electron.joint[id/2], newid);
 639              		.loc 3 111 42 is_stmt 0 view .LVU145
 640 000a 4908     		lsrs	r1, r1, #1
 641              	.LVL45:
 111:user/user.cpp ****     electron.SetJointId(electron.joint[id/2], newid);
 642              		.loc 3 111 44 view .LVU146
 643 000c 0548     		ldr	r0, .L44+4
 644              	.LVL46:
 111:user/user.cpp ****     electron.SetJointId(electron.joint[id/2], newid);
 645              		.loc 3 111 44 view .LVU147
 646 000e C1EBC101 		rsb	r1, r1, r1, lsl #3
 647 0012 00EB8101 		add	r1, r0, r1, lsl #2
 111:user/user.cpp ****     electron.SetJointId(electron.joint[id/2], newid);
 648              		.loc 3 111 24 view .LVU148
 649 0016 0431     		adds	r1, r1, #4
 650 0018 FFF7FEFF 		bl	_ZN5Robot10SetJointIdERNS_13JointStatus_tEh
 651              	.LVL47:
 112:user/user.cpp **** }
 652              		.loc 3 112 1 view .LVU149
 653 001c 08BD     		pop	{r3, pc}
 654              	.L45:
 655 001e 00BF     		.align	2
 656              	.L44:
 657 0020 00000000 		.word	.LANCHOR14
 658 0024 00000000 		.word	.LANCHOR1
 659              		.cfi_endproc
 660              	.LFE373:
 661              		.fnend
 663              		.section	.text._Z12setInitAnglePh,"ax",%progbits
 664              		.align	1
 665              		.global	_Z12setInitAnglePh
ARM GAS  C:\Users\ADMINI~1\AppData\Local\Temp\cc1qObNe.s 			page 22


 666              		.syntax unified
 667              		.thumb
 668              		.thumb_func
 670              	_Z12setInitAnglePh:
 671              		.fnstart
 672              	.LVL48:
 673              	.LFB374:
 114:user/user.cpp **** {
 674              		.loc 3 114 1 is_stmt 1 view -0
 675              		.cfi_startproc
 676              		@ args = 0, pretend = 0, frame = 0
 677              		@ frame_needed = 0, uses_anonymous_args = 0
 114:user/user.cpp **** {
 678              		.loc 3 114 1 is_stmt 0 view .LVU151
 679 0000 70B5     		push	{r4, r5, r6, lr}
 680              		.save {r4, r5, r6, lr}
 681              	.LCFI5:
 682              		.cfi_def_cfa_offset 16
 683              		.cfi_offset 4, -16
 684              		.cfi_offset 5, -12
 685              		.cfi_offset 6, -8
 686              		.cfi_offset 14, -4
 687 0002 0546     		mov	r5, r0
 115:user/user.cpp ****     uint8_t id = ptr[0];
 688              		.loc 3 115 5 is_stmt 1 view .LVU152
 115:user/user.cpp ****     uint8_t id = ptr[0];
 689              		.loc 3 115 13 is_stmt 0 view .LVU153
 690 0004 0346     		mov	r3, r0
 691 0006 13F8016B 		ldrb	r6, [r3], #1	@ zero_extendqisi2
 692              	.LVL49:
 116:user/user.cpp ****     jointSetPoints[id/2]=*((float*) (ptr + 1));
 693              		.loc 3 116 5 is_stmt 1 view .LVU154
 116:user/user.cpp ****     jointSetPoints[id/2]=*((float*) (ptr + 1));
 694              		.loc 3 116 22 is_stmt 0 view .LVU155
 695 000a 7608     		lsrs	r6, r6, #1
 696              	.LVL50:
 116:user/user.cpp ****     jointSetPoints[id/2]=*((float*) (ptr + 1));
 697              		.loc 3 116 25 view .LVU156
 698 000c 1A68     		ldr	r2, [r3]	@ float
 699 000e 0F4B     		ldr	r3, .L51
 700 0010 03EB8603 		add	r3, r3, r6, lsl #2
 701 0014 1A60     		str	r2, [r3]	@ float
 702              	.LVL51:
 117:user/user.cpp ****     for(int i=0 ; i<32; i++)
 703              		.loc 3 117 5 is_stmt 1 view .LVU157
 704              	.LBB16:
 117:user/user.cpp ****     for(int i=0 ; i<32; i++)
 705              		.loc 3 117 13 is_stmt 0 view .LVU158
 706 0016 0024     		movs	r4, #0
 707 0018 04E0     		b	.L48
 708              	.LVL52:
 709              	.L50:
 118:user/user.cpp ****         printf("%.2x ",ptr[i]);
 710              		.loc 3 118 9 is_stmt 1 discriminator 2 view .LVU159
 118:user/user.cpp ****         printf("%.2x ",ptr[i]);
 711              		.loc 3 118 15 is_stmt 0 discriminator 2 view .LVU160
 712 001a 295D     		ldrb	r1, [r5, r4]	@ zero_extendqisi2
ARM GAS  C:\Users\ADMINI~1\AppData\Local\Temp\cc1qObNe.s 			page 23


 713 001c 0C48     		ldr	r0, .L51+4
 714 001e FFF7FEFF 		bl	printf
 715              	.LVL53:
 117:user/user.cpp ****     for(int i=0 ; i<32; i++)
 716              		.loc 3 117 5 is_stmt 1 discriminator 2 view .LVU161
 717 0022 0134     		adds	r4, r4, #1
 718              	.LVL54:
 719              	.L48:
 117:user/user.cpp ****     for(int i=0 ; i<32; i++)
 720              		.loc 3 117 20 discriminator 3 view .LVU162
 721 0024 1F2C     		cmp	r4, #31
 722 0026 F8DD     		ble	.L50
 723              	.LBE16:
 119:user/user.cpp ****     printf("\r\n");
 724              		.loc 3 119 5 view .LVU163
 119:user/user.cpp ****     printf("\r\n");
 725              		.loc 3 119 11 is_stmt 0 view .LVU164
 726 0028 0A48     		ldr	r0, .L51+8
 727 002a FFF7FEFF 		bl	puts
 728              	.LVL55:
 121:user/user.cpp ****     electron.SetJointInitAngle(electron.joint[id/2], jointSetPoints[id/2]);
 729              		.loc 3 121 5 is_stmt 1 view .LVU165
 121:user/user.cpp ****     electron.SetJointInitAngle(electron.joint[id/2], jointSetPoints[id/2]);
 730              		.loc 3 121 51 is_stmt 0 view .LVU166
 731 002e 0A48     		ldr	r0, .L51+12
 732 0030 C6EBC601 		rsb	r1, r6, r6, lsl #3
 733 0034 00EB8101 		add	r1, r0, r1, lsl #2
 121:user/user.cpp ****     electron.SetJointInitAngle(electron.joint[id/2], jointSetPoints[id/2]);
 734              		.loc 3 121 31 view .LVU167
 735 0038 044B     		ldr	r3, .L51
 736 003a 03EB8606 		add	r6, r3, r6, lsl #2
 737 003e 96ED000A 		vldr.32	s0, [r6]
 738 0042 0431     		adds	r1, r1, #4
 739 0044 FFF7FEFF 		bl	_ZN5Robot17SetJointInitAngleERNS_13JointStatus_tEf
 740              	.LVL56:
 122:user/user.cpp **** }
 741              		.loc 3 122 1 view .LVU168
 742 0048 70BD     		pop	{r4, r5, r6, pc}
 743              	.LVL57:
 744              	.L52:
 122:user/user.cpp **** }
 745              		.loc 3 122 1 view .LVU169
 746 004a 00BF     		.align	2
 747              	.L51:
 748 004c 00000000 		.word	.LANCHOR12
 749 0050 00000000 		.word	.LC7
 750 0054 08000000 		.word	.LC8
 751 0058 00000000 		.word	.LANCHOR1
 752              		.cfi_endproc
 753              	.LFE374:
 754              		.fnend
 756              		.section	.rodata.Main.str1.4,"aMS",%progbits,1
 757              		.align	2
 758              	.LC9:
 759 0000 7461736B 		.ascii	"task\015\000"
 759      0D00
 760              		.section	.text.Main,"ax",%progbits
ARM GAS  C:\Users\ADMINI~1\AppData\Local\Temp\cc1qObNe.s 			page 24


 761              		.align	1
 762              		.global	Main
 763              		.syntax unified
 764              		.thumb
 765              		.thumb_func
 767              	Main:
 768              		.fnstart
 769              	.LFB375:
 125:user/user.cpp **** {
 770              		.loc 3 125 1 is_stmt 1 view -0
 771              		.cfi_startproc
 772              		@ args = 0, pretend = 0, frame = 0
 773              		@ frame_needed = 0, uses_anonymous_args = 0
 774 0000 10B5     		push	{r4, lr}
 775              		.save {r4, lr}
 776              	.LCFI6:
 777              		.cfi_def_cfa_offset 8
 778              		.cfi_offset 4, -8
 779              		.cfi_offset 14, -4
 780              		.pad #8
 781 0002 82B0     		sub	sp, sp, #8
 782              	.LCFI7:
 783              		.cfi_def_cfa_offset 16
 126:user/user.cpp ****     int i;    
 784              		.loc 3 126 5 view .LVU171
 127:user/user.cpp ****     HAL_Delay(1000);
 785              		.loc 3 127 5 view .LVU172
 127:user/user.cpp ****     HAL_Delay(1000);
 786              		.loc 3 127 14 is_stmt 0 view .LVU173
 787 0004 4FF47A70 		mov	r0, #1000
 788 0008 FFF7FEFF 		bl	HAL_Delay
 789              	.LVL58:
 128:user/user.cpp ****     electron.lcd->Init(Screen::DEGREE_0);
 790              		.loc 3 128 5 is_stmt 1 view .LVU174
 128:user/user.cpp ****     electron.lcd->Init(Screen::DEGREE_0);
 791              		.loc 3 128 14 is_stmt 0 view .LVU175
 792 000c 1B4C     		ldr	r4, .L66
 128:user/user.cpp ****     electron.lcd->Init(Screen::DEGREE_0);
 793              		.loc 3 128 23 view .LVU176
 794 000e 0021     		movs	r1, #0
 795 0010 D4F8C800 		ldr	r0, [r4, #200]
 796 0014 FFF7FEFF 		bl	_ZN6Screen4InitENS_13Orientation_tE
 797              	.LVL59:
 129:user/user.cpp ****     electron.lcd->SetWindow(0, 239, 0, 239);
 798              		.loc 3 129 5 is_stmt 1 view .LVU177
 129:user/user.cpp ****     electron.lcd->SetWindow(0, 239, 0, 239);
 799              		.loc 3 129 28 is_stmt 0 view .LVU178
 800 0018 EF22     		movs	r2, #239
 801 001a 0092     		str	r2, [sp]
 802 001c 0023     		movs	r3, #0
 803 001e 1946     		mov	r1, r3
 804 0020 D4F8C800 		ldr	r0, [r4, #200]
 805 0024 FFF7FEFF 		bl	_ZN6Screen9SetWindowEtttt
 806              	.LVL60:
 130:user/user.cpp ****     for(int i=0;i<32;i++)
 807              		.loc 3 130 5 is_stmt 1 view .LVU179
 808              	.LBB17:
ARM GAS  C:\Users\ADMINI~1\AppData\Local\Temp\cc1qObNe.s 			page 25


 130:user/user.cpp ****     for(int i=0;i<32;i++)
 809              		.loc 3 130 13 is_stmt 0 view .LVU180
 810 0028 0023     		movs	r3, #0
 811              	.LVL61:
 812              	.L55:
 130:user/user.cpp ****     for(int i=0;i<32;i++)
 813              		.loc 3 130 18 is_stmt 1 discriminator 3 view .LVU181
 814 002a 1F2B     		cmp	r3, #31
 815 002c 08DC     		bgt	.L54
 131:user/user.cpp ****         electron.pUsbBuffer->extraDataTx[i]=32-i;
 816              		.loc 3 131 9 discriminator 2 view .LVU182
 131:user/user.cpp ****         electron.pUsbBuffer->extraDataTx[i]=32-i;
 817              		.loc 3 131 18 is_stmt 0 discriminator 2 view .LVU183
 818 002e 134A     		ldr	r2, .L66
 819 0030 1268     		ldr	r2, [r2]
 131:user/user.cpp ****         electron.pUsbBuffer->extraDataTx[i]=32-i;
 820              		.loc 3 131 47 discriminator 2 view .LVU184
 821 0032 C3F12001 		rsb	r1, r3, #32
 131:user/user.cpp ****         electron.pUsbBuffer->extraDataTx[i]=32-i;
 822              		.loc 3 131 44 discriminator 2 view .LVU185
 823 0036 D154     		strb	r1, [r2, r3]
 130:user/user.cpp ****     for(int i=0;i<32;i++)
 824              		.loc 3 130 5 is_stmt 1 discriminator 2 view .LVU186
 825 0038 0133     		adds	r3, r3, #1
 826              	.LVL62:
 130:user/user.cpp ****     for(int i=0;i<32;i++)
 827              		.loc 3 130 5 is_stmt 0 discriminator 2 view .LVU187
 828 003a F6E7     		b	.L55
 829              	.LVL63:
 830              	.L62:
 130:user/user.cpp ****     for(int i=0;i<32;i++)
 831              		.loc 3 130 5 discriminator 2 view .LVU188
 832              	.LBE17:
 833              	.LBB18:
 143:user/user.cpp ****             setPara(ptr);
 834              		.loc 3 143 13 is_stmt 1 view .LVU189
 143:user/user.cpp ****             setPara(ptr);
 835              		.loc 3 143 20 is_stmt 0 view .LVU190
 836 003c FFF7FEFF 		bl	setPara
 837              	.LVL64:
 838              	.L54:
 143:user/user.cpp ****             setPara(ptr);
 839              		.loc 3 143 20 view .LVU191
 840              	.LBE18:
 134:user/user.cpp ****     while(1)
 841              		.loc 3 134 5 is_stmt 1 view .LVU192
 842              	.LBB19:
 138:user/user.cpp ****         electron.ReceiveUsbPacketUntilSizeIs(224); // last packet is 224bytes
 843              		.loc 3 138 9 view .LVU193
 138:user/user.cpp ****         electron.ReceiveUsbPacketUntilSizeIs(224); // last packet is 224bytes
 844              		.loc 3 138 45 is_stmt 0 view .LVU194
 845 0040 0E4C     		ldr	r4, .L66
 846 0042 E021     		movs	r1, #224
 847 0044 2046     		mov	r0, r4
 848 0046 FFF7FEFF 		bl	_ZN5Robot27ReceiveUsbPacketUntilSizeIsEm
 849              	.LVL65:
 139:user/user.cpp ****         uint8_t* ptr = electron.GetExtraDataRxPtr();
ARM GAS  C:\Users\ADMINI~1\AppData\Local\Temp\cc1qObNe.s 			page 26


 850              		.loc 3 139 9 is_stmt 1 view .LVU195
 139:user/user.cpp ****         uint8_t* ptr = electron.GetExtraDataRxPtr();
 851              		.loc 3 139 50 is_stmt 0 view .LVU196
 852 004a 2046     		mov	r0, r4
 853 004c FFF7FEFF 		bl	_ZN5Robot17GetExtraDataRxPtrEv
 854              	.LVL66:
 141:user/user.cpp ****         if(ptr[31] == 0xee)  //设置参数
 855              		.loc 3 141 9 is_stmt 1 view .LVU197
 141:user/user.cpp ****         if(ptr[31] == 0xee)  //设置参数
 856              		.loc 3 141 18 is_stmt 0 view .LVU198
 857 0050 C37F     		ldrb	r3, [r0, #31]	@ zero_extendqisi2
 141:user/user.cpp ****         if(ptr[31] == 0xee)  //设置参数
 858              		.loc 3 141 9 view .LVU199
 859 0052 EE2B     		cmp	r3, #238
 860 0054 F2D0     		beq	.L62
 145:user/user.cpp ****         else if(ptr[31] == 0xef)
 861              		.loc 3 145 14 is_stmt 1 view .LVU200
 862 0056 EF2B     		cmp	r3, #239
 863 0058 07D0     		beq	.L63
 150:user/user.cpp ****         else if(ptr[31] == 0xf0)
 864              		.loc 3 150 14 view .LVU201
 865 005a F02B     		cmp	r3, #240
 866 005c 08D0     		beq	.L64
 154:user/user.cpp ****         else if(ptr[31] == 0xf1)
 867              		.loc 3 154 14 view .LVU202
 868 005e F12B     		cmp	r3, #241
 869 0060 09D0     		beq	.L65
 160:user/user.cpp ****             printf("task\r\n");
 870              		.loc 3 160 13 view .LVU203
 160:user/user.cpp ****             printf("task\r\n");
 871              		.loc 3 160 19 is_stmt 0 view .LVU204
 872 0062 0748     		ldr	r0, .L66+4
 873              	.LVL67:
 160:user/user.cpp ****             printf("task\r\n");
 874              		.loc 3 160 19 view .LVU205
 875 0064 FFF7FEFF 		bl	puts
 876              	.LVL68:
 877 0068 EAE7     		b	.L54
 878              	.LVL69:
 879              	.L63:
 147:user/user.cpp ****             setAngle(ptr);
 880              		.loc 3 147 13 is_stmt 1 view .LVU206
 147:user/user.cpp ****             setAngle(ptr);
 881              		.loc 3 147 21 is_stmt 0 view .LVU207
 882 006a FFF7FEFF 		bl	setAngle
 883              	.LVL70:
 147:user/user.cpp ****             setAngle(ptr);
 884              		.loc 3 147 21 view .LVU208
 885 006e E7E7     		b	.L54
 886              	.LVL71:
 887              	.L64:
 152:user/user.cpp ****              setid(ptr);         
 888              		.loc 3 152 14 is_stmt 1 view .LVU209
 152:user/user.cpp ****              setid(ptr);         
 889              		.loc 3 152 19 is_stmt 0 view .LVU210
 890 0070 FFF7FEFF 		bl	_Z5setidPh
 891              	.LVL72:
ARM GAS  C:\Users\ADMINI~1\AppData\Local\Temp\cc1qObNe.s 			page 27


 152:user/user.cpp ****              setid(ptr);         
 892              		.loc 3 152 19 view .LVU211
 893 0074 E4E7     		b	.L54
 894              	.LVL73:
 895              	.L65:
 156:user/user.cpp ****              setInitAngle(ptr);
 896              		.loc 3 156 14 is_stmt 1 view .LVU212
 156:user/user.cpp ****              setInitAngle(ptr);
 897              		.loc 3 156 26 is_stmt 0 view .LVU213
 898 0076 FFF7FEFF 		bl	_Z12setInitAnglePh
 899              	.LVL74:
 156:user/user.cpp ****              setInitAngle(ptr);
 900              		.loc 3 156 26 view .LVU214
 901 007a E1E7     		b	.L54
 902              	.L67:
 903              		.align	2
 904              	.L66:
 905 007c 00000000 		.word	.LANCHOR1
 906 0080 00000000 		.word	.LC9
 907              	.LBE19:
 908              		.cfi_endproc
 909              	.LFE375:
 910              		.fnend
 912              		.section	.text.HAL_SPI_TxCpltCallback,"ax",%progbits
 913              		.align	1
 914              		.global	HAL_SPI_TxCpltCallback
 915              		.syntax unified
 916              		.thumb
 917              		.thumb_func
 919              	HAL_SPI_TxCpltCallback:
 920              		.fnstart
 921              	.LVL75:
 922              	.LFB376:
 248:user/user.cpp **** {
 923              		.loc 3 248 1 is_stmt 1 view -0
 924              		.cfi_startproc
 925              		@ args = 0, pretend = 0, frame = 0
 926              		@ frame_needed = 0, uses_anonymous_args = 0
 927              		@ link register save eliminated.
 249:user/user.cpp ****     electron.lcd->isBusy = false;
 928              		.loc 3 249 5 view .LVU216
 249:user/user.cpp ****     electron.lcd->isBusy = false;
 929              		.loc 3 249 14 is_stmt 0 view .LVU217
 930 0000 024B     		ldr	r3, .L69
 931 0002 D3F8C830 		ldr	r3, [r3, #200]
 249:user/user.cpp ****     electron.lcd->isBusy = false;
 932              		.loc 3 249 26 view .LVU218
 933 0006 0022     		movs	r2, #0
 934 0008 1A70     		strb	r2, [r3]
 935              		.loc 3 250 1 view .LVU219
 936 000a 7047     		bx	lr
 937              	.L70:
 938              		.align	2
 939              	.L69:
 940 000c 00000000 		.word	.LANCHOR1
 941              		.cfi_endproc
 942              	.LFE376:
ARM GAS  C:\Users\ADMINI~1\AppData\Local\Temp\cc1qObNe.s 			page 28


 943              		.cantunwind
 944              		.fnend
 946              		.section	.text._GLOBAL__sub_I_electron,"ax",%progbits
 947              		.align	1
 948              		.syntax unified
 949              		.thumb
 950              		.thumb_func
 952              	_GLOBAL__sub_I_electron:
 953              		.fnstart
 954              	.LFB378:
 955              		.loc 3 250 1 is_stmt 1 view -0
 956              		.cfi_startproc
 957              		@ args = 0, pretend = 0, frame = 0
 958              		@ frame_needed = 0, uses_anonymous_args = 0
 959 0000 08B5     		push	{r3, lr}
 960              	.LCFI8:
 961              		.cfi_def_cfa_offset 8
 962              		.cfi_offset 3, -8
 963              		.cfi_offset 14, -4
 964              		.loc 3 250 1 is_stmt 0 view .LVU221
 965 0002 4FF6FF71 		movw	r1, #65535
 966 0006 0120     		movs	r0, #1
 967 0008 FFF7FEFF 		bl	_Z41__static_initialization_and_destruction_0ii
 968              	.LVL76:
 969 000c 08BD     		pop	{r3, pc}
 970              		.cfi_endproc
 971              	.LFE378:
 972              		.cantunwind
 973              		.fnend
 975              		.section	.init_array,"aw",%init_array
 976              		.align	2
 977 0000 00000000 		.word	_GLOBAL__sub_I_electron(target1)
 978              		.global	newid
 979              		.global	settq_flag
 980              		.global	setkd_flag
 981              		.global	setkv_flag
 982              		.global	setki_flag
 983              		.global	setkp_flag
 984              		.global	setTq
 985              		.global	setKd
 986              		.global	setKv
 987              		.global	setKi
 988              		.global	setKp
 989              		.global	isEnabled
 990              		.global	jointSetPoints
 991              		.global	electron
 992              		.section	.rodata
 993              		.align	2
 994              		.set	.LANCHOR0,. + 0
 995              	.LC0:
 996 0000 00       		.byte	0
 997 0001 000000   		.space	3
 998 0004 000034C3 		.word	-1020002304
 999 0008 00003443 		.word	1127481344
 1000 000c 0000B442 		.word	1119092736
 1001 0010 00000000 		.word	0
 1002 0014 00000000 		.word	0
ARM GAS  C:\Users\ADMINI~1\AppData\Local\Temp\cc1qObNe.s 			page 29


 1003 0018 00       		.byte	0
 1004 0019 000000   		.space	3
 1005              	.LC1:
 1006 001c 02       		.byte	2
 1007 001d 000000   		.space	3
 1008 0020 00008C42 		.word	1116471296
 1009 0024 0000BE42 		.word	1119748096
 1010 0028 00000000 		.word	0
 1011 002c 000070C1 		.word	-1049624576
 1012 0030 00007041 		.word	1097859072
 1013 0034 01       		.byte	1
 1014 0035 000000   		.space	3
 1015              	.LC2:
 1016 0038 04       		.byte	4
 1017 0039 000000   		.space	3
 1018 003c 000010C1 		.word	-1055916032
 1019 0040 00004040 		.word	1077936128
 1020 0044 00000000 		.word	0
 1021 0048 00000000 		.word	0
 1022 004c 0000F041 		.word	1106247680
 1023 0050 00       		.byte	0
 1024 0051 000000   		.space	3
 1025              	.LC3:
 1026 0054 06       		.byte	6
 1027 0055 000000   		.space	3
 1028 0058 000080C1 		.word	-1048576000
 1029 005c 0000EA42 		.word	1122631680
 1030 0060 00000000 		.word	0
 1031 0064 0000A0C1 		.word	-1046478848
 1032 0068 00003443 		.word	1127481344
 1033 006c 00       		.byte	0
 1034 006d 000000   		.space	3
 1035              	.LC4:
 1036 0070 08       		.byte	8
 1037 0071 000000   		.space	3
 1038 0074 00000543 		.word	1124401152
 1039 0078 00000D43 		.word	1124925440
 1040 007c 00000000 		.word	0
 1041 0080 00000000 		.word	0
 1042 0084 0000F041 		.word	1106247680
 1043 0088 01       		.byte	1
 1044 0089 000000   		.space	3
 1045              	.LC5:
 1046 008c 0A       		.byte	10
 1047 008d 000000   		.space	3
 1048 0090 00007041 		.word	1097859072
 1049 0094 00001643 		.word	1125515264
 1050 0098 00000000 		.word	0
 1051 009c 0000A0C1 		.word	-1046478848
 1052 00a0 00003443 		.word	1127481344
 1053 00a4 01       		.byte	1
 1054 00a5 000000   		.space	3
 1055              	.LC6:
 1056 00a8 0C       		.byte	12
 1057 00a9 000000   		.space	3
 1058 00ac 00000000 		.word	0
 1059 00b0 00003443 		.word	1127481344
ARM GAS  C:\Users\ADMINI~1\AppData\Local\Temp\cc1qObNe.s 			page 30


 1060 00b4 00000000 		.word	0
 1061 00b8 0000B4C2 		.word	-1028390912
 1062 00bc 0000B442 		.word	1119092736
 1063 00c0 00       		.byte	0
 1064 00c1 000000   		.space	3
 1065              		.section	.bss.electron,"aw",%nobits
 1066              		.align	2
 1067              		.set	.LANCHOR1,. + 0
 1070              	electron:
 1071 0000 00000000 		.space	260
 1071      00000000 
 1071      00000000 
 1071      00000000 
 1071      00000000 
 1072              		.section	.bss.isEnabled,"aw",%nobits
 1073              		.set	.LANCHOR13,. + 0
 1076              	isEnabled:
 1077 0000 00       		.space	1
 1078              		.section	.bss.jointSetPoints,"aw",%nobits
 1079              		.align	2
 1080              		.set	.LANCHOR12,. + 0
 1083              	jointSetPoints:
 1084 0000 00000000 		.space	24
 1084      00000000 
 1084      00000000 
 1084      00000000 
 1084      00000000 
 1085              		.section	.bss.newid,"aw",%nobits
 1086              		.set	.LANCHOR14,. + 0
 1089              	newid:
 1090 0000 00       		.space	1
 1091              		.section	.bss.setKd,"aw",%nobits
 1092              		.align	2
 1093              		.set	.LANCHOR5,. + 0
 1096              	setKd:
 1097 0000 00000000 		.space	4
 1098              		.section	.bss.setKi,"aw",%nobits
 1099              		.align	2
 1100              		.set	.LANCHOR3,. + 0
 1103              	setKi:
 1104 0000 00000000 		.space	4
 1105              		.section	.bss.setKp,"aw",%nobits
 1106              		.align	2
 1107              		.set	.LANCHOR2,. + 0
 1110              	setKp:
 1111 0000 00000000 		.space	4
 1112              		.section	.bss.setKv,"aw",%nobits
 1113              		.align	2
 1114              		.set	.LANCHOR4,. + 0
 1117              	setKv:
 1118 0000 00000000 		.space	4
 1119              		.section	.bss.setTq,"aw",%nobits
 1120              		.align	2
 1121              		.set	.LANCHOR6,. + 0
 1124              	setTq:
 1125 0000 00000000 		.space	4
 1126              		.section	.bss.setkd_flag,"aw",%nobits
ARM GAS  C:\Users\ADMINI~1\AppData\Local\Temp\cc1qObNe.s 			page 31


 1127              		.set	.LANCHOR10,. + 0
 1130              	setkd_flag:
 1131 0000 00       		.space	1
 1132              		.section	.bss.setki_flag,"aw",%nobits
 1133              		.set	.LANCHOR8,. + 0
 1136              	setki_flag:
 1137 0000 00       		.space	1
 1138              		.section	.bss.setkp_flag,"aw",%nobits
 1139              		.set	.LANCHOR7,. + 0
 1142              	setkp_flag:
 1143 0000 00       		.space	1
 1144              		.section	.bss.setkv_flag,"aw",%nobits
 1145              		.set	.LANCHOR9,. + 0
 1148              	setkv_flag:
 1149 0000 00       		.space	1
 1150              		.section	.bss.settq_flag,"aw",%nobits
 1151              		.set	.LANCHOR11,. + 0
 1154              	settq_flag:
 1155 0000 00       		.space	1
 1156              		.text
 1157              	.Letext0:
 1158              		.file 4 "c:\\program files (x86)\\gnu arm embedded toolchain\\10 2021.10\\arm-none-eabi\\include\\
 1159              		.file 5 "c:\\program files (x86)\\gnu arm embedded toolchain\\10 2021.10\\arm-none-eabi\\include\\
 1160              		.file 6 "c:\\program files (x86)\\gnu arm embedded toolchain\\10 2021.10\\arm-none-eabi\\include\\
 1161              		.file 7 "c:\\program files (x86)\\gnu arm embedded toolchain\\10 2021.10\\arm-none-eabi\\include\\
 1162              		.file 8 "c:\\program files (x86)\\gnu arm embedded toolchain\\10 2021.10\\arm-none-eabi\\include\\
 1163              		.file 9 "c:\\program files (x86)\\gnu arm embedded toolchain\\10 2021.10\\lib\\gcc\\arm-none-eabi\
 1164              		.file 10 "c:\\program files (x86)\\gnu arm embedded toolchain\\10 2021.10\\arm-none-eabi\\include\
 1165              		.file 11 "c:\\program files (x86)\\gnu arm embedded toolchain\\10 2021.10\\arm-none-eabi\\include\
 1166              		.file 12 "c:\\program files (x86)\\gnu arm embedded toolchain\\10 2021.10\\arm-none-eabi\\include\
 1167              		.file 13 "c:\\program files (x86)\\gnu arm embedded toolchain\\10 2021.10\\arm-none-eabi\\include\
 1168              		.file 14 "Drivers/CMSIS/Device/ST/STM32F4xx/Include/stm32f405xx.h"
 1169              		.file 15 "Drivers/CMSIS/Device/ST/STM32F4xx/Include/stm32f4xx.h"
 1170              		.file 16 "Drivers/STM32F4xx_HAL_Driver/Inc/stm32f4xx_hal_def.h"
 1171              		.file 17 "Drivers/STM32F4xx_HAL_Driver/Inc/stm32f4xx_hal_dma.h"
 1172              		.file 18 "Drivers/STM32F4xx_HAL_Driver/Inc/stm32f4xx_hal_i2c.h"
 1173              		.file 19 "Drivers/STM32F4xx_HAL_Driver/Inc/stm32f4xx_hal_spi.h"
 1174              		.file 20 "Drivers/STM32F4xx_HAL_Driver/Inc/stm32f4xx_hal.h"
 1175              		.file 21 "c:\\program files (x86)\\gnu arm embedded toolchain\\10 2021.10\\arm-none-eabi\\include\
 1176              		.file 22 "user/common_inc.h"
 1177              		.file 23 "Inc/spi.h"
 1178              		.file 24 "Inc/i2c.h"
 1179              		.file 25 "c:\\program files (x86)\\gnu arm embedded toolchain\\10 2021.10\\arm-none-eabi\\include\
 1180              		.file 26 "<built-in>"
ARM GAS  C:\Users\ADMINI~1\AppData\Local\Temp\cc1qObNe.s 			page 32

