ARM GAS  C:\Users\ADMINI~1\AppData\Local\Temp\cckRJPxS.s 			page 1


   1              		.cpu cortex-m4
   2              		.arch armv7e-m
   3              		.fpu fpv4-sp-d16
   4              		.eabi_attribute 27, 1
   5              		.eabi_attribute 28, 1
   6              		.eabi_attribute 20, 1
   7              		.eabi_attribute 21, 1
   8              		.eabi_attribute 23, 3
   9              		.eabi_attribute 24, 1
  10              		.eabi_attribute 25, 1
  11              		.eabi_attribute 26, 1
  12              		.eabi_attribute 30, 1
  13              		.eabi_attribute 34, 1
  14              		.eabi_attribute 18, 4
  15              		.file	"w25q32.c"
  16              		.text
  17              	.Ltext0:
  18              		.cfi_sections	.debug_frame
  19              		.section	.text.SPI2_Write,"ax",%progbits
  20              		.align	1
  21              		.global	SPI2_Write
  22              		.syntax unified
  23              		.thumb
  24              		.thumb_func
  26              	SPI2_Write:
  27              	.LVL0:
  28              	.LFB133:
  29              		.file 1 "user/w25q32.c"
   1:user/w25q32.c **** /* ---------------------------------- File Description --------------------------------------------
   2:user/w25q32.c **** „ÄêÊñá‰ª∂ÂäüËÉΩ„ÄëÔºöÊú¨Êñá‰ª∂‰∏∫ W25Q128  SpiFLASHËäØÁâáÈ©±Âä®Êñá‰ª∂
   3:user/w25q32.c ****               W25Q128  Â≠òÂÇ®Èáè‰∏∫128M bit  ÂàÜ‰∏∫4096‰∏™ÊâáÂå∫ÔºåÊØè‰∏™ÊâáÂå∫Êúâ4K byte  16‰∏™Êâá
   4:user/w25q32.c ****               ÊØèpage ‰∏∫256‰∏™Â≠óËäÇ  ÊÄªÂÖ±65536È°µ   ÊØè‰∏™ÊâáÂå∫16È°µ
   5:user/w25q32.c ****               ÊúÄÂø´ËÆøÈóÆÈÄüÂ∫¶È´òËææ104MHz
   6:user/w25q32.c **** „ÄêÂàõÂª∫Êó∂Èó¥„ÄëÔºö2012Âπ¥10Êúà22Êó•ÊòüÊúü‰∏Ä13:20:40
   7:user/w25q32.c **** „ÄêÊñá‰ª∂ÁâàÊú¨„ÄëÔºöV1.0
   8:user/w25q32.c **** „Äê‰ΩúËÄÖÂ£∞Êòé„ÄëÔºöÊú¨Êñá‰ª∂‰ΩúËÄÖ‰∏∫Ê∏©‰∏ö‰∏≠,ÂèØÈÄöËøáemail‰∏é‰ΩúËÄÖËÅîÁ≥ª: eric540@163.com
   9:user/w25q32.c **** ------------------------------------------------------------------------------------------ */
  10:user/w25q32.c **** 
  11:user/w25q32.c **** #include "w25q32.h"
  12:user/w25q32.c **** #include <stdio.h>
  13:user/w25q32.c **** 
  14:user/w25q32.c **** void SPI2_Write(uint8_t dat)
  15:user/w25q32.c **** {
  30              		.loc 1 15 1 view -0
  31              		.cfi_startproc
  32              		@ args = 0, pretend = 0, frame = 8
  33              		@ frame_needed = 0, uses_anonymous_args = 0
  34              		.loc 1 15 1 is_stmt 0 view .LVU1
  35 0000 00B5     		push	{lr}
  36              	.LCFI0:
  37              		.cfi_def_cfa_offset 4
  38              		.cfi_offset 14, -4
  39 0002 83B0     		sub	sp, sp, #12
  40              	.LCFI1:
  41              		.cfi_def_cfa_offset 16
  42 0004 8DF80700 		strb	r0, [sp, #7]
  16:user/w25q32.c ****     HAL_SPI_Transmit(&hspi1, &dat, 1, 0xff);
ARM GAS  C:\Users\ADMINI~1\AppData\Local\Temp\cckRJPxS.s 			page 2


  43              		.loc 1 16 5 is_stmt 1 view .LVU2
  44 0008 FF23     		movs	r3, #255
  45 000a 0122     		movs	r2, #1
  46 000c 0DF10701 		add	r1, sp, #7
  47 0010 0248     		ldr	r0, .L3
  48              	.LVL1:
  49              		.loc 1 16 5 is_stmt 0 view .LVU3
  50 0012 FFF7FEFF 		bl	HAL_SPI_Transmit
  51              	.LVL2:
  17:user/w25q32.c **** }
  52              		.loc 1 17 1 view .LVU4
  53 0016 03B0     		add	sp, sp, #12
  54              	.LCFI2:
  55              		.cfi_def_cfa_offset 4
  56              		@ sp needed
  57 0018 5DF804FB 		ldr	pc, [sp], #4
  58              	.L4:
  59              		.align	2
  60              	.L3:
  61 001c 00000000 		.word	hspi1
  62              		.cfi_endproc
  63              	.LFE133:
  65              		.section	.text.SPI2_Read,"ax",%progbits
  66              		.align	1
  67              		.global	SPI2_Read
  68              		.syntax unified
  69              		.thumb
  70              		.thumb_func
  72              	SPI2_Read:
  73              	.LFB134:
  18:user/w25q32.c **** uint8_t SPI2_Read(void)
  19:user/w25q32.c **** {
  74              		.loc 1 19 1 is_stmt 1 view -0
  75              		.cfi_startproc
  76              		@ args = 0, pretend = 0, frame = 8
  77              		@ frame_needed = 0, uses_anonymous_args = 0
  78 0000 00B5     		push	{lr}
  79              	.LCFI3:
  80              		.cfi_def_cfa_offset 4
  81              		.cfi_offset 14, -4
  82 0002 83B0     		sub	sp, sp, #12
  83              	.LCFI4:
  84              		.cfi_def_cfa_offset 16
  20:user/w25q32.c ****     uint8_t rx_dat;
  85              		.loc 1 20 5 view .LVU6
  21:user/w25q32.c ****     // uint8_t tx_dat=0xff;
  22:user/w25q32.c ****     // HAL_SPI_TransmitReceive(&hspi1, &tx_dat, &rx_dat, 1, 0xff);
  23:user/w25q32.c ****     HAL_SPI_Receive(&hspi1, &rx_dat, 1, 20);
  86              		.loc 1 23 5 view .LVU7
  87 0004 1423     		movs	r3, #20
  88 0006 0122     		movs	r2, #1
  89 0008 0DF10701 		add	r1, sp, #7
  90 000c 0348     		ldr	r0, .L7
  91 000e FFF7FEFF 		bl	HAL_SPI_Receive
  92              	.LVL3:
  24:user/w25q32.c ****     return rx_dat;
  93              		.loc 1 24 5 view .LVU8
ARM GAS  C:\Users\ADMINI~1\AppData\Local\Temp\cckRJPxS.s 			page 3


  25:user/w25q32.c **** }
  94              		.loc 1 25 1 is_stmt 0 view .LVU9
  95 0012 9DF80700 		ldrb	r0, [sp, #7]	@ zero_extendqisi2
  96 0016 03B0     		add	sp, sp, #12
  97              	.LCFI5:
  98              		.cfi_def_cfa_offset 4
  99              		@ sp needed
 100 0018 5DF804FB 		ldr	pc, [sp], #4
 101              	.L8:
 102              		.align	2
 103              	.L7:
 104 001c 00000000 		.word	hspi1
 105              		.cfi_endproc
 106              	.LFE134:
 108              		.section	.text.FlashWait_Busy,"ax",%progbits
 109              		.align	1
 110              		.global	FlashWait_Busy
 111              		.syntax unified
 112              		.thumb
 113              		.thumb_func
 115              	FlashWait_Busy:
 116              	.LFB136:
  26:user/w25q32.c **** 
  27:user/w25q32.c **** void SpiFlash_Init(void)
  28:user/w25q32.c **** {
  29:user/w25q32.c ****     flashInfoTypedef flashInfo;   
  30:user/w25q32.c ****     //WP
  31:user/w25q32.c ****     /*GPIO_InitTypeDef GPIO_InitStructure;
  32:user/w25q32.c ****     GPIO_InitStructure.GPIO_Pin = GPIO_Pin_4;
  33:user/w25q32.c ****     GPIO_InitStructure.GPIO_Speed = GPIO_Speed_2MHz;
  34:user/w25q32.c ****     GPIO_InitStructure.GPIO_Mode = GPIO_Mode_Out_PP;
  35:user/w25q32.c ****     GPIO_Init(GPIOC, &GPIO_InitStructure);
  36:user/w25q32.c ****     FLASH_WP_High();*/
  37:user/w25q32.c ****     // SPI2_Configuration();
  38:user/w25q32.c ****     
  39:user/w25q32.c ****     FlashGet_ElectronicInfo(&flashInfo);
  40:user/w25q32.c ****     printf("ManufacturerID=%02X\r\n",flashInfo.ManufacturerID);
  41:user/w25q32.c ****     printf("DeviceID=%02X\r\n",flashInfo.DeviceID[0]);
  42:user/w25q32.c ****     if((flashInfo.ManufacturerID==0xEF)&&(flashInfo.DeviceID[0]==0x17))
  43:user/w25q32.c ****     {
  44:user/w25q32.c ****         printf("\tFlash Info: WINBOND SPI FLASH\r\n");
  45:user/w25q32.c ****     }
  46:user/w25q32.c ****     FlashGet_Info(&flashInfo);
  47:user/w25q32.c ****     printf("ManufacturerID=%02X\r\n",flashInfo.ManufacturerID);
  48:user/w25q32.c ****     printf("DeviceID=%02X%02X\r\n",flashInfo.DeviceID[0],flashInfo.DeviceID[1]);
  49:user/w25q32.c ****     if((flashInfo.DeviceID[0]==0x40)&&(flashInfo.DeviceID[1]==0x18))
  50:user/w25q32.c ****     {
  51:user/w25q32.c ****         printf("\tFlashType:W25Q128  FlashSize:128Mbit\r\n\tTotal 256 Blocks  16 Sectors/Block  4KB
  52:user/w25q32.c ****     }
  53:user/w25q32.c **** 
  54:user/w25q32.c **** #if 0    
  55:user/w25q32.c ****     FlashEnter_DeepPowerDown();
  56:user/w25q32.c ****     tmp=FlashReleaseFrom_DeepPowerDownE();
  57:user/w25q32.c ****     printf("ElectronicSignature=%02x\r\n",tmp);  //ÔøΩÔøΩ”°ÔøΩÔøΩÔøΩŒ™: 0x14
  58:user/w25q32.c **** #endif    
  59:user/w25q32.c **** }
  60:user/w25q32.c **** 
ARM GAS  C:\Users\ADMINI~1\AppData\Local\Temp\cckRJPxS.s 			page 4


  61:user/w25q32.c **** void FlashWait_Busy(void)
  62:user/w25q32.c **** {
 117              		.loc 1 62 1 is_stmt 1 view -0
 118              		.cfi_startproc
 119              		@ args = 0, pretend = 0, frame = 0
 120              		@ frame_needed = 0, uses_anonymous_args = 0
 121 0000 10B5     		push	{r4, lr}
 122              	.LCFI6:
 123              		.cfi_def_cfa_offset 8
 124              		.cfi_offset 4, -8
 125              		.cfi_offset 14, -4
  63:user/w25q32.c ****     uint8_t flashSta;
 126              		.loc 1 63 5 view .LVU11
  64:user/w25q32.c ****     uint32_t retry=0;
 127              		.loc 1 64 5 view .LVU12
 128              	.LVL4:
  65:user/w25q32.c ****     FLASH_CS_Low();
 129              		.loc 1 65 5 view .LVU13
 130 0002 0022     		movs	r2, #0
 131 0004 1021     		movs	r1, #16
 132 0006 0C48     		ldr	r0, .L13
 133 0008 FFF7FEFF 		bl	HAL_GPIO_WritePin
 134              	.LVL5:
 135              		.loc 1 65 19 view .LVU14
  66:user/w25q32.c ****     SPI2_Write(RDSD_CMD);
 136              		.loc 1 66 5 view .LVU15
 137 000c 0520     		movs	r0, #5
 138 000e FFF7FEFF 		bl	SPI2_Write
 139              	.LVL6:
  64:user/w25q32.c ****     uint32_t retry=0;
 140              		.loc 1 64 14 is_stmt 0 view .LVU16
 141 0012 0024     		movs	r4, #0
 142              	.LVL7:
 143              	.L11:
  67:user/w25q32.c ****     do{
 144              		.loc 1 67 5 is_stmt 1 view .LVU17
  68:user/w25q32.c ****         
  69:user/w25q32.c ****         flashSta=SPI2_Read();
 145              		.loc 1 69 9 view .LVU18
 146              		.loc 1 69 18 is_stmt 0 view .LVU19
 147 0014 FFF7FEFF 		bl	SPI2_Read
 148              	.LVL8:
  70:user/w25q32.c ****         if(retry++>FLASH_BUSY_TIMEOUT)
 149              		.loc 1 70 9 is_stmt 1 view .LVU20
 150 0018 2246     		mov	r2, r4
 151              		.loc 1 70 17 is_stmt 0 view .LVU21
 152 001a 0134     		adds	r4, r4, #1
 153              	.LVL9:
 154              		.loc 1 70 11 view .LVU22
 155 001c 44F62063 		movw	r3, #20000
 156 0020 9A42     		cmp	r2, r3
 157 0022 02D8     		bhi	.L10
  71:user/w25q32.c ****             break;
  72:user/w25q32.c ****         //printf("flashSta=%02x----%d\r\n",flashSta,retry);
  73:user/w25q32.c ****     }while(flashSta&0x01);
 158              		.loc 1 73 11 is_stmt 1 view .LVU23
 159              		.loc 1 73 5 is_stmt 0 view .LVU24
ARM GAS  C:\Users\ADMINI~1\AppData\Local\Temp\cckRJPxS.s 			page 5


 160 0024 10F0010F 		tst	r0, #1
 161 0028 F4D1     		bne	.L11
 162              	.L10:
  74:user/w25q32.c ****     //printf("%d\r\n",retry);
  75:user/w25q32.c ****     FLASH_CS_High();    
 163              		.loc 1 75 5 is_stmt 1 view .LVU25
 164 002a 0122     		movs	r2, #1
 165 002c 1021     		movs	r1, #16
 166 002e 0248     		ldr	r0, .L13
 167              	.LVL10:
 168              		.loc 1 75 5 is_stmt 0 view .LVU26
 169 0030 FFF7FEFF 		bl	HAL_GPIO_WritePin
 170              	.LVL11:
  76:user/w25q32.c **** }
 171              		.loc 1 76 1 view .LVU27
 172 0034 10BD     		pop	{r4, pc}
 173              	.LVL12:
 174              	.L14:
 175              		.loc 1 76 1 view .LVU28
 176 0036 00BF     		.align	2
 177              	.L13:
 178 0038 00000240 		.word	1073872896
 179              		.cfi_endproc
 180              	.LFE136:
 182              		.section	.text.FlashGet_Info,"ax",%progbits
 183              		.align	1
 184              		.global	FlashGet_Info
 185              		.syntax unified
 186              		.thumb
 187              		.thumb_func
 189              	FlashGet_Info:
 190              	.LVL13:
 191              	.LFB137:
  77:user/w25q32.c **** void FlashGet_Info(flashInfoTypedef * pFlashInfo)
  78:user/w25q32.c **** {
 192              		.loc 1 78 1 is_stmt 1 view -0
 193              		.cfi_startproc
 194              		@ args = 0, pretend = 0, frame = 0
 195              		@ frame_needed = 0, uses_anonymous_args = 0
 196              		.loc 1 78 1 is_stmt 0 view .LVU30
 197 0000 38B5     		push	{r3, r4, r5, lr}
 198              	.LCFI7:
 199              		.cfi_def_cfa_offset 16
 200              		.cfi_offset 3, -16
 201              		.cfi_offset 4, -12
 202              		.cfi_offset 5, -8
 203              		.cfi_offset 14, -4
 204 0002 0446     		mov	r4, r0
  79:user/w25q32.c **** //	    FlashWait_Busy();
  80:user/w25q32.c ****     FLASH_CS_Low();    
 205              		.loc 1 80 5 is_stmt 1 view .LVU31
 206 0004 0B4D     		ldr	r5, .L17
 207 0006 0022     		movs	r2, #0
 208 0008 1021     		movs	r1, #16
 209 000a 2846     		mov	r0, r5
 210              	.LVL14:
 211              		.loc 1 80 5 is_stmt 0 view .LVU32
ARM GAS  C:\Users\ADMINI~1\AppData\Local\Temp\cckRJPxS.s 			page 6


 212 000c FFF7FEFF 		bl	HAL_GPIO_WritePin
 213              	.LVL15:
 214              		.loc 1 80 19 is_stmt 1 view .LVU33
  81:user/w25q32.c ****     SPI2_Write(RDID_CMD);
 215              		.loc 1 81 5 view .LVU34
 216 0010 9F20     		movs	r0, #159
 217 0012 FFF7FEFF 		bl	SPI2_Write
 218              	.LVL16:
  82:user/w25q32.c ****     pFlashInfo->ManufacturerID=SPI2_Read();
 219              		.loc 1 82 5 view .LVU35
 220              		.loc 1 82 32 is_stmt 0 view .LVU36
 221 0016 FFF7FEFF 		bl	SPI2_Read
 222              	.LVL17:
 223              		.loc 1 82 31 view .LVU37
 224 001a 2070     		strb	r0, [r4]
  83:user/w25q32.c ****     pFlashInfo->DeviceID[0]=SPI2_Read();
 225              		.loc 1 83 5 is_stmt 1 view .LVU38
 226              		.loc 1 83 29 is_stmt 0 view .LVU39
 227 001c FFF7FEFF 		bl	SPI2_Read
 228              	.LVL18:
 229              		.loc 1 83 28 view .LVU40
 230 0020 6070     		strb	r0, [r4, #1]
  84:user/w25q32.c ****     pFlashInfo->DeviceID[1]=SPI2_Read();
 231              		.loc 1 84 5 is_stmt 1 view .LVU41
 232              		.loc 1 84 29 is_stmt 0 view .LVU42
 233 0022 FFF7FEFF 		bl	SPI2_Read
 234              	.LVL19:
 235              		.loc 1 84 28 view .LVU43
 236 0026 A070     		strb	r0, [r4, #2]
  85:user/w25q32.c ****     FLASH_CS_High();    
 237              		.loc 1 85 5 is_stmt 1 view .LVU44
 238 0028 0122     		movs	r2, #1
 239 002a 1021     		movs	r1, #16
 240 002c 2846     		mov	r0, r5
 241 002e FFF7FEFF 		bl	HAL_GPIO_WritePin
 242              	.LVL20:
  86:user/w25q32.c **** }
 243              		.loc 1 86 1 is_stmt 0 view .LVU45
 244 0032 38BD     		pop	{r3, r4, r5, pc}
 245              	.LVL21:
 246              	.L18:
 247              		.loc 1 86 1 view .LVU46
 248              		.align	2
 249              	.L17:
 250 0034 00000240 		.word	1073872896
 251              		.cfi_endproc
 252              	.LFE137:
 254              		.section	.text.FlashGet_ElectronicInfo,"ax",%progbits
 255              		.align	1
 256              		.global	FlashGet_ElectronicInfo
 257              		.syntax unified
 258              		.thumb
 259              		.thumb_func
 261              	FlashGet_ElectronicInfo:
 262              	.LVL22:
 263              	.LFB138:
  87:user/w25q32.c **** void FlashGet_ElectronicInfo(flashInfoTypedef * pFlashInfo)
ARM GAS  C:\Users\ADMINI~1\AppData\Local\Temp\cckRJPxS.s 			page 7


  88:user/w25q32.c **** {
 264              		.loc 1 88 1 is_stmt 1 view -0
 265              		.cfi_startproc
 266              		@ args = 0, pretend = 0, frame = 16
 267              		@ frame_needed = 0, uses_anonymous_args = 0
 268              		.loc 1 88 1 is_stmt 0 view .LVU48
 269 0000 30B5     		push	{r4, r5, lr}
 270              	.LCFI8:
 271              		.cfi_def_cfa_offset 12
 272              		.cfi_offset 4, -12
 273              		.cfi_offset 5, -8
 274              		.cfi_offset 14, -4
 275 0002 87B0     		sub	sp, sp, #28
 276              	.LCFI9:
 277              		.cfi_def_cfa_offset 40
 278 0004 0446     		mov	r4, r0
  89:user/w25q32.c ****     int i;
 279              		.loc 1 89 5 is_stmt 1 view .LVU49
  90:user/w25q32.c **** 	// FlashWait_Busy();
  91:user/w25q32.c ****     FLASH_CS_Low();
 280              		.loc 1 91 5 view .LVU50
 281 0006 154D     		ldr	r5, .L21
 282 0008 0022     		movs	r2, #0
 283 000a 1021     		movs	r1, #16
 284 000c 2846     		mov	r0, r5
 285              	.LVL23:
 286              		.loc 1 91 5 is_stmt 0 view .LVU51
 287 000e FFF7FEFF 		bl	HAL_GPIO_WritePin
 288              	.LVL24:
 289              		.loc 1 91 19 is_stmt 1 view .LVU52
  92:user/w25q32.c ****    
  93:user/w25q32.c ****     /* SPI2_Write(REMS_CMD);
  94:user/w25q32.c ****     SPI2_Write(DUMMY_BYTE);
  95:user/w25q32.c ****     SPI2_Write(DUMMY_BYTE);
  96:user/w25q32.c ****     SPI2_Write(0x00);  //manufacturer's ID first
  97:user/w25q32.c ****     pFlashInfo->ManufacturerID=SPI2_Read();
  98:user/w25q32.c ****     pFlashInfo->DeviceID[0]=SPI2_Read(); */
  99:user/w25q32.c ****     uint8_t tx_data[7];
 290              		.loc 1 99 5 view .LVU53
 100:user/w25q32.c ****     uint8_t rx_data[7];
 291              		.loc 1 100 5 view .LVU54
 101:user/w25q32.c ****     tx_data[0] = REMS_CMD;
 292              		.loc 1 101 5 view .LVU55
 293              		.loc 1 101 16 is_stmt 0 view .LVU56
 294 0012 9023     		movs	r3, #144
 295 0014 8DF81030 		strb	r3, [sp, #16]
 102:user/w25q32.c ****     tx_data[1] = DUMMY_BYTE;
 296              		.loc 1 102 5 is_stmt 1 view .LVU57
 297              		.loc 1 102 16 is_stmt 0 view .LVU58
 298 0018 FF23     		movs	r3, #255
 299 001a 8DF81130 		strb	r3, [sp, #17]
 103:user/w25q32.c ****     tx_data[2] = DUMMY_BYTE;
 300              		.loc 1 103 5 is_stmt 1 view .LVU59
 301              		.loc 1 103 16 is_stmt 0 view .LVU60
 302 001e 8DF81230 		strb	r3, [sp, #18]
 104:user/w25q32.c ****     tx_data[3] = 0x00;
 303              		.loc 1 104 5 is_stmt 1 view .LVU61
ARM GAS  C:\Users\ADMINI~1\AppData\Local\Temp\cckRJPxS.s 			page 8


 304              		.loc 1 104 16 is_stmt 0 view .LVU62
 305 0022 0022     		movs	r2, #0
 306 0024 8DF81320 		strb	r2, [sp, #19]
 105:user/w25q32.c ****     tx_data[4] = DUMMY_BYTE;
 307              		.loc 1 105 5 is_stmt 1 view .LVU63
 308              		.loc 1 105 16 is_stmt 0 view .LVU64
 309 0028 8DF81430 		strb	r3, [sp, #20]
 106:user/w25q32.c ****     tx_data[5] = DUMMY_BYTE;
 310              		.loc 1 106 5 is_stmt 1 view .LVU65
 311              		.loc 1 106 16 is_stmt 0 view .LVU66
 312 002c 8DF81530 		strb	r3, [sp, #21]
 107:user/w25q32.c ****     HAL_SPI_TransmitReceive(&hspi1, tx_data, rx_data, 6, 500);
 313              		.loc 1 107 5 is_stmt 1 view .LVU67
 314 0030 4FF4FA73 		mov	r3, #500
 315 0034 0093     		str	r3, [sp]
 316 0036 0623     		movs	r3, #6
 317 0038 02AA     		add	r2, sp, #8
 318 003a 04A9     		add	r1, sp, #16
 319 003c 0848     		ldr	r0, .L21+4
 320 003e FFF7FEFF 		bl	HAL_SPI_TransmitReceive
 321              	.LVL25:
 108:user/w25q32.c ****     pFlashInfo->ManufacturerID=rx_data[4];
 322              		.loc 1 108 5 view .LVU68
 323              		.loc 1 108 39 is_stmt 0 view .LVU69
 324 0042 9DF80C30 		ldrb	r3, [sp, #12]	@ zero_extendqisi2
 325              		.loc 1 108 31 view .LVU70
 326 0046 2370     		strb	r3, [r4]
 109:user/w25q32.c ****     pFlashInfo->DeviceID[0]=rx_data[5];
 327              		.loc 1 109 5 is_stmt 1 view .LVU71
 328              		.loc 1 109 36 is_stmt 0 view .LVU72
 329 0048 9DF80D30 		ldrb	r3, [sp, #13]	@ zero_extendqisi2
 330              		.loc 1 109 28 view .LVU73
 331 004c 6370     		strb	r3, [r4, #1]
 110:user/w25q32.c ****     
 111:user/w25q32.c ****     FLASH_CS_High();
 332              		.loc 1 111 5 is_stmt 1 view .LVU74
 333 004e 0122     		movs	r2, #1
 334 0050 1021     		movs	r1, #16
 335 0052 2846     		mov	r0, r5
 336 0054 FFF7FEFF 		bl	HAL_GPIO_WritePin
 337              	.LVL26:
 112:user/w25q32.c **** }
 338              		.loc 1 112 1 is_stmt 0 view .LVU75
 339 0058 07B0     		add	sp, sp, #28
 340              	.LCFI10:
 341              		.cfi_def_cfa_offset 12
 342              		@ sp needed
 343 005a 30BD     		pop	{r4, r5, pc}
 344              	.LVL27:
 345              	.L22:
 346              		.loc 1 112 1 view .LVU76
 347              		.align	2
 348              	.L21:
 349 005c 00000240 		.word	1073872896
 350 0060 00000000 		.word	hspi1
 351              		.cfi_endproc
 352              	.LFE138:
ARM GAS  C:\Users\ADMINI~1\AppData\Local\Temp\cckRJPxS.s 			page 9


 354              		.section	.rodata.SpiFlash_Init.str1.4,"aMS",%progbits,1
 355              		.align	2
 356              	.LC0:
 357 0000 4D616E75 		.ascii	"ManufacturerID=%02X\015\012\000"
 357      66616374 
 357      75726572 
 357      49443D25 
 357      3032580D 
 358 0016 0000     		.align	2
 359              	.LC1:
 360 0018 44657669 		.ascii	"DeviceID=%02X\015\012\000"
 360      63654944 
 360      3D253032 
 360      580D0A00 
 361              		.align	2
 362              	.LC2:
 363 0028 09466C61 		.ascii	"\011Flash Info: WINBOND SPI FLASH\015\000"
 363      73682049 
 363      6E666F3A 
 363      2057494E 
 363      424F4E44 
 364              		.align	2
 365              	.LC3:
 366 0048 44657669 		.ascii	"DeviceID=%02X%02X\015\012\000"
 366      63654944 
 366      3D253032 
 366      58253032 
 366      580D0A00 
 367              		.align	2
 368              	.LC4:
 369 005c 09466C61 		.ascii	"\011FlashType:W25Q128  FlashSize:128Mbit\015\012\011"
 369      73685479 
 369      70653A57 
 369      32355131 
 369      32382020 
 370 0084 546F7461 		.ascii	"Total 256 Blocks  16 Sectors/Block  4KB/Sector\015\000"
 370      6C203235 
 370      3620426C 
 370      6F636B73 
 370      20203136 
 371              		.section	.text.SpiFlash_Init,"ax",%progbits
 372              		.align	1
 373              		.global	SpiFlash_Init
 374              		.syntax unified
 375              		.thumb
 376              		.thumb_func
 378              	SpiFlash_Init:
 379              	.LFB135:
  28:user/w25q32.c ****     flashInfoTypedef flashInfo;   
 380              		.loc 1 28 1 is_stmt 1 view -0
 381              		.cfi_startproc
 382              		@ args = 0, pretend = 0, frame = 8
 383              		@ frame_needed = 0, uses_anonymous_args = 0
 384 0000 00B5     		push	{lr}
 385              	.LCFI11:
 386              		.cfi_def_cfa_offset 4
 387              		.cfi_offset 14, -4
ARM GAS  C:\Users\ADMINI~1\AppData\Local\Temp\cckRJPxS.s 			page 10


 388 0002 83B0     		sub	sp, sp, #12
 389              	.LCFI12:
 390              		.cfi_def_cfa_offset 16
  29:user/w25q32.c ****     //WP
 391              		.loc 1 29 5 view .LVU78
  39:user/w25q32.c ****     printf("ManufacturerID=%02X\r\n",flashInfo.ManufacturerID);
 392              		.loc 1 39 5 view .LVU79
 393 0004 01A8     		add	r0, sp, #4
 394 0006 FFF7FEFF 		bl	FlashGet_ElectronicInfo
 395              	.LVL28:
  40:user/w25q32.c ****     printf("DeviceID=%02X\r\n",flashInfo.DeviceID[0]);
 396              		.loc 1 40 5 view .LVU80
 397 000a 9DF80410 		ldrb	r1, [sp, #4]	@ zero_extendqisi2
 398 000e 1948     		ldr	r0, .L29
 399 0010 FFF7FEFF 		bl	printf
 400              	.LVL29:
  41:user/w25q32.c ****     if((flashInfo.ManufacturerID==0xEF)&&(flashInfo.DeviceID[0]==0x17))
 401              		.loc 1 41 5 view .LVU81
 402 0014 9DF80510 		ldrb	r1, [sp, #5]	@ zero_extendqisi2
 403 0018 1748     		ldr	r0, .L29+4
 404 001a FFF7FEFF 		bl	printf
 405              	.LVL30:
  42:user/w25q32.c ****     {
 406              		.loc 1 42 5 view .LVU82
  42:user/w25q32.c ****     {
 407              		.loc 1 42 18 is_stmt 0 view .LVU83
 408 001e 9DF80430 		ldrb	r3, [sp, #4]	@ zero_extendqisi2
  42:user/w25q32.c ****     {
 409              		.loc 1 42 7 view .LVU84
 410 0022 EF2B     		cmp	r3, #239
 411 0024 15D0     		beq	.L27
 412              	.L24:
  46:user/w25q32.c ****     printf("ManufacturerID=%02X\r\n",flashInfo.ManufacturerID);
 413              		.loc 1 46 5 is_stmt 1 view .LVU85
 414 0026 01A8     		add	r0, sp, #4
 415 0028 FFF7FEFF 		bl	FlashGet_Info
 416              	.LVL31:
  47:user/w25q32.c ****     printf("DeviceID=%02X%02X\r\n",flashInfo.DeviceID[0],flashInfo.DeviceID[1]);
 417              		.loc 1 47 5 view .LVU86
 418 002c 9DF80410 		ldrb	r1, [sp, #4]	@ zero_extendqisi2
 419 0030 1048     		ldr	r0, .L29
 420 0032 FFF7FEFF 		bl	printf
 421              	.LVL32:
  48:user/w25q32.c ****     if((flashInfo.DeviceID[0]==0x40)&&(flashInfo.DeviceID[1]==0x18))
 422              		.loc 1 48 5 view .LVU87
 423 0036 9DF80620 		ldrb	r2, [sp, #6]	@ zero_extendqisi2
 424 003a 9DF80510 		ldrb	r1, [sp, #5]	@ zero_extendqisi2
 425 003e 0F48     		ldr	r0, .L29+8
 426 0040 FFF7FEFF 		bl	printf
 427              	.LVL33:
  49:user/w25q32.c ****     {
 428              		.loc 1 49 5 view .LVU88
  49:user/w25q32.c ****     {
 429              		.loc 1 49 27 is_stmt 0 view .LVU89
 430 0044 9DF80530 		ldrb	r3, [sp, #5]	@ zero_extendqisi2
  49:user/w25q32.c ****     {
 431              		.loc 1 49 7 view .LVU90
ARM GAS  C:\Users\ADMINI~1\AppData\Local\Temp\cckRJPxS.s 			page 11


 432 0048 402B     		cmp	r3, #64
 433 004a 0AD0     		beq	.L28
 434              	.L23:
  59:user/w25q32.c **** 
 435              		.loc 1 59 1 view .LVU91
 436 004c 03B0     		add	sp, sp, #12
 437              	.LCFI13:
 438              		.cfi_remember_state
 439              		.cfi_def_cfa_offset 4
 440              		@ sp needed
 441 004e 5DF804FB 		ldr	pc, [sp], #4
 442              	.L27:
 443              	.LCFI14:
 444              		.cfi_restore_state
  42:user/w25q32.c ****     {
 445              		.loc 1 42 61 discriminator 1 view .LVU92
 446 0052 9DF80530 		ldrb	r3, [sp, #5]	@ zero_extendqisi2
  42:user/w25q32.c ****     {
 447              		.loc 1 42 40 discriminator 1 view .LVU93
 448 0056 172B     		cmp	r3, #23
 449 0058 E5D1     		bne	.L24
  44:user/w25q32.c ****     }
 450              		.loc 1 44 9 is_stmt 1 view .LVU94
 451 005a 0948     		ldr	r0, .L29+12
 452 005c FFF7FEFF 		bl	puts
 453              	.LVL34:
 454 0060 E1E7     		b	.L24
 455              	.L28:
  49:user/w25q32.c ****     {
 456              		.loc 1 49 58 is_stmt 0 discriminator 1 view .LVU95
 457 0062 9DF80630 		ldrb	r3, [sp, #6]	@ zero_extendqisi2
  49:user/w25q32.c ****     {
 458              		.loc 1 49 37 discriminator 1 view .LVU96
 459 0066 182B     		cmp	r3, #24
 460 0068 F0D1     		bne	.L23
  51:user/w25q32.c ****     }
 461              		.loc 1 51 9 is_stmt 1 view .LVU97
 462 006a 0648     		ldr	r0, .L29+16
 463 006c FFF7FEFF 		bl	puts
 464              	.LVL35:
  59:user/w25q32.c **** 
 465              		.loc 1 59 1 is_stmt 0 view .LVU98
 466 0070 ECE7     		b	.L23
 467              	.L30:
 468 0072 00BF     		.align	2
 469              	.L29:
 470 0074 00000000 		.word	.LC0
 471 0078 18000000 		.word	.LC1
 472 007c 48000000 		.word	.LC3
 473 0080 28000000 		.word	.LC2
 474 0084 5C000000 		.word	.LC4
 475              		.cfi_endproc
 476              	.LFE135:
 478              		.section	.text.FlashEnter_DeepPowerDown,"ax",%progbits
 479              		.align	1
 480              		.global	FlashEnter_DeepPowerDown
 481              		.syntax unified
ARM GAS  C:\Users\ADMINI~1\AppData\Local\Temp\cckRJPxS.s 			page 12


 482              		.thumb
 483              		.thumb_func
 485              	FlashEnter_DeepPowerDown:
 486              	.LFB139:
 113:user/w25q32.c **** void FlashEnter_DeepPowerDown(void)
 114:user/w25q32.c **** {
 487              		.loc 1 114 1 is_stmt 1 view -0
 488              		.cfi_startproc
 489              		@ args = 0, pretend = 0, frame = 0
 490              		@ frame_needed = 0, uses_anonymous_args = 0
 491 0000 10B5     		push	{r4, lr}
 492              	.LCFI15:
 493              		.cfi_def_cfa_offset 8
 494              		.cfi_offset 4, -8
 495              		.cfi_offset 14, -4
 115:user/w25q32.c ****     FLASH_CS_Low();
 496              		.loc 1 115 5 view .LVU100
 497 0002 074C     		ldr	r4, .L33
 498 0004 0022     		movs	r2, #0
 499 0006 1021     		movs	r1, #16
 500 0008 2046     		mov	r0, r4
 501 000a FFF7FEFF 		bl	HAL_GPIO_WritePin
 502              	.LVL36:
 503              		.loc 1 115 19 view .LVU101
 116:user/w25q32.c ****     SPI2_Write(DP_CMD);   
 504              		.loc 1 116 5 view .LVU102
 505 000e B920     		movs	r0, #185
 506 0010 FFF7FEFF 		bl	SPI2_Write
 507              	.LVL37:
 117:user/w25q32.c ****     FLASH_CS_High();    
 508              		.loc 1 117 5 view .LVU103
 509 0014 0122     		movs	r2, #1
 510 0016 1021     		movs	r1, #16
 511 0018 2046     		mov	r0, r4
 512 001a FFF7FEFF 		bl	HAL_GPIO_WritePin
 513              	.LVL38:
 118:user/w25q32.c **** }
 514              		.loc 1 118 1 is_stmt 0 view .LVU104
 515 001e 10BD     		pop	{r4, pc}
 516              	.L34:
 517              		.align	2
 518              	.L33:
 519 0020 00000240 		.word	1073872896
 520              		.cfi_endproc
 521              	.LFE139:
 523              		.section	.text.FlashReleaseFrom_DeepPowerDown,"ax",%progbits
 524              		.align	1
 525              		.global	FlashReleaseFrom_DeepPowerDown
 526              		.syntax unified
 527              		.thumb
 528              		.thumb_func
 530              	FlashReleaseFrom_DeepPowerDown:
 531              	.LFB140:
 119:user/w25q32.c **** void FlashReleaseFrom_DeepPowerDown(void)
 120:user/w25q32.c **** {
 532              		.loc 1 120 1 is_stmt 1 view -0
 533              		.cfi_startproc
ARM GAS  C:\Users\ADMINI~1\AppData\Local\Temp\cckRJPxS.s 			page 13


 534              		@ args = 0, pretend = 0, frame = 0
 535              		@ frame_needed = 0, uses_anonymous_args = 0
 536 0000 10B5     		push	{r4, lr}
 537              	.LCFI16:
 538              		.cfi_def_cfa_offset 8
 539              		.cfi_offset 4, -8
 540              		.cfi_offset 14, -4
 121:user/w25q32.c ****     FLASH_CS_Low();
 541              		.loc 1 121 5 view .LVU106
 542 0002 074C     		ldr	r4, .L37
 543 0004 0022     		movs	r2, #0
 544 0006 1021     		movs	r1, #16
 545 0008 2046     		mov	r0, r4
 546 000a FFF7FEFF 		bl	HAL_GPIO_WritePin
 547              	.LVL39:
 548              		.loc 1 121 19 view .LVU107
 122:user/w25q32.c ****     SPI2_Write(RDP_CMD);   
 549              		.loc 1 122 5 view .LVU108
 550 000e AB20     		movs	r0, #171
 551 0010 FFF7FEFF 		bl	SPI2_Write
 552              	.LVL40:
 123:user/w25q32.c ****     FLASH_CS_High();    
 553              		.loc 1 123 5 view .LVU109
 554 0014 0122     		movs	r2, #1
 555 0016 1021     		movs	r1, #16
 556 0018 2046     		mov	r0, r4
 557 001a FFF7FEFF 		bl	HAL_GPIO_WritePin
 558              	.LVL41:
 124:user/w25q32.c **** }
 559              		.loc 1 124 1 is_stmt 0 view .LVU110
 560 001e 10BD     		pop	{r4, pc}
 561              	.L38:
 562              		.align	2
 563              	.L37:
 564 0020 00000240 		.word	1073872896
 565              		.cfi_endproc
 566              	.LFE140:
 568              		.section	.text.FlashReleaseFrom_DeepPowerDownE,"ax",%progbits
 569              		.align	1
 570              		.global	FlashReleaseFrom_DeepPowerDownE
 571              		.syntax unified
 572              		.thumb
 573              		.thumb_func
 575              	FlashReleaseFrom_DeepPowerDownE:
 576              	.LFB141:
 125:user/w25q32.c **** uint8_t FlashReleaseFrom_DeepPowerDownE(void)
 126:user/w25q32.c **** {   
 577              		.loc 1 126 1 is_stmt 1 view -0
 578              		.cfi_startproc
 579              		@ args = 0, pretend = 0, frame = 0
 580              		@ frame_needed = 0, uses_anonymous_args = 0
 581 0000 38B5     		push	{r3, r4, r5, lr}
 582              	.LCFI17:
 583              		.cfi_def_cfa_offset 16
 584              		.cfi_offset 3, -16
 585              		.cfi_offset 4, -12
 586              		.cfi_offset 5, -8
ARM GAS  C:\Users\ADMINI~1\AppData\Local\Temp\cckRJPxS.s 			page 14


 587              		.cfi_offset 14, -4
 127:user/w25q32.c ****     uint8_t ElectronicSignature;
 588              		.loc 1 127 5 view .LVU112
 128:user/w25q32.c ****     FLASH_CS_Low();
 589              		.loc 1 128 5 view .LVU113
 590 0002 0E4D     		ldr	r5, .L41
 591 0004 0022     		movs	r2, #0
 592 0006 1021     		movs	r1, #16
 593 0008 2846     		mov	r0, r5
 594 000a FFF7FEFF 		bl	HAL_GPIO_WritePin
 595              	.LVL42:
 596              		.loc 1 128 19 view .LVU114
 129:user/w25q32.c ****     SPI2_Write(RES_CMD);
 597              		.loc 1 129 5 view .LVU115
 598 000e AB20     		movs	r0, #171
 599 0010 FFF7FEFF 		bl	SPI2_Write
 600              	.LVL43:
 130:user/w25q32.c ****     SPI2_Write(DUMMY_BYTE);
 601              		.loc 1 130 5 view .LVU116
 602 0014 FF20     		movs	r0, #255
 603 0016 FFF7FEFF 		bl	SPI2_Write
 604              	.LVL44:
 131:user/w25q32.c ****     SPI2_Write(DUMMY_BYTE);
 605              		.loc 1 131 5 view .LVU117
 606 001a FF20     		movs	r0, #255
 607 001c FFF7FEFF 		bl	SPI2_Write
 608              	.LVL45:
 132:user/w25q32.c ****     SPI2_Write(DUMMY_BYTE);
 609              		.loc 1 132 5 view .LVU118
 610 0020 FF20     		movs	r0, #255
 611 0022 FFF7FEFF 		bl	SPI2_Write
 612              	.LVL46:
 133:user/w25q32.c ****     ElectronicSignature=SPI2_Read();
 613              		.loc 1 133 5 view .LVU119
 614              		.loc 1 133 25 is_stmt 0 view .LVU120
 615 0026 FFF7FEFF 		bl	SPI2_Read
 616              	.LVL47:
 617 002a 0446     		mov	r4, r0
 618              	.LVL48:
 134:user/w25q32.c ****     FLASH_CS_High();    
 619              		.loc 1 134 5 is_stmt 1 view .LVU121
 620 002c 0122     		movs	r2, #1
 621 002e 1021     		movs	r1, #16
 622 0030 2846     		mov	r0, r5
 623 0032 FFF7FEFF 		bl	HAL_GPIO_WritePin
 624              	.LVL49:
 135:user/w25q32.c ****     return ElectronicSignature;
 625              		.loc 1 135 5 view .LVU122
 136:user/w25q32.c **** }
 626              		.loc 1 136 1 is_stmt 0 view .LVU123
 627 0036 2046     		mov	r0, r4
 628 0038 38BD     		pop	{r3, r4, r5, pc}
 629              	.LVL50:
 630              	.L42:
 631              		.loc 1 136 1 view .LVU124
 632 003a 00BF     		.align	2
 633              	.L41:
ARM GAS  C:\Users\ADMINI~1\AppData\Local\Temp\cckRJPxS.s 			page 15


 634 003c 00000240 		.word	1073872896
 635              		.cfi_endproc
 636              	.LFE141:
 638              		.section	.text.FlashWriteEnable,"ax",%progbits
 639              		.align	1
 640              		.global	FlashWriteEnable
 641              		.syntax unified
 642              		.thumb
 643              		.thumb_func
 645              	FlashWriteEnable:
 646              	.LFB142:
 137:user/w25q32.c **** void FlashWriteEnable(void)
 138:user/w25q32.c **** {
 647              		.loc 1 138 1 is_stmt 1 view -0
 648              		.cfi_startproc
 649              		@ args = 0, pretend = 0, frame = 0
 650              		@ frame_needed = 0, uses_anonymous_args = 0
 651 0000 10B5     		push	{r4, lr}
 652              	.LCFI18:
 653              		.cfi_def_cfa_offset 8
 654              		.cfi_offset 4, -8
 655              		.cfi_offset 14, -4
 139:user/w25q32.c ****     FLASH_CS_Low();
 656              		.loc 1 139 5 view .LVU126
 657 0002 074C     		ldr	r4, .L45
 658 0004 0022     		movs	r2, #0
 659 0006 1021     		movs	r1, #16
 660 0008 2046     		mov	r0, r4
 661 000a FFF7FEFF 		bl	HAL_GPIO_WritePin
 662              	.LVL51:
 663              		.loc 1 139 19 view .LVU127
 140:user/w25q32.c ****     SPI2_Write(WREN_CMD);   
 664              		.loc 1 140 5 view .LVU128
 665 000e 0620     		movs	r0, #6
 666 0010 FFF7FEFF 		bl	SPI2_Write
 667              	.LVL52:
 141:user/w25q32.c ****     FLASH_CS_High();    
 668              		.loc 1 141 5 view .LVU129
 669 0014 0122     		movs	r2, #1
 670 0016 1021     		movs	r1, #16
 671 0018 2046     		mov	r0, r4
 672 001a FFF7FEFF 		bl	HAL_GPIO_WritePin
 673              	.LVL53:
 142:user/w25q32.c **** }
 674              		.loc 1 142 1 is_stmt 0 view .LVU130
 675 001e 10BD     		pop	{r4, pc}
 676              	.L46:
 677              		.align	2
 678              	.L45:
 679 0020 00000240 		.word	1073872896
 680              		.cfi_endproc
 681              	.LFE142:
 683              		.section	.text.FlashWriteDisable,"ax",%progbits
 684              		.align	1
 685              		.global	FlashWriteDisable
 686              		.syntax unified
 687              		.thumb
ARM GAS  C:\Users\ADMINI~1\AppData\Local\Temp\cckRJPxS.s 			page 16


 688              		.thumb_func
 690              	FlashWriteDisable:
 691              	.LFB143:
 143:user/w25q32.c **** void FlashWriteDisable(void)
 144:user/w25q32.c **** {
 692              		.loc 1 144 1 is_stmt 1 view -0
 693              		.cfi_startproc
 694              		@ args = 0, pretend = 0, frame = 0
 695              		@ frame_needed = 0, uses_anonymous_args = 0
 696 0000 10B5     		push	{r4, lr}
 697              	.LCFI19:
 698              		.cfi_def_cfa_offset 8
 699              		.cfi_offset 4, -8
 700              		.cfi_offset 14, -4
 145:user/w25q32.c ****     FLASH_CS_Low();
 701              		.loc 1 145 5 view .LVU132
 702 0002 074C     		ldr	r4, .L49
 703 0004 0022     		movs	r2, #0
 704 0006 1021     		movs	r1, #16
 705 0008 2046     		mov	r0, r4
 706 000a FFF7FEFF 		bl	HAL_GPIO_WritePin
 707              	.LVL54:
 708              		.loc 1 145 19 view .LVU133
 146:user/w25q32.c ****     SPI2_Write(WRDI_CMD);   
 709              		.loc 1 146 5 view .LVU134
 710 000e 0420     		movs	r0, #4
 711 0010 FFF7FEFF 		bl	SPI2_Write
 712              	.LVL55:
 147:user/w25q32.c ****     FLASH_CS_High();    
 713              		.loc 1 147 5 view .LVU135
 714 0014 0122     		movs	r2, #1
 715 0016 1021     		movs	r1, #16
 716 0018 2046     		mov	r0, r4
 717 001a FFF7FEFF 		bl	HAL_GPIO_WritePin
 718              	.LVL56:
 148:user/w25q32.c **** }
 719              		.loc 1 148 1 is_stmt 0 view .LVU136
 720 001e 10BD     		pop	{r4, pc}
 721              	.L50:
 722              		.align	2
 723              	.L49:
 724 0020 00000240 		.word	1073872896
 725              		.cfi_endproc
 726              	.LFE143:
 728              		.section	.text.FlashWrite_StaRegister,"ax",%progbits
 729              		.align	1
 730              		.global	FlashWrite_StaRegister
 731              		.syntax unified
 732              		.thumb
 733              		.thumb_func
 735              	FlashWrite_StaRegister:
 736              	.LVL57:
 737              	.LFB144:
 149:user/w25q32.c **** void FlashWrite_StaRegister(uint8_t flashSta)
 150:user/w25q32.c **** {
 738              		.loc 1 150 1 is_stmt 1 view -0
 739              		.cfi_startproc
ARM GAS  C:\Users\ADMINI~1\AppData\Local\Temp\cckRJPxS.s 			page 17


 740              		@ args = 0, pretend = 0, frame = 0
 741              		@ frame_needed = 0, uses_anonymous_args = 0
 742              		.loc 1 150 1 is_stmt 0 view .LVU138
 743 0000 38B5     		push	{r3, r4, r5, lr}
 744              	.LCFI20:
 745              		.cfi_def_cfa_offset 16
 746              		.cfi_offset 3, -16
 747              		.cfi_offset 4, -12
 748              		.cfi_offset 5, -8
 749              		.cfi_offset 14, -4
 750 0002 0446     		mov	r4, r0
 151:user/w25q32.c ****     FLASH_CS_Low();
 751              		.loc 1 151 5 is_stmt 1 view .LVU139
 752 0004 084D     		ldr	r5, .L53
 753 0006 0022     		movs	r2, #0
 754 0008 1021     		movs	r1, #16
 755 000a 2846     		mov	r0, r5
 756              	.LVL58:
 757              		.loc 1 151 5 is_stmt 0 view .LVU140
 758 000c FFF7FEFF 		bl	HAL_GPIO_WritePin
 759              	.LVL59:
 760              		.loc 1 151 19 is_stmt 1 view .LVU141
 152:user/w25q32.c ****     SPI2_Write(WRSR_CMD); 
 761              		.loc 1 152 5 view .LVU142
 762 0010 0120     		movs	r0, #1
 763 0012 FFF7FEFF 		bl	SPI2_Write
 764              	.LVL60:
 153:user/w25q32.c ****     SPI2_Write(flashSta); 
 765              		.loc 1 153 5 view .LVU143
 766 0016 2046     		mov	r0, r4
 767 0018 FFF7FEFF 		bl	SPI2_Write
 768              	.LVL61:
 154:user/w25q32.c ****     FLASH_CS_High();    
 769              		.loc 1 154 5 view .LVU144
 770 001c 0122     		movs	r2, #1
 771 001e 1021     		movs	r1, #16
 772 0020 2846     		mov	r0, r5
 773 0022 FFF7FEFF 		bl	HAL_GPIO_WritePin
 774              	.LVL62:
 155:user/w25q32.c **** }
 775              		.loc 1 155 1 is_stmt 0 view .LVU145
 776 0026 38BD     		pop	{r3, r4, r5, pc}
 777              	.L54:
 778              		.align	2
 779              	.L53:
 780 0028 00000240 		.word	1073872896
 781              		.cfi_endproc
 782              	.LFE144:
 784              		.section	.text.FlashPage_Write,"ax",%progbits
 785              		.align	1
 786              		.global	FlashPage_Write
 787              		.syntax unified
 788              		.thumb
 789              		.thumb_func
 791              	FlashPage_Write:
 792              	.LVL63:
 793              	.LFB145:
ARM GAS  C:\Users\ADMINI~1\AppData\Local\Temp\cckRJPxS.s 			page 18


 156:user/w25q32.c **** /*---- F L A S H   P A G E _   W R I T E ----
 157:user/w25q32.c **** ÔøΩÔøΩÔøΩÔøΩÔøΩ‹°ÔøΩÔøΩÔøΩ****
 158:user/w25q32.c **** ÔøΩÔøΩÔøΩÔøΩÔøΩÔøΩÔøΩÔøΩÔøΩÔøΩpageAddr:“≥ÔøΩÔøΩ÷∑ÔøΩÔøΩÔøΩ⁄∫ÔøΩÔøΩÔøΩÔøΩÔøΩÔøΩŸ≥ÔøΩÔøΩÔøΩ“≥ÔøΩÔøΩ–°
 159:user/w25q32.c ****           *ptr:     ÷∏ÔøΩÔøΩ“™–¥ÔøΩÔøΩÔøΩÔøΩÔøΩ›µÔøΩÔøΩÔøΩ÷∑ÔøΩÔøΩ
 160:user/w25q32.c ****           pageSize: “≥ÔøΩƒ¥ÔøΩ–°ÔøΩÔøΩ“ªÔøΩÔøΩÔøΩÔøΩ FLASH_PAGE_SIZE 
 161:user/w25q32.c **** ÔøΩÔøΩÔøΩÔøΩÔøΩÿ°ÔøΩÔøΩÔøΩ****
 162:user/w25q32.c **** ÔøΩÔøΩÀµÔøΩÔøΩÔøΩÔøΩÔøΩÔøΩÔøΩÔøΩÔøΩ⁄¥ÔøΩflash ÔøΩÔøΩÔøΩÔøΩÔøΩÔøΩÔøΩÔøΩÔøΩÔøΩƒµÔøΩ÷∑ŒªŒ™24bit ÔøΩÔøΩ
 163:user/w25q32.c ****           ÔøΩÔøΩÔøΩ–°ÔøΩÔøΩ“≥ÔøΩÔøΩŒßÔøΩÔøΩÔøΩÔøΩ“≥ÔøΩÔøΩÔøΩÔøΩ‘≠ÔøΩÔøΩÔøΩÊ¥¢ÔøΩÔøΩÔøΩÔøΩÔøΩ›≤ÔøΩÔø
 164:user/w25q32.c **** --------------ÔøΩÔøΩÔøΩÔøΩ:ÔøΩÔøΩ“µÔøΩÔøΩ   2012ÔøΩÔøΩ10ÔøΩÔøΩ23ÔøΩÔøΩÔøΩÔøΩÔøΩ⁄∂ÔøΩ13:52:53-------
 165:user/w25q32.c **** void FlashPage_Write(uint16_t pageAddr,uint8_t *ptr,uint32_t pageSize)
 166:user/w25q32.c **** {
 794              		.loc 1 166 1 is_stmt 1 view -0
 795              		.cfi_startproc
 796              		@ args = 0, pretend = 0, frame = 0
 797              		@ frame_needed = 0, uses_anonymous_args = 0
 798              		.loc 1 166 1 is_stmt 0 view .LVU147
 799 0000 F8B5     		push	{r3, r4, r5, r6, r7, lr}
 800              	.LCFI21:
 801              		.cfi_def_cfa_offset 24
 802              		.cfi_offset 3, -24
 803              		.cfi_offset 4, -20
 804              		.cfi_offset 5, -16
 805              		.cfi_offset 6, -12
 806              		.cfi_offset 7, -8
 807              		.cfi_offset 14, -4
 808 0002 0546     		mov	r5, r0
 809 0004 0C46     		mov	r4, r1
 810 0006 1646     		mov	r6, r2
 167:user/w25q32.c ****     uint32_t addr,i;
 811              		.loc 1 167 5 is_stmt 1 view .LVU148
 168:user/w25q32.c **** //	    addr=pageAddr*FLASH_PAGE_SIZE;
 169:user/w25q32.c ****     addr=((uint32_t)pageAddr)<<8;  
 812              		.loc 1 169 5 view .LVU149
 813              		.loc 1 169 9 is_stmt 0 view .LVU150
 814 0008 0702     		lsls	r7, r0, #8
 815              	.LVL64:
 170:user/w25q32.c ****     FlashWait_Busy();
 816              		.loc 1 170 5 is_stmt 1 view .LVU151
 817 000a FFF7FEFF 		bl	FlashWait_Busy
 818              	.LVL65:
 171:user/w25q32.c ****     FlashWriteEnable();  
 819              		.loc 1 171 5 view .LVU152
 820 000e FFF7FEFF 		bl	FlashWriteEnable
 821              	.LVL66:
 172:user/w25q32.c ****     FLASH_CS_Low();
 822              		.loc 1 172 5 view .LVU153
 823 0012 0022     		movs	r2, #0
 824 0014 1021     		movs	r1, #16
 825 0016 0F48     		ldr	r0, .L59
 826 0018 FFF7FEFF 		bl	HAL_GPIO_WritePin
 827              	.LVL67:
 828              		.loc 1 172 19 view .LVU154
 173:user/w25q32.c ****     SPI2_Write(PP_CMD); 
 829              		.loc 1 173 5 view .LVU155
 830 001c 0220     		movs	r0, #2
 831 001e FFF7FEFF 		bl	SPI2_Write
 832              	.LVL68:
ARM GAS  C:\Users\ADMINI~1\AppData\Local\Temp\cckRJPxS.s 			page 19


 174:user/w25q32.c ****     SPI2_Write(addr>>16);
 833              		.loc 1 174 5 view .LVU156
 834 0022 380C     		lsrs	r0, r7, #16
 835 0024 FFF7FEFF 		bl	SPI2_Write
 836              	.LVL69:
 175:user/w25q32.c ****     SPI2_Write(addr>>8);
 837              		.loc 1 175 5 view .LVU157
 838 0028 E8B2     		uxtb	r0, r5
 839 002a FFF7FEFF 		bl	SPI2_Write
 840              	.LVL70:
 176:user/w25q32.c ****     SPI2_Write(addr); 
 841              		.loc 1 176 5 view .LVU158
 842 002e 0020     		movs	r0, #0
 843 0030 FFF7FEFF 		bl	SPI2_Write
 844              	.LVL71:
 177:user/w25q32.c ****     for(i=0;i<pageSize;i++)
 845              		.loc 1 177 5 view .LVU159
 846              		.loc 1 177 10 is_stmt 0 view .LVU160
 847 0034 0025     		movs	r5, #0
 848              		.loc 1 177 5 view .LVU161
 849 0036 04E0     		b	.L56
 850              	.LVL72:
 851              	.L57:
 178:user/w25q32.c ****         SPI2_Write(*ptr++); 
 852              		.loc 1 178 9 is_stmt 1 discriminator 3 view .LVU162
 853              		.loc 1 178 9 is_stmt 0 discriminator 3 view .LVU163
 854 0038 14F8010B 		ldrb	r0, [r4], #1	@ zero_extendqisi2
 855              	.LVL73:
 856              		.loc 1 178 9 discriminator 3 view .LVU164
 857 003c FFF7FEFF 		bl	SPI2_Write
 858              	.LVL74:
 177:user/w25q32.c ****     for(i=0;i<pageSize;i++)
 859              		.loc 1 177 24 is_stmt 1 discriminator 3 view .LVU165
 177:user/w25q32.c ****     for(i=0;i<pageSize;i++)
 860              		.loc 1 177 25 is_stmt 0 discriminator 3 view .LVU166
 861 0040 0135     		adds	r5, r5, #1
 862              	.LVL75:
 863              	.L56:
 177:user/w25q32.c ****     for(i=0;i<pageSize;i++)
 864              		.loc 1 177 13 is_stmt 1 discriminator 1 view .LVU167
 177:user/w25q32.c ****     for(i=0;i<pageSize;i++)
 865              		.loc 1 177 5 is_stmt 0 discriminator 1 view .LVU168
 866 0042 B542     		cmp	r5, r6
 867 0044 F8D3     		bcc	.L57
 179:user/w25q32.c ****     FLASH_CS_High();  
 868              		.loc 1 179 5 is_stmt 1 view .LVU169
 869 0046 0122     		movs	r2, #1
 870 0048 1021     		movs	r1, #16
 871 004a 0248     		ldr	r0, .L59
 872 004c FFF7FEFF 		bl	HAL_GPIO_WritePin
 873              	.LVL76:
 180:user/w25q32.c ****     
 181:user/w25q32.c **** }
 874              		.loc 1 181 1 is_stmt 0 view .LVU170
 875 0050 F8BD     		pop	{r3, r4, r5, r6, r7, pc}
 876              	.LVL77:
 877              	.L60:
ARM GAS  C:\Users\ADMINI~1\AppData\Local\Temp\cckRJPxS.s 			page 20


 878              		.loc 1 181 1 view .LVU171
 879 0052 00BF     		.align	2
 880              	.L59:
 881 0054 00000240 		.word	1073872896
 882              		.cfi_endproc
 883              	.LFE145:
 885              		.section	.text.FlashChip_Erase,"ax",%progbits
 886              		.align	1
 887              		.global	FlashChip_Erase
 888              		.syntax unified
 889              		.thumb
 890              		.thumb_func
 892              	FlashChip_Erase:
 893              	.LFB146:
 182:user/w25q32.c **** void FlashChip_Erase(void)
 183:user/w25q32.c **** {
 894              		.loc 1 183 1 is_stmt 1 view -0
 895              		.cfi_startproc
 896              		@ args = 0, pretend = 0, frame = 0
 897              		@ frame_needed = 0, uses_anonymous_args = 0
 898 0000 10B5     		push	{r4, lr}
 899              	.LCFI22:
 900              		.cfi_def_cfa_offset 8
 901              		.cfi_offset 4, -8
 902              		.cfi_offset 14, -4
 184:user/w25q32.c ****     FlashWait_Busy();
 903              		.loc 1 184 5 view .LVU173
 904 0002 FFF7FEFF 		bl	FlashWait_Busy
 905              	.LVL78:
 185:user/w25q32.c ****     FlashWriteEnable();    
 906              		.loc 1 185 5 view .LVU174
 907 0006 FFF7FEFF 		bl	FlashWriteEnable
 908              	.LVL79:
 186:user/w25q32.c ****     FLASH_CS_Low();
 909              		.loc 1 186 5 view .LVU175
 910 000a 074C     		ldr	r4, .L63
 911 000c 0022     		movs	r2, #0
 912 000e 1021     		movs	r1, #16
 913 0010 2046     		mov	r0, r4
 914 0012 FFF7FEFF 		bl	HAL_GPIO_WritePin
 915              	.LVL80:
 916              		.loc 1 186 19 view .LVU176
 187:user/w25q32.c ****     SPI2_Write(CE_CMD);     
 917              		.loc 1 187 5 view .LVU177
 918 0016 6020     		movs	r0, #96
 919 0018 FFF7FEFF 		bl	SPI2_Write
 920              	.LVL81:
 188:user/w25q32.c ****     FLASH_CS_High();    
 921              		.loc 1 188 5 view .LVU178
 922 001c 0122     		movs	r2, #1
 923 001e 1021     		movs	r1, #16
 924 0020 2046     		mov	r0, r4
 925 0022 FFF7FEFF 		bl	HAL_GPIO_WritePin
 926              	.LVL82:
 189:user/w25q32.c **** }
 927              		.loc 1 189 1 is_stmt 0 view .LVU179
 928 0026 10BD     		pop	{r4, pc}
ARM GAS  C:\Users\ADMINI~1\AppData\Local\Temp\cckRJPxS.s 			page 21


 929              	.L64:
 930              		.align	2
 931              	.L63:
 932 0028 00000240 		.word	1073872896
 933              		.cfi_endproc
 934              	.LFE146:
 936              		.section	.text.FlashBlock_Erase,"ax",%progbits
 937              		.align	1
 938              		.global	FlashBlock_Erase
 939              		.syntax unified
 940              		.thumb
 941              		.thumb_func
 943              	FlashBlock_Erase:
 944              	.LVL83:
 945              	.LFB147:
 190:user/w25q32.c **** /*---- F L A S H   B L O C K _   E R A S E ----
 191:user/w25q32.c **** ÔøΩÔøΩÔøΩÔøΩÔøΩ‹°ÔøΩÔøΩÔøΩ****
 192:user/w25q32.c **** ÔøΩÔøΩÔøΩÔøΩÔøΩÔøΩÔøΩÔøΩÔøΩÔøΩblock: 0~256
 193:user/w25q32.c **** ÔøΩÔøΩÔøΩÔøΩÔøΩÿ°ÔøΩÔøΩÔøΩ****
 194:user/w25q32.c **** ÔøΩÔøΩÀµÔøΩÔøΩÔøΩÔøΩÔøΩÔøΩ****
 195:user/w25q32.c **** --------------ÔøΩÔøΩÔøΩÔøΩ:ÔøΩÔøΩ“µÔøΩÔøΩ   2012ÔøΩÔøΩ10ÔøΩÔøΩ23ÔøΩÔøΩÔøΩÔøΩÔøΩ⁄∂ÔøΩ14:43:05-------
 196:user/w25q32.c **** void FlashBlock_Erase(uint8_t blockAddr)
 197:user/w25q32.c **** {
 946              		.loc 1 197 1 is_stmt 1 view -0
 947              		.cfi_startproc
 948              		@ args = 0, pretend = 0, frame = 0
 949              		@ frame_needed = 0, uses_anonymous_args = 0
 950              		.loc 1 197 1 is_stmt 0 view .LVU181
 951 0000 38B5     		push	{r3, r4, r5, lr}
 952              	.LCFI23:
 953              		.cfi_def_cfa_offset 16
 954              		.cfi_offset 3, -16
 955              		.cfi_offset 4, -12
 956              		.cfi_offset 5, -8
 957              		.cfi_offset 14, -4
 958 0002 0446     		mov	r4, r0
 198:user/w25q32.c ****     uint32_t addr;//,i;
 959              		.loc 1 198 5 is_stmt 1 view .LVU182
 199:user/w25q32.c **** //	    addr=blockAddr*16*4096;  //√øÔøΩÔøΩblockÔøΩÔøΩ16ÔøΩÔøΩÔøΩÔøΩÔøΩÔøΩÔøΩÔøΩ√øÔøΩÔøΩÔøΩÔøΩÔøΩÔøΩ
 200:user/w25q32.c ****     
 201:user/w25q32.c **** 
 202:user/w25q32.c ****     addr=((uint32_t)blockAddr)<<16;
 960              		.loc 1 202 5 view .LVU183
 203:user/w25q32.c ****     FlashWait_Busy();
 961              		.loc 1 203 5 view .LVU184
 962 0004 FFF7FEFF 		bl	FlashWait_Busy
 963              	.LVL84:
 204:user/w25q32.c ****     FlashWriteEnable();
 964              		.loc 1 204 5 view .LVU185
 965 0008 FFF7FEFF 		bl	FlashWriteEnable
 966              	.LVL85:
 205:user/w25q32.c ****     FLASH_CS_Low();
 967              		.loc 1 205 5 view .LVU186
 968 000c 0B4D     		ldr	r5, .L67
 969 000e 0022     		movs	r2, #0
 970 0010 1021     		movs	r1, #16
 971 0012 2846     		mov	r0, r5
ARM GAS  C:\Users\ADMINI~1\AppData\Local\Temp\cckRJPxS.s 			page 22


 972 0014 FFF7FEFF 		bl	HAL_GPIO_WritePin
 973              	.LVL86:
 974              		.loc 1 205 19 view .LVU187
 206:user/w25q32.c ****     SPI2_Write(BE_CMD); 
 975              		.loc 1 206 5 view .LVU188
 976 0018 5220     		movs	r0, #82
 977 001a FFF7FEFF 		bl	SPI2_Write
 978              	.LVL87:
 207:user/w25q32.c ****     SPI2_Write(addr>>16);
 979              		.loc 1 207 5 view .LVU189
 980 001e 2046     		mov	r0, r4
 981 0020 FFF7FEFF 		bl	SPI2_Write
 982              	.LVL88:
 208:user/w25q32.c ****     SPI2_Write(addr>>8);
 983              		.loc 1 208 5 view .LVU190
 984 0024 0020     		movs	r0, #0
 985 0026 FFF7FEFF 		bl	SPI2_Write
 986              	.LVL89:
 209:user/w25q32.c ****     SPI2_Write(addr); 
 987              		.loc 1 209 5 view .LVU191
 988 002a 0020     		movs	r0, #0
 989 002c FFF7FEFF 		bl	SPI2_Write
 990              	.LVL90:
 210:user/w25q32.c ****     FLASH_CS_High();    
 991              		.loc 1 210 5 view .LVU192
 992 0030 0122     		movs	r2, #1
 993 0032 1021     		movs	r1, #16
 994 0034 2846     		mov	r0, r5
 995 0036 FFF7FEFF 		bl	HAL_GPIO_WritePin
 996              	.LVL91:
 211:user/w25q32.c **** }
 997              		.loc 1 211 1 is_stmt 0 view .LVU193
 998 003a 38BD     		pop	{r3, r4, r5, pc}
 999              	.L68:
 1000              		.align	2
 1001              	.L67:
 1002 003c 00000240 		.word	1073872896
 1003              		.cfi_endproc
 1004              	.LFE147:
 1006              		.section	.text.FlashSector_Erase,"ax",%progbits
 1007              		.align	1
 1008              		.global	FlashSector_Erase
 1009              		.syntax unified
 1010              		.thumb
 1011              		.thumb_func
 1013              	FlashSector_Erase:
 1014              	.LVL92:
 1015              	.LFB148:
 212:user/w25q32.c **** /*---- F L A S H   S E C T O R _   E R A S E ----
 213:user/w25q32.c **** ÔøΩÔøΩÔøΩÔøΩÔøΩ‹°ÔøΩÔøΩÔøΩ****
 214:user/w25q32.c **** ÔøΩÔøΩÔøΩÔøΩÔøΩÔøΩÔøΩÔøΩÔøΩÔøΩsectorAddr: 0~4096
 215:user/w25q32.c **** ÔøΩÔøΩÔøΩÔøΩÔøΩÿ°ÔøΩÔøΩÔøΩ****
 216:user/w25q32.c **** ÔøΩÔøΩÀµÔøΩÔøΩÔøΩÔøΩÔøΩÔøΩ****
 217:user/w25q32.c **** --------------ÔøΩÔøΩÔøΩÔøΩ:ÔøΩÔøΩ“µÔøΩÔøΩ   2012ÔøΩÔøΩ10ÔøΩÔøΩ23ÔøΩÔøΩÔøΩÔøΩÔøΩ⁄∂ÔøΩ14:45:28-------
 218:user/w25q32.c **** void FlashSector_Erase(uint16_t sectorAddr)
 219:user/w25q32.c **** {
 1016              		.loc 1 219 1 is_stmt 1 view -0
ARM GAS  C:\Users\ADMINI~1\AppData\Local\Temp\cckRJPxS.s 			page 23


 1017              		.cfi_startproc
 1018              		@ args = 0, pretend = 0, frame = 0
 1019              		@ frame_needed = 0, uses_anonymous_args = 0
 1020              		.loc 1 219 1 is_stmt 0 view .LVU195
 1021 0000 38B5     		push	{r3, r4, r5, lr}
 1022              	.LCFI24:
 1023              		.cfi_def_cfa_offset 16
 1024              		.cfi_offset 3, -16
 1025              		.cfi_offset 4, -12
 1026              		.cfi_offset 5, -8
 1027              		.cfi_offset 14, -4
 220:user/w25q32.c ****     uint32_t addr;//,i;
 1028              		.loc 1 220 5 is_stmt 1 view .LVU196
 221:user/w25q32.c ****     addr=((uint32_t)sectorAddr)<<12;
 1029              		.loc 1 221 5 view .LVU197
 1030              		.loc 1 221 9 is_stmt 0 view .LVU198
 1031 0002 0403     		lsls	r4, r0, #12
 1032              	.LVL93:
 222:user/w25q32.c ****     FlashWait_Busy();
 1033              		.loc 1 222 5 is_stmt 1 view .LVU199
 1034 0004 FFF7FEFF 		bl	FlashWait_Busy
 1035              	.LVL94:
 223:user/w25q32.c ****     FlashWriteEnable();
 1036              		.loc 1 223 5 view .LVU200
 1037 0008 FFF7FEFF 		bl	FlashWriteEnable
 1038              	.LVL95:
 224:user/w25q32.c ****     FLASH_CS_Low();
 1039              		.loc 1 224 5 view .LVU201
 1040 000c 0D4D     		ldr	r5, .L71
 1041 000e 0022     		movs	r2, #0
 1042 0010 1021     		movs	r1, #16
 1043 0012 2846     		mov	r0, r5
 1044 0014 FFF7FEFF 		bl	HAL_GPIO_WritePin
 1045              	.LVL96:
 1046              		.loc 1 224 19 view .LVU202
 225:user/w25q32.c ****     SPI2_Write(SE_CMD); 
 1047              		.loc 1 225 5 view .LVU203
 1048 0018 2020     		movs	r0, #32
 1049 001a FFF7FEFF 		bl	SPI2_Write
 1050              	.LVL97:
 226:user/w25q32.c ****     SPI2_Write(addr>>16);
 1051              		.loc 1 226 5 view .LVU204
 1052 001e C4F30740 		ubfx	r0, r4, #16, #8
 1053 0022 FFF7FEFF 		bl	SPI2_Write
 1054              	.LVL98:
 227:user/w25q32.c ****     SPI2_Write(addr>>8);
 1055              		.loc 1 227 5 view .LVU205
 1056              		.loc 1 227 20 is_stmt 0 view .LVU206
 1057 0026 200A     		lsrs	r0, r4, #8
 1058              		.loc 1 227 5 view .LVU207
 1059 0028 00F0F000 		and	r0, r0, #240
 1060 002c FFF7FEFF 		bl	SPI2_Write
 1061              	.LVL99:
 228:user/w25q32.c ****     SPI2_Write(addr); 
 1062              		.loc 1 228 5 is_stmt 1 view .LVU208
 1063 0030 0020     		movs	r0, #0
 1064 0032 FFF7FEFF 		bl	SPI2_Write
ARM GAS  C:\Users\ADMINI~1\AppData\Local\Temp\cckRJPxS.s 			page 24


 1065              	.LVL100:
 229:user/w25q32.c ****     FLASH_CS_High();    
 1066              		.loc 1 229 5 view .LVU209
 1067 0036 0122     		movs	r2, #1
 1068 0038 1021     		movs	r1, #16
 1069 003a 2846     		mov	r0, r5
 1070 003c FFF7FEFF 		bl	HAL_GPIO_WritePin
 1071              	.LVL101:
 230:user/w25q32.c **** }
 1072              		.loc 1 230 1 is_stmt 0 view .LVU210
 1073 0040 38BD     		pop	{r3, r4, r5, pc}
 1074              	.LVL102:
 1075              	.L72:
 1076              		.loc 1 230 1 view .LVU211
 1077 0042 00BF     		.align	2
 1078              	.L71:
 1079 0044 00000240 		.word	1073872896
 1080              		.cfi_endproc
 1081              	.LFE148:
 1083              		.section	.text.FlashRead,"ax",%progbits
 1084              		.align	1
 1085              		.global	FlashRead
 1086              		.syntax unified
 1087              		.thumb
 1088              		.thumb_func
 1090              	FlashRead:
 1091              	.LVL103:
 1092              	.LFB149:
 231:user/w25q32.c **** void FlashRead(uint32_t addr,uint8_t *ptr,uint32_t len)
 232:user/w25q32.c **** {
 1093              		.loc 1 232 1 is_stmt 1 view -0
 1094              		.cfi_startproc
 1095              		@ args = 0, pretend = 0, frame = 0
 1096              		@ frame_needed = 0, uses_anonymous_args = 0
 1097              		.loc 1 232 1 is_stmt 0 view .LVU213
 1098 0000 70B5     		push	{r4, r5, r6, lr}
 1099              	.LCFI25:
 1100              		.cfi_def_cfa_offset 16
 1101              		.cfi_offset 4, -16
 1102              		.cfi_offset 5, -12
 1103              		.cfi_offset 6, -8
 1104              		.cfi_offset 14, -4
 1105 0002 0C46     		mov	r4, r1
 1106 0004 1646     		mov	r6, r2
 233:user/w25q32.c ****     uint32_t addr_tmp,i;
 1107              		.loc 1 233 5 is_stmt 1 view .LVU214
 234:user/w25q32.c ****     addr_tmp=addr&0x00ffffff;
 1108              		.loc 1 234 5 view .LVU215
 1109              		.loc 1 234 13 is_stmt 0 view .LVU216
 1110 0006 20F07F45 		bic	r5, r0, #-16777216
 1111              	.LVL104:
 235:user/w25q32.c ****     FlashWait_Busy();    
 1112              		.loc 1 235 5 is_stmt 1 view .LVU217
 1113 000a FFF7FEFF 		bl	FlashWait_Busy
 1114              	.LVL105:
 236:user/w25q32.c ****     FLASH_CS_Low();
 1115              		.loc 1 236 5 view .LVU218
ARM GAS  C:\Users\ADMINI~1\AppData\Local\Temp\cckRJPxS.s 			page 25


 1116 000e 0022     		movs	r2, #0
 1117 0010 1021     		movs	r1, #16
 1118 0012 0F48     		ldr	r0, .L77
 1119 0014 FFF7FEFF 		bl	HAL_GPIO_WritePin
 1120              	.LVL106:
 1121              		.loc 1 236 19 view .LVU219
 237:user/w25q32.c ****     SPI2_Write(READ_CMD); 
 1122              		.loc 1 237 5 view .LVU220
 1123 0018 0320     		movs	r0, #3
 1124 001a FFF7FEFF 		bl	SPI2_Write
 1125              	.LVL107:
 238:user/w25q32.c ****     SPI2_Write(addr_tmp>>16);
 1126              		.loc 1 238 5 view .LVU221
 1127 001e 280C     		lsrs	r0, r5, #16
 1128 0020 FFF7FEFF 		bl	SPI2_Write
 1129              	.LVL108:
 239:user/w25q32.c ****     SPI2_Write(addr_tmp>>8);
 1130              		.loc 1 239 5 view .LVU222
 1131 0024 C5F30720 		ubfx	r0, r5, #8, #8
 1132 0028 FFF7FEFF 		bl	SPI2_Write
 1133              	.LVL109:
 240:user/w25q32.c ****     SPI2_Write(addr_tmp); 
 1134              		.loc 1 240 5 view .LVU223
 1135 002c E8B2     		uxtb	r0, r5
 1136 002e FFF7FEFF 		bl	SPI2_Write
 1137              	.LVL110:
 241:user/w25q32.c ****     for(i=0;i<len;i++)
 1138              		.loc 1 241 5 view .LVU224
 1139              		.loc 1 241 10 is_stmt 0 view .LVU225
 1140 0032 0025     		movs	r5, #0
 1141              	.LVL111:
 1142              		.loc 1 241 5 view .LVU226
 1143 0034 04E0     		b	.L74
 1144              	.LVL112:
 1145              	.L75:
 242:user/w25q32.c ****         *ptr++=SPI2_Read(); 
 1146              		.loc 1 242 9 is_stmt 1 discriminator 3 view .LVU227
 1147              		.loc 1 242 16 is_stmt 0 discriminator 3 view .LVU228
 1148 0036 FFF7FEFF 		bl	SPI2_Read
 1149              	.LVL113:
 1150              		.loc 1 242 15 discriminator 3 view .LVU229
 1151 003a 04F8010B 		strb	r0, [r4], #1
 1152              	.LVL114:
 241:user/w25q32.c ****     for(i=0;i<len;i++)
 1153              		.loc 1 241 19 is_stmt 1 discriminator 3 view .LVU230
 241:user/w25q32.c ****     for(i=0;i<len;i++)
 1154              		.loc 1 241 20 is_stmt 0 discriminator 3 view .LVU231
 1155 003e 0135     		adds	r5, r5, #1
 1156              	.LVL115:
 1157              	.L74:
 241:user/w25q32.c ****     for(i=0;i<len;i++)
 1158              		.loc 1 241 13 is_stmt 1 discriminator 1 view .LVU232
 241:user/w25q32.c ****     for(i=0;i<len;i++)
 1159              		.loc 1 241 5 is_stmt 0 discriminator 1 view .LVU233
 1160 0040 B542     		cmp	r5, r6
 1161 0042 F8D3     		bcc	.L75
 243:user/w25q32.c ****     FLASH_CS_High();    
ARM GAS  C:\Users\ADMINI~1\AppData\Local\Temp\cckRJPxS.s 			page 26


 1162              		.loc 1 243 5 is_stmt 1 view .LVU234
 1163 0044 0122     		movs	r2, #1
 1164 0046 1021     		movs	r1, #16
 1165 0048 0148     		ldr	r0, .L77
 1166 004a FFF7FEFF 		bl	HAL_GPIO_WritePin
 1167              	.LVL116:
 244:user/w25q32.c **** }
 1168              		.loc 1 244 1 is_stmt 0 view .LVU235
 1169 004e 70BD     		pop	{r4, r5, r6, pc}
 1170              	.LVL117:
 1171              	.L78:
 1172              		.loc 1 244 1 view .LVU236
 1173              		.align	2
 1174              	.L77:
 1175 0050 00000240 		.word	1073872896
 1176              		.cfi_endproc
 1177              	.LFE149:
 1179              		.section	.text.FlashPage_Read,"ax",%progbits
 1180              		.align	1
 1181              		.global	FlashPage_Read
 1182              		.syntax unified
 1183              		.thumb
 1184              		.thumb_func
 1186              	FlashPage_Read:
 1187              	.LVL118:
 1188              	.LFB150:
 245:user/w25q32.c **** /*---- F L A S H   P A G E _   R E A D ----
 246:user/w25q32.c **** ÔøΩÔøΩÔøΩÔøΩÔøΩ‹°ÔøΩÔøΩÔøΩ****
 247:user/w25q32.c **** ÔøΩÔøΩÔøΩÔøΩÔøΩÔøΩÔøΩÔøΩÔøΩÔøΩpageAddr:“≥ÔøΩÔøΩ÷∑ÔøΩÔøΩÔøΩ⁄∫ÔøΩÔøΩÔøΩÔøΩÔøΩÔøΩŸ≥ÔøΩÔøΩÔøΩ“≥ÔøΩÔøΩ–°
 248:user/w25q32.c **** ÔøΩÔøΩÔøΩÔøΩÔøΩÿ°ÔøΩÔøΩÔøΩ****
 249:user/w25q32.c **** ÔøΩÔøΩÀµÔøΩÔøΩÔøΩÔøΩÔøΩÔøΩ****
 250:user/w25q32.c **** --------------ÔøΩÔøΩÔøΩÔøΩ:ÔøΩÔøΩ“µÔøΩÔøΩ   2012ÔøΩÔøΩ10ÔøΩÔøΩ23ÔøΩÔøΩÔøΩÔøΩÔøΩ⁄∂ÔøΩ15:11:50-------
 251:user/w25q32.c **** void FlashPage_Read(uint16_t pageAddr,uint8_t *ptr,uint32_t pageSize)
 252:user/w25q32.c **** {
 1189              		.loc 1 252 1 is_stmt 1 view -0
 1190              		.cfi_startproc
 1191              		@ args = 0, pretend = 0, frame = 0
 1192              		@ frame_needed = 0, uses_anonymous_args = 0
 1193              		.loc 1 252 1 is_stmt 0 view .LVU238
 1194 0000 F8B5     		push	{r3, r4, r5, r6, r7, lr}
 1195              	.LCFI26:
 1196              		.cfi_def_cfa_offset 24
 1197              		.cfi_offset 3, -24
 1198              		.cfi_offset 4, -20
 1199              		.cfi_offset 5, -16
 1200              		.cfi_offset 6, -12
 1201              		.cfi_offset 7, -8
 1202              		.cfi_offset 14, -4
 1203 0002 0546     		mov	r5, r0
 1204 0004 0C46     		mov	r4, r1
 1205 0006 1646     		mov	r6, r2
 253:user/w25q32.c ****     uint32_t addr,i;
 1206              		.loc 1 253 5 is_stmt 1 view .LVU239
 254:user/w25q32.c **** //	    addr=pageAddr*FLASH_PAGE_SIZE;
 255:user/w25q32.c ****     addr=((uint32_t)pageAddr)<<8;
 1207              		.loc 1 255 5 view .LVU240
 1208              		.loc 1 255 9 is_stmt 0 view .LVU241
ARM GAS  C:\Users\ADMINI~1\AppData\Local\Temp\cckRJPxS.s 			page 27


 1209 0008 0702     		lsls	r7, r0, #8
 1210              	.LVL119:
 256:user/w25q32.c ****     FlashWait_Busy();   
 1211              		.loc 1 256 5 is_stmt 1 view .LVU242
 1212 000a FFF7FEFF 		bl	FlashWait_Busy
 1213              	.LVL120:
 257:user/w25q32.c ****     FLASH_CS_Low();
 1214              		.loc 1 257 5 view .LVU243
 1215 000e 0022     		movs	r2, #0
 1216 0010 1021     		movs	r1, #16
 1217 0012 0F48     		ldr	r0, .L83
 1218 0014 FFF7FEFF 		bl	HAL_GPIO_WritePin
 1219              	.LVL121:
 1220              		.loc 1 257 19 view .LVU244
 258:user/w25q32.c ****     SPI2_Write(READ_CMD); 
 1221              		.loc 1 258 5 view .LVU245
 1222 0018 0320     		movs	r0, #3
 1223 001a FFF7FEFF 		bl	SPI2_Write
 1224              	.LVL122:
 259:user/w25q32.c ****     SPI2_Write(addr>>16);
 1225              		.loc 1 259 5 view .LVU246
 1226 001e 380C     		lsrs	r0, r7, #16
 1227 0020 FFF7FEFF 		bl	SPI2_Write
 1228              	.LVL123:
 260:user/w25q32.c ****     SPI2_Write(addr>>8);
 1229              		.loc 1 260 5 view .LVU247
 1230 0024 E8B2     		uxtb	r0, r5
 1231 0026 FFF7FEFF 		bl	SPI2_Write
 1232              	.LVL124:
 261:user/w25q32.c ****     SPI2_Write(addr); 
 1233              		.loc 1 261 5 view .LVU248
 1234 002a 0020     		movs	r0, #0
 1235 002c FFF7FEFF 		bl	SPI2_Write
 1236              	.LVL125:
 262:user/w25q32.c ****     for(i=0;i<pageSize;i++)
 1237              		.loc 1 262 5 view .LVU249
 1238              		.loc 1 262 10 is_stmt 0 view .LVU250
 1239 0030 0025     		movs	r5, #0
 1240              		.loc 1 262 5 view .LVU251
 1241 0032 04E0     		b	.L80
 1242              	.LVL126:
 1243              	.L81:
 263:user/w25q32.c ****         *ptr++=SPI2_Read(); 
 1244              		.loc 1 263 9 is_stmt 1 discriminator 3 view .LVU252
 1245              		.loc 1 263 16 is_stmt 0 discriminator 3 view .LVU253
 1246 0034 FFF7FEFF 		bl	SPI2_Read
 1247              	.LVL127:
 1248              		.loc 1 263 15 discriminator 3 view .LVU254
 1249 0038 04F8010B 		strb	r0, [r4], #1
 1250              	.LVL128:
 262:user/w25q32.c ****     for(i=0;i<pageSize;i++)
 1251              		.loc 1 262 24 is_stmt 1 discriminator 3 view .LVU255
 262:user/w25q32.c ****     for(i=0;i<pageSize;i++)
 1252              		.loc 1 262 25 is_stmt 0 discriminator 3 view .LVU256
 1253 003c 0135     		adds	r5, r5, #1
 1254              	.LVL129:
 1255              	.L80:
ARM GAS  C:\Users\ADMINI~1\AppData\Local\Temp\cckRJPxS.s 			page 28


 262:user/w25q32.c ****     for(i=0;i<pageSize;i++)
 1256              		.loc 1 262 13 is_stmt 1 discriminator 1 view .LVU257
 262:user/w25q32.c ****     for(i=0;i<pageSize;i++)
 1257              		.loc 1 262 5 is_stmt 0 discriminator 1 view .LVU258
 1258 003e B542     		cmp	r5, r6
 1259 0040 F8D3     		bcc	.L81
 264:user/w25q32.c ****     FLASH_CS_High();    
 1260              		.loc 1 264 5 is_stmt 1 view .LVU259
 1261 0042 0122     		movs	r2, #1
 1262 0044 1021     		movs	r1, #16
 1263 0046 0248     		ldr	r0, .L83
 1264 0048 FFF7FEFF 		bl	HAL_GPIO_WritePin
 1265              	.LVL130:
 265:user/w25q32.c **** }
 1266              		.loc 1 265 1 is_stmt 0 view .LVU260
 1267 004c F8BD     		pop	{r3, r4, r5, r6, r7, pc}
 1268              	.LVL131:
 1269              	.L84:
 1270              		.loc 1 265 1 view .LVU261
 1271 004e 00BF     		.align	2
 1272              	.L83:
 1273 0050 00000240 		.word	1073872896
 1274              		.cfi_endproc
 1275              	.LFE150:
 1277              		.section	.text.FlashFastRead,"ax",%progbits
 1278              		.align	1
 1279              		.global	FlashFastRead
 1280              		.syntax unified
 1281              		.thumb
 1282              		.thumb_func
 1284              	FlashFastRead:
 1285              	.LVL132:
 1286              	.LFB151:
 266:user/w25q32.c **** void FlashFastRead(uint32_t addr,uint8_t *ptr,uint32_t len)
 267:user/w25q32.c **** {
 1287              		.loc 1 267 1 is_stmt 1 view -0
 1288              		.cfi_startproc
 1289              		@ args = 0, pretend = 0, frame = 0
 1290              		@ frame_needed = 0, uses_anonymous_args = 0
 1291              		.loc 1 267 1 is_stmt 0 view .LVU263
 1292 0000 70B5     		push	{r4, r5, r6, lr}
 1293              	.LCFI27:
 1294              		.cfi_def_cfa_offset 16
 1295              		.cfi_offset 4, -16
 1296              		.cfi_offset 5, -12
 1297              		.cfi_offset 6, -8
 1298              		.cfi_offset 14, -4
 1299 0002 0C46     		mov	r4, r1
 1300 0004 1646     		mov	r6, r2
 268:user/w25q32.c ****     uint32_t addr_tmp,i;
 1301              		.loc 1 268 5 is_stmt 1 view .LVU264
 269:user/w25q32.c ****     addr_tmp=addr&0x00ffffff;
 1302              		.loc 1 269 5 view .LVU265
 1303              		.loc 1 269 13 is_stmt 0 view .LVU266
 1304 0006 20F07F45 		bic	r5, r0, #-16777216
 1305              	.LVL133:
 270:user/w25q32.c ****     FlashWait_Busy();    
ARM GAS  C:\Users\ADMINI~1\AppData\Local\Temp\cckRJPxS.s 			page 29


 1306              		.loc 1 270 5 is_stmt 1 view .LVU267
 1307 000a FFF7FEFF 		bl	FlashWait_Busy
 1308              	.LVL134:
 271:user/w25q32.c ****     FLASH_CS_Low();
 1309              		.loc 1 271 5 view .LVU268
 1310 000e 0022     		movs	r2, #0
 1311 0010 1021     		movs	r1, #16
 1312 0012 1148     		ldr	r0, .L89
 1313 0014 FFF7FEFF 		bl	HAL_GPIO_WritePin
 1314              	.LVL135:
 1315              		.loc 1 271 19 view .LVU269
 272:user/w25q32.c ****     SPI2_Write(FREAD_CMD); 
 1316              		.loc 1 272 5 view .LVU270
 1317 0018 0B20     		movs	r0, #11
 1318 001a FFF7FEFF 		bl	SPI2_Write
 1319              	.LVL136:
 273:user/w25q32.c ****     SPI2_Write(addr_tmp>>16);
 1320              		.loc 1 273 5 view .LVU271
 1321 001e 280C     		lsrs	r0, r5, #16
 1322 0020 FFF7FEFF 		bl	SPI2_Write
 1323              	.LVL137:
 274:user/w25q32.c ****     SPI2_Write(addr_tmp>>8);
 1324              		.loc 1 274 5 view .LVU272
 1325 0024 C5F30720 		ubfx	r0, r5, #8, #8
 1326 0028 FFF7FEFF 		bl	SPI2_Write
 1327              	.LVL138:
 275:user/w25q32.c ****     SPI2_Write(addr_tmp); 
 1328              		.loc 1 275 5 view .LVU273
 1329 002c E8B2     		uxtb	r0, r5
 1330 002e FFF7FEFF 		bl	SPI2_Write
 1331              	.LVL139:
 276:user/w25q32.c ****     SPI2_Write(DUMMY_BYTE); 
 1332              		.loc 1 276 5 view .LVU274
 1333 0032 FF20     		movs	r0, #255
 1334 0034 FFF7FEFF 		bl	SPI2_Write
 1335              	.LVL140:
 277:user/w25q32.c ****     for(i=0;i<len;i++)
 1336              		.loc 1 277 5 view .LVU275
 1337              		.loc 1 277 10 is_stmt 0 view .LVU276
 1338 0038 0025     		movs	r5, #0
 1339              	.LVL141:
 1340              		.loc 1 277 5 view .LVU277
 1341 003a 04E0     		b	.L86
 1342              	.LVL142:
 1343              	.L87:
 278:user/w25q32.c ****         *ptr++=SPI2_Read(); 
 1344              		.loc 1 278 9 is_stmt 1 discriminator 3 view .LVU278
 1345              		.loc 1 278 16 is_stmt 0 discriminator 3 view .LVU279
 1346 003c FFF7FEFF 		bl	SPI2_Read
 1347              	.LVL143:
 1348              		.loc 1 278 15 discriminator 3 view .LVU280
 1349 0040 04F8010B 		strb	r0, [r4], #1
 1350              	.LVL144:
 277:user/w25q32.c ****     for(i=0;i<len;i++)
 1351              		.loc 1 277 19 is_stmt 1 discriminator 3 view .LVU281
 277:user/w25q32.c ****     for(i=0;i<len;i++)
 1352              		.loc 1 277 20 is_stmt 0 discriminator 3 view .LVU282
ARM GAS  C:\Users\ADMINI~1\AppData\Local\Temp\cckRJPxS.s 			page 30


 1353 0044 0135     		adds	r5, r5, #1
 1354              	.LVL145:
 1355              	.L86:
 277:user/w25q32.c ****     for(i=0;i<len;i++)
 1356              		.loc 1 277 13 is_stmt 1 discriminator 1 view .LVU283
 277:user/w25q32.c ****     for(i=0;i<len;i++)
 1357              		.loc 1 277 5 is_stmt 0 discriminator 1 view .LVU284
 1358 0046 B542     		cmp	r5, r6
 1359 0048 F8D3     		bcc	.L87
 279:user/w25q32.c ****     FLASH_CS_High();    
 1360              		.loc 1 279 5 is_stmt 1 view .LVU285
 1361 004a 0122     		movs	r2, #1
 1362 004c 1021     		movs	r1, #16
 1363 004e 0248     		ldr	r0, .L89
 1364 0050 FFF7FEFF 		bl	HAL_GPIO_WritePin
 1365              	.LVL146:
 280:user/w25q32.c **** }
 1366              		.loc 1 280 1 is_stmt 0 view .LVU286
 1367 0054 70BD     		pop	{r4, r5, r6, pc}
 1368              	.LVL147:
 1369              	.L90:
 1370              		.loc 1 280 1 view .LVU287
 1371 0056 00BF     		.align	2
 1372              	.L89:
 1373 0058 00000240 		.word	1073872896
 1374              		.cfi_endproc
 1375              	.LFE151:
 1377              		.text
 1378              	.Letext0:
 1379              		.file 2 "e:\\program files (x86)\\gnu arm embedded toolchain\\10 2021.10\\arm-none-eabi\\include\\
 1380              		.file 3 "e:\\program files (x86)\\gnu arm embedded toolchain\\10 2021.10\\arm-none-eabi\\include\\
 1381              		.file 4 "Drivers/CMSIS/Device/ST/STM32F4xx/Include/stm32f405xx.h"
 1382              		.file 5 "Drivers/STM32F4xx_HAL_Driver/Inc/stm32f4xx_hal_def.h"
 1383              		.file 6 "Drivers/STM32F4xx_HAL_Driver/Inc/stm32f4xx_hal_gpio.h"
 1384              		.file 7 "Drivers/STM32F4xx_HAL_Driver/Inc/stm32f4xx_hal_dma.h"
 1385              		.file 8 "Drivers/STM32F4xx_HAL_Driver/Inc/stm32f4xx_hal_spi.h"
 1386              		.file 9 "user/w25q32.h"
 1387              		.file 10 "Inc/spi.h"
 1388              		.file 11 "e:\\program files (x86)\\gnu arm embedded toolchain\\10 2021.10\\arm-none-eabi\\include\
 1389              		.file 12 "<built-in>"
ARM GAS  C:\Users\ADMINI~1\AppData\Local\Temp\cckRJPxS.s 			page 31

